
DE10_Standard_Audio.elf:     file format elf32-littlenios2
DE10_Standard_Audio.elf
architecture: nios2:r1, flags 0x00000112:
EXEC_P, HAS_SYMS, D_PAGED
start address 0x05080244

Program Header:
    LOAD off    0x00001000 vaddr 0x05080000 paddr 0x05080000 align 2**12
         filesz 0x00000020 memsz 0x00000020 flags r-x
    LOAD off    0x00001020 vaddr 0x05080020 paddr 0x05080020 align 2**12
         filesz 0x000160e0 memsz 0x000160e0 flags r-x
    LOAD off    0x00017100 vaddr 0x05096100 paddr 0x05097bfc align 2**12
         filesz 0x00001afc memsz 0x00001afc flags rw-
    LOAD off    0x000196f8 vaddr 0x050996f8 paddr 0x050996f8 align 2**12
         filesz 0x00000000 memsz 0x00000194 flags rw-

Sections:
Idx Name          Size      VMA       LMA       File off  Algn
  0 .entry        00000020  05080000  05080000  00001000  2**5
                  CONTENTS, ALLOC, LOAD, READONLY, CODE
  1 .exceptions   00000224  05080020  05080020  00001020  2**2
                  CONTENTS, ALLOC, LOAD, READONLY, CODE
  2 .text         000150ec  05080244  05080244  00001244  2**2
                  CONTENTS, ALLOC, LOAD, READONLY, CODE
  3 .rodata       00000dd0  05095330  05095330  00016330  2**2
                  CONTENTS, ALLOC, LOAD, READONLY, DATA
  4 .rwdata       00001afc  05096100  05097bfc  00017100  2**2
                  CONTENTS, ALLOC, LOAD, DATA, SMALL_DATA
  5 .bss          00000194  050996f8  050996f8  000196f8  2**2
                  ALLOC, SMALL_DATA
  6 .sdram        00000000  00000000  00000000  00018bfc  2**0
                  CONTENTS
  7 .onchip_memory2 00000000  0509988c  0509988c  00018bfc  2**0
                  CONTENTS
  8 .comment      00000023  00000000  00000000  00018bfc  2**0
                  CONTENTS, READONLY
  9 .debug_aranges 00001050  00000000  00000000  00018c20  2**3
                  CONTENTS, READONLY, DEBUGGING
 10 .debug_info   0002887f  00000000  00000000  00019c70  2**0
                  CONTENTS, READONLY, DEBUGGING
 11 .debug_abbrev 0000a382  00000000  00000000  000424ef  2**0
                  CONTENTS, READONLY, DEBUGGING
 12 .debug_line   0000da12  00000000  00000000  0004c871  2**0
                  CONTENTS, READONLY, DEBUGGING
 13 .debug_frame  00002b10  00000000  00000000  0005a284  2**2
                  CONTENTS, READONLY, DEBUGGING
 14 .debug_str    0000400d  00000000  00000000  0005cd94  2**0
                  CONTENTS, READONLY, DEBUGGING
 15 .debug_loc    0001c7f9  00000000  00000000  00060da1  2**0
                  CONTENTS, READONLY, DEBUGGING
 16 .debug_alt_sim_info 00000060  00000000  00000000  0007d59c  2**2
                  CONTENTS, READONLY, DEBUGGING
 17 .debug_ranges 00001aa0  00000000  00000000  0007d600  2**3
                  CONTENTS, READONLY, DEBUGGING
 18 .thread_model 00000003  00000000  00000000  00082bd6  2**0
                  CONTENTS, READONLY
 19 .cpu          0000000c  00000000  00000000  00082bd9  2**0
                  CONTENTS, READONLY
 20 .qsys         00000001  00000000  00000000  00082be5  2**0
                  CONTENTS, READONLY
 21 .simulation_enabled 00000001  00000000  00000000  00082be6  2**0
                  CONTENTS, READONLY
 22 .sysid_hash   00000004  00000000  00000000  00082be7  2**0
                  CONTENTS, READONLY
 23 .sysid_base   00000004  00000000  00000000  00082beb  2**0
                  CONTENTS, READONLY
 24 .sysid_time   00000004  00000000  00000000  00082bef  2**0
                  CONTENTS, READONLY
 25 .stderr_dev   00000009  00000000  00000000  00082bf3  2**0
                  CONTENTS, READONLY
 26 .stdin_dev    00000009  00000000  00000000  00082bfc  2**0
                  CONTENTS, READONLY
 27 .stdout_dev   00000009  00000000  00000000  00082c05  2**0
                  CONTENTS, READONLY
 28 .sopc_system_name 0000000a  00000000  00000000  00082c0e  2**0
                  CONTENTS, READONLY
 29 .quartus_project_dir 00000031  00000000  00000000  00082c18  2**0
                  CONTENTS, READONLY
 30 .jdi          00004193  00000000  00000000  00082c49  2**0
                  CONTENTS, READONLY
 31 .sopcinfo     000a5bf1  00000000  00000000  00086ddc  2**0
                  CONTENTS, READONLY
SYMBOL TABLE:
05080000 l    d  .entry	00000000 .entry
05080020 l    d  .exceptions	00000000 .exceptions
05080244 l    d  .text	00000000 .text
05095330 l    d  .rodata	00000000 .rodata
05096100 l    d  .rwdata	00000000 .rwdata
050996f8 l    d  .bss	00000000 .bss
00000000 l    d  .sdram	00000000 .sdram
0509988c l    d  .onchip_memory2	00000000 .onchip_memory2
00000000 l    d  .comment	00000000 .comment
00000000 l    d  .debug_aranges	00000000 .debug_aranges
00000000 l    d  .debug_info	00000000 .debug_info
00000000 l    d  .debug_abbrev	00000000 .debug_abbrev
00000000 l    d  .debug_line	00000000 .debug_line
00000000 l    d  .debug_frame	00000000 .debug_frame
00000000 l    d  .debug_str	00000000 .debug_str
00000000 l    d  .debug_loc	00000000 .debug_loc
00000000 l    d  .debug_alt_sim_info	00000000 .debug_alt_sim_info
00000000 l    d  .debug_ranges	00000000 .debug_ranges
00000000 l    df *ABS*	00000000 ../DE10_Standard_Audio_bsp//obj/HAL/src/crt0.o
0508028c l       .text	00000000 alt_after_alt_main
00000000 l    df *ABS*	00000000 alt_irq_handler.c
00000000 l    df *ABS*	00000000 alt_instruction_exception_entry.c
00000000 l    df *ABS*	00000000 AUDIO.c
0509973c l     O .bss	00000028 reg_file
00000000 l    df *ABS*	00000000 I2C.c
00000000 l    df *ABS*	00000000 LED.c
00000000 l    df *ABS*	00000000 SEG7.c
05096100 l     O .rwdata	00000010 szMap
00000000 l    df *ABS*	00000000 debug.c
00000000 l    df *ABS*	00000000 main.c
050996f8 l     O .bss	00000004 sum.4417
050996fc l     O .bss	00000002 cnt.4418
00000000 l    df *ABS*	00000000 lib2-divmod.c
00000000 l    df *ABS*	00000000 printf.c
00000000 l    df *ABS*	00000000 puts.c
00000000 l    df *ABS*	00000000 sprintf.c
00000000 l    df *ABS*	00000000 strlen.c
00000000 l    df *ABS*	00000000 vfprintf.c
05095e0e l     O .rodata	00000010 zeroes.4389
05095e1e l     O .rodata	00000010 blanks.4388
00000000 l    df *ABS*	00000000 vfprintf.c
05095e2e l     O .rodata	00000010 zeroes.4404
05086fc8 l     F .text	000000bc __sbprintf
05095e3e l     O .rodata	00000010 blanks.4403
00000000 l    df *ABS*	00000000 vsnprintf.c
00000000 l    df *ABS*	00000000 wsetup.c
00000000 l    df *ABS*	00000000 dtoa.c
050872fc l     F .text	00000200 quorem
00000000 l    df *ABS*	00000000 fflush.c
00000000 l    df *ABS*	00000000 findfp.c
05088e2c l     F .text	00000008 __fp_unlock
05088e40 l     F .text	0000019c __sinit.part.1
05088fdc l     F .text	00000008 __fp_lock
00000000 l    df *ABS*	00000000 mallocr.c
00000000 l    df *ABS*	00000000 fvwrite.c
00000000 l    df *ABS*	00000000 fwalk.c
00000000 l    df *ABS*	00000000 impure.c
05096110 l     O .rwdata	00000424 impure_data
00000000 l    df *ABS*	00000000 locale.c
05096554 l     O .rwdata	00000020 lc_ctype_charset
05096534 l     O .rwdata	00000020 lc_message_charset
05096574 l     O .rwdata	00000038 lconv
00000000 l    df *ABS*	00000000 makebuf.c
00000000 l    df *ABS*	00000000 mallocr.c
00000000 l    df *ABS*	00000000 memchr.c
00000000 l    df *ABS*	00000000 memcpy.c
00000000 l    df *ABS*	00000000 memmove.c
00000000 l    df *ABS*	00000000 memset.c
00000000 l    df *ABS*	00000000 mprec.c
05095e70 l     O .rodata	0000000c p05.2768
00000000 l    df *ABS*	00000000 mallocr.c
00000000 l    df *ABS*	00000000 s_fpclassify.c
00000000 l    df *ABS*	00000000 sbrkr.c
00000000 l    df *ABS*	00000000 stdio.c
00000000 l    df *ABS*	00000000 strcmp.c
00000000 l    df *ABS*	00000000 vfprintf.c
05095fa4 l     O .rodata	00000010 blanks.4332
05095f94 l     O .rodata	00000010 zeroes.4333
00000000 l    df *ABS*	00000000 vfprintf.c
0508d7e4 l     F .text	000000fc __sprint_r.part.0
05095fc4 l     O .rodata	00000010 blanks.4348
05095fb4 l     O .rodata	00000010 zeroes.4349
0508ed70 l     F .text	000000bc __sbprintf
00000000 l    df *ABS*	00000000 writer.c
00000000 l    df *ABS*	00000000 closer.c
00000000 l    df *ABS*	00000000 mallocr.c
00000000 l    df *ABS*	00000000 fclose.c
00000000 l    df *ABS*	00000000 fputwc.c
00000000 l    df *ABS*	00000000 fstatr.c
00000000 l    df *ABS*	00000000 int_errno.c
00000000 l    df *ABS*	00000000 isattyr.c
00000000 l    df *ABS*	00000000 lseekr.c
00000000 l    df *ABS*	00000000 readr.c
00000000 l    df *ABS*	00000000 wbuf.c
00000000 l    df *ABS*	00000000 wcrtomb.c
00000000 l    df *ABS*	00000000 wctomb_r.c
00000000 l    df *ABS*	00000000 libgcc2.c
00000000 l    df *ABS*	00000000 libgcc2.c
00000000 l    df *ABS*	00000000 adddf3.c
00000000 l    df *ABS*	00000000 divdf3.c
00000000 l    df *ABS*	00000000 eqdf2.c
00000000 l    df *ABS*	00000000 gedf2.c
00000000 l    df *ABS*	00000000 ledf2.c
00000000 l    df *ABS*	00000000 muldf3.c
00000000 l    df *ABS*	00000000 subdf3.c
00000000 l    df *ABS*	00000000 fixdfsi.c
00000000 l    df *ABS*	00000000 floatsidf.c
00000000 l    df *ABS*	00000000 floatunsidf.c
00000000 l    df *ABS*	00000000 libgcc2.c
00000000 l    df *ABS*	00000000 libgcc2.c
00000000 l    df *ABS*	00000000 alt_close.c
05092878 l     F .text	0000003c alt_get_errno
00000000 l    df *ABS*	00000000 alt_dev.c
05092984 l     F .text	0000002c alt_dev_null_write
00000000 l    df *ABS*	00000000 alt_errno.c
00000000 l    df *ABS*	00000000 alt_fstat.c
050929b0 l     F .text	0000003c alt_get_errno
00000000 l    df *ABS*	00000000 alt_irq_register.c
00000000 l    df *ABS*	00000000 alt_irq_vars.c
00000000 l    df *ABS*	00000000 alt_isatty.c
05092c1c l     F .text	0000003c alt_get_errno
00000000 l    df *ABS*	00000000 alt_load.c
05092cfc l     F .text	00000068 alt_load_section
00000000 l    df *ABS*	00000000 alt_lseek.c
05092de8 l     F .text	0000003c alt_get_errno
00000000 l    df *ABS*	00000000 alt_main.c
00000000 l    df *ABS*	00000000 alt_malloc_lock.c
00000000 l    df *ABS*	00000000 alt_read.c
05092fbc l     F .text	0000003c alt_get_errno
00000000 l    df *ABS*	00000000 alt_release_fd.c
00000000 l    df *ABS*	00000000 alt_sbrk.c
05097bf0 l     O .rwdata	00000004 heap_end
00000000 l    df *ABS*	00000000 alt_usleep.c
00000000 l    df *ABS*	00000000 alt_write.c
05093238 l     F .text	0000003c alt_get_errno
00000000 l    df *ABS*	00000000 alt_sys_init.c
0509336c l     F .text	00000034 alt_dev_reg
05096b5c l     O .rwdata	00001060 jtag_uart
00000000 l    df *ABS*	00000000 altera_avalon_jtag_uart_fd.c
00000000 l    df *ABS*	00000000 altera_avalon_jtag_uart_init.c
05093660 l     F .text	0000020c altera_avalon_jtag_uart_irq
0509386c l     F .text	000000a0 altera_avalon_jtag_uart_timeout
00000000 l    df *ABS*	00000000 altera_avalon_jtag_uart_ioctl.c
00000000 l    df *ABS*	00000000 altera_avalon_jtag_uart_read.c
00000000 l    df *ABS*	00000000 altera_avalon_jtag_uart_write.c
00000000 l    df *ABS*	00000000 altera_avalon_timer_sc.c
05093ea4 l     F .text	00000078 alt_avalon_timer_sc_irq
00000000 l    df *ABS*	00000000 alt_alarm_start.c
00000000 l    df *ABS*	00000000 alt_busy_sleep.c
00000000 l    df *ABS*	00000000 alt_dcache_flush_all.c
00000000 l    df *ABS*	00000000 alt_dev_llist_insert.c
05094264 l     F .text	0000003c alt_get_errno
00000000 l    df *ABS*	00000000 alt_do_ctors.c
00000000 l    df *ABS*	00000000 alt_do_dtors.c
00000000 l    df *ABS*	00000000 alt_icache_flush_all.c
00000000 l    df *ABS*	00000000 alt_iic.c
00000000 l    df *ABS*	00000000 alt_iic_isr_register.c
00000000 l    df *ABS*	00000000 alt_io_redirect.c
050946d8 l     F .text	000000c4 alt_open_fd
00000000 l    df *ABS*	00000000 alt_open.c
05094818 l     F .text	0000003c alt_get_errno
05094854 l     F .text	000000c4 alt_file_locked
00000000 l    df *ABS*	00000000 alt_tick.c
00000000 l    df *ABS*	00000000 altera_nios2_gen2_irq.c
00000000 l    df *ABS*	00000000 alt_find_dev.c
00000000 l    df *ABS*	00000000 alt_find_file.c
00000000 l    df *ABS*	00000000 alt_get_fd.c
00000000 l    df *ABS*	00000000 alt_icache_flush.c
00000000 l    df *ABS*	00000000 atexit.c
00000000 l    df *ABS*	00000000 exit.c
00000000 l    df *ABS*	00000000 memcmp.c
00000000 l    df *ABS*	00000000 __atexit.c
00000000 l    df *ABS*	00000000 __call_atexit.c
00000000 l    df *ABS*	00000000 alt_exit.c
05099738 g     O .bss	00000004 alt_instruction_exception_handler
0508207c g     F .text	00000054 display_time_elapsed
0508ba1c g     F .text	00000074 _mprec_log10
050810cc g     F .text	00000124 I2C_Read
0508bb08 g     F .text	0000008c __any_on
0508f30c g     F .text	00000054 _isatty_r
05095e7c g     O .rodata	00000028 __mprec_tinytens
05092ef8 g     F .text	0000007c alt_main
050829ac g     F .text	000000c0 _puts_r
05081e0c g     F .text	00000064 button_monitor_isr
0509978c g     O .bss	00000100 alt_irq
0508f360 g     F .text	00000060 _lseek_r
05097bfc g       *ABS*	00000000 __flash_rwdata_start
050913a4 g     F .text	00000088 .hidden __eqdf2
05081cb0 g     F .text	0000003c ui_is_mic_record
0509988c g       *ABS*	00000000 __alt_heap_start
05080290 g     F .text	00000188 AUDIO_Init
05082970 g     F .text	0000003c printf
0508f578 g     F .text	0000009c _wcrtomb_r
050804d8 g     F .text	00000078 AUDIO_AdcEnableHighPassFilter
0508c298 g     F .text	0000005c __sseek
0508917c g     F .text	00000010 __sinit
0508f420 g     F .text	00000140 __swbuf_r
05089c44 g     F .text	0000007c _setlocale_r
05088fe4 g     F .text	00000068 __sfmoreglue
05092f98 g     F .text	00000024 __malloc_unlock
0508a914 g     F .text	0000015c memmove
05089164 g     F .text	00000018 _cleanup
05080d8c g     F .text	000000f4 aduio_RegWrite
05080fa0 g     F .text	00000030 AUDIO_FifoClear
0508ab98 g     F .text	000000a8 _Balloc
05081764 g     F .text	00000030 LED_AllOff
0509142c g     F .text	000000dc .hidden __gtdf2
05094c10 g     F .text	00000024 altera_nios2_gen2_irq_init
05080f48 g     F .text	00000058 AUDIO_AdcFifoGetData
05081470 g     F .text	00000130 i2c_write
05080000 g     F .entry	0000001c __reset
050820d0 g     F .text	00000098 show_power
05080020 g       *ABS*	00000000 __flash_exceptions_start
0508f2b0 g     F .text	0000005c _fstat_r
0509971c g     O .bss	00000004 errno
0508c214 g     F .text	00000008 __seofread
0508c5a8 g     F .text	0000123c ___svfiprintf_internal_r
05099728 g     O .bss	00000004 alt_argv
0509fbbc g       *ABS*	00000000 _gp
05093208 g     F .text	00000030 usleep
050822d0 g     F .text	00000064 show_menu
050969dc g     O .rwdata	00000180 alt_fd_list
05094c34 g     F .text	00000090 alt_find_dev
0508a7cc g     F .text	00000148 memcpy
050816f8 g     F .text	0000003c LED_Display
05088e34 g     F .text	0000000c _cleanup_r
05092690 g     F .text	000000dc .hidden __floatsidf
05081e70 g     F .text	00000084 button_monitor_start
0509479c g     F .text	0000007c alt_io_redirect
05091508 g     F .text	000000f4 .hidden __ltdf2
05095330 g       *ABS*	00000000 __DTOR_END__
05082a6c g     F .text	00000014 puts
05094f00 g     F .text	0000009c alt_exception_cause_generated_bad_addr
0508c0f8 g     F .text	00000074 __fpclassifyd
0508b978 g     F .text	000000a4 __ratio
0508ed54 g     F .text	0000001c __vfiprintf_internal
05081ef4 g     F .text	00000188 init_audio
05093a64 g     F .text	0000021c altera_avalon_jtag_uart_read
05082940 g     F .text	00000030 _printf_r
05082884 g     F .text	00000064 .hidden __udivsi3
05092c58 g     F .text	000000a4 isatty
05080c74 g     F .text	0000008c AUDIO_EnableByPass
05095ecc g     O .rodata	000000c8 __mprec_tens
05089cc0 g     F .text	0000000c __locale_charset
05087174 g     F .text	00000034 vsnprintf
05094e70 g     F .text	00000090 alt_icache_flush
050811f0 g     F .text	0000017c I2C_MultipleRead
05099718 g     O .bss	00000004 __malloc_top_pad
05080a4c g     F .text	00000114 AUDIO_SetLineInVol
05097bc4 g     O .rwdata	00000004 __mb_cur_max
05089cf0 g     F .text	0000000c _localeconv_r
0508afa4 g     F .text	0000003c __i2b
05089600 g     F .text	000004bc __sfvwrite_r
05081808 g     F .text	00000060 SEG7_Clear
0508c16c g     F .text	00000054 _sbrk_r
05081c20 g     F .text	00000090 myprintf_dword_array
0508f3c0 g     F .text	00000060 _read_r
05097be4 g     O .rwdata	00000004 alt_max_fd
0508efa4 g     F .text	000000f0 _fclose_r
05088dfc g     F .text	00000030 fflush
05080600 g     F .text	000000e0 AUDIO_DacEnableZeroCross
05099714 g     O .bss	00000004 __malloc_max_sbrked_mem
05092a9c g     F .text	00000180 alt_irq_register
05090210 g     F .text	000008ac .hidden __adddf3
0508b720 g     F .text	0000010c __b2d
0508fcd8 g     F .text	00000538 .hidden __umoddi3
05092e24 g     F .text	000000d4 lseek
05097bbc g     O .rwdata	00000004 _global_impure_ptr
0508bb94 g     F .text	00000564 _realloc_r
0509988c g       *ABS*	00000000 __bss_end
050945e8 g     F .text	000000f0 alt_iic_isr_register
05094b08 g     F .text	00000108 alt_tick
0508f760 g     F .text	00000578 .hidden __udivdi3
0508f20c g     F .text	00000024 _fputwc_r
05095ea4 g     O .rodata	00000028 __mprec_bigtens
0508ad88 g     F .text	00000104 __s2b
0509276c g     F .text	000000a8 .hidden __floatunsidf
05080460 g     F .text	00000078 AUDIO_MicBoost
0508b460 g     F .text	00000060 __mcmp
0508919c g     F .text	00000018 __fp_lock_all
0509459c g     F .text	0000004c alt_ic_irq_enabled
05080fd0 g     F .text	000000fc I2C_Write
050818c8 g     F .text	00000074 SEG7_Number
05094a6c g     F .text	0000009c alt_alarm_stop
05099720 g     O .bss	00000004 alt_irq_active
050800fc g     F .exceptions	000000d4 alt_irq_handler
050969b4 g     O .rwdata	00000028 alt_dev_null
0508136c g     F .text	0000008c i2c_start
0509421c g     F .text	00000048 alt_dcache_flush_all
0508ae8c g     F .text	00000068 __hi0bits
05092610 g     F .text	00000080 .hidden __fixdfsi
05097bfc g       *ABS*	00000000 __ram_rwdata_end
05097bdc g     O .rwdata	00000008 alt_dev_list
05093274 g     F .text	000000f8 write
05096100 g       *ABS*	00000000 __ram_rodata_end
050929ec g     F .text	000000b0 fstat
05091508 g     F .text	000000f4 .hidden __ledf2
05081b2c g     F .text	0000006c myprintf
0508b1d8 g     F .text	00000140 __pow5mult
0508d8f8 g     F .text	0000145c ___vfiprintf_internal_r
0509970c g     O .bss	00000004 __nlocale_changed
050828e8 g     F .text	00000058 .hidden __umodsi3
05080d00 g     F .text	0000008c AUDIO_EnableSiteTone
0509988c g       *ABS*	00000000 end
05081734 g     F .text	00000030 LED_AllOn
050935a0 g     F .text	000000c0 altera_avalon_jtag_uart_init
050801d0 g     F .exceptions	00000074 alt_instruction_exception_entry
05095330 g       *ABS*	00000000 __CTOR_LIST__
050ce200 g       *ABS*	00000000 __alt_stack_pointer
05093f1c g     F .text	0000007c alt_avalon_timer_sc_init
05092814 g     F .text	00000064 .hidden __clzsi2
05093c80 g     F .text	00000224 altera_avalon_jtag_uart_write
0508918c g     F .text	00000004 __sfp_lock_acquire
0508a6e8 g     F .text	000000e4 memchr
05084db4 g     F .text	000021f8 ___vfprintf_internal_r
05082a80 g     F .text	00000058 _sprintf_r
050892f0 g     F .text	00000310 _free_r
05089ccc g     F .text	00000010 __locale_mb_cur_max
0509517c g     F .text	00000180 __call_exitprocs
05099708 g     O .bss	00000004 __mlocale_changed
05097bc8 g     O .rwdata	00000004 __malloc_sbrk_base
05080244 g     F .text	0000004c _start
05099730 g     O .bss	00000004 _alt_tick_rate
0508b318 g     F .text	00000148 __lshift
05099734 g     O .bss	00000004 _alt_nticks
05092ff8 g     F .text	000000fc read
050933d8 g     F .text	00000064 alt_sys_init
0508c3d8 g     F .text	000001d0 __ssprint_r
05095064 g     F .text	00000118 __register_exitproc
050806e0 g     F .text	0000008c AUDIO_DacEnableSoftMute
0508afe0 g     F .text	000001f8 __multiply
0509390c g     F .text	00000068 altera_avalon_jtag_uart_close
05096100 g       *ABS*	00000000 __ram_rwdata_start
05095330 g       *ABS*	00000000 __ram_rodata_start
05099764 g     O .bss	00000028 __malloc_current_mallinfo
0508b82c g     F .text	0000014c __d2b
05081d28 g     F .text	0000003c ui_is_dac_zero_cross
0509343c g     F .text	00000060 altera_avalon_jtag_uart_read_fd
05094dcc g     F .text	000000a4 alt_get_fd
050940c4 g     F .text	00000158 alt_busy_sleep
0508ee8c g     F .text	00000054 _close_r
05094fe8 g     F .text	0000007c memcmp
050934fc g     F .text	00000050 altera_avalon_jtag_uart_close_fd
0509988c g       *ABS*	00000000 __alt_stack_base
0509354c g     F .text	00000054 altera_avalon_jtag_uart_ioctl_fd
050871a8 g     F .text	00000154 __swsetup_r
05082168 g     F .text	00000058 init
05090abc g     F .text	000008e8 .hidden __divdf3
0508904c g     F .text	00000118 __sfp
0508ba90 g     F .text	00000078 __copybits
05080550 g     F .text	000000b0 AUDIO_DacDeemphasisControl
050965ac g     O .rwdata	00000408 __malloc_av_
05089198 g     F .text	00000004 __sinit_lock_release
05087084 g     F .text	000000f0 _vsnprintf_r
050813f8 g     F .text	00000078 i2c_stop
050915fc g     F .text	00000718 .hidden __muldf3
0508c1c0 g     F .text	00000054 __sread
05081868 g     F .text	00000060 SEG7_Full
05094cc4 g     F .text	00000108 alt_find_file
05081a0c g     F .text	000000ec SEG7_Decimal
050942a0 g     F .text	000000a4 alt_dev_llist_insert
05092f74 g     F .text	00000024 __malloc_lock
05093158 g     F .text	000000b0 sbrk
05082bdc g     F .text	000021d8 ___svfprintf_internal_r
050808d8 g     F .text	00000090 AUDIO_SetInputSource
05088da0 g     F .text	0000005c _fflush_r
0508eee0 g     F .text	000000c4 _calloc_r
05080418 g     F .text	00000048 AUDIO_InterfaceActive
050996f8 g       *ABS*	00000000 __bss_start
0508aa70 g     F .text	00000128 memset
05082334 g     F .text	00000458 main
0509972c g     O .bss	00000004 alt_envp
05099710 g     O .bss	00000004 __malloc_max_total_mem
0509349c g     F .text	00000060 altera_avalon_jtag_uart_write_fd
050815a0 g     F .text	00000158 i2c_read
0508f560 g     F .text	00000018 __swbuf
05099700 g     O .bss	00000004 record_sample_rate
0508c2f4 g     F .text	00000008 __sclose
050ce200 g       *ABS*	00000000 __alt_heap_limit
0508f094 g     F .text	00000014 fclose
050874fc g     F .text	00001688 _dtoa_r
05089edc g     F .text	0000080c _malloc_r
0508f6d4 g     F .text	00000030 __ascii_wctomb
05097be8 g     O .rwdata	00000004 alt_errno
05089abc g     F .text	000000c4 _fwalk
05081d64 g     F .text	000000a8 ui_get_sample_rate
0508278c g     F .text	00000084 .hidden __divsi3
050891cc g     F .text	00000124 _malloc_trim_r
05095330 g       *ABS*	00000000 __CTOR_END__
050807f8 g     F .text	000000e0 AUDIO_LineInMute
0508c2fc g     F .text	000000dc strcmp
0508076c g     F .text	0000008c AUDIO_MicMute
05095330 g       *ABS*	00000000 __flash_rodata_start
05095330 g       *ABS*	00000000 __DTOR_LIST__
050913a4 g     F .text	00000088 .hidden __nedf2
050933a0 g     F .text	00000038 alt_irq_init
050930f4 g     F .text	00000064 alt_release_fd
05082ad8 g     F .text	0000006c sprintf
05095fd4 g     O .rodata	00000100 .hidden __clz_tab
0508193c g     F .text	000000d0 SEG7_Hex
05081af8 g     F .text	00000034 debug_output
05099704 g     O .bss	00000004 _PathLocale
05094f9c g     F .text	00000014 atexit
050821c0 g     F .text	00000110 dump_record_data
0508ee2c g     F .text	00000060 _write_r
05089cfc g     F .text	00000018 setlocale
05097bc0 g     O .rwdata	00000004 _impure_ptr
05099724 g     O .bss	00000004 alt_argc
05088b84 g     F .text	0000021c __sflush_r
050943a4 g     F .text	00000060 _do_dtors
05089ce8 g     F .text	00000008 __locale_cjk_lang
05080f0c g     F .text	0000003c AUDIO_AdcFifoNotEmpty
05080020 g       .exceptions	00000000 alt_irq_entry
0508b6bc g     F .text	00000064 __ulp
050891b4 g     F .text	00000018 __fp_unlock_all
05081cec g     F .text	0000003c ui_is_mic_boost
05080ebc g     F .text	00000050 AUDIO_DacFifoSetData
05097bd4 g     O .rwdata	00000008 alt_fs_list
05081b98 g     F .text	00000088 myprintf_hex_array
05080020 g       *ABS*	00000000 __ram_exceptions_start
05080968 g     F .text	000000e4 AUDIO_SetSampleRate
05089d14 g     F .text	0000000c localeconv
05080000 g       *ABS*	00000000 __alt_mem_onchip_memory2
05094438 g     F .text	00000050 alt_ic_isr_register
05097bfc g       *ABS*	00000000 _edata
0509988c g       *ABS*	00000000 _end
05080b60 g     F .text	00000114 AUDIO_SetLineOutVol
0508f0a8 g     F .text	00000164 __fputwc
05080244 g       *ABS*	00000000 __ram_exceptions_end
05093974 g     F .text	000000f0 altera_avalon_jtag_uart_ioctl
05094510 g     F .text	0000008c alt_ic_irq_disable
0508c21c g     F .text	0000007c __swrite
05097bcc g     O .rwdata	00000004 __malloc_trim_threshold
05089cdc g     F .text	0000000c __locale_msgcharset
05094fb0 g     F .text	00000038 exit
05081794 g     F .text	00000074 LED_LightCount
05089b80 g     F .text	000000c4 _fwalk_reent
0508b4c0 g     F .text	000001fc __mdiff
05082810 g     F .text	00000074 .hidden __modsi3
050ce200 g       *ABS*	00000000 __alt_data_end
05080020 g     F .exceptions	00000000 alt_exception
05089190 g     F .text	00000004 __sfp_lock_release
00000000 g       *ABS*	00000000 __alt_mem_sdram
050952fc g     F .text	00000034 _exit
05093f98 g     F .text	0000012c alt_alarm_start
05089d20 g     F .text	000001bc __smakebuf_r
05082b44 g     F .text	00000098 strlen
05094918 g     F .text	00000154 open
05080e80 g     F .text	0000003c AUDIO_DacFifoNotFull
0509142c g     F .text	000000dc .hidden __gedf2
05097bd0 g     O .rwdata	00000004 __wctomb
0508d8e0 g     F .text	00000018 __sprint_r
05094404 g     F .text	00000034 alt_icache_flush_all
05097bec g     O .rwdata	00000004 alt_priority_mask
05094488 g     F .text	00000088 alt_ic_irq_enable
05086fac g     F .text	0000001c __vfprintf_internal
0508f704 g     F .text	0000005c _wctomb_r
05091d14 g     F .text	000008fc .hidden __subdf3
0508aef4 g     F .text	000000b0 __lo0bits
05097bf4 g     O .rwdata	00000008 alt_alarm_list
05094344 g     F .text	00000060 _do_ctors
0508f614 g     F .text	000000c0 wcrtomb
050928b4 g     F .text	000000d0 close
05092d64 g     F .text	00000084 alt_load
0508f230 g     F .text	00000080 fputwc
05089194 g     F .text	00000004 __sinit_lock_acquire
0508ac68 g     F .text	00000120 __multadd
050954e0 g     O .rodata	00000800 szMenu
0508ac40 g     F .text	00000028 _Bfree



Disassembly of section .entry:

05080000 <__reset>:
#if NIOS2_ICACHE_SIZE > 0 && defined(ALT_ALLOW_CODE_AT_RESET) && (!defined(ALT_SIM_OPTIMIZE) || defined(NIOS2_ECC_PRESENT))
    /* Assume the instruction cache size is always a power of two. */
#if NIOS2_ICACHE_SIZE > 0x8000
    movhi r2, %hi(NIOS2_ICACHE_SIZE)
#else
    movui r2, NIOS2_ICACHE_SIZE
 5080000:	00840014 	movui	r2,4096
#endif

0:
    initi r2
 5080004:	1001483a 	initi	r2
    addi r2, r2, -NIOS2_ICACHE_LINE_SIZE
 5080008:	10bff804 	addi	r2,r2,-32
    bgt r2, zero, 0b
 508000c:	00bffd16 	blt	zero,r2,5080004 <__alt_data_end+0xfffb1e04>
 * Jump to the _start entry point in the .text section if reset code
 * is allowed or if optimizing for RTL simulation.
 */
#if defined(ALT_ALLOW_CODE_AT_RESET) || defined(ALT_SIM_OPTIMIZE)
    /* Jump to the _start entry point in the .text section. */
    movhi r1, %hi(_start)
 5080010:	00414234 	movhi	at,1288
    ori r1, r1, %lo(_start)
 5080014:	08409114 	ori	at,at,580
    jmp r1
 5080018:	0800683a 	jmp	at
 508001c:	00000000 	call	0 <__alt_mem_sdram>

Disassembly of section .exceptions:

05080020 <alt_exception>:

#else /* ALT_EXCEPTION_STACK disabled */
        /* 
         * Reserve space on normal stack for registers about to be pushed.
         */
        addi  sp, sp, -76
 5080020:	deffed04 	addi	sp,sp,-76
         * documentation for details).
         *
         * Leave a gap in the stack frame at 4(sp) for the muldiv handler to
         * store zero into.
         */
        stw   ra,  0(sp)
 5080024:	dfc00015 	stw	ra,0(sp)
        stw   r1,   8(sp)
 5080028:	d8400215 	stw	at,8(sp)
        stw   r2,  12(sp)
 508002c:	d8800315 	stw	r2,12(sp)
        stw   r3,  16(sp)
 5080030:	d8c00415 	stw	r3,16(sp)
        stw   r4,  20(sp)
 5080034:	d9000515 	stw	r4,20(sp)
        stw   r5,  24(sp)
 5080038:	d9400615 	stw	r5,24(sp)
        stw   r6,  28(sp)
 508003c:	d9800715 	stw	r6,28(sp)
        stw   r7,  32(sp)
 5080040:	d9c00815 	stw	r7,32(sp)
        rdctl r5, estatus   /* Read early to avoid usage stall */
 5080044:	000b307a 	rdctl	r5,estatus
        stw   r8,  36(sp)
 5080048:	da000915 	stw	r8,36(sp)
        stw   r9,  40(sp)
 508004c:	da400a15 	stw	r9,40(sp)
        stw   r10, 44(sp)
 5080050:	da800b15 	stw	r10,44(sp)
        stw   r11, 48(sp)
 5080054:	dac00c15 	stw	r11,48(sp)
        stw   r12, 52(sp)
 5080058:	db000d15 	stw	r12,52(sp)
        stw   r13, 56(sp)
 508005c:	db400e15 	stw	r13,56(sp)
        stw   r14, 60(sp)
 5080060:	db800f15 	stw	r14,60(sp)
        stw   r15, 64(sp)
 5080064:	dbc01015 	stw	r15,64(sp)
        /*
         * ea-4 contains the address of the instruction being executed
         * when the exception occured. For interrupt exceptions, we will
         * will be re-issue the isntruction. Store it in 72(sp)
         */
        stw   r5,  68(sp)  /* estatus */
 5080068:	d9401115 	stw	r5,68(sp)
        addi  r15, ea, -4  /* instruction that caused exception */
 508006c:	ebffff04 	addi	r15,ea,-4
        stw   r15,  72(sp)
 5080070:	dbc01215 	stw	r15,72(sp)
#else
        /*
         * Test to see if the exception was a software exception or caused 
         * by an external interrupt, and vector accordingly.
         */
        rdctl r4, ipending
 5080074:	0009313a 	rdctl	r4,ipending
        andi  r2, r5, 1
 5080078:	2880004c 	andi	r2,r5,1
        beq   r2, zero, .Lnot_irq
 508007c:	10000326 	beq	r2,zero,508008c <alt_exception+0x6c>
        beq   r4, zero, .Lnot_irq
 5080080:	20000226 	beq	r4,zero,508008c <alt_exception+0x6c>
        /*
         * Now that all necessary registers have been preserved, call 
         * alt_irq_handler() to process the interrupts.
         */

        call alt_irq_handler
 5080084:	50800fc0 	call	50800fc <alt_irq_handler>

        .section .exceptions.irqreturn, "xa"

        br    .Lexception_exit
 5080088:	00000706 	br	50800a8 <alt_exception+0x88>
         * upon completion, so we write ea (address of instruction *after*
         * the one where the exception occured) into 72(sp). The actual
         * instruction that caused the exception is written in r2, which these
         * handlers will utilize.
         */
        stw ea, 72(sp) /* EA is PC+4 so will skip over instruction causing exception */
 508008c:	df401215 	stw	ea,72(sp)
.Lunknown_16bit:
        addi.n r4, r4, 2 /* Need PC+2 to skip over instruction causing exception */
        stw r4, 72(sp)

#else /* CDX is not Enabled and all instructions are 32bits */
        ldw r2, -4(ea) /* Instruction value that caused exception */
 5080090:	e8bfff17 	ldw	r2,-4(ea)
         * debugger is present) or go into an infinite loop since the
         * handling behavior is undefined; in that case we will not return here.
         */

        /* Load exception-causing address as first argument (r4) */
        addi   r4, ea, -4
 5080094:	e93fff04 	addi	r4,ea,-4

        /* Call the instruction-exception entry */
        call   alt_instruction_exception_entry
 5080098:	50801d00 	call	50801d0 <alt_instruction_exception_entry>
         * instruction
         *
         * Return code was 0: Skip. The instruction after the exception is
         * already stored in 72(sp).
         */
        bne   r2, r0, .Lexception_exit
 508009c:	1000021e 	bne	r2,zero,50800a8 <alt_exception+0x88>

        /*
         * Otherwise, modify 72(sp) to re-issue the instruction that caused the
         * exception.
         */
        addi  r15, ea, -4  /* instruction that caused exception */
 50800a0:	ebffff04 	addi	r15,ea,-4
        stw   r15,  72(sp)
 50800a4:	dbc01215 	stw	r15,72(sp)
        /* 
         * Restore the saved registers, so that all general purpose registers 
         * have been restored to their state at the time the interrupt occured.
         */

        ldw   r5,  68(sp)
 50800a8:	d9401117 	ldw	r5,68(sp)
        ldw   ea,  72(sp)  /* This becomes the PC once eret is executed */
 50800ac:	df401217 	ldw	ea,72(sp)
        ldw   ra,   0(sp)
 50800b0:	dfc00017 	ldw	ra,0(sp)

        wrctl estatus, r5
 50800b4:	2801707a 	wrctl	estatus,r5

        ldw   r1,   8(sp)
 50800b8:	d8400217 	ldw	at,8(sp)
        ldw   r2,  12(sp)
 50800bc:	d8800317 	ldw	r2,12(sp)
        ldw   r3,  16(sp)
 50800c0:	d8c00417 	ldw	r3,16(sp)
        ldw   r4,  20(sp)
 50800c4:	d9000517 	ldw	r4,20(sp)
        ldw   r5,  24(sp)
 50800c8:	d9400617 	ldw	r5,24(sp)
        ldw   r6,  28(sp)
 50800cc:	d9800717 	ldw	r6,28(sp)
        ldw   r7,  32(sp)
 50800d0:	d9c00817 	ldw	r7,32(sp)

#if defined(ALT_EXCEPTION_STACK) && defined(ALT_STACK_CHECK)
        ldw   et, %gprel(alt_exception_old_stack_limit)(gp)
#endif

        ldw   r8,  36(sp)
 50800d4:	da000917 	ldw	r8,36(sp)
        ldw   r9,  40(sp)
 50800d8:	da400a17 	ldw	r9,40(sp)
        ldw   r10, 44(sp)
 50800dc:	da800b17 	ldw	r10,44(sp)
        ldw   r11, 48(sp)
 50800e0:	dac00c17 	ldw	r11,48(sp)
        ldw   r12, 52(sp)
 50800e4:	db000d17 	ldw	r12,52(sp)
        ldw   r13, 56(sp)
 50800e8:	db400e17 	ldw	r13,56(sp)
        ldw   r14, 60(sp)
 50800ec:	db800f17 	ldw	r14,60(sp)
        ldw   r15, 64(sp)
 50800f0:	dbc01017 	ldw	r15,64(sp)
        stw   et, %gprel(alt_stack_limit_value)(gp)
        stw   zero, %gprel(alt_exception_old_stack_limit)(gp)
#endif /* ALT_STACK_CHECK */
        ldw   sp,  76(sp)
#else /* ALT_EXCEPTION_STACK disabled */
        addi  sp, sp, 76
 50800f4:	dec01304 	addi	sp,sp,76

        /*
         * Return to the interrupted instruction.
         */

        eret
 50800f8:	ef80083a 	eret

050800fc <alt_irq_handler>:
 * instruction is present if the macro ALT_CI_INTERRUPT_VECTOR defined.
 */

void alt_irq_handler (void) __attribute__ ((section (".exceptions")));
void alt_irq_handler (void)
{
 50800fc:	defff904 	addi	sp,sp,-28
 5080100:	dfc00615 	stw	ra,24(sp)
 5080104:	df000515 	stw	fp,20(sp)
 5080108:	df000504 	addi	fp,sp,20
  
  /*
   * Notify the operating system that we are at interrupt level.
   */ 
  
  ALT_OS_INT_ENTER();
 508010c:	0001883a 	nop
#ifndef NIOS2_EIC_PRESENT
static ALT_INLINE alt_u32 ALT_ALWAYS_INLINE alt_irq_pending (void)
{
  alt_u32 active;

  NIOS2_READ_IPENDING (active);
 5080110:	0005313a 	rdctl	r2,ipending
 5080114:	e0bffe15 	stw	r2,-8(fp)

  return active;
 5080118:	e0bffe17 	ldw	r2,-8(fp)
   * Consider the case where the high priority interupt is asserted during
   * the interrupt entry sequence for a lower priority interrupt to see why
   * this is the case.
   */

  active = alt_irq_pending ();
 508011c:	e0bffb15 	stw	r2,-20(fp)

  do
  {
    i = 0;
 5080120:	e03ffd15 	stw	zero,-12(fp)
    mask = 1;
 5080124:	00800044 	movi	r2,1
 5080128:	e0bffc15 	stw	r2,-16(fp)
     * called to clear the interrupt condition.
     */

    do
    {
      if (active & mask)
 508012c:	e0fffb17 	ldw	r3,-20(fp)
 5080130:	e0bffc17 	ldw	r2,-16(fp)
 5080134:	1884703a 	and	r2,r3,r2
 5080138:	10001426 	beq	r2,zero,508018c <alt_irq_handler+0x90>
      { 
#ifdef ALT_ENHANCED_INTERRUPT_API_PRESENT
        alt_irq[i].handler(alt_irq[i].context); 
 508013c:	008142b4 	movhi	r2,1290
 5080140:	10a5e304 	addi	r2,r2,-26740
 5080144:	e0fffd17 	ldw	r3,-12(fp)
 5080148:	180690fa 	slli	r3,r3,3
 508014c:	10c5883a 	add	r2,r2,r3
 5080150:	10c00017 	ldw	r3,0(r2)
 5080154:	008142b4 	movhi	r2,1290
 5080158:	10a5e304 	addi	r2,r2,-26740
 508015c:	e13ffd17 	ldw	r4,-12(fp)
 5080160:	200890fa 	slli	r4,r4,3
 5080164:	1105883a 	add	r2,r2,r4
 5080168:	10800104 	addi	r2,r2,4
 508016c:	10800017 	ldw	r2,0(r2)
 5080170:	1009883a 	mov	r4,r2
 5080174:	183ee83a 	callr	r3
#else
        alt_irq[i].handler(alt_irq[i].context, i); 
#endif
        break;
 5080178:	0001883a 	nop
#ifndef NIOS2_EIC_PRESENT
static ALT_INLINE alt_u32 ALT_ALWAYS_INLINE alt_irq_pending (void)
{
  alt_u32 active;

  NIOS2_READ_IPENDING (active);
 508017c:	0005313a 	rdctl	r2,ipending
 5080180:	e0bfff15 	stw	r2,-4(fp)

  return active;
 5080184:	e0bfff17 	ldw	r2,-4(fp)
 5080188:	00000706 	br	50801a8 <alt_irq_handler+0xac>
      }
      mask <<= 1;
 508018c:	e0bffc17 	ldw	r2,-16(fp)
 5080190:	1085883a 	add	r2,r2,r2
 5080194:	e0bffc15 	stw	r2,-16(fp)
      i++;
 5080198:	e0bffd17 	ldw	r2,-12(fp)
 508019c:	10800044 	addi	r2,r2,1
 50801a0:	e0bffd15 	stw	r2,-12(fp)

    } while (1);
 50801a4:	003fe106 	br	508012c <__alt_data_end+0xfffb1f2c>

    active = alt_irq_pending ();
 50801a8:	e0bffb15 	stw	r2,-20(fp)
    
  } while (active);
 50801ac:	e0bffb17 	ldw	r2,-20(fp)
 50801b0:	103fdb1e 	bne	r2,zero,5080120 <__alt_data_end+0xfffb1f20>

  /*
   * Notify the operating system that interrupt processing is complete.
   */ 

  ALT_OS_INT_EXIT();
 50801b4:	0001883a 	nop
}
 50801b8:	0001883a 	nop
 50801bc:	e037883a 	mov	sp,fp
 50801c0:	dfc00117 	ldw	ra,4(sp)
 50801c4:	df000017 	ldw	fp,0(sp)
 50801c8:	dec00204 	addi	sp,sp,8
 50801cc:	f800283a 	ret

050801d0 <alt_instruction_exception_entry>:
 * that handler if it has been registered. Absent a handler, it will
 * break break or hang as discussed below.
 */
int 
alt_instruction_exception_entry (alt_u32 exception_pc)
{
 50801d0:	defffb04 	addi	sp,sp,-20
 50801d4:	dfc00415 	stw	ra,16(sp)
 50801d8:	df000315 	stw	fp,12(sp)
 50801dc:	df000304 	addi	fp,sp,12
 50801e0:	e13fff15 	stw	r4,-4(fp)
 * NIOS2_EXCEPTION_CAUSE_NOT_PRESENT. Your handling routine should
 * check the validity of the cause argument before proceeding.
 */
#ifdef NIOS2_HAS_EXTRA_EXCEPTION_INFO
  /* Get exception cause & "badaddr" */
  NIOS2_READ_EXCEPTION(cause);
 50801e4:	000531fa 	rdctl	r2,exception
 50801e8:	e0bffd15 	stw	r2,-12(fp)
  cause = ( (cause & NIOS2_EXCEPTION_REG_CAUSE_MASK) >>
 50801ec:	e0bffd17 	ldw	r2,-12(fp)
 50801f0:	10801f0c 	andi	r2,r2,124
 50801f4:	1004d0ba 	srli	r2,r2,2
 50801f8:	e0bffd15 	stw	r2,-12(fp)
              NIOS2_EXCEPTION_REG_CAUSE_OFST );

  NIOS2_READ_BADADDR(badaddr);
 50801fc:	0005333a 	rdctl	r2,badaddr
 5080200:	e0bffe15 	stw	r2,-8(fp)
#else
  cause = NIOS2_EXCEPTION_CAUSE_NOT_PRESENT;
  badaddr = 0;
#endif /* NIOS2_HAS_EXTRA_EXCEPTION_INFO */

  if(alt_instruction_exception_handler) {
 5080204:	d0a6df17 	ldw	r2,-25732(gp)
 5080208:	10000726 	beq	r2,zero,5080228 <alt_instruction_exception_entry+0x58>
     * Call handler. Its return value indicates whether the exception-causing
     * instruction should be re-issued. The code that called us,
     * alt_eceptions_entry.S, will look at this value and adjust the ea
     * register as necessary
     */
    return alt_instruction_exception_handler(cause, exception_pc, badaddr);
 508020c:	d0a6df17 	ldw	r2,-25732(gp)
 5080210:	e0fffd17 	ldw	r3,-12(fp)
 5080214:	e1bffe17 	ldw	r6,-8(fp)
 5080218:	e17fff17 	ldw	r5,-4(fp)
 508021c:	1809883a 	mov	r4,r3
 5080220:	103ee83a 	callr	r2
 5080224:	00000206 	br	5080230 <alt_instruction_exception_entry+0x60>
   *    (a peripheral which negates its interrupt output before its
   *    interrupt handler has been executed will cause spurious interrupts)
   */
  else {
#ifdef NIOS2_HAS_DEBUG_STUB
    NIOS2_BREAK();
 5080228:	003da03a 	break	0
      ;
#endif /* NIOS2_HAS_DEBUG_STUB */
  }

  /* We should not get here. Remove compiler warning. */
  return NIOS2_EXCEPTION_RETURN_REISSUE_INST;
 508022c:	0005883a 	mov	r2,zero
}
 5080230:	e037883a 	mov	sp,fp
 5080234:	dfc00117 	ldw	ra,4(sp)
 5080238:	df000017 	ldw	fp,0(sp)
 508023c:	dec00204 	addi	sp,sp,8
 5080240:	f800283a 	ret

Disassembly of section .text:

05080244 <_start>:

    /* Assume the data cache size is always a power of two. */
#if NIOS2_DCACHE_SIZE > 0x8000
    movhi r2, %hi(NIOS2_DCACHE_SIZE)
#else
    movui r2, NIOS2_DCACHE_SIZE
 5080244:	00820014 	movui	r2,2048
#endif

0:
    initd 0(r2)
 5080248:	10000033 	initd	0(r2)
#ifdef NIOS2_ECC_PRESENT
    addi r2, r2, -4
#else
    addi r2, r2, -NIOS2_DCACHE_LINE_SIZE
 508024c:	10bff804 	addi	r2,r2,-32
#endif
    bgt r2, zero, 0b
 5080250:	00bffd16 	blt	zero,r2,5080248 <__alt_data_end+0xfffb2048>

    /*
     * Now that the caches are initialized, set up the stack pointer and global pointer.
     * The values provided by the linker are assumed to be correctly aligned.
     */
    movhi sp, %hi(__alt_stack_pointer)
 5080254:	06c14334 	movhi	sp,1292
    ori sp, sp, %lo(__alt_stack_pointer)
 5080258:	def88014 	ori	sp,sp,57856
    movhi gp, %hi(_gp)
 508025c:	06814274 	movhi	gp,1289
    ori gp, gp, %lo(_gp)
 5080260:	d6beef14 	ori	gp,gp,64444
 */
#ifndef ALT_SIM_OPTIMIZE
    /* Log that the BSS is about to be cleared. */
    ALT_LOG_PUTS(alt_log_msg_bss)

    movhi r2, %hi(__bss_start)
 5080264:	00814274 	movhi	r2,1289
    ori r2, r2, %lo(__bss_start)
 5080268:	10a5be14 	ori	r2,r2,38648

    movhi r3, %hi(__bss_end)
 508026c:	00c14274 	movhi	r3,1289
    ori r3, r3, %lo(__bss_end)
 5080270:	18e62314 	ori	r3,r3,39052

    beq r2, r3, 1f
 5080274:	10c00326 	beq	r2,r3,5080284 <_start+0x40>

0:
    stw zero, (r2)
 5080278:	10000015 	stw	zero,0(r2)
    addi r2, r2, 4
 508027c:	10800104 	addi	r2,r2,4
    bltu r2, r3, 0b
 5080280:	10fffd36 	bltu	r2,r3,5080278 <__alt_data_end+0xfffb2078>
     * section aren't defined until alt_load() has been called).
     */
    mov   et, zero
#endif

    call alt_load
 5080284:	5092d640 	call	5092d64 <alt_load>

    /* Log that alt_main is about to be called. */
    ALT_LOG_PUTS(alt_log_msg_alt_main)

    /* Call the C entry point. It should never return. */
    call alt_main
 5080288:	5092ef80 	call	5092ef8 <alt_main>

0508028c <alt_after_alt_main>:

    /* Wait in infinite loop in case alt_main does return. */
alt_after_alt_main:
    br alt_after_alt_main
 508028c:	003fff06 	br	508028c <__alt_data_end+0xfffb208c>

05080290 <AUDIO_Init>:

/////////////////////////////////////////////////////////////////////////
///////////// External function body ////////////////////////////////////
/////////////////////////////////////////////////////////////////////////

bool AUDIO_Init(void){
 5080290:	defffd04 	addi	sp,sp,-12
 5080294:	dfc00215 	stw	ra,8(sp)
 5080298:	df000115 	stw	fp,4(sp)
 508029c:	df000104 	addi	fp,sp,4
   bool bSuccess = TRUE;
 50802a0:	00800044 	movi	r2,1
 50802a4:	e0bfff15 	stw	r2,-4(fp)
    AUDIO_DEBUG(("[AUDIO] AUDIO_Init...\r\n"));
 50802a8:	01014274 	movhi	r4,1289
 50802ac:	2114cc04 	addi	r4,r4,21296
 50802b0:	5081b2c0 	call	5081b2c <myprintf>

    if (bSuccess)
 50802b4:	e0bfff17 	ldw	r2,-4(fp)
 50802b8:	10000426 	beq	r2,zero,50802cc <AUDIO_Init+0x3c>
        bSuccess = aduio_RegWrite(15, 0x0000);  // reset
 50802bc:	000b883a 	mov	r5,zero
 50802c0:	010003c4 	movi	r4,15
 50802c4:	5080d8c0 	call	5080d8c <aduio_RegWrite>
 50802c8:	e0bfff15 	stw	r2,-4(fp)
        
    if (bSuccess)
 50802cc:	e0bfff17 	ldw	r2,-4(fp)
 50802d0:	10000426 	beq	r2,zero,50802e4 <AUDIO_Init+0x54>
        bSuccess = aduio_RegWrite(9, 0x0000);  // inactive interface         
 50802d4:	000b883a 	mov	r5,zero
 50802d8:	01000244 	movi	r4,9
 50802dc:	5080d8c0 	call	5080d8c <aduio_RegWrite>
 50802e0:	e0bfff15 	stw	r2,-4(fp)
       
    //usleep(20*1000);    
    if (bSuccess)
 50802e4:	e0bfff17 	ldw	r2,-4(fp)
 50802e8:	10000426 	beq	r2,zero,50802fc <AUDIO_Init+0x6c>
        bSuccess = aduio_RegWrite(0, 0x0017);  // Left Line In: set left line in volume
 50802ec:	014005c4 	movi	r5,23
 50802f0:	0009883a 	mov	r4,zero
 50802f4:	5080d8c0 	call	5080d8c <aduio_RegWrite>
 50802f8:	e0bfff15 	stw	r2,-4(fp)
        
    if (bSuccess)
 50802fc:	e0bfff17 	ldw	r2,-4(fp)
 5080300:	10000426 	beq	r2,zero,5080314 <AUDIO_Init+0x84>
        bSuccess = aduio_RegWrite(1, 0x0017);  // Right Line In: set right line in volume
 5080304:	014005c4 	movi	r5,23
 5080308:	01000044 	movi	r4,1
 508030c:	5080d8c0 	call	5080d8c <aduio_RegWrite>
 5080310:	e0bfff15 	stw	r2,-4(fp)
        
    if (bSuccess)
 5080314:	e0bfff17 	ldw	r2,-4(fp)
 5080318:	10000426 	beq	r2,zero,508032c <AUDIO_Init+0x9c>
        bSuccess = aduio_RegWrite(2, 0x005B);  // Left Headphone Out: set left line out volume
 508031c:	014016c4 	movi	r5,91
 5080320:	01000084 	movi	r4,2
 5080324:	5080d8c0 	call	5080d8c <aduio_RegWrite>
 5080328:	e0bfff15 	stw	r2,-4(fp)
        
    if (bSuccess)
 508032c:	e0bfff17 	ldw	r2,-4(fp)
 5080330:	10000426 	beq	r2,zero,5080344 <AUDIO_Init+0xb4>
        bSuccess = aduio_RegWrite(3, 0x005B);  // Right Headphone Out: set right line out volume
 5080334:	014016c4 	movi	r5,91
 5080338:	010000c4 	movi	r4,3
 508033c:	5080d8c0 	call	5080d8c <aduio_RegWrite>
 5080340:	e0bfff15 	stw	r2,-4(fp)
        
    if (bSuccess)      
 5080344:	e0bfff17 	ldw	r2,-4(fp)
 5080348:	10000426 	beq	r2,zero,508035c <AUDIO_Init+0xcc>
        bSuccess = aduio_RegWrite(4, 0x0015);  // Analogue Audio Path Control: set mic as input and boost it, and enable dac         
 508034c:	01400544 	movi	r5,21
 5080350:	01000104 	movi	r4,4
 5080354:	5080d8c0 	call	5080d8c <aduio_RegWrite>
 5080358:	e0bfff15 	stw	r2,-4(fp)
                
    if (bSuccess)
 508035c:	e0bfff17 	ldw	r2,-4(fp)
 5080360:	10000426 	beq	r2,zero,5080374 <AUDIO_Init+0xe4>
        bSuccess = aduio_RegWrite(5, 0x0000);  // Digital Audio Path Control: disable soft mute         
 5080364:	000b883a 	mov	r5,zero
 5080368:	01000144 	movi	r4,5
 508036c:	5080d8c0 	call	5080d8c <aduio_RegWrite>
 5080370:	e0bfff15 	stw	r2,-4(fp)

    if (bSuccess)
 5080374:	e0bfff17 	ldw	r2,-4(fp)
 5080378:	10000426 	beq	r2,zero,508038c <AUDIO_Init+0xfc>
        bSuccess = aduio_RegWrite(6, 0);  // power down control: power on all         
 508037c:	000b883a 	mov	r5,zero
 5080380:	01000184 	movi	r4,6
 5080384:	5080d8c0 	call	5080d8c <aduio_RegWrite>
 5080388:	e0bfff15 	stw	r2,-4(fp)

    if (bSuccess)
 508038c:	e0bfff17 	ldw	r2,-4(fp)
 5080390:	10000426 	beq	r2,zero,50803a4 <AUDIO_Init+0x114>
        bSuccess = aduio_RegWrite(7, 0x0042);  // I2S, iwl=16-bits, Enable Master Mode         
 5080394:	01401084 	movi	r5,66
 5080398:	010001c4 	movi	r4,7
 508039c:	5080d8c0 	call	5080d8c <aduio_RegWrite>
 50803a0:	e0bfff15 	stw	r2,-4(fp)
//        bSuccess = aduio_RegWrite(7, 0x0041);  // MSB-First, left justified, iwl=16-bits, Enable Master Mode         

    if (bSuccess)
 50803a4:	e0bfff17 	ldw	r2,-4(fp)
 50803a8:	10000426 	beq	r2,zero,50803bc <AUDIO_Init+0x12c>
        bSuccess = aduio_RegWrite(8, 0x0002);  // Normal, Base OVer-Sampleing Rate 384 fs (BOSR=1)         
 50803ac:	01400084 	movi	r5,2
 50803b0:	01000204 	movi	r4,8
 50803b4:	5080d8c0 	call	5080d8c <aduio_RegWrite>
 50803b8:	e0bfff15 	stw	r2,-4(fp)


    if (bSuccess)
 50803bc:	e0bfff17 	ldw	r2,-4(fp)
 50803c0:	10000426 	beq	r2,zero,50803d4 <AUDIO_Init+0x144>
        bSuccess = aduio_RegWrite(9, 0x0001);  // active interface
 50803c4:	01400044 	movi	r5,1
 50803c8:	01000244 	movi	r4,9
 50803cc:	5080d8c0 	call	5080d8c <aduio_RegWrite>
 50803d0:	e0bfff15 	stw	r2,-4(fp)
        
        
         
    AUDIO_DEBUG(("[AUDIO] AUDIO_Init %s\r\n", bSuccess?"success":"fail"));        
 50803d4:	e0bfff17 	ldw	r2,-4(fp)
 50803d8:	10000326 	beq	r2,zero,50803e8 <AUDIO_Init+0x158>
 50803dc:	00814274 	movhi	r2,1289
 50803e0:	1094d204 	addi	r2,r2,21320
 50803e4:	00000206 	br	50803f0 <AUDIO_Init+0x160>
 50803e8:	00814274 	movhi	r2,1289
 50803ec:	1094d404 	addi	r2,r2,21328
 50803f0:	100b883a 	mov	r5,r2
 50803f4:	01014274 	movhi	r4,1289
 50803f8:	2114d604 	addi	r4,r4,21336
 50803fc:	5081b2c0 	call	5081b2c <myprintf>
    
    return bSuccess;        
 5080400:	e0bfff17 	ldw	r2,-4(fp)
         
}
 5080404:	e037883a 	mov	sp,fp
 5080408:	dfc00117 	ldw	ra,4(sp)
 508040c:	df000017 	ldw	fp,0(sp)
 5080410:	dec00204 	addi	sp,sp,8
 5080414:	f800283a 	ret

05080418 <AUDIO_InterfaceActive>:

bool AUDIO_InterfaceActive(bool bActive){
 5080418:	defffc04 	addi	sp,sp,-16
 508041c:	dfc00315 	stw	ra,12(sp)
 5080420:	df000215 	stw	fp,8(sp)
 5080424:	df000204 	addi	fp,sp,8
 5080428:	e13fff15 	stw	r4,-4(fp)
    bool bSuccess;
    bSuccess = aduio_RegWrite(9, bActive?0x0001:0x0000); 
 508042c:	e0bfff17 	ldw	r2,-4(fp)
 5080430:	1004c03a 	cmpne	r2,r2,zero
 5080434:	10803fcc 	andi	r2,r2,255
 5080438:	100b883a 	mov	r5,r2
 508043c:	01000244 	movi	r4,9
 5080440:	5080d8c0 	call	5080d8c <aduio_RegWrite>
 5080444:	e0bffe15 	stw	r2,-8(fp)
    return bSuccess;
 5080448:	e0bffe17 	ldw	r2,-8(fp)
}
 508044c:	e037883a 	mov	sp,fp
 5080450:	dfc00117 	ldw	ra,4(sp)
 5080454:	df000017 	ldw	fp,0(sp)
 5080458:	dec00204 	addi	sp,sp,8
 508045c:	f800283a 	ret

05080460 <AUDIO_MicBoost>:

bool AUDIO_MicBoost(bool bBoost){
 5080460:	defffb04 	addi	sp,sp,-20
 5080464:	dfc00415 	stw	ra,16(sp)
 5080468:	df000315 	stw	fp,12(sp)
 508046c:	df000304 	addi	fp,sp,12
 5080470:	e13fff15 	stw	r4,-4(fp)
    bool bSuccess;
    alt_u16 control;
    control = reg_file[4];
 5080474:	008142b4 	movhi	r2,1290
 5080478:	10a5cf04 	addi	r2,r2,-26820
 508047c:	1080020b 	ldhu	r2,8(r2)
 5080480:	e0bffd0d 	sth	r2,-12(fp)
    if (bBoost)
 5080484:	e0bfff17 	ldw	r2,-4(fp)
 5080488:	10000426 	beq	r2,zero,508049c <AUDIO_MicBoost+0x3c>
        control |= 0x0001;
 508048c:	e0bffd0b 	ldhu	r2,-12(fp)
 5080490:	10800054 	ori	r2,r2,1
 5080494:	e0bffd0d 	sth	r2,-12(fp)
 5080498:	00000406 	br	50804ac <AUDIO_MicBoost+0x4c>
    else        
        control &= 0xFFFE;
 508049c:	e0fffd0b 	ldhu	r3,-12(fp)
 50804a0:	00bfff84 	movi	r2,-2
 50804a4:	1884703a 	and	r2,r3,r2
 50804a8:	e0bffd0d 	sth	r2,-12(fp)
    bSuccess = aduio_RegWrite(4, control);  // Left Line In: set left line in volume
 50804ac:	e0bffd0b 	ldhu	r2,-12(fp)
 50804b0:	100b883a 	mov	r5,r2
 50804b4:	01000104 	movi	r4,4
 50804b8:	5080d8c0 	call	5080d8c <aduio_RegWrite>
 50804bc:	e0bffe15 	stw	r2,-8(fp)
    return bSuccess;
 50804c0:	e0bffe17 	ldw	r2,-8(fp)
}
 50804c4:	e037883a 	mov	sp,fp
 50804c8:	dfc00117 	ldw	ra,4(sp)
 50804cc:	df000017 	ldw	fp,0(sp)
 50804d0:	dec00204 	addi	sp,sp,8
 50804d4:	f800283a 	ret

050804d8 <AUDIO_AdcEnableHighPassFilter>:

bool AUDIO_AdcEnableHighPassFilter(bool bEnable){
 50804d8:	defffb04 	addi	sp,sp,-20
 50804dc:	dfc00415 	stw	ra,16(sp)
 50804e0:	df000315 	stw	fp,12(sp)
 50804e4:	df000304 	addi	fp,sp,12
 50804e8:	e13fff15 	stw	r4,-4(fp)
    bool bSuccess;
    alt_u16 control;
    control = reg_file[5];
 50804ec:	008142b4 	movhi	r2,1290
 50804f0:	10a5cf04 	addi	r2,r2,-26820
 50804f4:	1080028b 	ldhu	r2,10(r2)
 50804f8:	e0bffd0d 	sth	r2,-12(fp)
    if (bEnable)
 50804fc:	e0bfff17 	ldw	r2,-4(fp)
 5080500:	10000526 	beq	r2,zero,5080518 <AUDIO_AdcEnableHighPassFilter+0x40>
        control &= 0xFFFE;
 5080504:	e0fffd0b 	ldhu	r3,-12(fp)
 5080508:	00bfff84 	movi	r2,-2
 508050c:	1884703a 	and	r2,r3,r2
 5080510:	e0bffd0d 	sth	r2,-12(fp)
 5080514:	00000306 	br	5080524 <AUDIO_AdcEnableHighPassFilter+0x4c>
    else        
        control |= 0x0001;
 5080518:	e0bffd0b 	ldhu	r2,-12(fp)
 508051c:	10800054 	ori	r2,r2,1
 5080520:	e0bffd0d 	sth	r2,-12(fp)
    bSuccess = aduio_RegWrite(5, control);  // Left Line In: set left line in volume
 5080524:	e0bffd0b 	ldhu	r2,-12(fp)
 5080528:	100b883a 	mov	r5,r2
 508052c:	01000144 	movi	r4,5
 5080530:	5080d8c0 	call	5080d8c <aduio_RegWrite>
 5080534:	e0bffe15 	stw	r2,-8(fp)
    return bSuccess;    
 5080538:	e0bffe17 	ldw	r2,-8(fp)
}
 508053c:	e037883a 	mov	sp,fp
 5080540:	dfc00117 	ldw	ra,4(sp)
 5080544:	df000017 	ldw	fp,0(sp)
 5080548:	dec00204 	addi	sp,sp,8
 508054c:	f800283a 	ret

05080550 <AUDIO_DacDeemphasisControl>:



bool AUDIO_DacDeemphasisControl(alt_u8 deemphasis_type){
 5080550:	defffb04 	addi	sp,sp,-20
 5080554:	dfc00415 	stw	ra,16(sp)
 5080558:	df000315 	stw	fp,12(sp)
 508055c:	df000304 	addi	fp,sp,12
 5080560:	2005883a 	mov	r2,r4
 5080564:	e0bfff05 	stb	r2,-4(fp)
    bool bSuccess;
    alt_u16 control;
    control = reg_file[5];
 5080568:	008142b4 	movhi	r2,1290
 508056c:	10a5cf04 	addi	r2,r2,-26820
 5080570:	1080028b 	ldhu	r2,10(r2)
 5080574:	e0bffd0d 	sth	r2,-12(fp)
    control &= 0xFFF9;
 5080578:	e0fffd0b 	ldhu	r3,-12(fp)
 508057c:	00bffe44 	movi	r2,-7
 5080580:	1884703a 	and	r2,r3,r2
 5080584:	e0bffd0d 	sth	r2,-12(fp)
    switch(deemphasis_type){
 5080588:	e0bfff03 	ldbu	r2,-4(fp)
 508058c:	10c000a0 	cmpeqi	r3,r2,2
 5080590:	1800081e 	bne	r3,zero,50805b4 <AUDIO_DacDeemphasisControl+0x64>
 5080594:	10c000e0 	cmpeqi	r3,r2,3
 5080598:	18000a1e 	bne	r3,zero,50805c4 <AUDIO_DacDeemphasisControl+0x74>
 508059c:	10800060 	cmpeqi	r2,r2,1
 50805a0:	10000c26 	beq	r2,zero,50805d4 <AUDIO_DacDeemphasisControl+0x84>
        case DEEMPHASIS_48K: control |= ((0x03) << 1); break;
 50805a4:	e0bffd0b 	ldhu	r2,-12(fp)
 50805a8:	10800194 	ori	r2,r2,6
 50805ac:	e0bffd0d 	sth	r2,-12(fp)
 50805b0:	00000806 	br	50805d4 <AUDIO_DacDeemphasisControl+0x84>
        case DEEMPHASIS_44K1: control |= ((0x02) << 1); break;
 50805b4:	e0bffd0b 	ldhu	r2,-12(fp)
 50805b8:	10800114 	ori	r2,r2,4
 50805bc:	e0bffd0d 	sth	r2,-12(fp)
 50805c0:	00000406 	br	50805d4 <AUDIO_DacDeemphasisControl+0x84>
        case DEEMPHASIS_32K: control |= ((0x01) << 1); break;
 50805c4:	e0bffd0b 	ldhu	r2,-12(fp)
 50805c8:	10800094 	ori	r2,r2,2
 50805cc:	e0bffd0d 	sth	r2,-12(fp)
 50805d0:	0001883a 	nop
    }
    bSuccess = aduio_RegWrite(5, control);  // Left Line In: set left line in volume
 50805d4:	e0bffd0b 	ldhu	r2,-12(fp)
 50805d8:	100b883a 	mov	r5,r2
 50805dc:	01000144 	movi	r4,5
 50805e0:	5080d8c0 	call	5080d8c <aduio_RegWrite>
 50805e4:	e0bffe15 	stw	r2,-8(fp)
    return bSuccess;       
 50805e8:	e0bffe17 	ldw	r2,-8(fp)
}
 50805ec:	e037883a 	mov	sp,fp
 50805f0:	dfc00117 	ldw	ra,4(sp)
 50805f4:	df000017 	ldw	fp,0(sp)
 50805f8:	dec00204 	addi	sp,sp,8
 50805fc:	f800283a 	ret

05080600 <AUDIO_DacEnableZeroCross>:

bool AUDIO_DacEnableZeroCross(bool bEnable){
 5080600:	defffa04 	addi	sp,sp,-24
 5080604:	dfc00515 	stw	ra,20(sp)
 5080608:	df000415 	stw	fp,16(sp)
 508060c:	df000404 	addi	fp,sp,16
 5080610:	e13fff15 	stw	r4,-4(fp)
    bool bSuccess;
    alt_u16 control_l, control_r;
    alt_u16 mask;
    control_l = reg_file[2];
 5080614:	008142b4 	movhi	r2,1290
 5080618:	10a5cf04 	addi	r2,r2,-26820
 508061c:	1080010b 	ldhu	r2,4(r2)
 5080620:	e0bffd0d 	sth	r2,-12(fp)
    control_r = reg_file[3];
 5080624:	008142b4 	movhi	r2,1290
 5080628:	10a5cf04 	addi	r2,r2,-26820
 508062c:	1080018b 	ldhu	r2,6(r2)
 5080630:	e0bffd8d 	sth	r2,-10(fp)
    mask = 0x01 << 7;
 5080634:	00802004 	movi	r2,128
 5080638:	e0bffe0d 	sth	r2,-8(fp)
    if (bEnable){
 508063c:	e0bfff17 	ldw	r2,-4(fp)
 5080640:	10000926 	beq	r2,zero,5080668 <AUDIO_DacEnableZeroCross+0x68>
        control_l |= mask;
 5080644:	e0fffd0b 	ldhu	r3,-12(fp)
 5080648:	e0bffe0b 	ldhu	r2,-8(fp)
 508064c:	1884b03a 	or	r2,r3,r2
 5080650:	e0bffd0d 	sth	r2,-12(fp)
        control_r |= mask;
 5080654:	e0fffd8b 	ldhu	r3,-10(fp)
 5080658:	e0bffe0b 	ldhu	r2,-8(fp)
 508065c:	1884b03a 	or	r2,r3,r2
 5080660:	e0bffd8d 	sth	r2,-10(fp)
 5080664:	00000c06 	br	5080698 <AUDIO_DacEnableZeroCross+0x98>
    }else{        
        control_l &= ~mask;
 5080668:	e0bffe0b 	ldhu	r2,-8(fp)
 508066c:	0084303a 	nor	r2,zero,r2
 5080670:	1007883a 	mov	r3,r2
 5080674:	e0bffd0b 	ldhu	r2,-12(fp)
 5080678:	1884703a 	and	r2,r3,r2
 508067c:	e0bffd0d 	sth	r2,-12(fp)
        control_r &= ~mask;
 5080680:	e0bffe0b 	ldhu	r2,-8(fp)
 5080684:	0084303a 	nor	r2,zero,r2
 5080688:	1007883a 	mov	r3,r2
 508068c:	e0bffd8b 	ldhu	r2,-10(fp)
 5080690:	1884703a 	and	r2,r3,r2
 5080694:	e0bffd8d 	sth	r2,-10(fp)
    }        
    bSuccess = aduio_RegWrite(2, control_l);  // Left Line In: set left line in volume
 5080698:	e0bffd0b 	ldhu	r2,-12(fp)
 508069c:	100b883a 	mov	r5,r2
 50806a0:	01000084 	movi	r4,2
 50806a4:	5080d8c0 	call	5080d8c <aduio_RegWrite>
 50806a8:	e0bffc15 	stw	r2,-16(fp)
    if (bSuccess)
 50806ac:	e0bffc17 	ldw	r2,-16(fp)
 50806b0:	10000526 	beq	r2,zero,50806c8 <AUDIO_DacEnableZeroCross+0xc8>
        bSuccess = aduio_RegWrite(3, control_r);  // Left Line In: set left line in volume
 50806b4:	e0bffd8b 	ldhu	r2,-10(fp)
 50806b8:	100b883a 	mov	r5,r2
 50806bc:	010000c4 	movi	r4,3
 50806c0:	5080d8c0 	call	5080d8c <aduio_RegWrite>
 50806c4:	e0bffc15 	stw	r2,-16(fp)
    return bSuccess;      
 50806c8:	e0bffc17 	ldw	r2,-16(fp)
}
 50806cc:	e037883a 	mov	sp,fp
 50806d0:	dfc00117 	ldw	ra,4(sp)
 50806d4:	df000017 	ldw	fp,0(sp)
 50806d8:	dec00204 	addi	sp,sp,8
 50806dc:	f800283a 	ret

050806e0 <AUDIO_DacEnableSoftMute>:

bool AUDIO_DacEnableSoftMute(bool bEnable){
 50806e0:	defffb04 	addi	sp,sp,-20
 50806e4:	dfc00415 	stw	ra,16(sp)
 50806e8:	df000315 	stw	fp,12(sp)
 50806ec:	df000304 	addi	fp,sp,12
 50806f0:	e13fff15 	stw	r4,-4(fp)
    bool bSuccess;
    alt_u16 control;
    alt_u16 mask;
    control = reg_file[5];
 50806f4:	008142b4 	movhi	r2,1290
 50806f8:	10a5cf04 	addi	r2,r2,-26820
 50806fc:	1080028b 	ldhu	r2,10(r2)
 5080700:	e0bffd0d 	sth	r2,-12(fp)
    mask = 0x01 << 3;
 5080704:	00800204 	movi	r2,8
 5080708:	e0bffd8d 	sth	r2,-10(fp)
    if (bEnable)
 508070c:	e0bfff17 	ldw	r2,-4(fp)
 5080710:	10000526 	beq	r2,zero,5080728 <AUDIO_DacEnableSoftMute+0x48>
        control |= mask;
 5080714:	e0fffd0b 	ldhu	r3,-12(fp)
 5080718:	e0bffd8b 	ldhu	r2,-10(fp)
 508071c:	1884b03a 	or	r2,r3,r2
 5080720:	e0bffd0d 	sth	r2,-12(fp)
 5080724:	00000606 	br	5080740 <AUDIO_DacEnableSoftMute+0x60>
    else        
        control &= ~mask;
 5080728:	e0bffd8b 	ldhu	r2,-10(fp)
 508072c:	0084303a 	nor	r2,zero,r2
 5080730:	1007883a 	mov	r3,r2
 5080734:	e0bffd0b 	ldhu	r2,-12(fp)
 5080738:	1884703a 	and	r2,r3,r2
 508073c:	e0bffd0d 	sth	r2,-12(fp)
    bSuccess = aduio_RegWrite(5, control);  // Left Line In: set left line in volume
 5080740:	e0bffd0b 	ldhu	r2,-12(fp)
 5080744:	100b883a 	mov	r5,r2
 5080748:	01000144 	movi	r4,5
 508074c:	5080d8c0 	call	5080d8c <aduio_RegWrite>
 5080750:	e0bffe15 	stw	r2,-8(fp)
    return bSuccess;      
 5080754:	e0bffe17 	ldw	r2,-8(fp)
}
 5080758:	e037883a 	mov	sp,fp
 508075c:	dfc00117 	ldw	ra,4(sp)
 5080760:	df000017 	ldw	fp,0(sp)
 5080764:	dec00204 	addi	sp,sp,8
 5080768:	f800283a 	ret

0508076c <AUDIO_MicMute>:

bool AUDIO_MicMute(bool bMute){
 508076c:	defffb04 	addi	sp,sp,-20
 5080770:	dfc00415 	stw	ra,16(sp)
 5080774:	df000315 	stw	fp,12(sp)
 5080778:	df000304 	addi	fp,sp,12
 508077c:	e13fff15 	stw	r4,-4(fp)
    bool bSuccess;
    alt_u16 control;
    alt_u16 mask;
    control = reg_file[4];
 5080780:	008142b4 	movhi	r2,1290
 5080784:	10a5cf04 	addi	r2,r2,-26820
 5080788:	1080020b 	ldhu	r2,8(r2)
 508078c:	e0bffd0d 	sth	r2,-12(fp)
    mask = 0x01 << 1;
 5080790:	00800084 	movi	r2,2
 5080794:	e0bffd8d 	sth	r2,-10(fp)
    if (bMute)
 5080798:	e0bfff17 	ldw	r2,-4(fp)
 508079c:	10000526 	beq	r2,zero,50807b4 <AUDIO_MicMute+0x48>
        control |= mask;
 50807a0:	e0fffd0b 	ldhu	r3,-12(fp)
 50807a4:	e0bffd8b 	ldhu	r2,-10(fp)
 50807a8:	1884b03a 	or	r2,r3,r2
 50807ac:	e0bffd0d 	sth	r2,-12(fp)
 50807b0:	00000606 	br	50807cc <AUDIO_MicMute+0x60>
    else        
        control &= ~mask;
 50807b4:	e0bffd8b 	ldhu	r2,-10(fp)
 50807b8:	0084303a 	nor	r2,zero,r2
 50807bc:	1007883a 	mov	r3,r2
 50807c0:	e0bffd0b 	ldhu	r2,-12(fp)
 50807c4:	1884703a 	and	r2,r3,r2
 50807c8:	e0bffd0d 	sth	r2,-12(fp)
    bSuccess = aduio_RegWrite(4, control);  // Left Line In: set left line in volume
 50807cc:	e0bffd0b 	ldhu	r2,-12(fp)
 50807d0:	100b883a 	mov	r5,r2
 50807d4:	01000104 	movi	r4,4
 50807d8:	5080d8c0 	call	5080d8c <aduio_RegWrite>
 50807dc:	e0bffe15 	stw	r2,-8(fp)
    return bSuccess;        
 50807e0:	e0bffe17 	ldw	r2,-8(fp)
}
 50807e4:	e037883a 	mov	sp,fp
 50807e8:	dfc00117 	ldw	ra,4(sp)
 50807ec:	df000017 	ldw	fp,0(sp)
 50807f0:	dec00204 	addi	sp,sp,8
 50807f4:	f800283a 	ret

050807f8 <AUDIO_LineInMute>:

bool AUDIO_LineInMute(bool bMute){
 50807f8:	defffa04 	addi	sp,sp,-24
 50807fc:	dfc00515 	stw	ra,20(sp)
 5080800:	df000415 	stw	fp,16(sp)
 5080804:	df000404 	addi	fp,sp,16
 5080808:	e13fff15 	stw	r4,-4(fp)
    bool bSuccess;
    alt_u16 control_l, control_r;
    alt_u16 mask;
    control_l = reg_file[0];
 508080c:	008142b4 	movhi	r2,1290
 5080810:	10a5cf04 	addi	r2,r2,-26820
 5080814:	1080000b 	ldhu	r2,0(r2)
 5080818:	e0bffd0d 	sth	r2,-12(fp)
    control_r = reg_file[1];
 508081c:	008142b4 	movhi	r2,1290
 5080820:	10a5cf04 	addi	r2,r2,-26820
 5080824:	1080008b 	ldhu	r2,2(r2)
 5080828:	e0bffd8d 	sth	r2,-10(fp)
    mask = 0x01 << 7;
 508082c:	00802004 	movi	r2,128
 5080830:	e0bffe0d 	sth	r2,-8(fp)
    if (bMute){
 5080834:	e0bfff17 	ldw	r2,-4(fp)
 5080838:	10000926 	beq	r2,zero,5080860 <AUDIO_LineInMute+0x68>
        control_l |= mask;
 508083c:	e0fffd0b 	ldhu	r3,-12(fp)
 5080840:	e0bffe0b 	ldhu	r2,-8(fp)
 5080844:	1884b03a 	or	r2,r3,r2
 5080848:	e0bffd0d 	sth	r2,-12(fp)
        control_r |= mask;
 508084c:	e0fffd8b 	ldhu	r3,-10(fp)
 5080850:	e0bffe0b 	ldhu	r2,-8(fp)
 5080854:	1884b03a 	or	r2,r3,r2
 5080858:	e0bffd8d 	sth	r2,-10(fp)
 508085c:	00000c06 	br	5080890 <AUDIO_LineInMute+0x98>
    }else{        
        control_l &= ~mask;
 5080860:	e0bffe0b 	ldhu	r2,-8(fp)
 5080864:	0084303a 	nor	r2,zero,r2
 5080868:	1007883a 	mov	r3,r2
 508086c:	e0bffd0b 	ldhu	r2,-12(fp)
 5080870:	1884703a 	and	r2,r3,r2
 5080874:	e0bffd0d 	sth	r2,-12(fp)
        control_r &= ~mask;
 5080878:	e0bffe0b 	ldhu	r2,-8(fp)
 508087c:	0084303a 	nor	r2,zero,r2
 5080880:	1007883a 	mov	r3,r2
 5080884:	e0bffd8b 	ldhu	r2,-10(fp)
 5080888:	1884703a 	and	r2,r3,r2
 508088c:	e0bffd8d 	sth	r2,-10(fp)
    }        
    bSuccess = aduio_RegWrite(0, control_l);  // Left Line In: set left line in volume
 5080890:	e0bffd0b 	ldhu	r2,-12(fp)
 5080894:	100b883a 	mov	r5,r2
 5080898:	0009883a 	mov	r4,zero
 508089c:	5080d8c0 	call	5080d8c <aduio_RegWrite>
 50808a0:	e0bffc15 	stw	r2,-16(fp)
    if (bSuccess)
 50808a4:	e0bffc17 	ldw	r2,-16(fp)
 50808a8:	10000526 	beq	r2,zero,50808c0 <AUDIO_LineInMute+0xc8>
        bSuccess = aduio_RegWrite(1, control_r);  // Left Line In: set left line in volume
 50808ac:	e0bffd8b 	ldhu	r2,-10(fp)
 50808b0:	100b883a 	mov	r5,r2
 50808b4:	01000044 	movi	r4,1
 50808b8:	5080d8c0 	call	5080d8c <aduio_RegWrite>
 50808bc:	e0bffc15 	stw	r2,-16(fp)
    return bSuccess;        
 50808c0:	e0bffc17 	ldw	r2,-16(fp)
}
 50808c4:	e037883a 	mov	sp,fp
 50808c8:	dfc00117 	ldw	ra,4(sp)
 50808cc:	df000017 	ldw	fp,0(sp)
 50808d0:	dec00204 	addi	sp,sp,8
 50808d4:	f800283a 	ret

050808d8 <AUDIO_SetInputSource>:



bool AUDIO_SetInputSource(alt_u8 InputSource){
 50808d8:	defffb04 	addi	sp,sp,-20
 50808dc:	dfc00415 	stw	ra,16(sp)
 50808e0:	df000315 	stw	fp,12(sp)
 50808e4:	df000304 	addi	fp,sp,12
 50808e8:	2005883a 	mov	r2,r4
 50808ec:	e0bfff05 	stb	r2,-4(fp)
    bool bSuccess;
    alt_u16 control;
    alt_u16 mask;
    control = reg_file[4];
 50808f0:	008142b4 	movhi	r2,1290
 50808f4:	10a5cf04 	addi	r2,r2,-26820
 50808f8:	1080020b 	ldhu	r2,8(r2)
 50808fc:	e0bffd0d 	sth	r2,-12(fp)
    mask = 0x01 << 2;
 5080900:	00800104 	movi	r2,4
 5080904:	e0bffd8d 	sth	r2,-10(fp)
    if (InputSource == SOURCE_MIC)
 5080908:	e0bfff03 	ldbu	r2,-4(fp)
 508090c:	1000051e 	bne	r2,zero,5080924 <AUDIO_SetInputSource+0x4c>
        control |= mask;
 5080910:	e0fffd0b 	ldhu	r3,-12(fp)
 5080914:	e0bffd8b 	ldhu	r2,-10(fp)
 5080918:	1884b03a 	or	r2,r3,r2
 508091c:	e0bffd0d 	sth	r2,-12(fp)
 5080920:	00000606 	br	508093c <AUDIO_SetInputSource+0x64>
    else        
        control &= ~mask;
 5080924:	e0bffd8b 	ldhu	r2,-10(fp)
 5080928:	0084303a 	nor	r2,zero,r2
 508092c:	1007883a 	mov	r3,r2
 5080930:	e0bffd0b 	ldhu	r2,-12(fp)
 5080934:	1884703a 	and	r2,r3,r2
 5080938:	e0bffd0d 	sth	r2,-12(fp)
    bSuccess = aduio_RegWrite(4, control);  // Left Line In: set left line in volume
 508093c:	e0bffd0b 	ldhu	r2,-12(fp)
 5080940:	100b883a 	mov	r5,r2
 5080944:	01000104 	movi	r4,4
 5080948:	5080d8c0 	call	5080d8c <aduio_RegWrite>
 508094c:	e0bffe15 	stw	r2,-8(fp)
    return bSuccess;       
 5080950:	e0bffe17 	ldw	r2,-8(fp)
}
 5080954:	e037883a 	mov	sp,fp
 5080958:	dfc00117 	ldw	ra,4(sp)
 508095c:	df000017 	ldw	fp,0(sp)
 5080960:	dec00204 	addi	sp,sp,8
 5080964:	f800283a 	ret

05080968 <AUDIO_SetSampleRate>:

// See datasheet page 39
bool AUDIO_SetSampleRate(alt_u8 SampleRate){
 5080968:	defffb04 	addi	sp,sp,-20
 508096c:	dfc00415 	stw	ra,16(sp)
 5080970:	df000315 	stw	fp,12(sp)
 5080974:	df000304 	addi	fp,sp,12
 5080978:	2005883a 	mov	r2,r4
 508097c:	e0bfff05 	stb	r2,-4(fp)
    bool bSuccess;
    alt_u16 control;
    control = 0;
 5080980:	e03ffd0d 	sth	zero,-12(fp)

    switch(SampleRate){
 5080984:	e0bfff03 	ldbu	r2,-4(fp)
 5080988:	10c001e8 	cmpgeui	r3,r2,7
 508098c:	1800211e 	bne	r3,zero,5080a14 <AUDIO_SetSampleRate+0xac>
 5080990:	100690ba 	slli	r3,r2,2
 5080994:	00814234 	movhi	r2,1288
 5080998:	10826a04 	addi	r2,r2,2472
 508099c:	1885883a 	add	r2,r3,r2
 50809a0:	10800017 	ldw	r2,0(r2)
 50809a4:	1000683a 	jmp	r2
 50809a8:	050809c4 	movi	r20,8231
 50809ac:	050809cc 	andi	r20,zero,8231
 50809b0:	050809d8 	cmpnei	r20,zero,8231
 50809b4:	050809e4 	muli	r20,zero,8231
 50809b8:	050809f0 	cmpltui	r20,zero,8231
 50809bc:	050809fc 	xorhi	r20,zero,8231
 50809c0:	05080a08 	cmpgei	r20,zero,8232
         // MCLK = 18.432
        case RATE_ADC48K_DAC48K: control = (0x0) << 2; break;
 50809c4:	e03ffd0d 	sth	zero,-12(fp)
 50809c8:	00001206 	br	5080a14 <AUDIO_SetSampleRate+0xac>
        case RATE_ADC48K_DAC8K: control = (0x1) << 2; break;
 50809cc:	00800104 	movi	r2,4
 50809d0:	e0bffd0d 	sth	r2,-12(fp)
 50809d4:	00000f06 	br	5080a14 <AUDIO_SetSampleRate+0xac>
        case RATE_ADC8K_DAC48K: control = (0x2) << 2; break;
 50809d8:	00800204 	movi	r2,8
 50809dc:	e0bffd0d 	sth	r2,-12(fp)
 50809e0:	00000c06 	br	5080a14 <AUDIO_SetSampleRate+0xac>
        case RATE_ADC8K_DAC8K: control = (0x3) << 2; break;
 50809e4:	00800304 	movi	r2,12
 50809e8:	e0bffd0d 	sth	r2,-12(fp)
 50809ec:	00000906 	br	5080a14 <AUDIO_SetSampleRate+0xac>
        case RATE_ADC32K_DAC32K: control = (0x6) << 2; break;
 50809f0:	00800604 	movi	r2,24
 50809f4:	e0bffd0d 	sth	r2,-12(fp)
 50809f8:	00000606 	br	5080a14 <AUDIO_SetSampleRate+0xac>
        case RATE_ADC96K_DAC96K: control = (0x7) << 2; break;
 50809fc:	00800704 	movi	r2,28
 5080a00:	e0bffd0d 	sth	r2,-12(fp)
 5080a04:	00000306 	br	5080a14 <AUDIO_SetSampleRate+0xac>
        case RATE_ADC44K1_DAC44K1: control = (0x8) << 2; break;
 5080a08:	00800804 	movi	r2,32
 5080a0c:	e0bffd0d 	sth	r2,-12(fp)
 5080a10:	0001883a 	nop
        // MCLK = 11.2896
      //  case RATE_ADC44K1_DAC8K: control = (0x9) << 2; break;
      //  case RATE_ADC8K_DAC44K1: control = (0xA) << 2; break;
    }
    control |= 0x02; // BOSR=1 (384fs = 384*48k = 18.432M)
 5080a14:	e0bffd0b 	ldhu	r2,-12(fp)
 5080a18:	10800094 	ori	r2,r2,2
 5080a1c:	e0bffd0d 	sth	r2,-12(fp)
        
    bSuccess = aduio_RegWrite(8, control);  // Left Line In: set left line in volume
 5080a20:	e0bffd0b 	ldhu	r2,-12(fp)
 5080a24:	100b883a 	mov	r5,r2
 5080a28:	01000204 	movi	r4,8
 5080a2c:	5080d8c0 	call	5080d8c <aduio_RegWrite>
 5080a30:	e0bffe15 	stw	r2,-8(fp)
    return bSuccess;      
 5080a34:	e0bffe17 	ldw	r2,-8(fp)
}
 5080a38:	e037883a 	mov	sp,fp
 5080a3c:	dfc00117 	ldw	ra,4(sp)
 5080a40:	df000017 	ldw	fp,0(sp)
 5080a44:	dec00204 	addi	sp,sp,8
 5080a48:	f800283a 	ret

05080a4c <AUDIO_SetLineInVol>:





bool AUDIO_SetLineInVol(alt_u16 l_vol, alt_u16 r_vol){
 5080a4c:	defffa04 	addi	sp,sp,-24
 5080a50:	dfc00515 	stw	ra,20(sp)
 5080a54:	df000415 	stw	fp,16(sp)
 5080a58:	df000404 	addi	fp,sp,16
 5080a5c:	2007883a 	mov	r3,r4
 5080a60:	2805883a 	mov	r2,r5
 5080a64:	e0fffe0d 	sth	r3,-8(fp)
 5080a68:	e0bfff0d 	sth	r2,-4(fp)
    bool bSuccess;
    alt_u16 control;
    
    // left
    control = reg_file[0];
 5080a6c:	008142b4 	movhi	r2,1290
 5080a70:	10a5cf04 	addi	r2,r2,-26820
 5080a74:	1080000b 	ldhu	r2,0(r2)
 5080a78:	e0bffd0d 	sth	r2,-12(fp)
    control &= 0xFFE0;
 5080a7c:	e0fffd0b 	ldhu	r3,-12(fp)
 5080a80:	00bff804 	movi	r2,-32
 5080a84:	1884703a 	and	r2,r3,r2
 5080a88:	e0bffd0d 	sth	r2,-12(fp)
    control += l_vol & 0x1F;
 5080a8c:	e0bffe0b 	ldhu	r2,-8(fp)
 5080a90:	108007cc 	andi	r2,r2,31
 5080a94:	1007883a 	mov	r3,r2
 5080a98:	e0bffd0b 	ldhu	r2,-12(fp)
 5080a9c:	1885883a 	add	r2,r3,r2
 5080aa0:	e0bffd0d 	sth	r2,-12(fp)
    bSuccess = aduio_RegWrite(0, control);
 5080aa4:	e0bffd0b 	ldhu	r2,-12(fp)
 5080aa8:	100b883a 	mov	r5,r2
 5080aac:	0009883a 	mov	r4,zero
 5080ab0:	5080d8c0 	call	5080d8c <aduio_RegWrite>
 5080ab4:	e0bffc15 	stw	r2,-16(fp)
    
    if (bSuccess){
 5080ab8:	e0bffc17 	ldw	r2,-16(fp)
 5080abc:	10001326 	beq	r2,zero,5080b0c <AUDIO_SetLineInVol+0xc0>
        // right
        control = reg_file[1];
 5080ac0:	008142b4 	movhi	r2,1290
 5080ac4:	10a5cf04 	addi	r2,r2,-26820
 5080ac8:	1080008b 	ldhu	r2,2(r2)
 5080acc:	e0bffd0d 	sth	r2,-12(fp)
        control &= 0xFFE0;
 5080ad0:	e0fffd0b 	ldhu	r3,-12(fp)
 5080ad4:	00bff804 	movi	r2,-32
 5080ad8:	1884703a 	and	r2,r3,r2
 5080adc:	e0bffd0d 	sth	r2,-12(fp)
        control += r_vol & 0x1F;
 5080ae0:	e0bfff0b 	ldhu	r2,-4(fp)
 5080ae4:	108007cc 	andi	r2,r2,31
 5080ae8:	1007883a 	mov	r3,r2
 5080aec:	e0bffd0b 	ldhu	r2,-12(fp)
 5080af0:	1885883a 	add	r2,r3,r2
 5080af4:	e0bffd0d 	sth	r2,-12(fp)
        bSuccess = aduio_RegWrite(1, control);        
 5080af8:	e0bffd0b 	ldhu	r2,-12(fp)
 5080afc:	100b883a 	mov	r5,r2
 5080b00:	01000044 	movi	r4,1
 5080b04:	5080d8c0 	call	5080d8c <aduio_RegWrite>
 5080b08:	e0bffc15 	stw	r2,-16(fp)
    }
    
    AUDIO_DEBUG(("[AUDIO] set Line-In vol(%d,%d) %s\r\n", l_vol, r_vol, bSuccess?"success":"fail"));        
 5080b0c:	e0fffe0b 	ldhu	r3,-8(fp)
 5080b10:	e13fff0b 	ldhu	r4,-4(fp)
 5080b14:	e0bffc17 	ldw	r2,-16(fp)
 5080b18:	10000326 	beq	r2,zero,5080b28 <AUDIO_SetLineInVol+0xdc>
 5080b1c:	00814274 	movhi	r2,1289
 5080b20:	1094d204 	addi	r2,r2,21320
 5080b24:	00000206 	br	5080b30 <AUDIO_SetLineInVol+0xe4>
 5080b28:	00814274 	movhi	r2,1289
 5080b2c:	1094d404 	addi	r2,r2,21328
 5080b30:	100f883a 	mov	r7,r2
 5080b34:	200d883a 	mov	r6,r4
 5080b38:	180b883a 	mov	r5,r3
 5080b3c:	01014274 	movhi	r4,1289
 5080b40:	2114dc04 	addi	r4,r4,21360
 5080b44:	5081b2c0 	call	5081b2c <myprintf>
    return bSuccess;
 5080b48:	e0bffc17 	ldw	r2,-16(fp)
}
 5080b4c:	e037883a 	mov	sp,fp
 5080b50:	dfc00117 	ldw	ra,4(sp)
 5080b54:	df000017 	ldw	fp,0(sp)
 5080b58:	dec00204 	addi	sp,sp,8
 5080b5c:	f800283a 	ret

05080b60 <AUDIO_SetLineOutVol>:

bool AUDIO_SetLineOutVol(alt_u16 l_vol, alt_u16 r_vol){
 5080b60:	defffa04 	addi	sp,sp,-24
 5080b64:	dfc00515 	stw	ra,20(sp)
 5080b68:	df000415 	stw	fp,16(sp)
 5080b6c:	df000404 	addi	fp,sp,16
 5080b70:	2007883a 	mov	r3,r4
 5080b74:	2805883a 	mov	r2,r5
 5080b78:	e0fffe0d 	sth	r3,-8(fp)
 5080b7c:	e0bfff0d 	sth	r2,-4(fp)
    bool bSuccess;
    alt_u16 control;

 
    // left
    control = reg_file[2];
 5080b80:	008142b4 	movhi	r2,1290
 5080b84:	10a5cf04 	addi	r2,r2,-26820
 5080b88:	1080010b 	ldhu	r2,4(r2)
 5080b8c:	e0bffd0d 	sth	r2,-12(fp)
    control &= 0xFF80;
 5080b90:	e0fffd0b 	ldhu	r3,-12(fp)
 5080b94:	00bfe004 	movi	r2,-128
 5080b98:	1884703a 	and	r2,r3,r2
 5080b9c:	e0bffd0d 	sth	r2,-12(fp)
    control += l_vol & 0x7F;
 5080ba0:	e0bffe0b 	ldhu	r2,-8(fp)
 5080ba4:	10801fcc 	andi	r2,r2,127
 5080ba8:	1007883a 	mov	r3,r2
 5080bac:	e0bffd0b 	ldhu	r2,-12(fp)
 5080bb0:	1885883a 	add	r2,r3,r2
 5080bb4:	e0bffd0d 	sth	r2,-12(fp)
    bSuccess = aduio_RegWrite(2, control);
 5080bb8:	e0bffd0b 	ldhu	r2,-12(fp)
 5080bbc:	100b883a 	mov	r5,r2
 5080bc0:	01000084 	movi	r4,2
 5080bc4:	5080d8c0 	call	5080d8c <aduio_RegWrite>
 5080bc8:	e0bffc15 	stw	r2,-16(fp)
    
    if (bSuccess){
 5080bcc:	e0bffc17 	ldw	r2,-16(fp)
 5080bd0:	10001326 	beq	r2,zero,5080c20 <AUDIO_SetLineOutVol+0xc0>
        // right
        control = reg_file[3];
 5080bd4:	008142b4 	movhi	r2,1290
 5080bd8:	10a5cf04 	addi	r2,r2,-26820
 5080bdc:	1080018b 	ldhu	r2,6(r2)
 5080be0:	e0bffd0d 	sth	r2,-12(fp)
        control &= 0xFF80;
 5080be4:	e0fffd0b 	ldhu	r3,-12(fp)
 5080be8:	00bfe004 	movi	r2,-128
 5080bec:	1884703a 	and	r2,r3,r2
 5080bf0:	e0bffd0d 	sth	r2,-12(fp)
        control += r_vol & 0x7F;
 5080bf4:	e0bfff0b 	ldhu	r2,-4(fp)
 5080bf8:	10801fcc 	andi	r2,r2,127
 5080bfc:	1007883a 	mov	r3,r2
 5080c00:	e0bffd0b 	ldhu	r2,-12(fp)
 5080c04:	1885883a 	add	r2,r3,r2
 5080c08:	e0bffd0d 	sth	r2,-12(fp)
        bSuccess = aduio_RegWrite(3, control);        
 5080c0c:	e0bffd0b 	ldhu	r2,-12(fp)
 5080c10:	100b883a 	mov	r5,r2
 5080c14:	010000c4 	movi	r4,3
 5080c18:	5080d8c0 	call	5080d8c <aduio_RegWrite>
 5080c1c:	e0bffc15 	stw	r2,-16(fp)
    }    
    
    AUDIO_DEBUG(("[AUDIO] set Line-Out vol(%d,%d) %s\r\n", l_vol, r_vol, bSuccess?"success":"fail"));
 5080c20:	e0fffe0b 	ldhu	r3,-8(fp)
 5080c24:	e13fff0b 	ldhu	r4,-4(fp)
 5080c28:	e0bffc17 	ldw	r2,-16(fp)
 5080c2c:	10000326 	beq	r2,zero,5080c3c <AUDIO_SetLineOutVol+0xdc>
 5080c30:	00814274 	movhi	r2,1289
 5080c34:	1094d204 	addi	r2,r2,21320
 5080c38:	00000206 	br	5080c44 <AUDIO_SetLineOutVol+0xe4>
 5080c3c:	00814274 	movhi	r2,1289
 5080c40:	1094d404 	addi	r2,r2,21328
 5080c44:	100f883a 	mov	r7,r2
 5080c48:	200d883a 	mov	r6,r4
 5080c4c:	180b883a 	mov	r5,r3
 5080c50:	01014274 	movhi	r4,1289
 5080c54:	2114e504 	addi	r4,r4,21396
 5080c58:	5081b2c0 	call	5081b2c <myprintf>
    
    return bSuccess;
 5080c5c:	e0bffc17 	ldw	r2,-16(fp)
}
 5080c60:	e037883a 	mov	sp,fp
 5080c64:	dfc00117 	ldw	ra,4(sp)
 5080c68:	df000017 	ldw	fp,0(sp)
 5080c6c:	dec00204 	addi	sp,sp,8
 5080c70:	f800283a 	ret

05080c74 <AUDIO_EnableByPass>:


bool AUDIO_EnableByPass(bool bEnable){
 5080c74:	defffb04 	addi	sp,sp,-20
 5080c78:	dfc00415 	stw	ra,16(sp)
 5080c7c:	df000315 	stw	fp,12(sp)
 5080c80:	df000304 	addi	fp,sp,12
 5080c84:	e13fff15 	stw	r4,-4(fp)
    bool bSuccess;
    alt_u16 control;
    alt_u16 mask;
    control = reg_file[4];
 5080c88:	008142b4 	movhi	r2,1290
 5080c8c:	10a5cf04 	addi	r2,r2,-26820
 5080c90:	1080020b 	ldhu	r2,8(r2)
 5080c94:	e0bffd0d 	sth	r2,-12(fp)
    mask = 0x01 << 3;
 5080c98:	00800204 	movi	r2,8
 5080c9c:	e0bffd8d 	sth	r2,-10(fp)
    if (bEnable)
 5080ca0:	e0bfff17 	ldw	r2,-4(fp)
 5080ca4:	10000526 	beq	r2,zero,5080cbc <AUDIO_EnableByPass+0x48>
        control |= mask;
 5080ca8:	e0fffd0b 	ldhu	r3,-12(fp)
 5080cac:	e0bffd8b 	ldhu	r2,-10(fp)
 5080cb0:	1884b03a 	or	r2,r3,r2
 5080cb4:	e0bffd0d 	sth	r2,-12(fp)
 5080cb8:	00000606 	br	5080cd4 <AUDIO_EnableByPass+0x60>
    else        
        control &= ~mask;
 5080cbc:	e0bffd8b 	ldhu	r2,-10(fp)
 5080cc0:	0084303a 	nor	r2,zero,r2
 5080cc4:	1007883a 	mov	r3,r2
 5080cc8:	e0bffd0b 	ldhu	r2,-12(fp)
 5080ccc:	1884703a 	and	r2,r3,r2
 5080cd0:	e0bffd0d 	sth	r2,-12(fp)
    bSuccess = aduio_RegWrite(4, control); 
 5080cd4:	e0bffd0b 	ldhu	r2,-12(fp)
 5080cd8:	100b883a 	mov	r5,r2
 5080cdc:	01000104 	movi	r4,4
 5080ce0:	5080d8c0 	call	5080d8c <aduio_RegWrite>
 5080ce4:	e0bffe15 	stw	r2,-8(fp)
    return bSuccess;  	
 5080ce8:	e0bffe17 	ldw	r2,-8(fp)
}
 5080cec:	e037883a 	mov	sp,fp
 5080cf0:	dfc00117 	ldw	ra,4(sp)
 5080cf4:	df000017 	ldw	fp,0(sp)
 5080cf8:	dec00204 	addi	sp,sp,8
 5080cfc:	f800283a 	ret

05080d00 <AUDIO_EnableSiteTone>:

bool AUDIO_EnableSiteTone(bool bEnable){
 5080d00:	defffb04 	addi	sp,sp,-20
 5080d04:	dfc00415 	stw	ra,16(sp)
 5080d08:	df000315 	stw	fp,12(sp)
 5080d0c:	df000304 	addi	fp,sp,12
 5080d10:	e13fff15 	stw	r4,-4(fp)
    bool bSuccess;
    alt_u16 control;
    alt_u16 mask;
    control = reg_file[4];
 5080d14:	008142b4 	movhi	r2,1290
 5080d18:	10a5cf04 	addi	r2,r2,-26820
 5080d1c:	1080020b 	ldhu	r2,8(r2)
 5080d20:	e0bffd0d 	sth	r2,-12(fp)
    mask = 0x01 << 5;
 5080d24:	00800804 	movi	r2,32
 5080d28:	e0bffd8d 	sth	r2,-10(fp)
    if (bEnable)
 5080d2c:	e0bfff17 	ldw	r2,-4(fp)
 5080d30:	10000526 	beq	r2,zero,5080d48 <AUDIO_EnableSiteTone+0x48>
        control |= mask;
 5080d34:	e0fffd0b 	ldhu	r3,-12(fp)
 5080d38:	e0bffd8b 	ldhu	r2,-10(fp)
 5080d3c:	1884b03a 	or	r2,r3,r2
 5080d40:	e0bffd0d 	sth	r2,-12(fp)
 5080d44:	00000606 	br	5080d60 <AUDIO_EnableSiteTone+0x60>
    else        
        control &= ~mask;
 5080d48:	e0bffd8b 	ldhu	r2,-10(fp)
 5080d4c:	0084303a 	nor	r2,zero,r2
 5080d50:	1007883a 	mov	r3,r2
 5080d54:	e0bffd0b 	ldhu	r2,-12(fp)
 5080d58:	1884703a 	and	r2,r3,r2
 5080d5c:	e0bffd0d 	sth	r2,-12(fp)
    bSuccess = aduio_RegWrite(4, control); 
 5080d60:	e0bffd0b 	ldhu	r2,-12(fp)
 5080d64:	100b883a 	mov	r5,r2
 5080d68:	01000104 	movi	r4,4
 5080d6c:	5080d8c0 	call	5080d8c <aduio_RegWrite>
 5080d70:	e0bffe15 	stw	r2,-8(fp)
    return bSuccess;        
 5080d74:	e0bffe17 	ldw	r2,-8(fp)
}
 5080d78:	e037883a 	mov	sp,fp
 5080d7c:	dfc00117 	ldw	ra,4(sp)
 5080d80:	df000017 	ldw	fp,0(sp)
 5080d84:	dec00204 	addi	sp,sp,8
 5080d88:	f800283a 	ret

05080d8c <aduio_RegWrite>:

/////////////////////////////////////////////////////////////////////////
///////////// Interla function body ////////////////////////////////////
/////////////////////////////////////////////////////////////////////////

bool aduio_RegWrite(alt_u8 reg_index, alt_u16 data16){
 5080d8c:	defff904 	addi	sp,sp,-28
 5080d90:	dfc00615 	stw	ra,24(sp)
 5080d94:	df000515 	stw	fp,20(sp)
 5080d98:	df000504 	addi	fp,sp,20
 5080d9c:	2007883a 	mov	r3,r4
 5080da0:	2805883a 	mov	r2,r5
 5080da4:	e0fffe05 	stb	r3,-8(fp)
 5080da8:	e0bfff0d 	sth	r2,-4(fp)
    bool bSuccess;
    alt_u8 data, control;
    if (reg_index <= 10)
 5080dac:	e0bffe03 	ldbu	r2,-8(fp)
 5080db0:	108002e8 	cmpgeui	r2,r2,11
 5080db4:	1000071e 	bne	r2,zero,5080dd4 <aduio_RegWrite+0x48>
        reg_file[reg_index] = data16;
 5080db8:	e0fffe03 	ldbu	r3,-8(fp)
 5080dbc:	008142b4 	movhi	r2,1290
 5080dc0:	10a5cf04 	addi	r2,r2,-26820
 5080dc4:	18c7883a 	add	r3,r3,r3
 5080dc8:	10c5883a 	add	r2,r2,r3
 5080dcc:	e0ffff0b 	ldhu	r3,-4(fp)
 5080dd0:	10c0000d 	sth	r3,0(r2)
    data = data16 & 0xFF;
 5080dd4:	e0bfff0b 	ldhu	r2,-4(fp)
 5080dd8:	e0bffc05 	stb	r2,-16(fp)
    control = (reg_index << 1) & 0xFE;
 5080ddc:	e0bffe03 	ldbu	r2,-8(fp)
 5080de0:	1085883a 	add	r2,r2,r2
 5080de4:	e0bffc45 	stb	r2,-15(fp)
    control |= ((data16 >> 8) & 0x01);
 5080de8:	e0bfff0b 	ldhu	r2,-4(fp)
 5080dec:	1004d23a 	srli	r2,r2,8
 5080df0:	1080004c 	andi	r2,r2,1
 5080df4:	1007883a 	mov	r3,r2
 5080df8:	e0bffc43 	ldbu	r2,-15(fp)
 5080dfc:	1884b03a 	or	r2,r3,r2
 5080e00:	e0bffc45 	stb	r2,-15(fp)
    AUDIO_DEBUG(("[AUDIO] set audio reg[%02d] = %04Xh\r\n", reg_index, data16));
 5080e04:	e0bffe03 	ldbu	r2,-8(fp)
 5080e08:	e0ffff0b 	ldhu	r3,-4(fp)
 5080e0c:	180d883a 	mov	r6,r3
 5080e10:	100b883a 	mov	r5,r2
 5080e14:	01014274 	movhi	r4,1289
 5080e18:	2114ef04 	addi	r4,r4,21436
 5080e1c:	5081b2c0 	call	5081b2c <myprintf>
    bSuccess = I2C_Write(I2C_SCL_BASE, I2C_SDA_BASE, I2C_AUDIO_ADDR, control, data);
 5080e20:	e0fffc43 	ldbu	r3,-15(fp)
 5080e24:	e0bffc03 	ldbu	r2,-16(fp)
 5080e28:	d8800015 	stw	r2,0(sp)
 5080e2c:	180f883a 	mov	r7,r3
 5080e30:	01800d04 	movi	r6,52
 5080e34:	01410034 	movhi	r5,1024
 5080e38:	29400804 	addi	r5,r5,32
 5080e3c:	01010034 	movhi	r4,1024
 5080e40:	21000c04 	addi	r4,r4,48
 5080e44:	5080fd00 	call	5080fd0 <I2C_Write>
 5080e48:	e0bffd15 	stw	r2,-12(fp)
    if (!bSuccess) 
 5080e4c:	e0bffd17 	ldw	r2,-12(fp)
 5080e50:	1000031e 	bne	r2,zero,5080e60 <aduio_RegWrite+0xd4>
        AUDIO_DEBUG(("[AUDIO] write reg fail!!!!\r\n"));
 5080e54:	01014274 	movhi	r4,1289
 5080e58:	2114f904 	addi	r4,r4,21476
 5080e5c:	5081b2c0 	call	5081b2c <myprintf>
    usleep(50*1000);  // wait audio chip read        
 5080e60:	0130d414 	movui	r4,50000
 5080e64:	50932080 	call	5093208 <usleep>
    return bSuccess;        
 5080e68:	e0bffd17 	ldw	r2,-12(fp)
}
 5080e6c:	e037883a 	mov	sp,fp
 5080e70:	dfc00117 	ldw	ra,4(sp)
 5080e74:	df000017 	ldw	fp,0(sp)
 5080e78:	dec00204 	addi	sp,sp,8
 5080e7c:	f800283a 	ret

05080e80 <AUDIO_DacFifoNotFull>:

/////////////////////////////////////////////////////////////////////////
///////////// Audio Play & Recor ////////////////////////////////////////
/////////////////////////////////////////////////////////////////////////
// check whether the dac-fifo is full.
bool AUDIO_DacFifoNotFull(void){
 5080e80:	defffe04 	addi	sp,sp,-8
 5080e84:	df000115 	stw	fp,4(sp)
 5080e88:	df000104 	addi	fp,sp,4
    bool bReady;
    bReady = AUDIO_DAC_FULL()?FALSE:TRUE;
 5080e8c:	00814434 	movhi	r2,1296
 5080e90:	10840504 	addi	r2,r2,4116
 5080e94:	10800037 	ldwio	r2,0(r2)
 5080e98:	1080004c 	andi	r2,r2,1
 5080e9c:	1005003a 	cmpeq	r2,r2,zero
 5080ea0:	10803fcc 	andi	r2,r2,255
 5080ea4:	e0bfff15 	stw	r2,-4(fp)
    return bReady;
 5080ea8:	e0bfff17 	ldw	r2,-4(fp)
}
 5080eac:	e037883a 	mov	sp,fp
 5080eb0:	df000017 	ldw	fp,0(sp)
 5080eb4:	dec00104 	addi	sp,sp,4
 5080eb8:	f800283a 	ret

05080ebc <AUDIO_DacFifoSetData>:

// call AUDIO_PlayIsReady to make sure the fifo is not full before call this function 
void AUDIO_DacFifoSetData(short ch_left, short ch_right){
 5080ebc:	defffd04 	addi	sp,sp,-12
 5080ec0:	df000215 	stw	fp,8(sp)
 5080ec4:	df000204 	addi	fp,sp,8
 5080ec8:	2007883a 	mov	r3,r4
 5080ecc:	2805883a 	mov	r2,r5
 5080ed0:	e0fffe0d 	sth	r3,-8(fp)
 5080ed4:	e0bfff0d 	sth	r2,-4(fp)
    AUDIO_DAC_WRITE_L(ch_left);
 5080ed8:	e0fffe0f 	ldh	r3,-8(fp)
 5080edc:	00814434 	movhi	r2,1296
 5080ee0:	10840004 	addi	r2,r2,4096
 5080ee4:	10c00035 	stwio	r3,0(r2)
    AUDIO_DAC_WRITE_R(ch_right);
 5080ee8:	e0ffff0f 	ldh	r3,-4(fp)
 5080eec:	00814434 	movhi	r2,1296
 5080ef0:	10840104 	addi	r2,r2,4100
 5080ef4:	10c00035 	stwio	r3,0(r2)
}
 5080ef8:	0001883a 	nop
 5080efc:	e037883a 	mov	sp,fp
 5080f00:	df000017 	ldw	fp,0(sp)
 5080f04:	dec00104 	addi	sp,sp,4
 5080f08:	f800283a 	ret

05080f0c <AUDIO_AdcFifoNotEmpty>:

// wheck whether there is data available in adc-fifo
bool AUDIO_AdcFifoNotEmpty(void){
 5080f0c:	defffe04 	addi	sp,sp,-8
 5080f10:	df000115 	stw	fp,4(sp)
 5080f14:	df000104 	addi	fp,sp,4
    bool bReady;
    bReady = AUDIO_ADC_EMPTY()?FALSE:TRUE;
 5080f18:	00814434 	movhi	r2,1296
 5080f1c:	10840504 	addi	r2,r2,4116
 5080f20:	10800037 	ldwio	r2,0(r2)
 5080f24:	1080008c 	andi	r2,r2,2
 5080f28:	1005003a 	cmpeq	r2,r2,zero
 5080f2c:	10803fcc 	andi	r2,r2,255
 5080f30:	e0bfff15 	stw	r2,-4(fp)
    return bReady;
 5080f34:	e0bfff17 	ldw	r2,-4(fp)
}
 5080f38:	e037883a 	mov	sp,fp
 5080f3c:	df000017 	ldw	fp,0(sp)
 5080f40:	dec00104 	addi	sp,sp,4
 5080f44:	f800283a 	ret

05080f48 <AUDIO_AdcFifoGetData>:


// make sure the data is available before call this fucntion
void AUDIO_AdcFifoGetData(short *pch_left, short *pch_right){
 5080f48:	defffd04 	addi	sp,sp,-12
 5080f4c:	df000215 	stw	fp,8(sp)
 5080f50:	df000204 	addi	fp,sp,8
 5080f54:	e13ffe15 	stw	r4,-8(fp)
 5080f58:	e17fff15 	stw	r5,-4(fp)
    *pch_left = AUDIO_ADC_READ_L();
 5080f5c:	00814434 	movhi	r2,1296
 5080f60:	10840204 	addi	r2,r2,4104
 5080f64:	10800037 	ldwio	r2,0(r2)
 5080f68:	1007883a 	mov	r3,r2
 5080f6c:	e0bffe17 	ldw	r2,-8(fp)
 5080f70:	10c0000d 	sth	r3,0(r2)
    *pch_right = AUDIO_ADC_READ_R();
 5080f74:	00814434 	movhi	r2,1296
 5080f78:	10840304 	addi	r2,r2,4108
 5080f7c:	10800037 	ldwio	r2,0(r2)
 5080f80:	1007883a 	mov	r3,r2
 5080f84:	e0bfff17 	ldw	r2,-4(fp)
 5080f88:	10c0000d 	sth	r3,0(r2)
    
}
 5080f8c:	0001883a 	nop
 5080f90:	e037883a 	mov	sp,fp
 5080f94:	df000017 	ldw	fp,0(sp)
 5080f98:	dec00104 	addi	sp,sp,4
 5080f9c:	f800283a 	ret

05080fa0 <AUDIO_FifoClear>:

void AUDIO_FifoClear(void){
 5080fa0:	deffff04 	addi	sp,sp,-4
 5080fa4:	df000015 	stw	fp,0(sp)
 5080fa8:	d839883a 	mov	fp,sp
    AUDIO_FIFO_CLEAR();
 5080fac:	00c00044 	movi	r3,1
 5080fb0:	00814434 	movhi	r2,1296
 5080fb4:	10840404 	addi	r2,r2,4112
 5080fb8:	10c00035 	stwio	r3,0(r2)
}
 5080fbc:	0001883a 	nop
 5080fc0:	e037883a 	mov	sp,fp
 5080fc4:	df000017 	ldw	fp,0(sp)
 5080fc8:	dec00104 	addi	sp,sp,4
 5080fcc:	f800283a 	ret

05080fd0 <I2C_Write>:
bool i2c_write(alt_u32 clk_base, alt_u32 data_base, alt_u8 Data);
void i2c_read(alt_u32 clk_base, alt_u32 data_base, alt_u8 *pData, bool bAck);



bool I2C_Write(alt_u32 clk_base, alt_u32 data_base, alt_8 DeviceAddr, alt_u8 ControlAddr, alt_u8 ControlData){
 5080fd0:	defff804 	addi	sp,sp,-32
 5080fd4:	dfc00715 	stw	ra,28(sp)
 5080fd8:	df000615 	stw	fp,24(sp)
 5080fdc:	df000604 	addi	fp,sp,24
 5080fe0:	e13ffb15 	stw	r4,-20(fp)
 5080fe4:	e17ffc15 	stw	r5,-16(fp)
 5080fe8:	3009883a 	mov	r4,r6
 5080fec:	3807883a 	mov	r3,r7
 5080ff0:	e0800217 	ldw	r2,8(fp)
 5080ff4:	e13ffd05 	stb	r4,-12(fp)
 5080ff8:	e0fffe05 	stb	r3,-8(fp)
 5080ffc:	e0bfff05 	stb	r2,-4(fp)
    bool bSuccess = TRUE;
 5081000:	00800044 	movi	r2,1
 5081004:	e0bffa15 	stw	r2,-24(fp)
    //alt_u8 DeviceAddr;
    
    // device id
    //DeviceAddr = HMB_E2_I2C_ID;

    i2c_start(clk_base, data_base);
 5081008:	e17ffc17 	ldw	r5,-16(fp)
 508100c:	e13ffb17 	ldw	r4,-20(fp)
 5081010:	508136c0 	call	508136c <i2c_start>
    if (!i2c_write(clk_base, data_base, DeviceAddr)){  // send ID
 5081014:	e0bffd03 	ldbu	r2,-12(fp)
 5081018:	10803fcc 	andi	r2,r2,255
 508101c:	100d883a 	mov	r6,r2
 5081020:	e17ffc17 	ldw	r5,-16(fp)
 5081024:	e13ffb17 	ldw	r4,-20(fp)
 5081028:	50814700 	call	5081470 <i2c_write>
 508102c:	1000041e 	bne	r2,zero,5081040 <I2C_Write+0x70>
        bSuccess = FALSE;
 5081030:	e03ffa15 	stw	zero,-24(fp)
        I2C_DEBUG(("I2C HMB_E2 Fail: Address NACK!\n"));
 5081034:	01014274 	movhi	r4,1289
 5081038:	21150104 	addi	r4,r4,21508
 508103c:	5081b2c0 	call	5081b2c <myprintf>
    }
    if (bSuccess && !i2c_write(clk_base, data_base, ControlAddr)){ // send sub-address
 5081040:	e0bffa17 	ldw	r2,-24(fp)
 5081044:	10000a26 	beq	r2,zero,5081070 <I2C_Write+0xa0>
 5081048:	e0bffe03 	ldbu	r2,-8(fp)
 508104c:	100d883a 	mov	r6,r2
 5081050:	e17ffc17 	ldw	r5,-16(fp)
 5081054:	e13ffb17 	ldw	r4,-20(fp)
 5081058:	50814700 	call	5081470 <i2c_write>
 508105c:	1000041e 	bne	r2,zero,5081070 <I2C_Write+0xa0>
        bSuccess = FALSE;
 5081060:	e03ffa15 	stw	zero,-24(fp)
        I2C_DEBUG(("I2C HMB_E2 Fail: SubAddress NACK!\n"));
 5081064:	01014274 	movhi	r4,1289
 5081068:	21150904 	addi	r4,r4,21540
 508106c:	5081b2c0 	call	5081b2c <myprintf>
    }            
    if (bSuccess && !i2c_write(clk_base, data_base, ControlData)){  
 5081070:	e0bffa17 	ldw	r2,-24(fp)
 5081074:	10000a26 	beq	r2,zero,50810a0 <I2C_Write+0xd0>
 5081078:	e0bfff03 	ldbu	r2,-4(fp)
 508107c:	100d883a 	mov	r6,r2
 5081080:	e17ffc17 	ldw	r5,-16(fp)
 5081084:	e13ffb17 	ldw	r4,-20(fp)
 5081088:	50814700 	call	5081470 <i2c_write>
 508108c:	1000041e 	bne	r2,zero,50810a0 <I2C_Write+0xd0>
        bSuccess = FALSE;
 5081090:	e03ffa15 	stw	zero,-24(fp)
        I2C_DEBUG(("I2C HMB_E2 Fail: write NACK!\n"));
 5081094:	01014274 	movhi	r4,1289
 5081098:	21151204 	addi	r4,r4,21576
 508109c:	5081b2c0 	call	5081b2c <myprintf>
    }
    i2c_stop(clk_base, data_base);
 50810a0:	e17ffc17 	ldw	r5,-16(fp)
 50810a4:	e13ffb17 	ldw	r4,-20(fp)
 50810a8:	50813f80 	call	50813f8 <i2c_stop>
    
    usleep(7*1000); // delay to wait EE2 ready (at least 5 ms delay is required)
 50810ac:	0106d604 	movi	r4,7000
 50810b0:	50932080 	call	5093208 <usleep>
    
    return bSuccess;
 50810b4:	e0bffa17 	ldw	r2,-24(fp)

    
}
 50810b8:	e037883a 	mov	sp,fp
 50810bc:	dfc00117 	ldw	ra,4(sp)
 50810c0:	df000017 	ldw	fp,0(sp)
 50810c4:	dec00204 	addi	sp,sp,8
 50810c8:	f800283a 	ret

050810cc <I2C_Read>:

bool I2C_Read(alt_u32 clk_base, alt_u32 data_base, alt_8 DeviceAddr, alt_u8 ControlAddr, alt_u8 *pControlData){
 50810cc:	defff904 	addi	sp,sp,-28
 50810d0:	dfc00615 	stw	ra,24(sp)
 50810d4:	df000515 	stw	fp,20(sp)
 50810d8:	df000504 	addi	fp,sp,20
 50810dc:	e13ffc15 	stw	r4,-16(fp)
 50810e0:	e17ffd15 	stw	r5,-12(fp)
 50810e4:	3007883a 	mov	r3,r6
 50810e8:	3805883a 	mov	r2,r7
 50810ec:	e0fffe05 	stb	r3,-8(fp)
 50810f0:	e0bfff05 	stb	r2,-4(fp)
    bool bSuccess = TRUE;
 50810f4:	00800044 	movi	r2,1
 50810f8:	e0bffb15 	stw	r2,-20(fp)
    //alt_u8 DeviceAddr;
   
    // device id
    //DeviceAddr = HMB_E2_I2C_ID;

    i2c_start(clk_base, data_base);
 50810fc:	e17ffd17 	ldw	r5,-12(fp)
 5081100:	e13ffc17 	ldw	r4,-16(fp)
 5081104:	508136c0 	call	508136c <i2c_start>
    if (!i2c_write(clk_base, data_base, DeviceAddr)){  // send ID
 5081108:	e0bffe03 	ldbu	r2,-8(fp)
 508110c:	10803fcc 	andi	r2,r2,255
 5081110:	100d883a 	mov	r6,r2
 5081114:	e17ffd17 	ldw	r5,-12(fp)
 5081118:	e13ffc17 	ldw	r4,-16(fp)
 508111c:	50814700 	call	5081470 <i2c_write>
 5081120:	1000041e 	bne	r2,zero,5081134 <I2C_Read+0x68>
        bSuccess = FALSE;
 5081124:	e03ffb15 	stw	zero,-20(fp)
        I2C_DEBUG(("I2C HMB_E2 Fail: Address NACK!\n"));
 5081128:	01014274 	movhi	r4,1289
 508112c:	21150104 	addi	r4,r4,21508
 5081130:	5081b2c0 	call	5081b2c <myprintf>
    }
    if (bSuccess && !i2c_write(clk_base, data_base, ControlAddr)){ // send sub-address
 5081134:	e0bffb17 	ldw	r2,-20(fp)
 5081138:	10000a26 	beq	r2,zero,5081164 <I2C_Read+0x98>
 508113c:	e0bfff03 	ldbu	r2,-4(fp)
 5081140:	100d883a 	mov	r6,r2
 5081144:	e17ffd17 	ldw	r5,-12(fp)
 5081148:	e13ffc17 	ldw	r4,-16(fp)
 508114c:	50814700 	call	5081470 <i2c_write>
 5081150:	1000041e 	bne	r2,zero,5081164 <I2C_Read+0x98>
        bSuccess = FALSE;
 5081154:	e03ffb15 	stw	zero,-20(fp)
        I2C_DEBUG(("I2C HMB_E2 Fail: SubAddress NACK!\n"));
 5081158:	01014274 	movhi	r4,1289
 508115c:	21150904 	addi	r4,r4,21540
 5081160:	5081b2c0 	call	5081b2c <myprintf>
    }            
    i2c_start(clk_base, data_base);  // restart
 5081164:	e17ffd17 	ldw	r5,-12(fp)
 5081168:	e13ffc17 	ldw	r4,-16(fp)
 508116c:	508136c0 	call	508136c <i2c_start>
    DeviceAddr |= 1; // Read
 5081170:	e0bffe03 	ldbu	r2,-8(fp)
 5081174:	10800054 	ori	r2,r2,1
 5081178:	e0bffe05 	stb	r2,-8(fp)
    if (bSuccess && !i2c_write(clk_base, data_base, DeviceAddr)){  // send id
 508117c:	e0bffb17 	ldw	r2,-20(fp)
 5081180:	10000b26 	beq	r2,zero,50811b0 <I2C_Read+0xe4>
 5081184:	e0bffe03 	ldbu	r2,-8(fp)
 5081188:	10803fcc 	andi	r2,r2,255
 508118c:	100d883a 	mov	r6,r2
 5081190:	e17ffd17 	ldw	r5,-12(fp)
 5081194:	e13ffc17 	ldw	r4,-16(fp)
 5081198:	50814700 	call	5081470 <i2c_write>
 508119c:	1000041e 	bne	r2,zero,50811b0 <I2C_Read+0xe4>
        bSuccess = FALSE;
 50811a0:	e03ffb15 	stw	zero,-20(fp)
        I2C_DEBUG(("I2C HMB_E2 Fail: Address+1 NACK!\n"));
 50811a4:	01014274 	movhi	r4,1289
 50811a8:	21151a04 	addi	r4,r4,21608
 50811ac:	5081b2c0 	call	5081b2c <myprintf>
    }
    
    if (bSuccess){
 50811b0:	e0bffb17 	ldw	r2,-20(fp)
 50811b4:	10000526 	beq	r2,zero,50811cc <I2C_Read+0x100>
        i2c_read(clk_base, data_base, pControlData, FALSE);  // read
 50811b8:	000f883a 	mov	r7,zero
 50811bc:	e1800217 	ldw	r6,8(fp)
 50811c0:	e17ffd17 	ldw	r5,-12(fp)
 50811c4:	e13ffc17 	ldw	r4,-16(fp)
 50811c8:	50815a00 	call	50815a0 <i2c_read>
    }        
    i2c_stop(clk_base, data_base);
 50811cc:	e17ffd17 	ldw	r5,-12(fp)
 50811d0:	e13ffc17 	ldw	r4,-16(fp)
 50811d4:	50813f80 	call	50813f8 <i2c_stop>
    
    return bSuccess;
 50811d8:	e0bffb17 	ldw	r2,-20(fp)
}
 50811dc:	e037883a 	mov	sp,fp
 50811e0:	dfc00117 	ldw	ra,4(sp)
 50811e4:	df000017 	ldw	fp,0(sp)
 50811e8:	dec00204 	addi	sp,sp,8
 50811ec:	f800283a 	ret

050811f0 <I2C_MultipleRead>:

bool I2C_MultipleRead(alt_u32 clk_base, alt_u32 data_base, alt_8 DeviceAddr, alt_u8 szData[], alt_u16 len){
 50811f0:	defff604 	addi	sp,sp,-40
 50811f4:	dfc00915 	stw	ra,36(sp)
 50811f8:	df000815 	stw	fp,32(sp)
 50811fc:	df000804 	addi	fp,sp,32
 5081200:	e13ffb15 	stw	r4,-20(fp)
 5081204:	e17ffc15 	stw	r5,-16(fp)
 5081208:	3007883a 	mov	r3,r6
 508120c:	e1fffe15 	stw	r7,-8(fp)
 5081210:	e0800217 	ldw	r2,8(fp)
 5081214:	e0fffd05 	stb	r3,-12(fp)
 5081218:	e0bfff0d 	sth	r2,-4(fp)
    int i;
    bool bSuccess = TRUE;
 508121c:	00800044 	movi	r2,1
 5081220:	e0bff915 	stw	r2,-28(fp)
    //alt_u8 DeviceAddr, 
    alt_u8 ControlAddr = 0;
 5081224:	e03ffa05 	stb	zero,-24(fp)
    
   
    // device id
    //DeviceAddr = HMB_E2_I2C_ID;

    i2c_start(clk_base, data_base);
 5081228:	e17ffc17 	ldw	r5,-16(fp)
 508122c:	e13ffb17 	ldw	r4,-20(fp)
 5081230:	508136c0 	call	508136c <i2c_start>
    if (!i2c_write(clk_base, data_base, DeviceAddr)){  // send ID
 5081234:	e0bffd03 	ldbu	r2,-12(fp)
 5081238:	10803fcc 	andi	r2,r2,255
 508123c:	100d883a 	mov	r6,r2
 5081240:	e17ffc17 	ldw	r5,-16(fp)
 5081244:	e13ffb17 	ldw	r4,-20(fp)
 5081248:	50814700 	call	5081470 <i2c_write>
 508124c:	1000041e 	bne	r2,zero,5081260 <I2C_MultipleRead+0x70>
        bSuccess = FALSE;
 5081250:	e03ff915 	stw	zero,-28(fp)
        I2C_DEBUG(("I2C HMB_E2 Fail: Address NACK!\n"));
 5081254:	01014274 	movhi	r4,1289
 5081258:	21150104 	addi	r4,r4,21508
 508125c:	5081b2c0 	call	5081b2c <myprintf>
    }
    if (bSuccess && !i2c_write(clk_base, data_base, ControlAddr)){ // send sub-address
 5081260:	e0bff917 	ldw	r2,-28(fp)
 5081264:	10000a26 	beq	r2,zero,5081290 <I2C_MultipleRead+0xa0>
 5081268:	e0bffa03 	ldbu	r2,-24(fp)
 508126c:	100d883a 	mov	r6,r2
 5081270:	e17ffc17 	ldw	r5,-16(fp)
 5081274:	e13ffb17 	ldw	r4,-20(fp)
 5081278:	50814700 	call	5081470 <i2c_write>
 508127c:	1000041e 	bne	r2,zero,5081290 <I2C_MultipleRead+0xa0>
        bSuccess = FALSE;
 5081280:	e03ff915 	stw	zero,-28(fp)
        I2C_DEBUG(("I2C HMB_E2 Fail: SubAddress NACK!\n"));
 5081284:	01014274 	movhi	r4,1289
 5081288:	21150904 	addi	r4,r4,21540
 508128c:	5081b2c0 	call	5081b2c <myprintf>
    }    
    if (bSuccess)        
 5081290:	e0bff917 	ldw	r2,-28(fp)
 5081294:	10000326 	beq	r2,zero,50812a4 <I2C_MultipleRead+0xb4>
        i2c_start(clk_base, data_base);  // restart
 5081298:	e17ffc17 	ldw	r5,-16(fp)
 508129c:	e13ffb17 	ldw	r4,-20(fp)
 50812a0:	508136c0 	call	508136c <i2c_start>
    DeviceAddr |= 1; // Read
 50812a4:	e0bffd03 	ldbu	r2,-12(fp)
 50812a8:	10800054 	ori	r2,r2,1
 50812ac:	e0bffd05 	stb	r2,-12(fp)
    if (bSuccess && !i2c_write(clk_base, data_base, DeviceAddr)){  // send id
 50812b0:	e0bff917 	ldw	r2,-28(fp)
 50812b4:	10000b26 	beq	r2,zero,50812e4 <I2C_MultipleRead+0xf4>
 50812b8:	e0bffd03 	ldbu	r2,-12(fp)
 50812bc:	10803fcc 	andi	r2,r2,255
 50812c0:	100d883a 	mov	r6,r2
 50812c4:	e17ffc17 	ldw	r5,-16(fp)
 50812c8:	e13ffb17 	ldw	r4,-20(fp)
 50812cc:	50814700 	call	5081470 <i2c_write>
 50812d0:	1000041e 	bne	r2,zero,50812e4 <I2C_MultipleRead+0xf4>
        bSuccess = FALSE;
 50812d4:	e03ff915 	stw	zero,-28(fp)
        I2C_DEBUG(("I2C HMB_E2 Fail: Address+1 NACK!\n"));
 50812d8:	01014274 	movhi	r4,1289
 50812dc:	21151a04 	addi	r4,r4,21608
 50812e0:	5081b2c0 	call	5081b2c <myprintf>
    }
    
    if (bSuccess){
 50812e4:	e0bff917 	ldw	r2,-28(fp)
 50812e8:	10001726 	beq	r2,zero,5081348 <I2C_MultipleRead+0x158>
        for(i=0;i<len && bSuccess;i++){
 50812ec:	e03ff815 	stw	zero,-32(fp)
 50812f0:	00001006 	br	5081334 <I2C_MultipleRead+0x144>
            i2c_read(clk_base, data_base, &szData[i], (i==(len-1))?FALSE:TRUE);  // read
 50812f4:	e0bff817 	ldw	r2,-32(fp)
 50812f8:	e0fffe17 	ldw	r3,-8(fp)
 50812fc:	1889883a 	add	r4,r3,r2
 5081300:	e0bfff0b 	ldhu	r2,-4(fp)
 5081304:	10ffffc4 	addi	r3,r2,-1
 5081308:	e0bff817 	ldw	r2,-32(fp)
 508130c:	1884c03a 	cmpne	r2,r3,r2
 5081310:	10803fcc 	andi	r2,r2,255
 5081314:	100f883a 	mov	r7,r2
 5081318:	200d883a 	mov	r6,r4
 508131c:	e17ffc17 	ldw	r5,-16(fp)
 5081320:	e13ffb17 	ldw	r4,-20(fp)
 5081324:	50815a00 	call	50815a0 <i2c_read>
        bSuccess = FALSE;
        I2C_DEBUG(("I2C HMB_E2 Fail: Address+1 NACK!\n"));
    }
    
    if (bSuccess){
        for(i=0;i<len && bSuccess;i++){
 5081328:	e0bff817 	ldw	r2,-32(fp)
 508132c:	10800044 	addi	r2,r2,1
 5081330:	e0bff815 	stw	r2,-32(fp)
 5081334:	e0bfff0b 	ldhu	r2,-4(fp)
 5081338:	e0fff817 	ldw	r3,-32(fp)
 508133c:	1880020e 	bge	r3,r2,5081348 <I2C_MultipleRead+0x158>
 5081340:	e0bff917 	ldw	r2,-28(fp)
 5081344:	103feb1e 	bne	r2,zero,50812f4 <__alt_data_end+0xfffb30f4>
            i2c_read(clk_base, data_base, &szData[i], (i==(len-1))?FALSE:TRUE);  // read
        }            
    }        
    i2c_stop(clk_base, data_base);
 5081348:	e17ffc17 	ldw	r5,-16(fp)
 508134c:	e13ffb17 	ldw	r4,-20(fp)
 5081350:	50813f80 	call	50813f8 <i2c_stop>
    
    return bSuccess;    
 5081354:	e0bff917 	ldw	r2,-28(fp)
    
}
 5081358:	e037883a 	mov	sp,fp
 508135c:	dfc00117 	ldw	ra,4(sp)
 5081360:	df000017 	ldw	fp,0(sp)
 5081364:	dec00204 	addi	sp,sp,8
 5081368:	f800283a 	ret

0508136c <i2c_start>:
///////////// Interncal function (i2cXXX) body //////////////////////////////////////////////
/////////////////////////////////////////////////////////////////////////////////////////////


//SDA 1->0 while SCL=1
void i2c_start(alt_u32 clk_base, alt_u32 data_base){
 508136c:	defffc04 	addi	sp,sp,-16
 5081370:	dfc00315 	stw	ra,12(sp)
 5081374:	df000215 	stw	fp,8(sp)
 5081378:	df000204 	addi	fp,sp,8
 508137c:	e13ffe15 	stw	r4,-8(fp)
 5081380:	e17fff15 	stw	r5,-4(fp)
    
    // make sure it is in normal state
    SDA_DIR_OUT(data_base);  // data output enabled
 5081384:	e0bfff17 	ldw	r2,-4(fp)
 5081388:	10800104 	addi	r2,r2,4
 508138c:	1007883a 	mov	r3,r2
 5081390:	00800044 	movi	r2,1
 5081394:	18800035 	stwio	r2,0(r3)
    
    
    
    // start condition 
    SDA_HIGH(data_base); // data high
 5081398:	e0bfff17 	ldw	r2,-4(fp)
 508139c:	00c00044 	movi	r3,1
 50813a0:	10c00035 	stwio	r3,0(r2)
    SCL_HIGH(clk_base);
 50813a4:	e0bffe17 	ldw	r2,-8(fp)
 50813a8:	00c00044 	movi	r3,1
 50813ac:	10c00035 	stwio	r3,0(r2)
    SCL_DELAY;
 50813b0:	01000044 	movi	r4,1
 50813b4:	50932080 	call	5093208 <usleep>
     
    SDA_LOW(data_base); // data low
 50813b8:	e0bfff17 	ldw	r2,-4(fp)
 50813bc:	0007883a 	mov	r3,zero
 50813c0:	10c00035 	stwio	r3,0(r2)
    SCL_DELAY; 
 50813c4:	01000044 	movi	r4,1
 50813c8:	50932080 	call	5093208 <usleep>
    SCL_LOW(clk_base); // clock low
 50813cc:	e0bffe17 	ldw	r2,-8(fp)
 50813d0:	0007883a 	mov	r3,zero
 50813d4:	10c00035 	stwio	r3,0(r2)
    SCL_DELAY;
 50813d8:	01000044 	movi	r4,1
 50813dc:	50932080 	call	5093208 <usleep>
}
 50813e0:	0001883a 	nop
 50813e4:	e037883a 	mov	sp,fp
 50813e8:	dfc00117 	ldw	ra,4(sp)
 50813ec:	df000017 	ldw	fp,0(sp)
 50813f0:	dec00204 	addi	sp,sp,8
 50813f4:	f800283a 	ret

050813f8 <i2c_stop>:

// SDA 0->1 while SCL=1
void i2c_stop(alt_u32 clk_base, alt_u32 data_base){
 50813f8:	defffc04 	addi	sp,sp,-16
 50813fc:	dfc00315 	stw	ra,12(sp)
 5081400:	df000215 	stw	fp,8(sp)
 5081404:	df000204 	addi	fp,sp,8
 5081408:	e13ffe15 	stw	r4,-8(fp)
 508140c:	e17fff15 	stw	r5,-4(fp)
    // assume SCL = 0
    
    SDA_DIR_OUT(data_base);  // data output enabled
 5081410:	e0bfff17 	ldw	r2,-4(fp)
 5081414:	10800104 	addi	r2,r2,4
 5081418:	1007883a 	mov	r3,r2
 508141c:	00800044 	movi	r2,1
 5081420:	18800035 	stwio	r2,0(r3)
    SDA_LOW(data_base); // Data Low
 5081424:	e0bfff17 	ldw	r2,-4(fp)
 5081428:	0007883a 	mov	r3,zero
 508142c:	10c00035 	stwio	r3,0(r2)
    //SCL_DELAY; 
    SCL_HIGH(clk_base);  // clock high
 5081430:	e0bffe17 	ldw	r2,-8(fp)
 5081434:	00c00044 	movi	r3,1
 5081438:	10c00035 	stwio	r3,0(r2)
    SCL_DELAY; // clock high long delay
 508143c:	01000044 	movi	r4,1
 5081440:	50932080 	call	5093208 <usleep>
    SDA_HIGH(data_base); // data high
 5081444:	e0bfff17 	ldw	r2,-4(fp)
 5081448:	00c00044 	movi	r3,1
 508144c:	10c00035 	stwio	r3,0(r2)
    SCL_DELAY; // data high delay
 5081450:	01000044 	movi	r4,1
 5081454:	50932080 	call	5093208 <usleep>
}
 5081458:	0001883a 	nop
 508145c:	e037883a 	mov	sp,fp
 5081460:	dfc00117 	ldw	ra,4(sp)
 5081464:	df000017 	ldw	fp,0(sp)
 5081468:	dec00204 	addi	sp,sp,8
 508146c:	f800283a 	ret

05081470 <i2c_write>:

bool i2c_write(alt_u32 clk_base, alt_u32 data_base, alt_u8 Data){ // return true if device response ack
 5081470:	defff804 	addi	sp,sp,-32
 5081474:	dfc00715 	stw	ra,28(sp)
 5081478:	df000615 	stw	fp,24(sp)
 508147c:	df000604 	addi	fp,sp,24
 5081480:	e13ffd15 	stw	r4,-12(fp)
 5081484:	e17ffe15 	stw	r5,-8(fp)
 5081488:	3005883a 	mov	r2,r6
 508148c:	e0bfff05 	stb	r2,-4(fp)
    alt_u8 Mask = 0x80;
 5081490:	00bfe004 	movi	r2,-128
 5081494:	e0bffa05 	stb	r2,-24(fp)
    bool bAck;
    int i;
    
    // assume, SCL = 0
    
    SDA_DIR_OUT(data_base);  // data write mode
 5081498:	e0bffe17 	ldw	r2,-8(fp)
 508149c:	10800104 	addi	r2,r2,4
 50814a0:	1007883a 	mov	r3,r2
 50814a4:	00800044 	movi	r2,1
 50814a8:	18800035 	stwio	r2,0(r3)
    
    for(i=0;i<8;i++){
 50814ac:	e03ffb15 	stw	zero,-20(fp)
 50814b0:	00001f06 	br	5081530 <i2c_write+0xc0>
        SCL_LOW(clk_base);  // new, make sure data change at clk low
 50814b4:	e0bffd17 	ldw	r2,-12(fp)
 50814b8:	0007883a 	mov	r3,zero
 50814bc:	10c00035 	stwio	r3,0(r2)
        // output data on bus
        if (Data & Mask){ // there is a delay in this command
 50814c0:	e0ffff03 	ldbu	r3,-4(fp)
 50814c4:	e0bffa03 	ldbu	r2,-24(fp)
 50814c8:	1884703a 	and	r2,r3,r2
 50814cc:	10803fcc 	andi	r2,r2,255
 50814d0:	10000426 	beq	r2,zero,50814e4 <i2c_write+0x74>
            SDA_HIGH(data_base);
 50814d4:	e0bffe17 	ldw	r2,-8(fp)
 50814d8:	00c00044 	movi	r3,1
 50814dc:	10c00035 	stwio	r3,0(r2)
 50814e0:	00000306 	br	50814f0 <i2c_write+0x80>
        }else{    
            SDA_LOW(data_base);
 50814e4:	e0bffe17 	ldw	r2,-8(fp)
 50814e8:	0007883a 	mov	r3,zero
 50814ec:	10c00035 	stwio	r3,0(r2)
        }
        Mask >>= 1; // there is a delay in this command
 50814f0:	e0bffa03 	ldbu	r2,-24(fp)
 50814f4:	1004d07a 	srli	r2,r2,1
 50814f8:	e0bffa05 	stb	r2,-24(fp)
        // clock high
        SCL_HIGH(clk_base);
 50814fc:	e0bffd17 	ldw	r2,-12(fp)
 5081500:	00c00044 	movi	r3,1
 5081504:	10c00035 	stwio	r3,0(r2)
        SCL_DELAY;
 5081508:	01000044 	movi	r4,1
 508150c:	50932080 	call	5093208 <usleep>
        SCL_LOW(clk_base);
 5081510:	e0bffd17 	ldw	r2,-12(fp)
 5081514:	0007883a 	mov	r3,zero
 5081518:	10c00035 	stwio	r3,0(r2)
        SCL_DELAY;
 508151c:	01000044 	movi	r4,1
 5081520:	50932080 	call	5093208 <usleep>
    
    // assume, SCL = 0
    
    SDA_DIR_OUT(data_base);  // data write mode
    
    for(i=0;i<8;i++){
 5081524:	e0bffb17 	ldw	r2,-20(fp)
 5081528:	10800044 	addi	r2,r2,1
 508152c:	e0bffb15 	stw	r2,-20(fp)
 5081530:	e0bffb17 	ldw	r2,-20(fp)
 5081534:	10800210 	cmplti	r2,r2,8
 5081538:	103fde1e 	bne	r2,zero,50814b4 <__alt_data_end+0xfffb32b4>
        SCL_LOW(clk_base);
        SCL_DELAY;
    }
    
    //===== get ack
    SDA_DIR_IN(data_base);  // data read mode
 508153c:	e0bffe17 	ldw	r2,-8(fp)
 5081540:	10800104 	addi	r2,r2,4
 5081544:	0007883a 	mov	r3,zero
 5081548:	10c00035 	stwio	r3,0(r2)
    //SCL_DELAY;
    // clock high
    SCL_HIGH(clk_base);  // clock high
 508154c:	e0bffd17 	ldw	r2,-12(fp)
 5081550:	00c00044 	movi	r3,1
 5081554:	10c00035 	stwio	r3,0(r2)
    SCL_DELAY;  // clock high delay
 5081558:	01000044 	movi	r4,1
 508155c:	50932080 	call	5093208 <usleep>
    bAck = SDA_READ(data_base)?FALSE:TRUE;  // get ack
 5081560:	e0bffe17 	ldw	r2,-8(fp)
 5081564:	10800037 	ldwio	r2,0(r2)
 5081568:	1005003a 	cmpeq	r2,r2,zero
 508156c:	10803fcc 	andi	r2,r2,255
 5081570:	e0bffc15 	stw	r2,-16(fp)
    //SCL_DELAY;
    //SDA_DIR_OUT;
    SCL_LOW(clk_base); // clock low         
 5081574:	e0bffd17 	ldw	r2,-12(fp)
 5081578:	0007883a 	mov	r3,zero
 508157c:	10c00035 	stwio	r3,0(r2)
    SCL_DELAY; // clock low delay
 5081580:	01000044 	movi	r4,1
 5081584:	50932080 	call	5093208 <usleep>
    return bAck;
 5081588:	e0bffc17 	ldw	r2,-16(fp)
}    
 508158c:	e037883a 	mov	sp,fp
 5081590:	dfc00117 	ldw	ra,4(sp)
 5081594:	df000017 	ldw	fp,0(sp)
 5081598:	dec00204 	addi	sp,sp,8
 508159c:	f800283a 	ret

050815a0 <i2c_read>:

void i2c_read(alt_u32 clk_base, alt_u32 data_base, alt_u8 *pData, bool bAck){ // return true if device response ack
 50815a0:	defff804 	addi	sp,sp,-32
 50815a4:	dfc00715 	stw	ra,28(sp)
 50815a8:	df000615 	stw	fp,24(sp)
 50815ac:	df000604 	addi	fp,sp,24
 50815b0:	e13ffc15 	stw	r4,-16(fp)
 50815b4:	e17ffd15 	stw	r5,-12(fp)
 50815b8:	e1bffe15 	stw	r6,-8(fp)
 50815bc:	e1ffff15 	stw	r7,-4(fp)
    alt_u8 Data=0;
 50815c0:	e03ffa05 	stb	zero,-24(fp)
    int i;
    
    // assume SCL = low
    
    SDA_DIR_IN(data_base);  // set data read mode
 50815c4:	e0bffd17 	ldw	r2,-12(fp)
 50815c8:	10800104 	addi	r2,r2,4
 50815cc:	0007883a 	mov	r3,zero
 50815d0:	10c00035 	stwio	r3,0(r2)
    SCL_LOW(clk_base); // clock low
 50815d4:	e0bffc17 	ldw	r2,-16(fp)
 50815d8:	0007883a 	mov	r3,zero
 50815dc:	10c00035 	stwio	r3,0(r2)
    SCL_DELAY; // clock low delay
 50815e0:	01000044 	movi	r4,1
 50815e4:	50932080 	call	5093208 <usleep>

    for(i=0;i<8;i++){
 50815e8:	e03ffb15 	stw	zero,-20(fp)
 50815ec:	00001606 	br	5081648 <i2c_read+0xa8>
        Data <<= 1;
 50815f0:	e0bffa03 	ldbu	r2,-24(fp)
 50815f4:	1085883a 	add	r2,r2,r2
 50815f8:	e0bffa05 	stb	r2,-24(fp)
        SCL_HIGH(clk_base);  // clock high
 50815fc:	e0bffc17 	ldw	r2,-16(fp)
 5081600:	00c00044 	movi	r3,1
 5081604:	10c00035 	stwio	r3,0(r2)
        SCL_DELAY;
 5081608:	01000044 	movi	r4,1
 508160c:	50932080 	call	5093208 <usleep>
        if (SDA_READ(data_base))  // read data   
 5081610:	e0bffd17 	ldw	r2,-12(fp)
 5081614:	10800037 	ldwio	r2,0(r2)
 5081618:	10000326 	beq	r2,zero,5081628 <i2c_read+0x88>
            Data |= 0x01;
 508161c:	e0bffa03 	ldbu	r2,-24(fp)
 5081620:	10800054 	ori	r2,r2,1
 5081624:	e0bffa05 	stb	r2,-24(fp)
        SCL_LOW(clk_base);  // clock log  
 5081628:	e0bffc17 	ldw	r2,-16(fp)
 508162c:	0007883a 	mov	r3,zero
 5081630:	10c00035 	stwio	r3,0(r2)
        SCL_DELAY;
 5081634:	01000044 	movi	r4,1
 5081638:	50932080 	call	5093208 <usleep>
    
    SDA_DIR_IN(data_base);  // set data read mode
    SCL_LOW(clk_base); // clock low
    SCL_DELAY; // clock low delay

    for(i=0;i<8;i++){
 508163c:	e0bffb17 	ldw	r2,-20(fp)
 5081640:	10800044 	addi	r2,r2,1
 5081644:	e0bffb15 	stw	r2,-20(fp)
 5081648:	e0bffb17 	ldw	r2,-20(fp)
 508164c:	10800210 	cmplti	r2,r2,8
 5081650:	103fe71e 	bne	r2,zero,50815f0 <__alt_data_end+0xfffb33f0>
        SCL_LOW(clk_base);  // clock log  
        SCL_DELAY;
    }
    
    // send ACK
    SCL_LOW(clk_base);  // new, make sure data change at clk low
 5081654:	e0bffc17 	ldw	r2,-16(fp)
 5081658:	0007883a 	mov	r3,zero
 508165c:	10c00035 	stwio	r3,0(r2)
    SDA_DIR_OUT(data_base);  // set data write mode
 5081660:	e0bffd17 	ldw	r2,-12(fp)
 5081664:	10800104 	addi	r2,r2,4
 5081668:	1007883a 	mov	r3,r2
 508166c:	00800044 	movi	r2,1
 5081670:	18800035 	stwio	r2,0(r3)
    if (bAck)
 5081674:	e0bfff17 	ldw	r2,-4(fp)
 5081678:	10000426 	beq	r2,zero,508168c <i2c_read+0xec>
        SDA_LOW(data_base);
 508167c:	e0bffd17 	ldw	r2,-12(fp)
 5081680:	0007883a 	mov	r3,zero
 5081684:	10c00035 	stwio	r3,0(r2)
 5081688:	00000306 	br	5081698 <i2c_read+0xf8>
    else
        SDA_HIGH(data_base);
 508168c:	e0bffd17 	ldw	r2,-12(fp)
 5081690:	00c00044 	movi	r3,1
 5081694:	10c00035 	stwio	r3,0(r2)
    SCL_HIGH(clk_base); // clock high
 5081698:	e0bffc17 	ldw	r2,-16(fp)
 508169c:	00c00044 	movi	r3,1
 50816a0:	10c00035 	stwio	r3,0(r2)
    SCL_DELAY; // clock high  delay
 50816a4:	01000044 	movi	r4,1
 50816a8:	50932080 	call	5093208 <usleep>
    SCL_LOW(clk_base); // clock low
 50816ac:	e0bffc17 	ldw	r2,-16(fp)
 50816b0:	0007883a 	mov	r3,zero
 50816b4:	10c00035 	stwio	r3,0(r2)
    SCL_DELAY; // clock low delay
 50816b8:	01000044 	movi	r4,1
 50816bc:	50932080 	call	5093208 <usleep>
    SDA_LOW(data_base);  // data low
 50816c0:	e0bffd17 	ldw	r2,-12(fp)
 50816c4:	0007883a 	mov	r3,zero
 50816c8:	10c00035 	stwio	r3,0(r2)
    SCL_DELAY; // data low delay
 50816cc:	01000044 	movi	r4,1
 50816d0:	50932080 	call	5093208 <usleep>
//    SDA_DIR_IN;  // set data read mode
    
    *pData = Data;
 50816d4:	e0bffe17 	ldw	r2,-8(fp)
 50816d8:	e0fffa03 	ldbu	r3,-24(fp)
 50816dc:	10c00005 	stb	r3,0(r2)
}
 50816e0:	0001883a 	nop
 50816e4:	e037883a 	mov	sp,fp
 50816e8:	dfc00117 	ldw	ra,4(sp)
 50816ec:	df000017 	ldw	fp,0(sp)
 50816f0:	dec00204 	addi	sp,sp,8
 50816f4:	f800283a 	ret

050816f8 <LED_Display>:
#define LED_INIT_MASK   (0x01 << 24)

#define LED_SET(mask)   IOWR_ALTERA_AVALON_PIO_DATA(PIO_LED_BASE, mask)


void LED_Display(alt_u32 Mask){ // 1: light, 0:unlight
 50816f8:	defffd04 	addi	sp,sp,-12
 50816fc:	df000215 	stw	fp,8(sp)
 5081700:	df000204 	addi	fp,sp,8
 5081704:	e13fff15 	stw	r4,-4(fp)
    alt_u32 ThisMask;
    ThisMask = Mask;//~(Mask & 0x7FFFFFF);
 5081708:	e0bfff17 	ldw	r2,-4(fp)
 508170c:	e0bffe15 	stw	r2,-8(fp)
    LED_SET(ThisMask);  //0:ligh, 1:unlight
 5081710:	e0fffe17 	ldw	r3,-8(fp)
 5081714:	00810034 	movhi	r2,1024
 5081718:	10801404 	addi	r2,r2,80
 508171c:	10c00035 	stwio	r3,0(r2)
    
}
 5081720:	0001883a 	nop
 5081724:	e037883a 	mov	sp,fp
 5081728:	df000017 	ldw	fp,0(sp)
 508172c:	dec00104 	addi	sp,sp,4
 5081730:	f800283a 	ret

05081734 <LED_AllOn>:


void LED_AllOn(void){
 5081734:	defffe04 	addi	sp,sp,-8
 5081738:	dfc00115 	stw	ra,4(sp)
 508173c:	df000015 	stw	fp,0(sp)
 5081740:	d839883a 	mov	fp,sp
    LED_Display(0xFFFFFFFF);       
 5081744:	013fffc4 	movi	r4,-1
 5081748:	50816f80 	call	50816f8 <LED_Display>
}
 508174c:	0001883a 	nop
 5081750:	e037883a 	mov	sp,fp
 5081754:	dfc00117 	ldw	ra,4(sp)
 5081758:	df000017 	ldw	fp,0(sp)
 508175c:	dec00204 	addi	sp,sp,8
 5081760:	f800283a 	ret

05081764 <LED_AllOff>:

void LED_AllOff(void){
 5081764:	defffe04 	addi	sp,sp,-8
 5081768:	dfc00115 	stw	ra,4(sp)
 508176c:	df000015 	stw	fp,0(sp)
 5081770:	d839883a 	mov	fp,sp
    LED_Display(0x00);       
 5081774:	0009883a 	mov	r4,zero
 5081778:	50816f80 	call	50816f8 <LED_Display>
}
 508177c:	0001883a 	nop
 5081780:	e037883a 	mov	sp,fp
 5081784:	dfc00117 	ldw	ra,4(sp)
 5081788:	df000017 	ldw	fp,0(sp)
 508178c:	dec00204 	addi	sp,sp,8
 5081790:	f800283a 	ret

05081794 <LED_LightCount>:


void LED_LightCount(alt_u8 LightCount){ // 1: light, 0:unlight
 5081794:	defffb04 	addi	sp,sp,-20
 5081798:	dfc00415 	stw	ra,16(sp)
 508179c:	df000315 	stw	fp,12(sp)
 50817a0:	df000304 	addi	fp,sp,12
 50817a4:	2005883a 	mov	r2,r4
 50817a8:	e0bfff05 	stb	r2,-4(fp)
    alt_u32 Mask = 0;
 50817ac:	e03ffd15 	stw	zero,-12(fp)
    int i;
    for(i=0;i<LightCount;i++){
 50817b0:	e03ffe15 	stw	zero,-8(fp)
 50817b4:	00000906 	br	50817dc <LED_LightCount+0x48>
        Mask <<= 1;
 50817b8:	e0bffd17 	ldw	r2,-12(fp)
 50817bc:	1085883a 	add	r2,r2,r2
 50817c0:	e0bffd15 	stw	r2,-12(fp)
        Mask |= 0x01;
 50817c4:	e0bffd17 	ldw	r2,-12(fp)
 50817c8:	10800054 	ori	r2,r2,1
 50817cc:	e0bffd15 	stw	r2,-12(fp)


void LED_LightCount(alt_u8 LightCount){ // 1: light, 0:unlight
    alt_u32 Mask = 0;
    int i;
    for(i=0;i<LightCount;i++){
 50817d0:	e0bffe17 	ldw	r2,-8(fp)
 50817d4:	10800044 	addi	r2,r2,1
 50817d8:	e0bffe15 	stw	r2,-8(fp)
 50817dc:	e0bfff03 	ldbu	r2,-4(fp)
 50817e0:	e0fffe17 	ldw	r3,-8(fp)
 50817e4:	18bff416 	blt	r3,r2,50817b8 <__alt_data_end+0xfffb35b8>
        Mask <<= 1;
        Mask |= 0x01;
    }
    LED_Display(Mask);  //0:ligh, 1:unlight
 50817e8:	e13ffd17 	ldw	r4,-12(fp)
 50817ec:	50816f80 	call	50816f8 <LED_Display>
    
}
 50817f0:	0001883a 	nop
 50817f4:	e037883a 	mov	sp,fp
 50817f8:	dfc00117 	ldw	ra,4(sp)
 50817fc:	df000017 	ldw	fp,0(sp)
 5081800:	dec00204 	addi	sp,sp,8
 5081804:	f800283a 	ret

05081808 <SEG7_Clear>:
static    unsigned char szMap[] = {
        63, 6, 91, 79, 102, 109, 125, 7, 
        127, 111, 119, 124, 57, 94, 121, 113
    };  // 0,1,2,....9, a, b, c, d, e, f
    
void SEG7_Clear(void){
 5081808:	defffe04 	addi	sp,sp,-8
 508180c:	df000115 	stw	fp,4(sp)
 5081810:	df000104 	addi	fp,sp,4
    int i;
    for(i=0;i<SEG7_NUM;i++){
 5081814:	e03fff15 	stw	zero,-4(fp)
 5081818:	00000b06 	br	5081848 <SEG7_Clear+0x40>
        SEG7_SET(i, 0x00);
 508181c:	e0bfff17 	ldw	r2,-4(fp)
 5081820:	1085883a 	add	r2,r2,r2
 5081824:	1085883a 	add	r2,r2,r2
 5081828:	1007883a 	mov	r3,r2
 508182c:	00810034 	movhi	r2,1024
 5081830:	1885883a 	add	r2,r3,r2
 5081834:	0007883a 	mov	r3,zero
 5081838:	10c00035 	stwio	r3,0(r2)
        127, 111, 119, 124, 57, 94, 121, 113
    };  // 0,1,2,....9, a, b, c, d, e, f
    
void SEG7_Clear(void){
    int i;
    for(i=0;i<SEG7_NUM;i++){
 508183c:	e0bfff17 	ldw	r2,-4(fp)
 5081840:	10800044 	addi	r2,r2,1
 5081844:	e0bfff15 	stw	r2,-4(fp)
 5081848:	e0bfff17 	ldw	r2,-4(fp)
 508184c:	10800190 	cmplti	r2,r2,6
 5081850:	103ff21e 	bne	r2,zero,508181c <__alt_data_end+0xfffb361c>
        SEG7_SET(i, 0x00);
    }        
}
 5081854:	0001883a 	nop
 5081858:	e037883a 	mov	sp,fp
 508185c:	df000017 	ldw	fp,0(sp)
 5081860:	dec00104 	addi	sp,sp,4
 5081864:	f800283a 	ret

05081868 <SEG7_Full>:
void SEG7_Full(void){
 5081868:	defffe04 	addi	sp,sp,-8
 508186c:	df000115 	stw	fp,4(sp)
 5081870:	df000104 	addi	fp,sp,4
    int i;
    for(i=0;i<SEG7_NUM;i++){
 5081874:	e03fff15 	stw	zero,-4(fp)
 5081878:	00000b06 	br	50818a8 <SEG7_Full+0x40>
        SEG7_SET(i, 0xFF);
 508187c:	e0bfff17 	ldw	r2,-4(fp)
 5081880:	1085883a 	add	r2,r2,r2
 5081884:	1085883a 	add	r2,r2,r2
 5081888:	1007883a 	mov	r3,r2
 508188c:	00810034 	movhi	r2,1024
 5081890:	1885883a 	add	r2,r3,r2
 5081894:	00c03fc4 	movi	r3,255
 5081898:	10c00035 	stwio	r3,0(r2)
        SEG7_SET(i, 0x00);
    }        
}
void SEG7_Full(void){
    int i;
    for(i=0;i<SEG7_NUM;i++){
 508189c:	e0bfff17 	ldw	r2,-4(fp)
 50818a0:	10800044 	addi	r2,r2,1
 50818a4:	e0bfff15 	stw	r2,-4(fp)
 50818a8:	e0bfff17 	ldw	r2,-4(fp)
 50818ac:	10800190 	cmplti	r2,r2,6
 50818b0:	103ff21e 	bne	r2,zero,508187c <__alt_data_end+0xfffb367c>
        SEG7_SET(i, 0xFF);
    }        
}
 50818b4:	0001883a 	nop
 50818b8:	e037883a 	mov	sp,fp
 50818bc:	df000017 	ldw	fp,0(sp)
 50818c0:	dec00104 	addi	sp,sp,4
 50818c4:	f800283a 	ret

050818c8 <SEG7_Number>:

void SEG7_Number(void){
 50818c8:	defffe04 	addi	sp,sp,-8
 50818cc:	df000115 	stw	fp,4(sp)
 50818d0:	df000104 	addi	fp,sp,4
    int i;
    for(i=0;i<SEG7_NUM;i++){
 50818d4:	e03fff15 	stw	zero,-4(fp)
 50818d8:	00001006 	br	508191c <SEG7_Number+0x54>
        SEG7_SET(i, szMap[i]);
 50818dc:	e0bfff17 	ldw	r2,-4(fp)
 50818e0:	1085883a 	add	r2,r2,r2
 50818e4:	1085883a 	add	r2,r2,r2
 50818e8:	1007883a 	mov	r3,r2
 50818ec:	00810034 	movhi	r2,1024
 50818f0:	1887883a 	add	r3,r3,r2
 50818f4:	00814274 	movhi	r2,1289
 50818f8:	10984004 	addi	r2,r2,24832
 50818fc:	e13fff17 	ldw	r4,-4(fp)
 5081900:	1105883a 	add	r2,r2,r4
 5081904:	10800003 	ldbu	r2,0(r2)
 5081908:	10803fcc 	andi	r2,r2,255
 508190c:	18800035 	stwio	r2,0(r3)
    }        
}

void SEG7_Number(void){
    int i;
    for(i=0;i<SEG7_NUM;i++){
 5081910:	e0bfff17 	ldw	r2,-4(fp)
 5081914:	10800044 	addi	r2,r2,1
 5081918:	e0bfff15 	stw	r2,-4(fp)
 508191c:	e0bfff17 	ldw	r2,-4(fp)
 5081920:	10800190 	cmplti	r2,r2,6
 5081924:	103fed1e 	bne	r2,zero,50818dc <__alt_data_end+0xfffb36dc>
        SEG7_SET(i, szMap[i]);
    }        
}
 5081928:	0001883a 	nop
 508192c:	e037883a 	mov	sp,fp
 5081930:	df000017 	ldw	fp,0(sp)
 5081934:	dec00104 	addi	sp,sp,4
 5081938:	f800283a 	ret

0508193c <SEG7_Hex>:

void SEG7_Hex(alt_u32 Data, alt_u8 point_mask){
 508193c:	defffb04 	addi	sp,sp,-20
 5081940:	df000415 	stw	fp,16(sp)
 5081944:	df000404 	addi	fp,sp,16
 5081948:	e13ffe15 	stw	r4,-8(fp)
 508194c:	2805883a 	mov	r2,r5
 5081950:	e0bfff05 	stb	r2,-4(fp)
    alt_u8 mask = 0x01;
 5081954:	00800044 	movi	r2,1
 5081958:	e0bffc05 	stb	r2,-16(fp)
    alt_u8 seg_mask;
    int i;
    
    //
    seg_mask = 0;
 508195c:	e03ffc45 	stb	zero,-15(fp)
    for(i=0;i<SEG7_NUM;i++){
 5081960:	e03ffd15 	stw	zero,-12(fp)
 5081964:	00002106 	br	50819ec <SEG7_Hex+0xb0>
        seg_mask = szMap[Data & 0x0F];
 5081968:	e0bffe17 	ldw	r2,-8(fp)
 508196c:	10c003cc 	andi	r3,r2,15
 5081970:	00814274 	movhi	r2,1289
 5081974:	10984004 	addi	r2,r2,24832
 5081978:	10c5883a 	add	r2,r2,r3
 508197c:	10800003 	ldbu	r2,0(r2)
 5081980:	e0bffc45 	stb	r2,-15(fp)
        Data >>= 4;
 5081984:	e0bffe17 	ldw	r2,-8(fp)
 5081988:	1004d13a 	srli	r2,r2,4
 508198c:	e0bffe15 	stw	r2,-8(fp)
        if (point_mask & mask)
 5081990:	e0ffff03 	ldbu	r3,-4(fp)
 5081994:	e0bffc03 	ldbu	r2,-16(fp)
 5081998:	1884703a 	and	r2,r3,r2
 508199c:	10803fcc 	andi	r2,r2,255
 50819a0:	10000426 	beq	r2,zero,50819b4 <SEG7_Hex+0x78>
            seg_mask |= 0x80;
 50819a4:	e0fffc43 	ldbu	r3,-15(fp)
 50819a8:	00bfe004 	movi	r2,-128
 50819ac:	1884b03a 	or	r2,r3,r2
 50819b0:	e0bffc45 	stb	r2,-15(fp)
        mask <<= 1;     
 50819b4:	e0bffc03 	ldbu	r2,-16(fp)
 50819b8:	1085883a 	add	r2,r2,r2
 50819bc:	e0bffc05 	stb	r2,-16(fp)
        SEG7_SET(i, seg_mask);
 50819c0:	e0bffd17 	ldw	r2,-12(fp)
 50819c4:	1085883a 	add	r2,r2,r2
 50819c8:	1085883a 	add	r2,r2,r2
 50819cc:	1007883a 	mov	r3,r2
 50819d0:	00810034 	movhi	r2,1024
 50819d4:	1885883a 	add	r2,r3,r2
 50819d8:	e0fffc43 	ldbu	r3,-15(fp)
 50819dc:	10c00035 	stwio	r3,0(r2)
    alt_u8 seg_mask;
    int i;
    
    //
    seg_mask = 0;
    for(i=0;i<SEG7_NUM;i++){
 50819e0:	e0bffd17 	ldw	r2,-12(fp)
 50819e4:	10800044 	addi	r2,r2,1
 50819e8:	e0bffd15 	stw	r2,-12(fp)
 50819ec:	e0bffd17 	ldw	r2,-12(fp)
 50819f0:	10800190 	cmplti	r2,r2,6
 50819f4:	103fdc1e 	bne	r2,zero,5081968 <__alt_data_end+0xfffb3768>
        if (point_mask & mask)
            seg_mask |= 0x80;
        mask <<= 1;     
        SEG7_SET(i, seg_mask);
    }        
}
 50819f8:	0001883a 	nop
 50819fc:	e037883a 	mov	sp,fp
 5081a00:	df000017 	ldw	fp,0(sp)
 5081a04:	dec00104 	addi	sp,sp,4
 5081a08:	f800283a 	ret

05081a0c <SEG7_Decimal>:

void SEG7_Decimal(alt_u32 Data, alt_u8 point_mask){
 5081a0c:	defffa04 	addi	sp,sp,-24
 5081a10:	dfc00515 	stw	ra,20(sp)
 5081a14:	df000415 	stw	fp,16(sp)
 5081a18:	df000404 	addi	fp,sp,16
 5081a1c:	e13ffe15 	stw	r4,-8(fp)
 5081a20:	2805883a 	mov	r2,r5
 5081a24:	e0bfff05 	stb	r2,-4(fp)
    alt_u8 mask = 0x01;
 5081a28:	00800044 	movi	r2,1
 5081a2c:	e0bffc05 	stb	r2,-16(fp)
    alt_u8 seg_mask;
    int i;
    
    //
    seg_mask = 0;
 5081a30:	e03ffc45 	stb	zero,-15(fp)
    for(i=0;i<SEG7_NUM;i++){
 5081a34:	e03ffd15 	stw	zero,-12(fp)
 5081a38:	00002606 	br	5081ad4 <SEG7_Decimal+0xc8>
        seg_mask = szMap[Data%10];
 5081a3c:	e0bffe17 	ldw	r2,-8(fp)
 5081a40:	01400284 	movi	r5,10
 5081a44:	1009883a 	mov	r4,r2
 5081a48:	50828e80 	call	50828e8 <__umodsi3>
 5081a4c:	1007883a 	mov	r3,r2
 5081a50:	00814274 	movhi	r2,1289
 5081a54:	10984004 	addi	r2,r2,24832
 5081a58:	10c5883a 	add	r2,r2,r3
 5081a5c:	10800003 	ldbu	r2,0(r2)
 5081a60:	e0bffc45 	stb	r2,-15(fp)
        Data /= 10;
 5081a64:	e0bffe17 	ldw	r2,-8(fp)
 5081a68:	01400284 	movi	r5,10
 5081a6c:	1009883a 	mov	r4,r2
 5081a70:	50828840 	call	5082884 <__udivsi3>
 5081a74:	e0bffe15 	stw	r2,-8(fp)
        if (point_mask & mask)
 5081a78:	e0ffff03 	ldbu	r3,-4(fp)
 5081a7c:	e0bffc03 	ldbu	r2,-16(fp)
 5081a80:	1884703a 	and	r2,r3,r2
 5081a84:	10803fcc 	andi	r2,r2,255
 5081a88:	10000426 	beq	r2,zero,5081a9c <SEG7_Decimal+0x90>
            seg_mask |= 0x80;
 5081a8c:	e0fffc43 	ldbu	r3,-15(fp)
 5081a90:	00bfe004 	movi	r2,-128
 5081a94:	1884b03a 	or	r2,r3,r2
 5081a98:	e0bffc45 	stb	r2,-15(fp)
        mask <<= 1;   
 5081a9c:	e0bffc03 	ldbu	r2,-16(fp)
 5081aa0:	1085883a 	add	r2,r2,r2
 5081aa4:	e0bffc05 	stb	r2,-16(fp)
        SEG7_SET(i, seg_mask);
 5081aa8:	e0bffd17 	ldw	r2,-12(fp)
 5081aac:	1085883a 	add	r2,r2,r2
 5081ab0:	1085883a 	add	r2,r2,r2
 5081ab4:	1007883a 	mov	r3,r2
 5081ab8:	00810034 	movhi	r2,1024
 5081abc:	1885883a 	add	r2,r3,r2
 5081ac0:	e0fffc43 	ldbu	r3,-15(fp)
 5081ac4:	10c00035 	stwio	r3,0(r2)
    alt_u8 seg_mask;
    int i;
    
    //
    seg_mask = 0;
    for(i=0;i<SEG7_NUM;i++){
 5081ac8:	e0bffd17 	ldw	r2,-12(fp)
 5081acc:	10800044 	addi	r2,r2,1
 5081ad0:	e0bffd15 	stw	r2,-12(fp)
 5081ad4:	e0bffd17 	ldw	r2,-12(fp)
 5081ad8:	10800190 	cmplti	r2,r2,6
 5081adc:	103fd71e 	bne	r2,zero,5081a3c <__alt_data_end+0xfffb383c>
            seg_mask |= 0x80;
        mask <<= 1;   
        SEG7_SET(i, seg_mask);
    }        
  
} 
 5081ae0:	0001883a 	nop
 5081ae4:	e037883a 	mov	sp,fp
 5081ae8:	dfc00117 	ldw	ra,4(sp)
 5081aec:	df000017 	ldw	fp,0(sp)
 5081af0:	dec00204 	addi	sp,sp,8
 5081af4:	f800283a 	ret

05081af8 <debug_output>:
    if (!UART_IsOpened())
        UART_Open();
    UART_WriteString(pMessage);  // UART debug
}
#else
void debug_output(char *pMessage){
 5081af8:	defffd04 	addi	sp,sp,-12
 5081afc:	dfc00215 	stw	ra,8(sp)
 5081b00:	df000115 	stw	fp,4(sp)
 5081b04:	df000104 	addi	fp,sp,4
 5081b08:	e13fff15 	stw	r4,-4(fp)
    printf(pMessage);
 5081b0c:	e13fff17 	ldw	r4,-4(fp)
 5081b10:	50829700 	call	5082970 <printf>
}
 5081b14:	0001883a 	nop
 5081b18:	e037883a 	mov	sp,fp
 5081b1c:	dfc00117 	ldw	ra,4(sp)
 5081b20:	df000017 	ldw	fp,0(sp)
 5081b24:	dec00204 	addi	sp,sp,8
 5081b28:	f800283a 	ret

05081b2c <myprintf>:

#endif


int myprintf(char *format, ...){
 5081b2c:	deff7804 	addi	sp,sp,-544
 5081b30:	dfc08415 	stw	ra,528(sp)
 5081b34:	df008315 	stw	fp,524(sp)
 5081b38:	df008304 	addi	fp,sp,524
 5081b3c:	e13fff15 	stw	r4,-4(fp)
 5081b40:	e1400215 	stw	r5,8(fp)
 5081b44:	e1800315 	stw	r6,12(fp)
 5081b48:	e1c00415 	stw	r7,16(fp)
    int rc;
    char szText[512];
    
    va_list paramList;
    va_start(paramList, format);
 5081b4c:	e0800204 	addi	r2,fp,8
 5081b50:	e0bffe15 	stw	r2,-8(fp)
    rc = vsnprintf(szText, 512, format, paramList);
 5081b54:	e0fffe17 	ldw	r3,-8(fp)
 5081b58:	e0bf7e04 	addi	r2,fp,-520
 5081b5c:	180f883a 	mov	r7,r3
 5081b60:	e1bfff17 	ldw	r6,-4(fp)
 5081b64:	01408004 	movi	r5,512
 5081b68:	1009883a 	mov	r4,r2
 5081b6c:	50871740 	call	5087174 <vsnprintf>
 5081b70:	e0bf7d15 	stw	r2,-524(fp)
    va_end(paramList);
    
    debug_output(szText);
 5081b74:	e0bf7e04 	addi	r2,fp,-520
 5081b78:	1009883a 	mov	r4,r2
 5081b7c:	5081af80 	call	5081af8 <debug_output>

    return rc;    
 5081b80:	e0bf7d17 	ldw	r2,-524(fp)
}
 5081b84:	e037883a 	mov	sp,fp
 5081b88:	dfc00117 	ldw	ra,4(sp)
 5081b8c:	df000017 	ldw	fp,0(sp)
 5081b90:	dec00504 	addi	sp,sp,20
 5081b94:	f800283a 	ret

05081b98 <myprintf_hex_array>:


int myprintf_hex_array(unsigned char *pHex, int len){
 5081b98:	defff704 	addi	sp,sp,-36
 5081b9c:	dfc00815 	stw	ra,32(sp)
 5081ba0:	df000715 	stw	fp,28(sp)
 5081ba4:	df000704 	addi	fp,sp,28
 5081ba8:	e13ffe15 	stw	r4,-8(fp)
 5081bac:	e17fff15 	stw	r5,-4(fp)
    int i;
    unsigned char szText[16];
    for(i=0;i<len;i++){
 5081bb0:	e03ff915 	stw	zero,-28(fp)
 5081bb4:	00001106 	br	5081bfc <myprintf_hex_array+0x64>
        sprintf(szText, "[%02X]", *(pHex+i));
 5081bb8:	e0bff917 	ldw	r2,-28(fp)
 5081bbc:	e0fffe17 	ldw	r3,-8(fp)
 5081bc0:	1885883a 	add	r2,r3,r2
 5081bc4:	10800003 	ldbu	r2,0(r2)
 5081bc8:	10c03fcc 	andi	r3,r2,255
 5081bcc:	e0bffa04 	addi	r2,fp,-24
 5081bd0:	180d883a 	mov	r6,r3
 5081bd4:	01414274 	movhi	r5,1289
 5081bd8:	29552304 	addi	r5,r5,21644
 5081bdc:	1009883a 	mov	r4,r2
 5081be0:	5082ad80 	call	5082ad8 <sprintf>
        DEBUG((szText));
 5081be4:	e0bffa04 	addi	r2,fp,-24
 5081be8:	1009883a 	mov	r4,r2
 5081bec:	5081b2c0 	call	5081b2c <myprintf>


int myprintf_hex_array(unsigned char *pHex, int len){
    int i;
    unsigned char szText[16];
    for(i=0;i<len;i++){
 5081bf0:	e0bff917 	ldw	r2,-28(fp)
 5081bf4:	10800044 	addi	r2,r2,1
 5081bf8:	e0bff915 	stw	r2,-28(fp)
 5081bfc:	e0fff917 	ldw	r3,-28(fp)
 5081c00:	e0bfff17 	ldw	r2,-4(fp)
 5081c04:	18bfec16 	blt	r3,r2,5081bb8 <__alt_data_end+0xfffb39b8>
        sprintf(szText, "[%02X]", *(pHex+i));
        DEBUG((szText));
    }
    return len;
 5081c08:	e0bfff17 	ldw	r2,-4(fp)
}
 5081c0c:	e037883a 	mov	sp,fp
 5081c10:	dfc00117 	ldw	ra,4(sp)
 5081c14:	df000017 	ldw	fp,0(sp)
 5081c18:	dec00204 	addi	sp,sp,8
 5081c1c:	f800283a 	ret

05081c20 <myprintf_dword_array>:

int  myprintf_dword_array(unsigned int *pArray, int nElementCount){
 5081c20:	defff704 	addi	sp,sp,-36
 5081c24:	dfc00815 	stw	ra,32(sp)
 5081c28:	df000715 	stw	fp,28(sp)
 5081c2c:	df000704 	addi	fp,sp,28
 5081c30:	e13ffe15 	stw	r4,-8(fp)
 5081c34:	e17fff15 	stw	r5,-4(fp)
    int i;
    char szText[16];
    for(i=0;i<nElementCount;i++){
 5081c38:	e03ff915 	stw	zero,-28(fp)
 5081c3c:	00001306 	br	5081c8c <myprintf_dword_array+0x6c>
        sprintf(szText, "[%08X]", *(pArray+i));
 5081c40:	e0bff917 	ldw	r2,-28(fp)
 5081c44:	1085883a 	add	r2,r2,r2
 5081c48:	1085883a 	add	r2,r2,r2
 5081c4c:	1007883a 	mov	r3,r2
 5081c50:	e0bffe17 	ldw	r2,-8(fp)
 5081c54:	10c5883a 	add	r2,r2,r3
 5081c58:	10c00017 	ldw	r3,0(r2)
 5081c5c:	e0bffa04 	addi	r2,fp,-24
 5081c60:	180d883a 	mov	r6,r3
 5081c64:	01414274 	movhi	r5,1289
 5081c68:	29552504 	addi	r5,r5,21652
 5081c6c:	1009883a 	mov	r4,r2
 5081c70:	5082ad80 	call	5082ad8 <sprintf>
        DEBUG((szText));
 5081c74:	e0bffa04 	addi	r2,fp,-24
 5081c78:	1009883a 	mov	r4,r2
 5081c7c:	5081b2c0 	call	5081b2c <myprintf>
}

int  myprintf_dword_array(unsigned int *pArray, int nElementCount){
    int i;
    char szText[16];
    for(i=0;i<nElementCount;i++){
 5081c80:	e0bff917 	ldw	r2,-28(fp)
 5081c84:	10800044 	addi	r2,r2,1
 5081c88:	e0bff915 	stw	r2,-28(fp)
 5081c8c:	e0fff917 	ldw	r3,-28(fp)
 5081c90:	e0bfff17 	ldw	r2,-4(fp)
 5081c94:	18bfea16 	blt	r3,r2,5081c40 <__alt_data_end+0xfffb3a40>
        sprintf(szText, "[%08X]", *(pArray+i));
        DEBUG((szText));
    }
    return nElementCount;
 5081c98:	e0bfff17 	ldw	r2,-4(fp)
}
 5081c9c:	e037883a 	mov	sp,fp
 5081ca0:	dfc00117 	ldw	ra,4(sp)
 5081ca4:	df000017 	ldw	fp,0(sp)
 5081ca8:	dec00204 	addi	sp,sp,8
 5081cac:	f800283a 	ret

05081cb0 <ui_is_mic_record>:
int record_sample_rate;

///////////////////////////////////////////////////////////////////////////////
//////////// Internal function implement(body) ////////////////////////////////
///////////////////////////////////////////////////////////////////////////////
bool ui_is_mic_record(void){
 5081cb0:	defffe04 	addi	sp,sp,-8
 5081cb4:	df000115 	stw	fp,4(sp)
 5081cb8:	df000104 	addi	fp,sp,4
    bool bMicRecord;
    bMicRecord = (IORD(SW_BASE, 0) & 0x01)?FALSE:TRUE;
 5081cbc:	00810034 	movhi	r2,1024
 5081cc0:	10801004 	addi	r2,r2,64
 5081cc4:	10800037 	ldwio	r2,0(r2)
 5081cc8:	1080004c 	andi	r2,r2,1
 5081ccc:	1005003a 	cmpeq	r2,r2,zero
 5081cd0:	10803fcc 	andi	r2,r2,255
 5081cd4:	e0bfff15 	stw	r2,-4(fp)
    return bMicRecord;
 5081cd8:	e0bfff17 	ldw	r2,-4(fp)
}
 5081cdc:	e037883a 	mov	sp,fp
 5081ce0:	df000017 	ldw	fp,0(sp)
 5081ce4:	dec00104 	addi	sp,sp,4
 5081ce8:	f800283a 	ret

05081cec <ui_is_mic_boost>:

bool ui_is_mic_boost(void){
 5081cec:	defffe04 	addi	sp,sp,-8
 5081cf0:	df000115 	stw	fp,4(sp)
 5081cf4:	df000104 	addi	fp,sp,4
    bool bMicBoost;
    bMicBoost = (IORD(SW_BASE, 0) & (0x01 << 1))?TRUE:FALSE;
 5081cf8:	00810034 	movhi	r2,1024
 5081cfc:	10801004 	addi	r2,r2,64
 5081d00:	10800037 	ldwio	r2,0(r2)
 5081d04:	1080008c 	andi	r2,r2,2
 5081d08:	1004c03a 	cmpne	r2,r2,zero
 5081d0c:	10803fcc 	andi	r2,r2,255
 5081d10:	e0bfff15 	stw	r2,-4(fp)
    return bMicBoost;
 5081d14:	e0bfff17 	ldw	r2,-4(fp)
}
 5081d18:	e037883a 	mov	sp,fp
 5081d1c:	df000017 	ldw	fp,0(sp)
 5081d20:	dec00104 	addi	sp,sp,4
 5081d24:	f800283a 	ret

05081d28 <ui_is_dac_zero_cross>:

bool ui_is_dac_zero_cross(void){
 5081d28:	defffe04 	addi	sp,sp,-8
 5081d2c:	df000115 	stw	fp,4(sp)
 5081d30:	df000104 	addi	fp,sp,4
    bool bZeroCross;
    bZeroCross = (IORD(SW_BASE, 0) & (0x01 << 2))?TRUE:FALSE;
 5081d34:	00810034 	movhi	r2,1024
 5081d38:	10801004 	addi	r2,r2,64
 5081d3c:	10800037 	ldwio	r2,0(r2)
 5081d40:	1080010c 	andi	r2,r2,4
 5081d44:	1004c03a 	cmpne	r2,r2,zero
 5081d48:	10803fcc 	andi	r2,r2,255
 5081d4c:	e0bfff15 	stw	r2,-4(fp)
    return bZeroCross;
 5081d50:	e0bfff17 	ldw	r2,-4(fp)
}
 5081d54:	e037883a 	mov	sp,fp
 5081d58:	df000017 	ldw	fp,0(sp)
 5081d5c:	dec00104 	addi	sp,sp,4
 5081d60:	f800283a 	ret

05081d64 <ui_get_sample_rate>:

int ui_get_sample_rate(void){
 5081d64:	defffd04 	addi	sp,sp,-12
 5081d68:	df000215 	stw	fp,8(sp)
 5081d6c:	df000204 	addi	fp,sp,8
    int sample_rate = 96000;
 5081d70:	00800074 	movhi	r2,1
 5081d74:	109dc004 	addi	r2,r2,30464
 5081d78:	e0bffe15 	stw	r2,-8(fp)
    alt_u32 mask;
    mask = IORD(SW_BASE, 0);
 5081d7c:	00810034 	movhi	r2,1024
 5081d80:	10801004 	addi	r2,r2,64
 5081d84:	10800037 	ldwio	r2,0(r2)
 5081d88:	e0bfff15 	stw	r2,-4(fp)
    mask = (mask >> 3) & 0x07;
 5081d8c:	e0bfff17 	ldw	r2,-4(fp)
 5081d90:	1004d0fa 	srli	r2,r2,3
 5081d94:	108001cc 	andi	r2,r2,7
 5081d98:	e0bfff15 	stw	r2,-4(fp)
    if (mask == 1)
 5081d9c:	e0bfff17 	ldw	r2,-4(fp)
 5081da0:	10800058 	cmpnei	r2,r2,1
 5081da4:	1000031e 	bne	r2,zero,5081db4 <ui_get_sample_rate+0x50>
        sample_rate = 48000;
 5081da8:	00aee014 	movui	r2,48000
 5081dac:	e0bffe15 	stw	r2,-8(fp)
 5081db0:	00001106 	br	5081df8 <ui_get_sample_rate+0x94>
    else if (mask == 2)
 5081db4:	e0bfff17 	ldw	r2,-4(fp)
 5081db8:	10800098 	cmpnei	r2,r2,2
 5081dbc:	1000031e 	bne	r2,zero,5081dcc <ui_get_sample_rate+0x68>
        sample_rate = 44100;
 5081dc0:	00ab1114 	movui	r2,44100
 5081dc4:	e0bffe15 	stw	r2,-8(fp)
 5081dc8:	00000b06 	br	5081df8 <ui_get_sample_rate+0x94>
    else if (mask == 3)
 5081dcc:	e0bfff17 	ldw	r2,-4(fp)
 5081dd0:	108000d8 	cmpnei	r2,r2,3
 5081dd4:	1000031e 	bne	r2,zero,5081de4 <ui_get_sample_rate+0x80>
        sample_rate = 32000;
 5081dd8:	009f4004 	movi	r2,32000
 5081ddc:	e0bffe15 	stw	r2,-8(fp)
 5081de0:	00000506 	br	5081df8 <ui_get_sample_rate+0x94>
    else if (mask == 4)
 5081de4:	e0bfff17 	ldw	r2,-4(fp)
 5081de8:	10800118 	cmpnei	r2,r2,4
 5081dec:	1000021e 	bne	r2,zero,5081df8 <ui_get_sample_rate+0x94>
        sample_rate = 8000;
 5081df0:	0087d004 	movi	r2,8000
 5081df4:	e0bffe15 	stw	r2,-8(fp)
    return sample_rate;
 5081df8:	e0bffe17 	ldw	r2,-8(fp)
}
 5081dfc:	e037883a 	mov	sp,fp
 5081e00:	df000017 	ldw	fp,0(sp)
 5081e04:	dec00104 	addi	sp,sp,4
 5081e08:	f800283a 	ret

05081e0c <button_monitor_isr>:

void button_monitor_isr(void* context, alt_u32 id){
 5081e0c:	defffc04 	addi	sp,sp,-16
 5081e10:	df000315 	stw	fp,12(sp)
 5081e14:	df000304 	addi	fp,sp,12
 5081e18:	e13ffe15 	stw	r4,-8(fp)
 5081e1c:	e17fff15 	stw	r5,-4(fp)
    volatile alt_u32* pPressedMask = (volatile alt_u32*)context;
 5081e20:	e0bffe17 	ldw	r2,-8(fp)
 5081e24:	e0bffd15 	stw	r2,-12(fp)
    *pPressedMask |= IORD_ALTERA_AVALON_PIO_EDGE_CAP(KEY_BASE) & 0x0F;  // 4-button
 5081e28:	00810034 	movhi	r2,1024
 5081e2c:	10801b04 	addi	r2,r2,108
 5081e30:	10800037 	ldwio	r2,0(r2)
 5081e34:	10c003cc 	andi	r3,r2,15
 5081e38:	e0bffd17 	ldw	r2,-12(fp)
 5081e3c:	10800017 	ldw	r2,0(r2)
 5081e40:	10c6b03a 	or	r3,r2,r3
 5081e44:	e0bffd17 	ldw	r2,-12(fp)
 5081e48:	10c00015 	stw	r3,0(r2)

    IOWR_ALTERA_AVALON_PIO_EDGE_CAP(KEY_BASE,0);
 5081e4c:	0007883a 	mov	r3,zero
 5081e50:	00810034 	movhi	r2,1024
 5081e54:	10801b04 	addi	r2,r2,108
 5081e58:	10c00035 	stwio	r3,0(r2)
}
 5081e5c:	0001883a 	nop
 5081e60:	e037883a 	mov	sp,fp
 5081e64:	df000017 	ldw	fp,0(sp)
 5081e68:	dec00104 	addi	sp,sp,4
 5081e6c:	f800283a 	ret

05081e70 <button_monitor_start>:

bool button_monitor_start(volatile alt_u32 *pPressedMask){
 5081e70:	defffc04 	addi	sp,sp,-16
 5081e74:	dfc00315 	stw	ra,12(sp)
 5081e78:	df000215 	stw	fp,8(sp)
 5081e7c:	df000204 	addi	fp,sp,8
 5081e80:	e13fff15 	stw	r4,-4(fp)
    bool bSuccess = TRUE;
 5081e84:	00800044 	movi	r2,1
 5081e88:	e0bffe15 	stw	r2,-8(fp)
    // enable interrupt
    IOWR_ALTERA_AVALON_PIO_IRQ_MASK(KEY_BASE, 0x0F); // 4-button
 5081e8c:	00c003c4 	movi	r3,15
 5081e90:	00810034 	movhi	r2,1024
 5081e94:	10801a04 	addi	r2,r2,104
 5081e98:	10c00035 	stwio	r3,0(r2)

    // Reset the edge catpure register
    IOWR_ALTERA_AVALON_PIO_EDGE_CAP(KEY_BASE,0);
 5081e9c:	0007883a 	mov	r3,zero
 5081ea0:	00810034 	movhi	r2,1024
 5081ea4:	10801b04 	addi	r2,r2,108
 5081ea8:	10c00035 	stwio	r3,0(r2)

    // register IRQ
    if (bSuccess && (alt_irq_register(KEY_IRQ, (void *)pPressedMask, button_monitor_isr) != 0)){
 5081eac:	e0bffe17 	ldw	r2,-8(fp)
 5081eb0:	10000a26 	beq	r2,zero,5081edc <button_monitor_start+0x6c>
 5081eb4:	01814234 	movhi	r6,1288
 5081eb8:	31878304 	addi	r6,r6,7692
 5081ebc:	e17fff17 	ldw	r5,-4(fp)
 5081ec0:	01000084 	movi	r4,2
 5081ec4:	5092a9c0 	call	5092a9c <alt_irq_register>
 5081ec8:	10000426 	beq	r2,zero,5081edc <button_monitor_start+0x6c>
        printf("[SW-MONITOR]register button IRQ fail\r\n");
 5081ecc:	01014274 	movhi	r4,1289
 5081ed0:	21152704 	addi	r4,r4,21660
 5081ed4:	5082a6c0 	call	5082a6c <puts>
        bSuccess = FALSE;
 5081ed8:	e03ffe15 	stw	zero,-8(fp)
    }

    return bSuccess;
 5081edc:	e0bffe17 	ldw	r2,-8(fp)
}
 5081ee0:	e037883a 	mov	sp,fp
 5081ee4:	dfc00117 	ldw	ra,4(sp)
 5081ee8:	df000017 	ldw	fp,0(sp)
 5081eec:	dec00204 	addi	sp,sp,8
 5081ef0:	f800283a 	ret

05081ef4 <init_audio>:




bool init_audio(AUDIO_FUNC audio_func){
 5081ef4:	defffb04 	addi	sp,sp,-20
 5081ef8:	dfc00415 	stw	ra,16(sp)
 5081efc:	df000315 	stw	fp,12(sp)
 5081f00:	df000304 	addi	fp,sp,12
 5081f04:	e13fff15 	stw	r4,-4(fp)
    bool bSuccess = TRUE;
 5081f08:	00800044 	movi	r2,1
 5081f0c:	e0bffd15 	stw	r2,-12(fp)
    AUDIO_InterfaceActive(FALSE);
 5081f10:	0009883a 	mov	r4,zero
 5081f14:	50804180 	call	5080418 <AUDIO_InterfaceActive>
    //
    if (audio_func == MIC_RECORD){
 5081f18:	e0bfff17 	ldw	r2,-4(fp)
 5081f1c:	10000f1e 	bne	r2,zero,5081f5c <init_audio+0x68>
        bool bMicBoost;
        bMicBoost = ui_is_mic_boost();
 5081f20:	5081cec0 	call	5081cec <ui_is_mic_boost>
 5081f24:	e0bffe15 	stw	r2,-8(fp)
        AUDIO_SetInputSource(SOURCE_MIC);
 5081f28:	0009883a 	mov	r4,zero
 5081f2c:	50808d80 	call	50808d8 <AUDIO_SetInputSource>
        AUDIO_DacEnableSoftMute(TRUE);
 5081f30:	01000044 	movi	r4,1
 5081f34:	50806e00 	call	50806e0 <AUDIO_DacEnableSoftMute>
        AUDIO_AdcEnableHighPassFilter(FALSE);
 5081f38:	0009883a 	mov	r4,zero
 5081f3c:	50804d80 	call	50804d8 <AUDIO_AdcEnableHighPassFilter>
        AUDIO_MicBoost(bMicBoost);
 5081f40:	e13ffe17 	ldw	r4,-8(fp)
 5081f44:	50804600 	call	5080460 <AUDIO_MicBoost>
        AUDIO_MicMute(FALSE);
 5081f48:	0009883a 	mov	r4,zero
 5081f4c:	508076c0 	call	508076c <AUDIO_MicMute>
        AUDIO_LineInMute(TRUE);
 5081f50:	01000044 	movi	r4,1
 5081f54:	50807f80 	call	50807f8 <AUDIO_LineInMute>
 5081f58:	00002606 	br	5081ff4 <init_audio+0x100>
    }else if (audio_func == LINEIN_RECORD){
 5081f5c:	e0bfff17 	ldw	r2,-4(fp)
 5081f60:	10800058 	cmpnei	r2,r2,1
 5081f64:	10000e1e 	bne	r2,zero,5081fa0 <init_audio+0xac>
        AUDIO_SetInputSource(SOURCE_LINEIN);
 5081f68:	01000044 	movi	r4,1
 5081f6c:	50808d80 	call	50808d8 <AUDIO_SetInputSource>
        AUDIO_DacEnableSoftMute(TRUE);
 5081f70:	01000044 	movi	r4,1
 5081f74:	50806e00 	call	50806e0 <AUDIO_DacEnableSoftMute>
        AUDIO_AdcEnableHighPassFilter(FALSE);
 5081f78:	0009883a 	mov	r4,zero
 5081f7c:	50804d80 	call	50804d8 <AUDIO_AdcEnableHighPassFilter>
        AUDIO_MicMute(TRUE);
 5081f80:	01000044 	movi	r4,1
 5081f84:	508076c0 	call	508076c <AUDIO_MicMute>
        AUDIO_LineInMute(FALSE);
 5081f88:	0009883a 	mov	r4,zero
 5081f8c:	50807f80 	call	50807f8 <AUDIO_LineInMute>
        AUDIO_SetLineInVol(0x17, 0x17);  // max 0x1F, min:0; 0x17: 0dB (assume max input is 2.0v rms)
 5081f90:	014005c4 	movi	r5,23
 5081f94:	010005c4 	movi	r4,23
 5081f98:	5080a4c0 	call	5080a4c <AUDIO_SetLineInVol>
 5081f9c:	00001506 	br	5081ff4 <init_audio+0x100>
    }else if (audio_func == LINEOUT_PLAY){
 5081fa0:	e0bfff17 	ldw	r2,-4(fp)
 5081fa4:	10800098 	cmpnei	r2,r2,2
 5081fa8:	1000121e 	bne	r2,zero,5081ff4 <init_audio+0x100>
        AUDIO_DacEnableSoftMute(TRUE);
 5081fac:	01000044 	movi	r4,1
 5081fb0:	50806e00 	call	50806e0 <AUDIO_DacEnableSoftMute>
        AUDIO_MicBoost(FALSE);
 5081fb4:	0009883a 	mov	r4,zero
 5081fb8:	50804600 	call	5080460 <AUDIO_MicBoost>
        AUDIO_MicMute(TRUE);
 5081fbc:	01000044 	movi	r4,1
 5081fc0:	508076c0 	call	508076c <AUDIO_MicMute>
        AUDIO_LineInMute(FALSE);
 5081fc4:	0009883a 	mov	r4,zero
 5081fc8:	50807f80 	call	50807f8 <AUDIO_LineInMute>
        AUDIO_DacEnableSoftMute(FALSE);
 5081fcc:	0009883a 	mov	r4,zero
 5081fd0:	50806e00 	call	50806e0 <AUDIO_DacEnableSoftMute>
        //AUDIO_DacDeemphasisControl(DEEMPHASIS_48K);
        AUDIO_DacEnableZeroCross(ui_is_dac_zero_cross());
 5081fd4:	5081d280 	call	5081d28 <ui_is_dac_zero_cross>
 5081fd8:	1009883a 	mov	r4,r2
 5081fdc:	50806000 	call	5080600 <AUDIO_DacEnableZeroCross>
        AUDIO_SetLineOutVol(LINEOUT_DEFUALT_VOL, LINEOUT_DEFUALT_VOL); // max 7F, min: 30, 0x79: 0 db
 5081fe0:	01401e44 	movi	r5,121
 5081fe4:	01001e44 	movi	r4,121
 5081fe8:	5080b600 	call	5080b60 <AUDIO_SetLineOutVol>
        AUDIO_DacEnableSoftMute(FALSE);
 5081fec:	0009883a 	mov	r4,zero
 5081ff0:	50806e00 	call	50806e0 <AUDIO_DacEnableSoftMute>
    }

    if (record_sample_rate == 8000)
 5081ff4:	d0a6d117 	ldw	r2,-25788(gp)
 5081ff8:	1087d018 	cmpnei	r2,r2,8000
 5081ffc:	1000031e 	bne	r2,zero,508200c <init_audio+0x118>
        AUDIO_SetSampleRate(RATE_ADC8K_DAC8K);
 5082000:	010000c4 	movi	r4,3
 5082004:	50809680 	call	5080968 <AUDIO_SetSampleRate>
 5082008:	00001406 	br	508205c <init_audio+0x168>
    else if (record_sample_rate == 32000)
 508200c:	d0a6d117 	ldw	r2,-25788(gp)
 5082010:	109f4018 	cmpnei	r2,r2,32000
 5082014:	1000031e 	bne	r2,zero,5082024 <init_audio+0x130>
        AUDIO_SetSampleRate(RATE_ADC32K_DAC32K);
 5082018:	01000104 	movi	r4,4
 508201c:	50809680 	call	5080968 <AUDIO_SetSampleRate>
 5082020:	00000e06 	br	508205c <init_audio+0x168>
    else if (record_sample_rate == 48000)
 5082024:	d0e6d117 	ldw	r3,-25788(gp)
 5082028:	00aee014 	movui	r2,48000
 508202c:	1880031e 	bne	r3,r2,508203c <init_audio+0x148>
        AUDIO_SetSampleRate(RATE_ADC48K_DAC48K);
 5082030:	0009883a 	mov	r4,zero
 5082034:	50809680 	call	5080968 <AUDIO_SetSampleRate>
 5082038:	00000806 	br	508205c <init_audio+0x168>
    else if (record_sample_rate == 44100)
 508203c:	d0e6d117 	ldw	r3,-25788(gp)
 5082040:	00ab1114 	movui	r2,44100
 5082044:	1880031e 	bne	r3,r2,5082054 <init_audio+0x160>
        AUDIO_SetSampleRate(RATE_ADC44K1_DAC44K1);
 5082048:	01000184 	movi	r4,6
 508204c:	50809680 	call	5080968 <AUDIO_SetSampleRate>
 5082050:	00000206 	br	508205c <init_audio+0x168>
    else
        AUDIO_SetSampleRate(RATE_ADC96K_DAC96K);
 5082054:	01000144 	movi	r4,5
 5082058:	50809680 	call	5080968 <AUDIO_SetSampleRate>
    //
    AUDIO_InterfaceActive(TRUE);
 508205c:	01000044 	movi	r4,1
 5082060:	50804180 	call	5080418 <AUDIO_InterfaceActive>

    return bSuccess;
 5082064:	e0bffd17 	ldw	r2,-12(fp)
}
 5082068:	e037883a 	mov	sp,fp
 508206c:	dfc00117 	ldw	ra,4(sp)
 5082070:	df000017 	ldw	fp,0(sp)
 5082074:	dec00204 	addi	sp,sp,8
 5082078:	f800283a 	ret

0508207c <display_time_elapsed>:


void display_time_elapsed(alt_u32 sample_num){
 508207c:	defffc04 	addi	sp,sp,-16
 5082080:	dfc00315 	stw	ra,12(sp)
 5082084:	df000215 	stw	fp,8(sp)
 5082088:	df000204 	addi	fp,sp,8
 508208c:	e13fff15 	stw	r4,-4(fp)
    // assume sample rate is 48K
    alt_u32 time;
    time = sample_num * 100 / record_sample_rate;
 5082090:	e0bfff17 	ldw	r2,-4(fp)
 5082094:	10801924 	muli	r2,r2,100
 5082098:	d0e6d117 	ldw	r3,-25788(gp)
 508209c:	180b883a 	mov	r5,r3
 50820a0:	1009883a 	mov	r4,r2
 50820a4:	50828840 	call	5082884 <__udivsi3>
 50820a8:	e0bffe15 	stw	r2,-8(fp)
    SEG7_Decimal(time, 0x04);
 50820ac:	01400104 	movi	r5,4
 50820b0:	e13ffe17 	ldw	r4,-8(fp)
 50820b4:	5081a0c0 	call	5081a0c <SEG7_Decimal>
}
 50820b8:	0001883a 	nop
 50820bc:	e037883a 	mov	sp,fp
 50820c0:	dfc00117 	ldw	ra,4(sp)
 50820c4:	df000017 	ldw	fp,0(sp)
 50820c8:	dec00204 	addi	sp,sp,8
 50820cc:	f800283a 	ret

050820d0 <show_power>:

void show_power(short sample){
 50820d0:	defffc04 	addi	sp,sp,-16
 50820d4:	dfc00315 	stw	ra,12(sp)
 50820d8:	df000215 	stw	fp,8(sp)
 50820dc:	df000204 	addi	fp,sp,8
 50820e0:	2005883a 	mov	r2,r4
 50820e4:	e0bfff0d 	sth	r2,-4(fp)
    static alt_u32 sum = 0;
    static alt_u16   cnt = 0;
    alt_u16 power = 0;
 50820e8:	e03ffe0d 	sth	zero,-8(fp)
    sum += (sample >= 0)?sample:-sample;
 50820ec:	e0bfff0f 	ldh	r2,-4(fp)
 50820f0:	10000216 	blt	r2,zero,50820fc <show_power+0x2c>
 50820f4:	e0bfff0f 	ldh	r2,-4(fp)
 50820f8:	00000206 	br	5082104 <show_power+0x34>
 50820fc:	e0bfff0f 	ldh	r2,-4(fp)
 5082100:	0085c83a 	sub	r2,zero,r2
 5082104:	d0e6cf17 	ldw	r3,-25796(gp)
 5082108:	10c5883a 	add	r2,r2,r3
 508210c:	d0a6cf15 	stw	r2,-25796(gp)
    cnt++;
 5082110:	d0a6d00b 	ldhu	r2,-25792(gp)
 5082114:	10800044 	addi	r2,r2,1
 5082118:	d0a6d00d 	sth	r2,-25792(gp)
    if (cnt == 32){
 508211c:	d0a6d00b 	ldhu	r2,-25792(gp)
 5082120:	10bfffcc 	andi	r2,r2,65535
 5082124:	10800818 	cmpnei	r2,r2,32
 5082128:	1000091e 	bne	r2,zero,5082150 <show_power+0x80>
        power = sum >> 13;
 508212c:	d0a6cf17 	ldw	r2,-25796(gp)
 5082130:	1004d37a 	srli	r2,r2,13
 5082134:	e0bffe0d 	sth	r2,-8(fp)
        LED_LightCount(power);
 5082138:	e0bffe0b 	ldhu	r2,-8(fp)
 508213c:	10803fcc 	andi	r2,r2,255
 5082140:	1009883a 	mov	r4,r2
 5082144:	50817940 	call	5081794 <LED_LightCount>
        sum = 0;
 5082148:	d026cf15 	stw	zero,-25796(gp)
        cnt = 0;
 508214c:	d026d00d 	sth	zero,-25792(gp)
    }
}
 5082150:	0001883a 	nop
 5082154:	e037883a 	mov	sp,fp
 5082158:	dfc00117 	ldw	ra,4(sp)
 508215c:	df000017 	ldw	fp,0(sp)
 5082160:	dec00204 	addi	sp,sp,8
 5082164:	f800283a 	ret

05082168 <init>:


bool init(void){
 5082168:	defffd04 	addi	sp,sp,-12
 508216c:	dfc00215 	stw	ra,8(sp)
 5082170:	df000115 	stw	fp,4(sp)
 5082174:	df000104 	addi	fp,sp,4
    bool bSuccess = TRUE;
 5082178:	00800044 	movi	r2,1
 508217c:	e0bfff15 	stw	r2,-4(fp)

    SEG7_Clear();
 5082180:	50818080 	call	5081808 <SEG7_Clear>


    SEG7_Decimal(0x00000000, 0x00);
 5082184:	000b883a 	mov	r5,zero
 5082188:	0009883a 	mov	r4,zero
 508218c:	5081a0c0 	call	5081a0c <SEG7_Decimal>

    // prepare
    if (!AUDIO_Init()){
 5082190:	50802900 	call	5080290 <AUDIO_Init>
 5082194:	1000041e 	bne	r2,zero,50821a8 <init+0x40>

        printf("Audio Init Error\r\n");
 5082198:	01014274 	movhi	r4,1289
 508219c:	21153104 	addi	r4,r4,21700
 50821a0:	5082a6c0 	call	5082a6c <puts>
        bSuccess = FALSE;
 50821a4:	e03fff15 	stw	zero,-4(fp)
    }


    return bSuccess;
 50821a8:	e0bfff17 	ldw	r2,-4(fp)
}
 50821ac:	e037883a 	mov	sp,fp
 50821b0:	dfc00117 	ldw	ra,4(sp)
 50821b4:	df000017 	ldw	fp,0(sp)
 50821b8:	dec00204 	addi	sp,sp,8
 50821bc:	f800283a 	ret

050821c0 <dump_record_data>:

void dump_record_data(alt_u32 *pData, alt_u32 len){
 50821c0:	defff804 	addi	sp,sp,-32
 50821c4:	dfc00715 	stw	ra,28(sp)
 50821c8:	df000615 	stw	fp,24(sp)
 50821cc:	df000604 	addi	fp,sp,24
 50821d0:	e13ffe15 	stw	r4,-8(fp)
 50821d4:	e17fff15 	stw	r5,-4(fp)
    short sample_l, sample_r, sample_max = 0;
 50821d8:	e03ffa0d 	sth	zero,-24(fp)
    alt_u32 data;
    int i;
    //return ;
    for(i=0;i<len;i++){
 50821dc:	e03ffb15 	stw	zero,-20(fp)
 50821e0:	00002d06 	br	5082298 <dump_record_data+0xd8>
        data = *pData++;
 50821e4:	e0bffe17 	ldw	r2,-8(fp)
 50821e8:	10c00104 	addi	r3,r2,4
 50821ec:	e0fffe15 	stw	r3,-8(fp)
 50821f0:	10800017 	ldw	r2,0(r2)
 50821f4:	e0bffc15 	stw	r2,-16(fp)
        sample_l = (short)((data >> 16) & 0xFFFF);
 50821f8:	e0bffc17 	ldw	r2,-16(fp)
 50821fc:	1004d43a 	srli	r2,r2,16
 5082200:	e0bffd0d 	sth	r2,-12(fp)
        sample_r = (short)(data & 0xFFFF);
 5082204:	e0bffc17 	ldw	r2,-16(fp)
 5082208:	e0bffd8d 	sth	r2,-10(fp)
        //printf("[%d]%d/%d\n", i, sample_l, sample_r);
        if (sample_l > 0 && sample_max <  sample_l)
 508220c:	e0bffd0f 	ldh	r2,-12(fp)
 5082210:	0080050e 	bge	zero,r2,5082228 <dump_record_data+0x68>
 5082214:	e0fffa0f 	ldh	r3,-24(fp)
 5082218:	e0bffd0f 	ldh	r2,-12(fp)
 508221c:	1880020e 	bge	r3,r2,5082228 <dump_record_data+0x68>
            sample_max = sample_l;
 5082220:	e0bffd0b 	ldhu	r2,-12(fp)
 5082224:	e0bffa0d 	sth	r2,-24(fp)
        if (sample_l < 0 && sample_max <  -sample_l)
 5082228:	e0bffd0f 	ldh	r2,-12(fp)
 508222c:	1000070e 	bge	r2,zero,508224c <dump_record_data+0x8c>
 5082230:	e0fffa0f 	ldh	r3,-24(fp)
 5082234:	e0bffd0f 	ldh	r2,-12(fp)
 5082238:	0085c83a 	sub	r2,zero,r2
 508223c:	1880030e 	bge	r3,r2,508224c <dump_record_data+0x8c>
            sample_max = -sample_l;
 5082240:	e0bffd0b 	ldhu	r2,-12(fp)
 5082244:	0085c83a 	sub	r2,zero,r2
 5082248:	e0bffa0d 	sth	r2,-24(fp)
        if (sample_r > 0 && sample_max <  sample_r)
 508224c:	e0bffd8f 	ldh	r2,-10(fp)
 5082250:	0080050e 	bge	zero,r2,5082268 <dump_record_data+0xa8>
 5082254:	e0fffa0f 	ldh	r3,-24(fp)
 5082258:	e0bffd8f 	ldh	r2,-10(fp)
 508225c:	1880020e 	bge	r3,r2,5082268 <dump_record_data+0xa8>
            sample_max = sample_r;
 5082260:	e0bffd8b 	ldhu	r2,-10(fp)
 5082264:	e0bffa0d 	sth	r2,-24(fp)
        if (sample_r < 0 && sample_max <  -sample_r)
 5082268:	e0bffd8f 	ldh	r2,-10(fp)
 508226c:	1000070e 	bge	r2,zero,508228c <dump_record_data+0xcc>
 5082270:	e0fffa0f 	ldh	r3,-24(fp)
 5082274:	e0bffd8f 	ldh	r2,-10(fp)
 5082278:	0085c83a 	sub	r2,zero,r2
 508227c:	1880030e 	bge	r3,r2,508228c <dump_record_data+0xcc>
            sample_max = -sample_r;
 5082280:	e0bffd8b 	ldhu	r2,-10(fp)
 5082284:	0085c83a 	sub	r2,zero,r2
 5082288:	e0bffa0d 	sth	r2,-24(fp)
void dump_record_data(alt_u32 *pData, alt_u32 len){
    short sample_l, sample_r, sample_max = 0;
    alt_u32 data;
    int i;
    //return ;
    for(i=0;i<len;i++){
 508228c:	e0bffb17 	ldw	r2,-20(fp)
 5082290:	10800044 	addi	r2,r2,1
 5082294:	e0bffb15 	stw	r2,-20(fp)
 5082298:	e0fffb17 	ldw	r3,-20(fp)
 508229c:	e0bfff17 	ldw	r2,-4(fp)
 50822a0:	18bfd036 	bltu	r3,r2,50821e4 <__alt_data_end+0xfffb3fe4>
        if (sample_r > 0 && sample_max <  sample_r)
            sample_max = sample_r;
        if (sample_r < 0 && sample_max <  -sample_r)
            sample_max = -sample_r;
    }
    printf("max=%d\n", sample_max);
 50822a4:	e0bffa0f 	ldh	r2,-24(fp)
 50822a8:	100b883a 	mov	r5,r2
 50822ac:	01014274 	movhi	r4,1289
 50822b0:	21153604 	addi	r4,r4,21720
 50822b4:	50829700 	call	5082970 <printf>
}
 50822b8:	0001883a 	nop
 50822bc:	e037883a 	mov	sp,fp
 50822c0:	dfc00117 	ldw	ra,4(sp)
 50822c4:	df000017 	ldw	fp,0(sp)
 50822c8:	dec00204 	addi	sp,sp,8
 50822cc:	f800283a 	ret

050822d0 <show_menu>:
    "  LED:  Display audio singal strength.\n",
    "  SEG7: Display time elapsed for playing/recording.\n"
    "\n\n"
};

void show_menu(void){
 50822d0:	defffd04 	addi	sp,sp,-12
 50822d4:	dfc00215 	stw	ra,8(sp)
 50822d8:	df000115 	stw	fp,4(sp)
 50822dc:	df000104 	addi	fp,sp,4
    int i;
    for(i=0;i<sizeof(szMenu)/sizeof(szMenu[0]);i++)
 50822e0:	e03fff15 	stw	zero,-4(fp)
 50822e4:	00000a06 	br	5082310 <show_menu+0x40>
        printf(szMenu[i]);
 50822e8:	e0bfff17 	ldw	r2,-4(fp)
 50822ec:	100691fa 	slli	r3,r2,7
 50822f0:	00814274 	movhi	r2,1289
 50822f4:	10953804 	addi	r2,r2,21728
 50822f8:	1885883a 	add	r2,r3,r2
 50822fc:	1009883a 	mov	r4,r2
 5082300:	50829700 	call	5082970 <printf>
    "\n\n"
};

void show_menu(void){
    int i;
    for(i=0;i<sizeof(szMenu)/sizeof(szMenu[0]);i++)
 5082304:	e0bfff17 	ldw	r2,-4(fp)
 5082308:	10800044 	addi	r2,r2,1
 508230c:	e0bfff15 	stw	r2,-4(fp)
 5082310:	e0bfff17 	ldw	r2,-4(fp)
 5082314:	10800430 	cmpltui	r2,r2,16
 5082318:	103ff31e 	bne	r2,zero,50822e8 <__alt_data_end+0xfffb40e8>
        printf(szMenu[i]);
}
 508231c:	0001883a 	nop
 5082320:	e037883a 	mov	sp,fp
 5082324:	dfc00117 	ldw	ra,4(sp)
 5082328:	df000017 	ldw	fp,0(sp)
 508232c:	dec00204 	addi	sp,sp,8
 5082330:	f800283a 	ret

05082334 <main>:

int main()
{
 5082334:	deffeb04 	addi	sp,sp,-84
 5082338:	dfc01415 	stw	ra,80(sp)
 508233c:	df001315 	stw	fp,76(sp)
 5082340:	df001304 	addi	fp,sp,76
    typedef enum{
        ST_STANDY,
        ST_RECODING,
        ST_PLAYING
    }STATE;
    STATE state = ST_STANDY;
 5082344:	e03fed15 	stw	zero,-76(fp)
    volatile alt_u32 button_mask=0;
 5082348:	e03ffe15 	stw	zero,-8(fp)
    bool bRecordPressed, bPlayPressed, bError = FALSE;
 508234c:	e03fee15 	stw	zero,-72(fp)
    alt_u32 *pBuf, *pPlaying, *pRecording, RecordLen, PlayLen, data, try_cnt, buf_sample_size;
    alt_u16 ch_right, ch_left;


    printf("\nHello World\n");
 5082350:	01014274 	movhi	r4,1289
 5082354:	21173804 	addi	r4,r4,23776
 5082358:	5082a6c0 	call	5082a6c <puts>

    show_menu();
 508235c:	50822d00 	call	50822d0 <show_menu>
    if (!init())
 5082360:	50821680 	call	5082168 <init>
 5082364:	1000021e 	bne	r2,zero,5082370 <main+0x3c>
        return 0;
 5082368:	0005883a 	mov	r2,zero
 508236c:	00010206 	br	5082778 <main+0x444>


#ifdef USE_SDRAM_FOR_DATA
    pBuf = (alt_u32 *)SDRAM_BASE;
 5082370:	e03ff615 	stw	zero,-40(fp)
    buf_sample_size = SDRAM_SPAN/sizeof(alt_u32);
 5082374:	00804034 	movhi	r2,256
 5082378:	e0bff715 	stw	r2,-36(fp)
        LCD_TextOut("malloc fail\n\n");
        printf("malloc fail\r\n");
        return 0;
    }
#endif
    button_monitor_start(&button_mask);  // button IRQ
 508237c:	e0bffe04 	addi	r2,fp,-8
 5082380:	1009883a 	mov	r4,r2
 5082384:	5081e700 	call	5081e70 <button_monitor_start>
    printf("ready\n");
 5082388:	01014274 	movhi	r4,1289
 508238c:	21173c04 	addi	r4,r4,23792
 5082390:	5082a6c0 	call	5082a6c <puts>


    // test
    record_sample_rate = ui_get_sample_rate();
 5082394:	5081d640 	call	5081d64 <ui_get_sample_rate>
 5082398:	d0a6d115 	stw	r2,-25788(gp)
    RecordLen = buf_sample_size;
 508239c:	e0bff717 	ldw	r2,-36(fp)
 50823a0:	e0bff115 	stw	r2,-60(fp)
    //

    // infinite loop
    while(1){
        //
        bRecordPressed = (button_mask & RECORD_BUTTON)?TRUE:FALSE;
 50823a4:	e0bffe17 	ldw	r2,-8(fp)
 50823a8:	1080020c 	andi	r2,r2,8
 50823ac:	1004c03a 	cmpne	r2,r2,zero
 50823b0:	10803fcc 	andi	r2,r2,255
 50823b4:	e0bff815 	stw	r2,-32(fp)
        bPlayPressed = (button_mask & PLAY_BUTTON)?TRUE:FALSE;
 50823b8:	e0bffe17 	ldw	r2,-8(fp)
 50823bc:	1080010c 	andi	r2,r2,4
 50823c0:	1004c03a 	cmpne	r2,r2,zero
 50823c4:	10803fcc 	andi	r2,r2,255
 50823c8:	e0bff915 	stw	r2,-28(fp)
        if (bPlayPressed || bRecordPressed)
 50823cc:	e0bff917 	ldw	r2,-28(fp)
 50823d0:	1000021e 	bne	r2,zero,50823dc <main+0xa8>
 50823d4:	e0bff817 	ldw	r2,-32(fp)
 50823d8:	10000126 	beq	r2,zero,50823e0 <main+0xac>
            button_mask = 0;
 50823dc:	e03ffe15 	stw	zero,-8(fp)
        if (state == ST_STANDY){
 50823e0:	e0bfed17 	ldw	r2,-76(fp)
 50823e4:	1000431e 	bne	r2,zero,50824f4 <main+0x1c0>
            if (bRecordPressed){
 50823e8:	e0bff817 	ldw	r2,-32(fp)
 50823ec:	10002826 	beq	r2,zero,5082490 <main+0x15c>
                bool bMicRecord;
                record_sample_rate = ui_get_sample_rate();
 50823f0:	5081d640 	call	5081d64 <ui_get_sample_rate>
 50823f4:	d0a6d115 	stw	r2,-25788(gp)
                bMicRecord = ui_is_mic_record();
 50823f8:	5081cb00 	call	5081cb0 <ui_is_mic_record>
 50823fc:	e0bffa15 	stw	r2,-24(fp)
                AUDIO_FifoClear();
 5082400:	5080fa00 	call	5080fa0 <AUDIO_FifoClear>
                init_audio(bMicRecord?MIC_RECORD:LINEIN_RECORD);
 5082404:	e0bffa17 	ldw	r2,-24(fp)
 5082408:	1005003a 	cmpeq	r2,r2,zero
 508240c:	10803fcc 	andi	r2,r2,255
 5082410:	1009883a 	mov	r4,r2
 5082414:	5081ef40 	call	5081ef4 <init_audio>
                AUDIO_FifoClear();
 5082418:	5080fa00 	call	5080fa0 <AUDIO_FifoClear>
                state = ST_RECODING;
 508241c:	00800044 	movi	r2,1
 5082420:	e0bfed15 	stw	r2,-76(fp)
                if (bMicRecord){
 5082424:	e0bffa17 	ldw	r2,-24(fp)
 5082428:	10001026 	beq	r2,zero,508246c <main+0x138>
                    bool bMicBoost = ui_is_mic_boost();
 508242c:	5081cec0 	call	5081cec <ui_is_mic_boost>
 5082430:	e0bffb15 	stw	r2,-20(fp)
                    printf("MIC %srecording (sample rate = %d)...\r\n", bMicBoost?"Boost ":"", record_sample_rate);
 5082434:	e0bffb17 	ldw	r2,-20(fp)
 5082438:	10000326 	beq	r2,zero,5082448 <main+0x114>
 508243c:	00814274 	movhi	r2,1289
 5082440:	10973e04 	addi	r2,r2,23800
 5082444:	00000206 	br	5082450 <main+0x11c>
 5082448:	00814274 	movhi	r2,1289
 508244c:	10974004 	addi	r2,r2,23808
 5082450:	d0e6d117 	ldw	r3,-25788(gp)
 5082454:	180d883a 	mov	r6,r3
 5082458:	100b883a 	mov	r5,r2
 508245c:	01014274 	movhi	r4,1289
 5082460:	21174104 	addi	r4,r4,23812
 5082464:	50829700 	call	5082970 <printf>
 5082468:	00000506 	br	5082480 <main+0x14c>

                }else{
                    printf("LINE-IN recording (sample rate = %d)...\r\n", record_sample_rate);
 508246c:	d0a6d117 	ldw	r2,-25788(gp)
 5082470:	100b883a 	mov	r5,r2
 5082474:	01014274 	movhi	r4,1289
 5082478:	21174b04 	addi	r4,r4,23852
 508247c:	50829700 	call	5082970 <printf>


                }
                pRecording = pBuf;
 5082480:	e0bff617 	ldw	r2,-40(fp)
 5082484:	e0bff015 	stw	r2,-64(fp)
                RecordLen = 0;
 5082488:	e03ff115 	stw	zero,-60(fp)
 508248c:	00001706 	br	50824ec <main+0x1b8>
            }else if (bPlayPressed){
 5082490:	e0bff917 	ldw	r2,-28(fp)
 5082494:	10001526 	beq	r2,zero,50824ec <main+0x1b8>
                if (RecordLen == 0){
 5082498:	e0bff117 	ldw	r2,-60(fp)
 508249c:	1000041e 	bne	r2,zero,50824b0 <main+0x17c>
                    printf("Please record before play audio\r\n");
 50824a0:	01014274 	movhi	r4,1289
 50824a4:	21175604 	addi	r4,r4,23896
 50824a8:	5082a6c0 	call	5082a6c <puts>
 50824ac:	00000f06 	br	50824ec <main+0x1b8>

                }else{
                    bool bZeroCross = ui_is_dac_zero_cross();
 50824b0:	5081d280 	call	5081d28 <ui_is_dac_zero_cross>
 50824b4:	e0bffc15 	stw	r2,-16(fp)
                    AUDIO_FifoClear();
 50824b8:	5080fa00 	call	5080fa0 <AUDIO_FifoClear>
                    init_audio(LINEOUT_PLAY);
 50824bc:	01000084 	movi	r4,2
 50824c0:	5081ef40 	call	5081ef4 <init_audio>
                    state = ST_PLAYING;
 50824c4:	00800084 	movi	r2,2
 50824c8:	e0bfed15 	stw	r2,-76(fp)
                    printf("playing (sample rate = %d)...\r\n", record_sample_rate);
 50824cc:	d0a6d117 	ldw	r2,-25788(gp)
 50824d0:	100b883a 	mov	r5,r2
 50824d4:	01014274 	movhi	r4,1289
 50824d8:	21175f04 	addi	r4,r4,23932
 50824dc:	50829700 	call	5082970 <printf>


                    pPlaying = pBuf;
 50824e0:	e0bff617 	ldw	r2,-40(fp)
 50824e4:	e0bfef15 	stw	r2,-68(fp)
                    PlayLen = 0;
 50824e8:	e03ff215 	stw	zero,-56(fp)
                }
            }
            bError = FALSE;
 50824ec:	e03fee15 	stw	zero,-72(fp)
 50824f0:	003fac06 	br	50823a4 <__alt_data_end+0xfffb41a4>
        }else if (state == ST_RECODING){
 50824f4:	e0bfed17 	ldw	r2,-76(fp)
 50824f8:	10800058 	cmpnei	r2,r2,1
 50824fc:	10004a1e 	bne	r2,zero,5082628 <main+0x2f4>
            if (bRecordPressed || (RecordLen >= buf_sample_size) || bError){
 5082500:	e0bff817 	ldw	r2,-32(fp)
 5082504:	1000051e 	bne	r2,zero,508251c <main+0x1e8>
 5082508:	e0fff117 	ldw	r3,-60(fp)
 508250c:	e0bff717 	ldw	r2,-36(fp)
 5082510:	1880022e 	bgeu	r3,r2,508251c <main+0x1e8>
 5082514:	e0bfee17 	ldw	r2,-72(fp)
 5082518:	10000b26 	beq	r2,zero,5082548 <main+0x214>
                // stop record
                printf("record %d samples\n", (int)RecordLen);
 508251c:	e0bff117 	ldw	r2,-60(fp)
 5082520:	100b883a 	mov	r5,r2
 5082524:	01014274 	movhi	r4,1289
 5082528:	21176704 	addi	r4,r4,23964
 508252c:	50829700 	call	5082970 <printf>


                state = ST_STANDY;
 5082530:	e03fed15 	stw	zero,-76(fp)
                LED_AllOff();
 5082534:	50817640 	call	5081764 <LED_AllOff>
                dump_record_data(pBuf, RecordLen);
 5082538:	e17ff117 	ldw	r5,-60(fp)
 508253c:	e13ff617 	ldw	r4,-40(fp)
 5082540:	50821c00 	call	50821c0 <dump_record_data>
 5082544:	00008b06 	br	5082774 <main+0x440>

            }else{
                // continue recoding
                int i = 0;
 5082548:	e03ff415 	stw	zero,-48(fp)
                while ((i < RECORD_BLOCK_SIZE) && (RecordLen < buf_sample_size)){
 508254c:	00002d06 	br	5082604 <main+0x2d0>
                    try_cnt = 0;
 5082550:	e03ff315 	stw	zero,-52(fp)
                    while (!AUDIO_AdcFifoNotEmpty() && try_cnt < MAX_TRY_CNT){ // wait while empty
 5082554:	00000306 	br	5082564 <main+0x230>
                        try_cnt++;
 5082558:	e0bff317 	ldw	r2,-52(fp)
 508255c:	10800044 	addi	r2,r2,1
 5082560:	e0bff315 	stw	r2,-52(fp)
            }else{
                // continue recoding
                int i = 0;
                while ((i < RECORD_BLOCK_SIZE) && (RecordLen < buf_sample_size)){
                    try_cnt = 0;
                    while (!AUDIO_AdcFifoNotEmpty() && try_cnt < MAX_TRY_CNT){ // wait while empty
 5082564:	5080f0c0 	call	5080f0c <AUDIO_AdcFifoNotEmpty>
 5082568:	1000031e 	bne	r2,zero,5082578 <main+0x244>
 508256c:	e0bff317 	ldw	r2,-52(fp)
 5082570:	10810030 	cmpltui	r2,r2,1024
 5082574:	103ff81e 	bne	r2,zero,5082558 <__alt_data_end+0xfffb4358>
                        try_cnt++;
                    }
                    if (try_cnt >= MAX_TRY_CNT){
 5082578:	e0bff317 	ldw	r2,-52(fp)
 508257c:	10810030 	cmpltui	r2,r2,1024
 5082580:	1000031e 	bne	r2,zero,5082590 <main+0x25c>
                        bError = TRUE;
 5082584:	00800044 	movi	r2,1
 5082588:	e0bfee15 	stw	r2,-72(fp)
                        break;
 508258c:	00002306 	br	508261c <main+0x2e8>
                    }
                    AUDIO_AdcFifoGetData(&ch_left, &ch_right);
 5082590:	e0ffff04 	addi	r3,fp,-4
 5082594:	e0bfff84 	addi	r2,fp,-2
 5082598:	180b883a 	mov	r5,r3
 508259c:	1009883a 	mov	r4,r2
 50825a0:	5080f480 	call	5080f48 <AUDIO_AdcFifoGetData>
                    data = (ch_left << 16) | ch_right;
 50825a4:	e0bfff8b 	ldhu	r2,-2(fp)
 50825a8:	10bfffcc 	andi	r2,r2,65535
 50825ac:	1006943a 	slli	r3,r2,16
 50825b0:	e0bfff0b 	ldhu	r2,-4(fp)
 50825b4:	10bfffcc 	andi	r2,r2,65535
 50825b8:	1884b03a 	or	r2,r3,r2
 50825bc:	e0bffd15 	stw	r2,-12(fp)
                    *pRecording++ = data;
 50825c0:	e0bff017 	ldw	r2,-64(fp)
 50825c4:	10c00104 	addi	r3,r2,4
 50825c8:	e0fff015 	stw	r3,-64(fp)
 50825cc:	e0fffd17 	ldw	r3,-12(fp)
 50825d0:	10c00015 	stw	r3,0(r2)
                    RecordLen++;
 50825d4:	e0bff117 	ldw	r2,-60(fp)
 50825d8:	10800044 	addi	r2,r2,1
 50825dc:	e0bff115 	stw	r2,-60(fp)
                    i++;
 50825e0:	e0bff417 	ldw	r2,-48(fp)
 50825e4:	10800044 	addi	r2,r2,1
 50825e8:	e0bff415 	stw	r2,-48(fp)
                    show_power(data & 0xFFFF);
 50825ec:	e0bffd17 	ldw	r2,-12(fp)
 50825f0:	10bfffcc 	andi	r2,r2,65535
 50825f4:	10a0001c 	xori	r2,r2,32768
 50825f8:	10a00004 	addi	r2,r2,-32768
 50825fc:	1009883a 	mov	r4,r2
 5082600:	50820d00 	call	50820d0 <show_power>
                dump_record_data(pBuf, RecordLen);

            }else{
                // continue recoding
                int i = 0;
                while ((i < RECORD_BLOCK_SIZE) && (RecordLen < buf_sample_size)){
 5082604:	e0bff417 	ldw	r2,-48(fp)
 5082608:	10803e88 	cmpgei	r2,r2,250
 508260c:	1000031e 	bne	r2,zero,508261c <main+0x2e8>
 5082610:	e0fff117 	ldw	r3,-60(fp)
 5082614:	e0bff717 	ldw	r2,-36(fp)
 5082618:	18bfcd36 	bltu	r3,r2,5082550 <__alt_data_end+0xfffb4350>
                    *pRecording++ = data;
                    RecordLen++;
                    i++;
                    show_power(data & 0xFFFF);
                }  // while
                display_time_elapsed(RecordLen);
 508261c:	e13ff117 	ldw	r4,-60(fp)
 5082620:	508207c0 	call	508207c <display_time_elapsed>
 5082624:	003f5f06 	br	50823a4 <__alt_data_end+0xfffb41a4>
            }
        }else if (state == ST_PLAYING){
 5082628:	e0bfed17 	ldw	r2,-76(fp)
 508262c:	10800098 	cmpnei	r2,r2,2
 5082630:	103f5c1e 	bne	r2,zero,50823a4 <__alt_data_end+0xfffb41a4>
            if (bPlayPressed || (PlayLen >= RecordLen) || bError){
 5082634:	e0bff917 	ldw	r2,-28(fp)
 5082638:	1000051e 	bne	r2,zero,5082650 <main+0x31c>
 508263c:	e0fff217 	ldw	r3,-56(fp)
 5082640:	e0bff117 	ldw	r2,-60(fp)
 5082644:	1880022e 	bgeu	r3,r2,5082650 <main+0x31c>
 5082648:	e0bfee17 	ldw	r2,-72(fp)
 508264c:	10000e26 	beq	r2,zero,5082688 <main+0x354>
                // stop playing
                printf("Play Stop %s\r\n", bError?"(Error)":"");
 5082650:	e0bfee17 	ldw	r2,-72(fp)
 5082654:	10000326 	beq	r2,zero,5082664 <main+0x330>
 5082658:	00814274 	movhi	r2,1289
 508265c:	10976c04 	addi	r2,r2,23984
 5082660:	00000206 	br	508266c <main+0x338>
 5082664:	00814274 	movhi	r2,1289
 5082668:	10974004 	addi	r2,r2,23808
 508266c:	100b883a 	mov	r5,r2
 5082670:	01014274 	movhi	r4,1289
 5082674:	21176e04 	addi	r4,r4,23992
 5082678:	50829700 	call	5082970 <printf>

                state = ST_STANDY;
 508267c:	e03fed15 	stw	zero,-76(fp)
                LED_AllOff();
 5082680:	50817640 	call	5081764 <LED_AllOff>
 5082684:	00003b06 	br	5082774 <main+0x440>
            }else{
                // continue playing
                int i = 0;
 5082688:	e03ff515 	stw	zero,-44(fp)
                while ((i < PLAY_BLOCK_SIZE) && (PlayLen < RecordLen)){
 508268c:	00003106 	br	5082754 <main+0x420>
                    try_cnt = 0;
 5082690:	e03ff315 	stw	zero,-52(fp)
                    while (!AUDIO_DacFifoNotFull() && try_cnt < MAX_TRY_CNT){  // wait while full
 5082694:	00000306 	br	50826a4 <main+0x370>
                        try_cnt++;
 5082698:	e0bff317 	ldw	r2,-52(fp)
 508269c:	10800044 	addi	r2,r2,1
 50826a0:	e0bff315 	stw	r2,-52(fp)
            }else{
                // continue playing
                int i = 0;
                while ((i < PLAY_BLOCK_SIZE) && (PlayLen < RecordLen)){
                    try_cnt = 0;
                    while (!AUDIO_DacFifoNotFull() && try_cnt < MAX_TRY_CNT){  // wait while full
 50826a4:	5080e800 	call	5080e80 <AUDIO_DacFifoNotFull>
 50826a8:	1000031e 	bne	r2,zero,50826b8 <main+0x384>
 50826ac:	e0bff317 	ldw	r2,-52(fp)
 50826b0:	10810030 	cmpltui	r2,r2,1024
 50826b4:	103ff81e 	bne	r2,zero,5082698 <__alt_data_end+0xfffb4498>
                        try_cnt++;
                    }
                    if (try_cnt >= MAX_TRY_CNT){
 50826b8:	e0bff317 	ldw	r2,-52(fp)
 50826bc:	10810030 	cmpltui	r2,r2,1024
 50826c0:	1000031e 	bne	r2,zero,50826d0 <main+0x39c>
                        bError = TRUE;
 50826c4:	00800044 	movi	r2,1
 50826c8:	e0bfee15 	stw	r2,-72(fp)
                        break;
 50826cc:	00002706 	br	508276c <main+0x438>
                    }
                    data = *pPlaying++;
 50826d0:	e0bfef17 	ldw	r2,-68(fp)
 50826d4:	10c00104 	addi	r3,r2,4
 50826d8:	e0ffef15 	stw	r3,-68(fp)
 50826dc:	10800017 	ldw	r2,0(r2)
 50826e0:	e0bffd15 	stw	r2,-12(fp)

                    //data = 0;
                    ch_left = data >> 16;
 50826e4:	e0bffd17 	ldw	r2,-12(fp)
 50826e8:	1004d43a 	srli	r2,r2,16
 50826ec:	e0bfff8d 	sth	r2,-2(fp)
                    ch_right = data & 0xFFFF;
 50826f0:	e0bffd17 	ldw	r2,-12(fp)
 50826f4:	e0bfff0d 	sth	r2,-4(fp)
                    AUDIO_DacFifoSetData(ch_left, ch_right);
 50826f8:	e0bfff8b 	ldhu	r2,-2(fp)
 50826fc:	10bfffcc 	andi	r2,r2,65535
 5082700:	10a0001c 	xori	r2,r2,32768
 5082704:	10a00004 	addi	r2,r2,-32768
 5082708:	e0ffff0b 	ldhu	r3,-4(fp)
 508270c:	18ffffcc 	andi	r3,r3,65535
 5082710:	18e0001c 	xori	r3,r3,32768
 5082714:	18e00004 	addi	r3,r3,-32768
 5082718:	180b883a 	mov	r5,r3
 508271c:	1009883a 	mov	r4,r2
 5082720:	5080ebc0 	call	5080ebc <AUDIO_DacFifoSetData>
                    i++;
 5082724:	e0bff517 	ldw	r2,-44(fp)
 5082728:	10800044 	addi	r2,r2,1
 508272c:	e0bff515 	stw	r2,-44(fp)
                    PlayLen++;
 5082730:	e0bff217 	ldw	r2,-56(fp)
 5082734:	10800044 	addi	r2,r2,1
 5082738:	e0bff215 	stw	r2,-56(fp)
                    show_power(data & 0xFFFF);
 508273c:	e0bffd17 	ldw	r2,-12(fp)
 5082740:	10bfffcc 	andi	r2,r2,65535
 5082744:	10a0001c 	xori	r2,r2,32768
 5082748:	10a00004 	addi	r2,r2,-32768
 508274c:	1009883a 	mov	r4,r2
 5082750:	50820d00 	call	50820d0 <show_power>
                state = ST_STANDY;
                LED_AllOff();
            }else{
                // continue playing
                int i = 0;
                while ((i < PLAY_BLOCK_SIZE) && (PlayLen < RecordLen)){
 5082754:	e0bff517 	ldw	r2,-44(fp)
 5082758:	10803e88 	cmpgei	r2,r2,250
 508275c:	1000031e 	bne	r2,zero,508276c <main+0x438>
 5082760:	e0fff217 	ldw	r3,-56(fp)
 5082764:	e0bff117 	ldw	r2,-60(fp)
 5082768:	18bfc936 	bltu	r3,r2,5082690 <__alt_data_end+0xfffb4490>
                    i++;
                    PlayLen++;
                    show_power(data & 0xFFFF);
                    //printf("[%d] %d/%d\n", PlayLen, (short)((data >> 16) & 0xFFFF), (short)(data & 0xFFFF));
                }
                display_time_elapsed(PlayLen);
 508276c:	e13ff217 	ldw	r4,-56(fp)
 5082770:	508207c0 	call	508207c <display_time_elapsed>
            }
        }
    }
 5082774:	003f0b06 	br	50823a4 <__alt_data_end+0xfffb41a4>

}
 5082778:	e037883a 	mov	sp,fp
 508277c:	dfc00117 	ldw	ra,4(sp)
 5082780:	df000017 	ldw	fp,0(sp)
 5082784:	dec00204 	addi	sp,sp,8
 5082788:	f800283a 	ret

0508278c <__divsi3>:
 508278c:	20001b16 	blt	r4,zero,50827fc <__divsi3+0x70>
 5082790:	000f883a 	mov	r7,zero
 5082794:	28001616 	blt	r5,zero,50827f0 <__divsi3+0x64>
 5082798:	200d883a 	mov	r6,r4
 508279c:	29001a2e 	bgeu	r5,r4,5082808 <__divsi3+0x7c>
 50827a0:	00800804 	movi	r2,32
 50827a4:	00c00044 	movi	r3,1
 50827a8:	00000106 	br	50827b0 <__divsi3+0x24>
 50827ac:	10000d26 	beq	r2,zero,50827e4 <__divsi3+0x58>
 50827b0:	294b883a 	add	r5,r5,r5
 50827b4:	10bfffc4 	addi	r2,r2,-1
 50827b8:	18c7883a 	add	r3,r3,r3
 50827bc:	293ffb36 	bltu	r5,r4,50827ac <__alt_data_end+0xfffb45ac>
 50827c0:	0005883a 	mov	r2,zero
 50827c4:	18000726 	beq	r3,zero,50827e4 <__divsi3+0x58>
 50827c8:	0005883a 	mov	r2,zero
 50827cc:	31400236 	bltu	r6,r5,50827d8 <__divsi3+0x4c>
 50827d0:	314dc83a 	sub	r6,r6,r5
 50827d4:	10c4b03a 	or	r2,r2,r3
 50827d8:	1806d07a 	srli	r3,r3,1
 50827dc:	280ad07a 	srli	r5,r5,1
 50827e0:	183ffa1e 	bne	r3,zero,50827cc <__alt_data_end+0xfffb45cc>
 50827e4:	38000126 	beq	r7,zero,50827ec <__divsi3+0x60>
 50827e8:	0085c83a 	sub	r2,zero,r2
 50827ec:	f800283a 	ret
 50827f0:	014bc83a 	sub	r5,zero,r5
 50827f4:	39c0005c 	xori	r7,r7,1
 50827f8:	003fe706 	br	5082798 <__alt_data_end+0xfffb4598>
 50827fc:	0109c83a 	sub	r4,zero,r4
 5082800:	01c00044 	movi	r7,1
 5082804:	003fe306 	br	5082794 <__alt_data_end+0xfffb4594>
 5082808:	00c00044 	movi	r3,1
 508280c:	003fee06 	br	50827c8 <__alt_data_end+0xfffb45c8>

05082810 <__modsi3>:
 5082810:	20001716 	blt	r4,zero,5082870 <__modsi3+0x60>
 5082814:	000f883a 	mov	r7,zero
 5082818:	2005883a 	mov	r2,r4
 508281c:	28001216 	blt	r5,zero,5082868 <__modsi3+0x58>
 5082820:	2900162e 	bgeu	r5,r4,508287c <__modsi3+0x6c>
 5082824:	01800804 	movi	r6,32
 5082828:	00c00044 	movi	r3,1
 508282c:	00000106 	br	5082834 <__modsi3+0x24>
 5082830:	30000a26 	beq	r6,zero,508285c <__modsi3+0x4c>
 5082834:	294b883a 	add	r5,r5,r5
 5082838:	31bfffc4 	addi	r6,r6,-1
 508283c:	18c7883a 	add	r3,r3,r3
 5082840:	293ffb36 	bltu	r5,r4,5082830 <__alt_data_end+0xfffb4630>
 5082844:	18000526 	beq	r3,zero,508285c <__modsi3+0x4c>
 5082848:	1806d07a 	srli	r3,r3,1
 508284c:	11400136 	bltu	r2,r5,5082854 <__modsi3+0x44>
 5082850:	1145c83a 	sub	r2,r2,r5
 5082854:	280ad07a 	srli	r5,r5,1
 5082858:	183ffb1e 	bne	r3,zero,5082848 <__alt_data_end+0xfffb4648>
 508285c:	38000126 	beq	r7,zero,5082864 <__modsi3+0x54>
 5082860:	0085c83a 	sub	r2,zero,r2
 5082864:	f800283a 	ret
 5082868:	014bc83a 	sub	r5,zero,r5
 508286c:	003fec06 	br	5082820 <__alt_data_end+0xfffb4620>
 5082870:	0109c83a 	sub	r4,zero,r4
 5082874:	01c00044 	movi	r7,1
 5082878:	003fe706 	br	5082818 <__alt_data_end+0xfffb4618>
 508287c:	00c00044 	movi	r3,1
 5082880:	003ff106 	br	5082848 <__alt_data_end+0xfffb4648>

05082884 <__udivsi3>:
 5082884:	200d883a 	mov	r6,r4
 5082888:	2900152e 	bgeu	r5,r4,50828e0 <__udivsi3+0x5c>
 508288c:	28001416 	blt	r5,zero,50828e0 <__udivsi3+0x5c>
 5082890:	00800804 	movi	r2,32
 5082894:	00c00044 	movi	r3,1
 5082898:	00000206 	br	50828a4 <__udivsi3+0x20>
 508289c:	10000e26 	beq	r2,zero,50828d8 <__udivsi3+0x54>
 50828a0:	28000516 	blt	r5,zero,50828b8 <__udivsi3+0x34>
 50828a4:	294b883a 	add	r5,r5,r5
 50828a8:	10bfffc4 	addi	r2,r2,-1
 50828ac:	18c7883a 	add	r3,r3,r3
 50828b0:	293ffa36 	bltu	r5,r4,508289c <__alt_data_end+0xfffb469c>
 50828b4:	18000826 	beq	r3,zero,50828d8 <__udivsi3+0x54>
 50828b8:	0005883a 	mov	r2,zero
 50828bc:	31400236 	bltu	r6,r5,50828c8 <__udivsi3+0x44>
 50828c0:	314dc83a 	sub	r6,r6,r5
 50828c4:	10c4b03a 	or	r2,r2,r3
 50828c8:	1806d07a 	srli	r3,r3,1
 50828cc:	280ad07a 	srli	r5,r5,1
 50828d0:	183ffa1e 	bne	r3,zero,50828bc <__alt_data_end+0xfffb46bc>
 50828d4:	f800283a 	ret
 50828d8:	0005883a 	mov	r2,zero
 50828dc:	f800283a 	ret
 50828e0:	00c00044 	movi	r3,1
 50828e4:	003ff406 	br	50828b8 <__alt_data_end+0xfffb46b8>

050828e8 <__umodsi3>:
 50828e8:	2005883a 	mov	r2,r4
 50828ec:	2900122e 	bgeu	r5,r4,5082938 <__umodsi3+0x50>
 50828f0:	28001116 	blt	r5,zero,5082938 <__umodsi3+0x50>
 50828f4:	01800804 	movi	r6,32
 50828f8:	00c00044 	movi	r3,1
 50828fc:	00000206 	br	5082908 <__umodsi3+0x20>
 5082900:	30000c26 	beq	r6,zero,5082934 <__umodsi3+0x4c>
 5082904:	28000516 	blt	r5,zero,508291c <__umodsi3+0x34>
 5082908:	294b883a 	add	r5,r5,r5
 508290c:	31bfffc4 	addi	r6,r6,-1
 5082910:	18c7883a 	add	r3,r3,r3
 5082914:	293ffa36 	bltu	r5,r4,5082900 <__alt_data_end+0xfffb4700>
 5082918:	18000626 	beq	r3,zero,5082934 <__umodsi3+0x4c>
 508291c:	1806d07a 	srli	r3,r3,1
 5082920:	11400136 	bltu	r2,r5,5082928 <__umodsi3+0x40>
 5082924:	1145c83a 	sub	r2,r2,r5
 5082928:	280ad07a 	srli	r5,r5,1
 508292c:	183ffb1e 	bne	r3,zero,508291c <__alt_data_end+0xfffb471c>
 5082930:	f800283a 	ret
 5082934:	f800283a 	ret
 5082938:	00c00044 	movi	r3,1
 508293c:	003ff706 	br	508291c <__alt_data_end+0xfffb471c>

05082940 <_printf_r>:
 5082940:	defffd04 	addi	sp,sp,-12
 5082944:	2805883a 	mov	r2,r5
 5082948:	dfc00015 	stw	ra,0(sp)
 508294c:	d9800115 	stw	r6,4(sp)
 5082950:	d9c00215 	stw	r7,8(sp)
 5082954:	21400217 	ldw	r5,8(r4)
 5082958:	d9c00104 	addi	r7,sp,4
 508295c:	100d883a 	mov	r6,r2
 5082960:	5084db40 	call	5084db4 <___vfprintf_internal_r>
 5082964:	dfc00017 	ldw	ra,0(sp)
 5082968:	dec00304 	addi	sp,sp,12
 508296c:	f800283a 	ret

05082970 <printf>:
 5082970:	defffc04 	addi	sp,sp,-16
 5082974:	dfc00015 	stw	ra,0(sp)
 5082978:	d9400115 	stw	r5,4(sp)
 508297c:	d9800215 	stw	r6,8(sp)
 5082980:	d9c00315 	stw	r7,12(sp)
 5082984:	00814274 	movhi	r2,1289
 5082988:	109ef004 	addi	r2,r2,31680
 508298c:	10800017 	ldw	r2,0(r2)
 5082990:	200b883a 	mov	r5,r4
 5082994:	d9800104 	addi	r6,sp,4
 5082998:	11000217 	ldw	r4,8(r2)
 508299c:	5086fac0 	call	5086fac <__vfprintf_internal>
 50829a0:	dfc00017 	ldw	ra,0(sp)
 50829a4:	dec00404 	addi	sp,sp,16
 50829a8:	f800283a 	ret

050829ac <_puts_r>:
 50829ac:	defff604 	addi	sp,sp,-40
 50829b0:	dc000715 	stw	r16,28(sp)
 50829b4:	2021883a 	mov	r16,r4
 50829b8:	2809883a 	mov	r4,r5
 50829bc:	dc400815 	stw	r17,32(sp)
 50829c0:	dfc00915 	stw	ra,36(sp)
 50829c4:	2823883a 	mov	r17,r5
 50829c8:	5082b440 	call	5082b44 <strlen>
 50829cc:	10c00044 	addi	r3,r2,1
 50829d0:	d8800115 	stw	r2,4(sp)
 50829d4:	00814274 	movhi	r2,1289
 50829d8:	10977204 	addi	r2,r2,24008
 50829dc:	d8800215 	stw	r2,8(sp)
 50829e0:	00800044 	movi	r2,1
 50829e4:	d8800315 	stw	r2,12(sp)
 50829e8:	00800084 	movi	r2,2
 50829ec:	dc400015 	stw	r17,0(sp)
 50829f0:	d8c00615 	stw	r3,24(sp)
 50829f4:	dec00415 	stw	sp,16(sp)
 50829f8:	d8800515 	stw	r2,20(sp)
 50829fc:	80000226 	beq	r16,zero,5082a08 <_puts_r+0x5c>
 5082a00:	80800e17 	ldw	r2,56(r16)
 5082a04:	10001426 	beq	r2,zero,5082a58 <_puts_r+0xac>
 5082a08:	81400217 	ldw	r5,8(r16)
 5082a0c:	2880030b 	ldhu	r2,12(r5)
 5082a10:	10c8000c 	andi	r3,r2,8192
 5082a14:	1800061e 	bne	r3,zero,5082a30 <_puts_r+0x84>
 5082a18:	29001917 	ldw	r4,100(r5)
 5082a1c:	00f7ffc4 	movi	r3,-8193
 5082a20:	10880014 	ori	r2,r2,8192
 5082a24:	20c6703a 	and	r3,r4,r3
 5082a28:	2880030d 	sth	r2,12(r5)
 5082a2c:	28c01915 	stw	r3,100(r5)
 5082a30:	d9800404 	addi	r6,sp,16
 5082a34:	8009883a 	mov	r4,r16
 5082a38:	50896000 	call	5089600 <__sfvwrite_r>
 5082a3c:	1000091e 	bne	r2,zero,5082a64 <_puts_r+0xb8>
 5082a40:	00800284 	movi	r2,10
 5082a44:	dfc00917 	ldw	ra,36(sp)
 5082a48:	dc400817 	ldw	r17,32(sp)
 5082a4c:	dc000717 	ldw	r16,28(sp)
 5082a50:	dec00a04 	addi	sp,sp,40
 5082a54:	f800283a 	ret
 5082a58:	8009883a 	mov	r4,r16
 5082a5c:	508917c0 	call	508917c <__sinit>
 5082a60:	003fe906 	br	5082a08 <__alt_data_end+0xfffb4808>
 5082a64:	00bfffc4 	movi	r2,-1
 5082a68:	003ff606 	br	5082a44 <__alt_data_end+0xfffb4844>

05082a6c <puts>:
 5082a6c:	00814274 	movhi	r2,1289
 5082a70:	109ef004 	addi	r2,r2,31680
 5082a74:	200b883a 	mov	r5,r4
 5082a78:	11000017 	ldw	r4,0(r2)
 5082a7c:	50829ac1 	jmpi	50829ac <_puts_r>

05082a80 <_sprintf_r>:
 5082a80:	deffe404 	addi	sp,sp,-112
 5082a84:	2807883a 	mov	r3,r5
 5082a88:	dfc01a15 	stw	ra,104(sp)
 5082a8c:	d9c01b15 	stw	r7,108(sp)
 5082a90:	00a00034 	movhi	r2,32768
 5082a94:	10bfffc4 	addi	r2,r2,-1
 5082a98:	02008204 	movi	r8,520
 5082a9c:	d8800215 	stw	r2,8(sp)
 5082aa0:	d8800515 	stw	r2,20(sp)
 5082aa4:	d9c01b04 	addi	r7,sp,108
 5082aa8:	d80b883a 	mov	r5,sp
 5082aac:	00bfffc4 	movi	r2,-1
 5082ab0:	d8c00015 	stw	r3,0(sp)
 5082ab4:	d8c00415 	stw	r3,16(sp)
 5082ab8:	da00030d 	sth	r8,12(sp)
 5082abc:	d880038d 	sth	r2,14(sp)
 5082ac0:	5082bdc0 	call	5082bdc <___svfprintf_internal_r>
 5082ac4:	d8c00017 	ldw	r3,0(sp)
 5082ac8:	18000005 	stb	zero,0(r3)
 5082acc:	dfc01a17 	ldw	ra,104(sp)
 5082ad0:	dec01c04 	addi	sp,sp,112
 5082ad4:	f800283a 	ret

05082ad8 <sprintf>:
 5082ad8:	deffe304 	addi	sp,sp,-116
 5082adc:	2007883a 	mov	r3,r4
 5082ae0:	dfc01a15 	stw	ra,104(sp)
 5082ae4:	d9801b15 	stw	r6,108(sp)
 5082ae8:	d9c01c15 	stw	r7,112(sp)
 5082aec:	01014274 	movhi	r4,1289
 5082af0:	211ef004 	addi	r4,r4,31680
 5082af4:	21000017 	ldw	r4,0(r4)
 5082af8:	00a00034 	movhi	r2,32768
 5082afc:	10bfffc4 	addi	r2,r2,-1
 5082b00:	280d883a 	mov	r6,r5
 5082b04:	02008204 	movi	r8,520
 5082b08:	d8800215 	stw	r2,8(sp)
 5082b0c:	d8800515 	stw	r2,20(sp)
 5082b10:	d9c01b04 	addi	r7,sp,108
 5082b14:	d80b883a 	mov	r5,sp
 5082b18:	00bfffc4 	movi	r2,-1
 5082b1c:	d8c00015 	stw	r3,0(sp)
 5082b20:	d8c00415 	stw	r3,16(sp)
 5082b24:	da00030d 	sth	r8,12(sp)
 5082b28:	d880038d 	sth	r2,14(sp)
 5082b2c:	5082bdc0 	call	5082bdc <___svfprintf_internal_r>
 5082b30:	d8c00017 	ldw	r3,0(sp)
 5082b34:	18000005 	stb	zero,0(r3)
 5082b38:	dfc01a17 	ldw	ra,104(sp)
 5082b3c:	dec01d04 	addi	sp,sp,116
 5082b40:	f800283a 	ret

05082b44 <strlen>:
 5082b44:	208000cc 	andi	r2,r4,3
 5082b48:	10002026 	beq	r2,zero,5082bcc <strlen+0x88>
 5082b4c:	20800007 	ldb	r2,0(r4)
 5082b50:	10002026 	beq	r2,zero,5082bd4 <strlen+0x90>
 5082b54:	2005883a 	mov	r2,r4
 5082b58:	00000206 	br	5082b64 <strlen+0x20>
 5082b5c:	10c00007 	ldb	r3,0(r2)
 5082b60:	18001826 	beq	r3,zero,5082bc4 <strlen+0x80>
 5082b64:	10800044 	addi	r2,r2,1
 5082b68:	10c000cc 	andi	r3,r2,3
 5082b6c:	183ffb1e 	bne	r3,zero,5082b5c <__alt_data_end+0xfffb495c>
 5082b70:	10c00017 	ldw	r3,0(r2)
 5082b74:	01ffbff4 	movhi	r7,65279
 5082b78:	39ffbfc4 	addi	r7,r7,-257
 5082b7c:	00ca303a 	nor	r5,zero,r3
 5082b80:	01a02074 	movhi	r6,32897
 5082b84:	19c7883a 	add	r3,r3,r7
 5082b88:	31a02004 	addi	r6,r6,-32640
 5082b8c:	1946703a 	and	r3,r3,r5
 5082b90:	1986703a 	and	r3,r3,r6
 5082b94:	1800091e 	bne	r3,zero,5082bbc <strlen+0x78>
 5082b98:	10800104 	addi	r2,r2,4
 5082b9c:	10c00017 	ldw	r3,0(r2)
 5082ba0:	19cb883a 	add	r5,r3,r7
 5082ba4:	00c6303a 	nor	r3,zero,r3
 5082ba8:	28c6703a 	and	r3,r5,r3
 5082bac:	1986703a 	and	r3,r3,r6
 5082bb0:	183ff926 	beq	r3,zero,5082b98 <__alt_data_end+0xfffb4998>
 5082bb4:	00000106 	br	5082bbc <strlen+0x78>
 5082bb8:	10800044 	addi	r2,r2,1
 5082bbc:	10c00007 	ldb	r3,0(r2)
 5082bc0:	183ffd1e 	bne	r3,zero,5082bb8 <__alt_data_end+0xfffb49b8>
 5082bc4:	1105c83a 	sub	r2,r2,r4
 5082bc8:	f800283a 	ret
 5082bcc:	2005883a 	mov	r2,r4
 5082bd0:	003fe706 	br	5082b70 <__alt_data_end+0xfffb4970>
 5082bd4:	0005883a 	mov	r2,zero
 5082bd8:	f800283a 	ret

05082bdc <___svfprintf_internal_r>:
 5082bdc:	deffb704 	addi	sp,sp,-292
 5082be0:	dfc04815 	stw	ra,288(sp)
 5082be4:	ddc04615 	stw	r23,280(sp)
 5082be8:	d9402c15 	stw	r5,176(sp)
 5082bec:	d9003915 	stw	r4,228(sp)
 5082bf0:	302f883a 	mov	r23,r6
 5082bf4:	d9c02d15 	stw	r7,180(sp)
 5082bf8:	df004715 	stw	fp,284(sp)
 5082bfc:	dd804515 	stw	r22,276(sp)
 5082c00:	dd404415 	stw	r21,272(sp)
 5082c04:	dd004315 	stw	r20,268(sp)
 5082c08:	dcc04215 	stw	r19,264(sp)
 5082c0c:	dc804115 	stw	r18,260(sp)
 5082c10:	dc404015 	stw	r17,256(sp)
 5082c14:	dc003f15 	stw	r16,252(sp)
 5082c18:	5089cf00 	call	5089cf0 <_localeconv_r>
 5082c1c:	10800017 	ldw	r2,0(r2)
 5082c20:	1009883a 	mov	r4,r2
 5082c24:	d8803415 	stw	r2,208(sp)
 5082c28:	5082b440 	call	5082b44 <strlen>
 5082c2c:	d8c02c17 	ldw	r3,176(sp)
 5082c30:	d8803815 	stw	r2,224(sp)
 5082c34:	1880030b 	ldhu	r2,12(r3)
 5082c38:	1080200c 	andi	r2,r2,128
 5082c3c:	10000226 	beq	r2,zero,5082c48 <___svfprintf_internal_r+0x6c>
 5082c40:	18800417 	ldw	r2,16(r3)
 5082c44:	10067f26 	beq	r2,zero,5084644 <___svfprintf_internal_r+0x1a68>
 5082c48:	dcc03917 	ldw	r19,228(sp)
 5082c4c:	d8c00404 	addi	r3,sp,16
 5082c50:	05414274 	movhi	r21,1289
 5082c54:	d9001e04 	addi	r4,sp,120
 5082c58:	ad578384 	addi	r21,r21,24078
 5082c5c:	d8c01e15 	stw	r3,120(sp)
 5082c60:	d8002015 	stw	zero,128(sp)
 5082c64:	d8001f15 	stw	zero,124(sp)
 5082c68:	d8003315 	stw	zero,204(sp)
 5082c6c:	d8003615 	stw	zero,216(sp)
 5082c70:	d8003715 	stw	zero,220(sp)
 5082c74:	1811883a 	mov	r8,r3
 5082c78:	d8003a15 	stw	zero,232(sp)
 5082c7c:	d8003b15 	stw	zero,236(sp)
 5082c80:	d8002f15 	stw	zero,188(sp)
 5082c84:	d9002815 	stw	r4,160(sp)
 5082c88:	b8800007 	ldb	r2,0(r23)
 5082c8c:	10026726 	beq	r2,zero,508362c <___svfprintf_internal_r+0xa50>
 5082c90:	00c00944 	movi	r3,37
 5082c94:	b821883a 	mov	r16,r23
 5082c98:	10c0021e 	bne	r2,r3,5082ca4 <___svfprintf_internal_r+0xc8>
 5082c9c:	00001406 	br	5082cf0 <___svfprintf_internal_r+0x114>
 5082ca0:	10c00326 	beq	r2,r3,5082cb0 <___svfprintf_internal_r+0xd4>
 5082ca4:	84000044 	addi	r16,r16,1
 5082ca8:	80800007 	ldb	r2,0(r16)
 5082cac:	103ffc1e 	bne	r2,zero,5082ca0 <__alt_data_end+0xfffb4aa0>
 5082cb0:	85e3c83a 	sub	r17,r16,r23
 5082cb4:	88000e26 	beq	r17,zero,5082cf0 <___svfprintf_internal_r+0x114>
 5082cb8:	d8c02017 	ldw	r3,128(sp)
 5082cbc:	d8801f17 	ldw	r2,124(sp)
 5082cc0:	45c00015 	stw	r23,0(r8)
 5082cc4:	1c47883a 	add	r3,r3,r17
 5082cc8:	10800044 	addi	r2,r2,1
 5082ccc:	d8c02015 	stw	r3,128(sp)
 5082cd0:	44400115 	stw	r17,4(r8)
 5082cd4:	d8801f15 	stw	r2,124(sp)
 5082cd8:	00c001c4 	movi	r3,7
 5082cdc:	18809716 	blt	r3,r2,5082f3c <___svfprintf_internal_r+0x360>
 5082ce0:	42000204 	addi	r8,r8,8
 5082ce4:	d9402f17 	ldw	r5,188(sp)
 5082ce8:	2c4b883a 	add	r5,r5,r17
 5082cec:	d9402f15 	stw	r5,188(sp)
 5082cf0:	80800007 	ldb	r2,0(r16)
 5082cf4:	10009826 	beq	r2,zero,5082f58 <___svfprintf_internal_r+0x37c>
 5082cf8:	84400047 	ldb	r17,1(r16)
 5082cfc:	00bfffc4 	movi	r2,-1
 5082d00:	85c00044 	addi	r23,r16,1
 5082d04:	d8002785 	stb	zero,158(sp)
 5082d08:	0007883a 	mov	r3,zero
 5082d0c:	000f883a 	mov	r7,zero
 5082d10:	d8802915 	stw	r2,164(sp)
 5082d14:	d8003115 	stw	zero,196(sp)
 5082d18:	0025883a 	mov	r18,zero
 5082d1c:	01401604 	movi	r5,88
 5082d20:	01800244 	movi	r6,9
 5082d24:	02800a84 	movi	r10,42
 5082d28:	02401b04 	movi	r9,108
 5082d2c:	bdc00044 	addi	r23,r23,1
 5082d30:	88bff804 	addi	r2,r17,-32
 5082d34:	2882f036 	bltu	r5,r2,50838f8 <___svfprintf_internal_r+0xd1c>
 5082d38:	100490ba 	slli	r2,r2,2
 5082d3c:	01014234 	movhi	r4,1288
 5082d40:	210b5404 	addi	r4,r4,11600
 5082d44:	1105883a 	add	r2,r2,r4
 5082d48:	10800017 	ldw	r2,0(r2)
 5082d4c:	1000683a 	jmp	r2
 5082d50:	05083860 	cmpeqi	r20,zero,8417
 5082d54:	050838f8 	rdprs	r20,zero,8419
 5082d58:	050838f8 	rdprs	r20,zero,8419
 5082d5c:	05083854 	movui	r20,8417
 5082d60:	050838f8 	rdprs	r20,zero,8419
 5082d64:	050838f8 	rdprs	r20,zero,8419
 5082d68:	050838f8 	rdprs	r20,zero,8419
 5082d6c:	050838f8 	rdprs	r20,zero,8419
 5082d70:	050838f8 	rdprs	r20,zero,8419
 5082d74:	050838f8 	rdprs	r20,zero,8419
 5082d78:	05082fb4 	movhi	r20,8382
 5082d7c:	05083790 	cmplti	r20,zero,8414
 5082d80:	050838f8 	rdprs	r20,zero,8419
 5082d84:	05082ec4 	movi	r20,8379
 5082d88:	05082fdc 	xori	r20,zero,8383
 5082d8c:	050838f8 	rdprs	r20,zero,8419
 5082d90:	05083050 	cmplti	r20,zero,8385
 5082d94:	0508301c 	xori	r20,zero,8384
 5082d98:	0508301c 	xori	r20,zero,8384
 5082d9c:	0508301c 	xori	r20,zero,8384
 5082da0:	0508301c 	xori	r20,zero,8384
 5082da4:	0508301c 	xori	r20,zero,8384
 5082da8:	0508301c 	xori	r20,zero,8384
 5082dac:	0508301c 	xori	r20,zero,8384
 5082db0:	0508301c 	xori	r20,zero,8384
 5082db4:	0508301c 	xori	r20,zero,8384
 5082db8:	050838f8 	rdprs	r20,zero,8419
 5082dbc:	050838f8 	rdprs	r20,zero,8419
 5082dc0:	050838f8 	rdprs	r20,zero,8419
 5082dc4:	050838f8 	rdprs	r20,zero,8419
 5082dc8:	050838f8 	rdprs	r20,zero,8419
 5082dcc:	050838f8 	rdprs	r20,zero,8419
 5082dd0:	050838f8 	rdprs	r20,zero,8419
 5082dd4:	050838f8 	rdprs	r20,zero,8419
 5082dd8:	050838f8 	rdprs	r20,zero,8419
 5082ddc:	050838f8 	rdprs	r20,zero,8419
 5082de0:	05083108 	cmpgei	r20,zero,8388
 5082de4:	0508305c 	xori	r20,zero,8385
 5082de8:	050838f8 	rdprs	r20,zero,8419
 5082dec:	0508305c 	xori	r20,zero,8385
 5082df0:	050838f8 	rdprs	r20,zero,8419
 5082df4:	050838f8 	rdprs	r20,zero,8419
 5082df8:	050838f8 	rdprs	r20,zero,8419
 5082dfc:	050838f8 	rdprs	r20,zero,8419
 5082e00:	050830fc 	xorhi	r20,zero,8387
 5082e04:	050838f8 	rdprs	r20,zero,8419
 5082e08:	050838f8 	rdprs	r20,zero,8419
 5082e0c:	050831c4 	movi	r20,8391
 5082e10:	050838f8 	rdprs	r20,zero,8419
 5082e14:	050838f8 	rdprs	r20,zero,8419
 5082e18:	050838f8 	rdprs	r20,zero,8419
 5082e1c:	050838f8 	rdprs	r20,zero,8419
 5082e20:	050838f8 	rdprs	r20,zero,8419
 5082e24:	05083634 	movhi	r20,8408
 5082e28:	050838f8 	rdprs	r20,zero,8419
 5082e2c:	050838f8 	rdprs	r20,zero,8419
 5082e30:	05083694 	movui	r20,8410
 5082e34:	050838f8 	rdprs	r20,zero,8419
 5082e38:	050838f8 	rdprs	r20,zero,8419
 5082e3c:	050838f8 	rdprs	r20,zero,8419
 5082e40:	050838f8 	rdprs	r20,zero,8419
 5082e44:	050838f8 	rdprs	r20,zero,8419
 5082e48:	050838f8 	rdprs	r20,zero,8419
 5082e4c:	050838f8 	rdprs	r20,zero,8419
 5082e50:	050838f8 	rdprs	r20,zero,8419
 5082e54:	050838f8 	rdprs	r20,zero,8419
 5082e58:	050838f8 	rdprs	r20,zero,8419
 5082e5c:	05083744 	movi	r20,8413
 5082e60:	05083880 	call	508388 <__alt_mem_sdram+0x508388>
 5082e64:	0508305c 	xori	r20,zero,8385
 5082e68:	0508305c 	xori	r20,zero,8385
 5082e6c:	0508305c 	xori	r20,zero,8385
 5082e70:	050838d4 	movui	r20,8419
 5082e74:	05083880 	call	508388 <__alt_mem_sdram+0x508388>
 5082e78:	050838f8 	rdprs	r20,zero,8419
 5082e7c:	050838f8 	rdprs	r20,zero,8419
 5082e80:	05083890 	cmplti	r20,zero,8418
 5082e84:	050838f8 	rdprs	r20,zero,8419
 5082e88:	050838a0 	cmpeqi	r20,zero,8418
 5082e8c:	05083780 	call	508378 <__alt_mem_sdram+0x508378>
 5082e90:	05082ed0 	cmplti	r20,zero,8379
 5082e94:	050837a0 	cmpeqi	r20,zero,8414
 5082e98:	050838f8 	rdprs	r20,zero,8419
 5082e9c:	050837ac 	andhi	r20,zero,8414
 5082ea0:	050838f8 	rdprs	r20,zero,8419
 5082ea4:	05083808 	cmpgei	r20,zero,8416
 5082ea8:	050838f8 	rdprs	r20,zero,8419
 5082eac:	050838f8 	rdprs	r20,zero,8419
 5082eb0:	05083818 	cmpnei	r20,zero,8416
 5082eb4:	d9003117 	ldw	r4,196(sp)
 5082eb8:	d8802d15 	stw	r2,180(sp)
 5082ebc:	0109c83a 	sub	r4,zero,r4
 5082ec0:	d9003115 	stw	r4,196(sp)
 5082ec4:	94800114 	ori	r18,r18,4
 5082ec8:	bc400007 	ldb	r17,0(r23)
 5082ecc:	003f9706 	br	5082d2c <__alt_data_end+0xfffb4b2c>
 5082ed0:	00800c04 	movi	r2,48
 5082ed4:	d9002d17 	ldw	r4,180(sp)
 5082ed8:	d9402917 	ldw	r5,164(sp)
 5082edc:	d8802705 	stb	r2,156(sp)
 5082ee0:	00801e04 	movi	r2,120
 5082ee4:	d8802745 	stb	r2,157(sp)
 5082ee8:	d8002785 	stb	zero,158(sp)
 5082eec:	20c00104 	addi	r3,r4,4
 5082ef0:	25000017 	ldw	r20,0(r4)
 5082ef4:	002d883a 	mov	r22,zero
 5082ef8:	90800094 	ori	r2,r18,2
 5082efc:	28028616 	blt	r5,zero,5083918 <___svfprintf_internal_r+0xd3c>
 5082f00:	00bfdfc4 	movi	r2,-129
 5082f04:	90a4703a 	and	r18,r18,r2
 5082f08:	d8c02d15 	stw	r3,180(sp)
 5082f0c:	94800094 	ori	r18,r18,2
 5082f10:	a002731e 	bne	r20,zero,50838e0 <___svfprintf_internal_r+0xd04>
 5082f14:	00814274 	movhi	r2,1289
 5082f18:	10977c04 	addi	r2,r2,24048
 5082f1c:	d8803a15 	stw	r2,232(sp)
 5082f20:	04401e04 	movi	r17,120
 5082f24:	d8c02917 	ldw	r3,164(sp)
 5082f28:	0039883a 	mov	fp,zero
 5082f2c:	1801d526 	beq	r3,zero,5083684 <___svfprintf_internal_r+0xaa8>
 5082f30:	0029883a 	mov	r20,zero
 5082f34:	002d883a 	mov	r22,zero
 5082f38:	0001f106 	br	5083700 <___svfprintf_internal_r+0xb24>
 5082f3c:	d9402c17 	ldw	r5,176(sp)
 5082f40:	d9801e04 	addi	r6,sp,120
 5082f44:	9809883a 	mov	r4,r19
 5082f48:	508c3d80 	call	508c3d8 <__ssprint_r>
 5082f4c:	1000081e 	bne	r2,zero,5082f70 <___svfprintf_internal_r+0x394>
 5082f50:	da000404 	addi	r8,sp,16
 5082f54:	003f6306 	br	5082ce4 <__alt_data_end+0xfffb4ae4>
 5082f58:	d8802017 	ldw	r2,128(sp)
 5082f5c:	10000426 	beq	r2,zero,5082f70 <___svfprintf_internal_r+0x394>
 5082f60:	d9402c17 	ldw	r5,176(sp)
 5082f64:	d9003917 	ldw	r4,228(sp)
 5082f68:	d9801e04 	addi	r6,sp,120
 5082f6c:	508c3d80 	call	508c3d8 <__ssprint_r>
 5082f70:	d8802c17 	ldw	r2,176(sp)
 5082f74:	10c0030b 	ldhu	r3,12(r2)
 5082f78:	d8802f17 	ldw	r2,188(sp)
 5082f7c:	18c0100c 	andi	r3,r3,64
 5082f80:	1805f51e 	bne	r3,zero,5084758 <___svfprintf_internal_r+0x1b7c>
 5082f84:	dfc04817 	ldw	ra,288(sp)
 5082f88:	df004717 	ldw	fp,284(sp)
 5082f8c:	ddc04617 	ldw	r23,280(sp)
 5082f90:	dd804517 	ldw	r22,276(sp)
 5082f94:	dd404417 	ldw	r21,272(sp)
 5082f98:	dd004317 	ldw	r20,268(sp)
 5082f9c:	dcc04217 	ldw	r19,264(sp)
 5082fa0:	dc804117 	ldw	r18,260(sp)
 5082fa4:	dc404017 	ldw	r17,256(sp)
 5082fa8:	dc003f17 	ldw	r16,252(sp)
 5082fac:	dec04904 	addi	sp,sp,292
 5082fb0:	f800283a 	ret
 5082fb4:	d8802d17 	ldw	r2,180(sp)
 5082fb8:	d9002d17 	ldw	r4,180(sp)
 5082fbc:	10800017 	ldw	r2,0(r2)
 5082fc0:	d8803115 	stw	r2,196(sp)
 5082fc4:	20800104 	addi	r2,r4,4
 5082fc8:	d9003117 	ldw	r4,196(sp)
 5082fcc:	203fb916 	blt	r4,zero,5082eb4 <__alt_data_end+0xfffb4cb4>
 5082fd0:	d8802d15 	stw	r2,180(sp)
 5082fd4:	bc400007 	ldb	r17,0(r23)
 5082fd8:	003f5406 	br	5082d2c <__alt_data_end+0xfffb4b2c>
 5082fdc:	bc400007 	ldb	r17,0(r23)
 5082fe0:	bac00044 	addi	r11,r23,1
 5082fe4:	8a873926 	beq	r17,r10,5084ccc <___svfprintf_internal_r+0x20f0>
 5082fe8:	88bff404 	addi	r2,r17,-48
 5082fec:	0009883a 	mov	r4,zero
 5082ff0:	30868836 	bltu	r6,r2,5084a14 <___svfprintf_internal_r+0x1e38>
 5082ff4:	5c400007 	ldb	r17,0(r11)
 5082ff8:	210002a4 	muli	r4,r4,10
 5082ffc:	5dc00044 	addi	r23,r11,1
 5083000:	b817883a 	mov	r11,r23
 5083004:	2089883a 	add	r4,r4,r2
 5083008:	88bff404 	addi	r2,r17,-48
 508300c:	30bff92e 	bgeu	r6,r2,5082ff4 <__alt_data_end+0xfffb4df4>
 5083010:	2005d716 	blt	r4,zero,5084770 <___svfprintf_internal_r+0x1b94>
 5083014:	d9002915 	stw	r4,164(sp)
 5083018:	003f4506 	br	5082d30 <__alt_data_end+0xfffb4b30>
 508301c:	b809883a 	mov	r4,r23
 5083020:	d8003115 	stw	zero,196(sp)
 5083024:	88bff404 	addi	r2,r17,-48
 5083028:	0017883a 	mov	r11,zero
 508302c:	24400007 	ldb	r17,0(r4)
 5083030:	5ac002a4 	muli	r11,r11,10
 5083034:	bdc00044 	addi	r23,r23,1
 5083038:	b809883a 	mov	r4,r23
 508303c:	12d7883a 	add	r11,r2,r11
 5083040:	88bff404 	addi	r2,r17,-48
 5083044:	30bff92e 	bgeu	r6,r2,508302c <__alt_data_end+0xfffb4e2c>
 5083048:	dac03115 	stw	r11,196(sp)
 508304c:	003f3806 	br	5082d30 <__alt_data_end+0xfffb4b30>
 5083050:	94802014 	ori	r18,r18,128
 5083054:	bc400007 	ldb	r17,0(r23)
 5083058:	003f3406 	br	5082d2c <__alt_data_end+0xfffb4b2c>
 508305c:	18c03fcc 	andi	r3,r3,255
 5083060:	1807471e 	bne	r3,zero,5084d80 <___svfprintf_internal_r+0x21a4>
 5083064:	9080020c 	andi	r2,r18,8
 5083068:	10047d26 	beq	r2,zero,5084260 <___svfprintf_internal_r+0x1684>
 508306c:	d8c02d17 	ldw	r3,180(sp)
 5083070:	d9002d17 	ldw	r4,180(sp)
 5083074:	d9402d17 	ldw	r5,180(sp)
 5083078:	18c00017 	ldw	r3,0(r3)
 508307c:	21000117 	ldw	r4,4(r4)
 5083080:	29400204 	addi	r5,r5,8
 5083084:	d8c03615 	stw	r3,216(sp)
 5083088:	d9003715 	stw	r4,220(sp)
 508308c:	d9402d15 	stw	r5,180(sp)
 5083090:	d9003617 	ldw	r4,216(sp)
 5083094:	d9403717 	ldw	r5,220(sp)
 5083098:	da003e15 	stw	r8,248(sp)
 508309c:	04000044 	movi	r16,1
 50830a0:	508c0f80 	call	508c0f8 <__fpclassifyd>
 50830a4:	da003e17 	ldw	r8,248(sp)
 50830a8:	14044b1e 	bne	r2,r16,50841d8 <___svfprintf_internal_r+0x15fc>
 50830ac:	d9003617 	ldw	r4,216(sp)
 50830b0:	d9403717 	ldw	r5,220(sp)
 50830b4:	000d883a 	mov	r6,zero
 50830b8:	000f883a 	mov	r7,zero
 50830bc:	50915080 	call	5091508 <__ledf2>
 50830c0:	da003e17 	ldw	r8,248(sp)
 50830c4:	1005f316 	blt	r2,zero,5084894 <___svfprintf_internal_r+0x1cb8>
 50830c8:	df002783 	ldbu	fp,158(sp)
 50830cc:	008011c4 	movi	r2,71
 50830d0:	1445590e 	bge	r2,r17,5084638 <___svfprintf_internal_r+0x1a5c>
 50830d4:	04014274 	movhi	r16,1289
 50830d8:	84177404 	addi	r16,r16,24016
 50830dc:	00c000c4 	movi	r3,3
 50830e0:	00bfdfc4 	movi	r2,-129
 50830e4:	d8c02a15 	stw	r3,168(sp)
 50830e8:	90a4703a 	and	r18,r18,r2
 50830ec:	d8c02e15 	stw	r3,184(sp)
 50830f0:	d8002915 	stw	zero,164(sp)
 50830f4:	d8003215 	stw	zero,200(sp)
 50830f8:	00006606 	br	5083294 <___svfprintf_internal_r+0x6b8>
 50830fc:	94800214 	ori	r18,r18,8
 5083100:	bc400007 	ldb	r17,0(r23)
 5083104:	003f0906 	br	5082d2c <__alt_data_end+0xfffb4b2c>
 5083108:	18c03fcc 	andi	r3,r3,255
 508310c:	1807181e 	bne	r3,zero,5084d70 <___svfprintf_internal_r+0x2194>
 5083110:	94800414 	ori	r18,r18,16
 5083114:	9080080c 	andi	r2,r18,32
 5083118:	10039626 	beq	r2,zero,5083f74 <___svfprintf_internal_r+0x1398>
 508311c:	d9402d17 	ldw	r5,180(sp)
 5083120:	28800117 	ldw	r2,4(r5)
 5083124:	2d000017 	ldw	r20,0(r5)
 5083128:	29400204 	addi	r5,r5,8
 508312c:	d9402d15 	stw	r5,180(sp)
 5083130:	102d883a 	mov	r22,r2
 5083134:	10039816 	blt	r2,zero,5083f98 <___svfprintf_internal_r+0x13bc>
 5083138:	d9402917 	ldw	r5,164(sp)
 508313c:	df002783 	ldbu	fp,158(sp)
 5083140:	2803ab16 	blt	r5,zero,5083ff0 <___svfprintf_internal_r+0x1414>
 5083144:	00ffdfc4 	movi	r3,-129
 5083148:	a584b03a 	or	r2,r20,r22
 508314c:	90e4703a 	and	r18,r18,r3
 5083150:	10014a26 	beq	r2,zero,508367c <___svfprintf_internal_r+0xaa0>
 5083154:	b0034b26 	beq	r22,zero,5083e84 <___svfprintf_internal_r+0x12a8>
 5083158:	dc402a15 	stw	r17,168(sp)
 508315c:	dc001e04 	addi	r16,sp,120
 5083160:	b023883a 	mov	r17,r22
 5083164:	402d883a 	mov	r22,r8
 5083168:	a009883a 	mov	r4,r20
 508316c:	880b883a 	mov	r5,r17
 5083170:	01800284 	movi	r6,10
 5083174:	000f883a 	mov	r7,zero
 5083178:	508fcd80 	call	508fcd8 <__umoddi3>
 508317c:	10800c04 	addi	r2,r2,48
 5083180:	843fffc4 	addi	r16,r16,-1
 5083184:	a009883a 	mov	r4,r20
 5083188:	880b883a 	mov	r5,r17
 508318c:	80800005 	stb	r2,0(r16)
 5083190:	01800284 	movi	r6,10
 5083194:	000f883a 	mov	r7,zero
 5083198:	508f7600 	call	508f760 <__udivdi3>
 508319c:	1029883a 	mov	r20,r2
 50831a0:	10c4b03a 	or	r2,r2,r3
 50831a4:	1823883a 	mov	r17,r3
 50831a8:	103fef1e 	bne	r2,zero,5083168 <__alt_data_end+0xfffb4f68>
 50831ac:	d8c02817 	ldw	r3,160(sp)
 50831b0:	dc402a17 	ldw	r17,168(sp)
 50831b4:	b011883a 	mov	r8,r22
 50831b8:	1c07c83a 	sub	r3,r3,r16
 50831bc:	d8c02e15 	stw	r3,184(sp)
 50831c0:	00002e06 	br	508327c <___svfprintf_internal_r+0x6a0>
 50831c4:	18c03fcc 	andi	r3,r3,255
 50831c8:	1806e71e 	bne	r3,zero,5084d68 <___svfprintf_internal_r+0x218c>
 50831cc:	94800414 	ori	r18,r18,16
 50831d0:	9080080c 	andi	r2,r18,32
 50831d4:	1002d426 	beq	r2,zero,5083d28 <___svfprintf_internal_r+0x114c>
 50831d8:	d9402d17 	ldw	r5,180(sp)
 50831dc:	d8c02917 	ldw	r3,164(sp)
 50831e0:	d8002785 	stb	zero,158(sp)
 50831e4:	28800204 	addi	r2,r5,8
 50831e8:	2d000017 	ldw	r20,0(r5)
 50831ec:	2d800117 	ldw	r22,4(r5)
 50831f0:	18041516 	blt	r3,zero,5084248 <___svfprintf_internal_r+0x166c>
 50831f4:	013fdfc4 	movi	r4,-129
 50831f8:	a586b03a 	or	r3,r20,r22
 50831fc:	d8802d15 	stw	r2,180(sp)
 5083200:	9124703a 	and	r18,r18,r4
 5083204:	1802d51e 	bne	r3,zero,5083d5c <___svfprintf_internal_r+0x1180>
 5083208:	d9402917 	ldw	r5,164(sp)
 508320c:	0039883a 	mov	fp,zero
 5083210:	2806be26 	beq	r5,zero,5084d0c <___svfprintf_internal_r+0x2130>
 5083214:	0029883a 	mov	r20,zero
 5083218:	002d883a 	mov	r22,zero
 508321c:	dc001e04 	addi	r16,sp,120
 5083220:	a006d0fa 	srli	r3,r20,3
 5083224:	b008977a 	slli	r4,r22,29
 5083228:	b02cd0fa 	srli	r22,r22,3
 508322c:	a50001cc 	andi	r20,r20,7
 5083230:	a0800c04 	addi	r2,r20,48
 5083234:	843fffc4 	addi	r16,r16,-1
 5083238:	20e8b03a 	or	r20,r4,r3
 508323c:	80800005 	stb	r2,0(r16)
 5083240:	a586b03a 	or	r3,r20,r22
 5083244:	183ff61e 	bne	r3,zero,5083220 <__alt_data_end+0xfffb5020>
 5083248:	90c0004c 	andi	r3,r18,1
 508324c:	18013926 	beq	r3,zero,5083734 <___svfprintf_internal_r+0xb58>
 5083250:	10803fcc 	andi	r2,r2,255
 5083254:	1080201c 	xori	r2,r2,128
 5083258:	10bfe004 	addi	r2,r2,-128
 508325c:	00c00c04 	movi	r3,48
 5083260:	10c13426 	beq	r2,r3,5083734 <___svfprintf_internal_r+0xb58>
 5083264:	80ffffc5 	stb	r3,-1(r16)
 5083268:	d8c02817 	ldw	r3,160(sp)
 508326c:	80bfffc4 	addi	r2,r16,-1
 5083270:	1021883a 	mov	r16,r2
 5083274:	1887c83a 	sub	r3,r3,r2
 5083278:	d8c02e15 	stw	r3,184(sp)
 508327c:	d8802e17 	ldw	r2,184(sp)
 5083280:	d9002917 	ldw	r4,164(sp)
 5083284:	1100010e 	bge	r2,r4,508328c <___svfprintf_internal_r+0x6b0>
 5083288:	2005883a 	mov	r2,r4
 508328c:	d8802a15 	stw	r2,168(sp)
 5083290:	d8003215 	stw	zero,200(sp)
 5083294:	e7003fcc 	andi	fp,fp,255
 5083298:	e700201c 	xori	fp,fp,128
 508329c:	e73fe004 	addi	fp,fp,-128
 50832a0:	e0000326 	beq	fp,zero,50832b0 <___svfprintf_internal_r+0x6d4>
 50832a4:	d8c02a17 	ldw	r3,168(sp)
 50832a8:	18c00044 	addi	r3,r3,1
 50832ac:	d8c02a15 	stw	r3,168(sp)
 50832b0:	90c0008c 	andi	r3,r18,2
 50832b4:	d8c02b15 	stw	r3,172(sp)
 50832b8:	18000326 	beq	r3,zero,50832c8 <___svfprintf_internal_r+0x6ec>
 50832bc:	d8c02a17 	ldw	r3,168(sp)
 50832c0:	18c00084 	addi	r3,r3,2
 50832c4:	d8c02a15 	stw	r3,168(sp)
 50832c8:	90c0210c 	andi	r3,r18,132
 50832cc:	d8c03015 	stw	r3,192(sp)
 50832d0:	1801a11e 	bne	r3,zero,5083958 <___svfprintf_internal_r+0xd7c>
 50832d4:	d9003117 	ldw	r4,196(sp)
 50832d8:	d8c02a17 	ldw	r3,168(sp)
 50832dc:	20e9c83a 	sub	r20,r4,r3
 50832e0:	05019d0e 	bge	zero,r20,5083958 <___svfprintf_internal_r+0xd7c>
 50832e4:	02400404 	movi	r9,16
 50832e8:	d8c02017 	ldw	r3,128(sp)
 50832ec:	d8801f17 	ldw	r2,124(sp)
 50832f0:	4d051b0e 	bge	r9,r20,5084760 <___svfprintf_internal_r+0x1b84>
 50832f4:	01414274 	movhi	r5,1289
 50832f8:	29578784 	addi	r5,r5,24094
 50832fc:	dc403c15 	stw	r17,240(sp)
 5083300:	d9403515 	stw	r5,212(sp)
 5083304:	a023883a 	mov	r17,r20
 5083308:	482d883a 	mov	r22,r9
 508330c:	9029883a 	mov	r20,r18
 5083310:	070001c4 	movi	fp,7
 5083314:	8025883a 	mov	r18,r16
 5083318:	dc002c17 	ldw	r16,176(sp)
 508331c:	00000306 	br	508332c <___svfprintf_internal_r+0x750>
 5083320:	8c7ffc04 	addi	r17,r17,-16
 5083324:	42000204 	addi	r8,r8,8
 5083328:	b440130e 	bge	r22,r17,5083378 <___svfprintf_internal_r+0x79c>
 508332c:	01014274 	movhi	r4,1289
 5083330:	18c00404 	addi	r3,r3,16
 5083334:	10800044 	addi	r2,r2,1
 5083338:	21178784 	addi	r4,r4,24094
 508333c:	41000015 	stw	r4,0(r8)
 5083340:	45800115 	stw	r22,4(r8)
 5083344:	d8c02015 	stw	r3,128(sp)
 5083348:	d8801f15 	stw	r2,124(sp)
 508334c:	e0bff40e 	bge	fp,r2,5083320 <__alt_data_end+0xfffb5120>
 5083350:	d9801e04 	addi	r6,sp,120
 5083354:	800b883a 	mov	r5,r16
 5083358:	9809883a 	mov	r4,r19
 508335c:	508c3d80 	call	508c3d8 <__ssprint_r>
 5083360:	103f031e 	bne	r2,zero,5082f70 <__alt_data_end+0xfffb4d70>
 5083364:	8c7ffc04 	addi	r17,r17,-16
 5083368:	d8c02017 	ldw	r3,128(sp)
 508336c:	d8801f17 	ldw	r2,124(sp)
 5083370:	da000404 	addi	r8,sp,16
 5083374:	b47fed16 	blt	r22,r17,508332c <__alt_data_end+0xfffb512c>
 5083378:	9021883a 	mov	r16,r18
 508337c:	a025883a 	mov	r18,r20
 5083380:	8829883a 	mov	r20,r17
 5083384:	dc403c17 	ldw	r17,240(sp)
 5083388:	d9403517 	ldw	r5,212(sp)
 508338c:	a0c7883a 	add	r3,r20,r3
 5083390:	10800044 	addi	r2,r2,1
 5083394:	41400015 	stw	r5,0(r8)
 5083398:	45000115 	stw	r20,4(r8)
 508339c:	d8c02015 	stw	r3,128(sp)
 50833a0:	d8801f15 	stw	r2,124(sp)
 50833a4:	010001c4 	movi	r4,7
 50833a8:	20829f16 	blt	r4,r2,5083e28 <___svfprintf_internal_r+0x124c>
 50833ac:	df002787 	ldb	fp,158(sp)
 50833b0:	42000204 	addi	r8,r8,8
 50833b4:	e0000c26 	beq	fp,zero,50833e8 <___svfprintf_internal_r+0x80c>
 50833b8:	d8801f17 	ldw	r2,124(sp)
 50833bc:	d9002784 	addi	r4,sp,158
 50833c0:	18c00044 	addi	r3,r3,1
 50833c4:	10800044 	addi	r2,r2,1
 50833c8:	41000015 	stw	r4,0(r8)
 50833cc:	01000044 	movi	r4,1
 50833d0:	41000115 	stw	r4,4(r8)
 50833d4:	d8c02015 	stw	r3,128(sp)
 50833d8:	d8801f15 	stw	r2,124(sp)
 50833dc:	010001c4 	movi	r4,7
 50833e0:	20823816 	blt	r4,r2,5083cc4 <___svfprintf_internal_r+0x10e8>
 50833e4:	42000204 	addi	r8,r8,8
 50833e8:	d8802b17 	ldw	r2,172(sp)
 50833ec:	10000c26 	beq	r2,zero,5083420 <___svfprintf_internal_r+0x844>
 50833f0:	d8801f17 	ldw	r2,124(sp)
 50833f4:	d9002704 	addi	r4,sp,156
 50833f8:	18c00084 	addi	r3,r3,2
 50833fc:	10800044 	addi	r2,r2,1
 5083400:	41000015 	stw	r4,0(r8)
 5083404:	01000084 	movi	r4,2
 5083408:	41000115 	stw	r4,4(r8)
 508340c:	d8c02015 	stw	r3,128(sp)
 5083410:	d8801f15 	stw	r2,124(sp)
 5083414:	010001c4 	movi	r4,7
 5083418:	20823216 	blt	r4,r2,5083ce4 <___svfprintf_internal_r+0x1108>
 508341c:	42000204 	addi	r8,r8,8
 5083420:	d9003017 	ldw	r4,192(sp)
 5083424:	00802004 	movi	r2,128
 5083428:	20819726 	beq	r4,r2,5083a88 <___svfprintf_internal_r+0xeac>
 508342c:	d9402917 	ldw	r5,164(sp)
 5083430:	d8802e17 	ldw	r2,184(sp)
 5083434:	28adc83a 	sub	r22,r5,r2
 5083438:	05802f0e 	bge	zero,r22,50834f8 <___svfprintf_internal_r+0x91c>
 508343c:	07000404 	movi	fp,16
 5083440:	d8801f17 	ldw	r2,124(sp)
 5083444:	e583c00e 	bge	fp,r22,5084348 <___svfprintf_internal_r+0x176c>
 5083448:	01414274 	movhi	r5,1289
 508344c:	29578384 	addi	r5,r5,24078
 5083450:	dc402915 	stw	r17,164(sp)
 5083454:	d9402b15 	stw	r5,172(sp)
 5083458:	b023883a 	mov	r17,r22
 508345c:	050001c4 	movi	r20,7
 5083460:	902d883a 	mov	r22,r18
 5083464:	8025883a 	mov	r18,r16
 5083468:	dc002c17 	ldw	r16,176(sp)
 508346c:	00000306 	br	508347c <___svfprintf_internal_r+0x8a0>
 5083470:	8c7ffc04 	addi	r17,r17,-16
 5083474:	42000204 	addi	r8,r8,8
 5083478:	e440110e 	bge	fp,r17,50834c0 <___svfprintf_internal_r+0x8e4>
 508347c:	18c00404 	addi	r3,r3,16
 5083480:	10800044 	addi	r2,r2,1
 5083484:	45400015 	stw	r21,0(r8)
 5083488:	47000115 	stw	fp,4(r8)
 508348c:	d8c02015 	stw	r3,128(sp)
 5083490:	d8801f15 	stw	r2,124(sp)
 5083494:	a0bff60e 	bge	r20,r2,5083470 <__alt_data_end+0xfffb5270>
 5083498:	d9801e04 	addi	r6,sp,120
 508349c:	800b883a 	mov	r5,r16
 50834a0:	9809883a 	mov	r4,r19
 50834a4:	508c3d80 	call	508c3d8 <__ssprint_r>
 50834a8:	103eb11e 	bne	r2,zero,5082f70 <__alt_data_end+0xfffb4d70>
 50834ac:	8c7ffc04 	addi	r17,r17,-16
 50834b0:	d8c02017 	ldw	r3,128(sp)
 50834b4:	d8801f17 	ldw	r2,124(sp)
 50834b8:	da000404 	addi	r8,sp,16
 50834bc:	e47fef16 	blt	fp,r17,508347c <__alt_data_end+0xfffb527c>
 50834c0:	9021883a 	mov	r16,r18
 50834c4:	b025883a 	mov	r18,r22
 50834c8:	882d883a 	mov	r22,r17
 50834cc:	dc402917 	ldw	r17,164(sp)
 50834d0:	d9002b17 	ldw	r4,172(sp)
 50834d4:	1d87883a 	add	r3,r3,r22
 50834d8:	10800044 	addi	r2,r2,1
 50834dc:	41000015 	stw	r4,0(r8)
 50834e0:	45800115 	stw	r22,4(r8)
 50834e4:	d8c02015 	stw	r3,128(sp)
 50834e8:	d8801f15 	stw	r2,124(sp)
 50834ec:	010001c4 	movi	r4,7
 50834f0:	2081ec16 	blt	r4,r2,5083ca4 <___svfprintf_internal_r+0x10c8>
 50834f4:	42000204 	addi	r8,r8,8
 50834f8:	9080400c 	andi	r2,r18,256
 50834fc:	1001181e 	bne	r2,zero,5083960 <___svfprintf_internal_r+0xd84>
 5083500:	d9402e17 	ldw	r5,184(sp)
 5083504:	d8801f17 	ldw	r2,124(sp)
 5083508:	44000015 	stw	r16,0(r8)
 508350c:	1947883a 	add	r3,r3,r5
 5083510:	10800044 	addi	r2,r2,1
 5083514:	41400115 	stw	r5,4(r8)
 5083518:	d8c02015 	stw	r3,128(sp)
 508351c:	d8801f15 	stw	r2,124(sp)
 5083520:	010001c4 	movi	r4,7
 5083524:	2081d116 	blt	r4,r2,5083c6c <___svfprintf_internal_r+0x1090>
 5083528:	42000204 	addi	r8,r8,8
 508352c:	9480010c 	andi	r18,r18,4
 5083530:	90003226 	beq	r18,zero,50835fc <___svfprintf_internal_r+0xa20>
 5083534:	d9403117 	ldw	r5,196(sp)
 5083538:	d8802a17 	ldw	r2,168(sp)
 508353c:	28a1c83a 	sub	r16,r5,r2
 5083540:	04002e0e 	bge	zero,r16,50835fc <___svfprintf_internal_r+0xa20>
 5083544:	04400404 	movi	r17,16
 5083548:	d8801f17 	ldw	r2,124(sp)
 508354c:	8c04b90e 	bge	r17,r16,5084834 <___svfprintf_internal_r+0x1c58>
 5083550:	01414274 	movhi	r5,1289
 5083554:	29578784 	addi	r5,r5,24094
 5083558:	d9403515 	stw	r5,212(sp)
 508355c:	048001c4 	movi	r18,7
 5083560:	dd002c17 	ldw	r20,176(sp)
 5083564:	00000306 	br	5083574 <___svfprintf_internal_r+0x998>
 5083568:	843ffc04 	addi	r16,r16,-16
 508356c:	42000204 	addi	r8,r8,8
 5083570:	8c00130e 	bge	r17,r16,50835c0 <___svfprintf_internal_r+0x9e4>
 5083574:	01014274 	movhi	r4,1289
 5083578:	18c00404 	addi	r3,r3,16
 508357c:	10800044 	addi	r2,r2,1
 5083580:	21178784 	addi	r4,r4,24094
 5083584:	41000015 	stw	r4,0(r8)
 5083588:	44400115 	stw	r17,4(r8)
 508358c:	d8c02015 	stw	r3,128(sp)
 5083590:	d8801f15 	stw	r2,124(sp)
 5083594:	90bff40e 	bge	r18,r2,5083568 <__alt_data_end+0xfffb5368>
 5083598:	d9801e04 	addi	r6,sp,120
 508359c:	a00b883a 	mov	r5,r20
 50835a0:	9809883a 	mov	r4,r19
 50835a4:	508c3d80 	call	508c3d8 <__ssprint_r>
 50835a8:	103e711e 	bne	r2,zero,5082f70 <__alt_data_end+0xfffb4d70>
 50835ac:	843ffc04 	addi	r16,r16,-16
 50835b0:	d8c02017 	ldw	r3,128(sp)
 50835b4:	d8801f17 	ldw	r2,124(sp)
 50835b8:	da000404 	addi	r8,sp,16
 50835bc:	8c3fed16 	blt	r17,r16,5083574 <__alt_data_end+0xfffb5374>
 50835c0:	d9403517 	ldw	r5,212(sp)
 50835c4:	1c07883a 	add	r3,r3,r16
 50835c8:	10800044 	addi	r2,r2,1
 50835cc:	41400015 	stw	r5,0(r8)
 50835d0:	44000115 	stw	r16,4(r8)
 50835d4:	d8c02015 	stw	r3,128(sp)
 50835d8:	d8801f15 	stw	r2,124(sp)
 50835dc:	010001c4 	movi	r4,7
 50835e0:	2080060e 	bge	r4,r2,50835fc <___svfprintf_internal_r+0xa20>
 50835e4:	d9402c17 	ldw	r5,176(sp)
 50835e8:	d9801e04 	addi	r6,sp,120
 50835ec:	9809883a 	mov	r4,r19
 50835f0:	508c3d80 	call	508c3d8 <__ssprint_r>
 50835f4:	103e5e1e 	bne	r2,zero,5082f70 <__alt_data_end+0xfffb4d70>
 50835f8:	d8c02017 	ldw	r3,128(sp)
 50835fc:	d8803117 	ldw	r2,196(sp)
 5083600:	d9002a17 	ldw	r4,168(sp)
 5083604:	1100010e 	bge	r2,r4,508360c <___svfprintf_internal_r+0xa30>
 5083608:	2005883a 	mov	r2,r4
 508360c:	d9402f17 	ldw	r5,188(sp)
 5083610:	288b883a 	add	r5,r5,r2
 5083614:	d9402f15 	stw	r5,188(sp)
 5083618:	18019c1e 	bne	r3,zero,5083c8c <___svfprintf_internal_r+0x10b0>
 508361c:	b8800007 	ldb	r2,0(r23)
 5083620:	d8001f15 	stw	zero,124(sp)
 5083624:	da000404 	addi	r8,sp,16
 5083628:	103d991e 	bne	r2,zero,5082c90 <__alt_data_end+0xfffb4a90>
 508362c:	b821883a 	mov	r16,r23
 5083630:	003daf06 	br	5082cf0 <__alt_data_end+0xfffb4af0>
 5083634:	18c03fcc 	andi	r3,r3,255
 5083638:	1805c71e 	bne	r3,zero,5084d58 <___svfprintf_internal_r+0x217c>
 508363c:	94800414 	ori	r18,r18,16
 5083640:	9080080c 	andi	r2,r18,32
 5083644:	10020126 	beq	r2,zero,5083e4c <___svfprintf_internal_r+0x1270>
 5083648:	d8802d17 	ldw	r2,180(sp)
 508364c:	d9002917 	ldw	r4,164(sp)
 5083650:	d8002785 	stb	zero,158(sp)
 5083654:	10c00204 	addi	r3,r2,8
 5083658:	15000017 	ldw	r20,0(r2)
 508365c:	15800117 	ldw	r22,4(r2)
 5083660:	20038e16 	blt	r4,zero,508449c <___svfprintf_internal_r+0x18c0>
 5083664:	013fdfc4 	movi	r4,-129
 5083668:	a584b03a 	or	r2,r20,r22
 508366c:	d8c02d15 	stw	r3,180(sp)
 5083670:	9124703a 	and	r18,r18,r4
 5083674:	0039883a 	mov	fp,zero
 5083678:	103eb61e 	bne	r2,zero,5083154 <__alt_data_end+0xfffb4f54>
 508367c:	d8802917 	ldw	r2,164(sp)
 5083680:	1002c81e 	bne	r2,zero,50841a4 <___svfprintf_internal_r+0x15c8>
 5083684:	d8002915 	stw	zero,164(sp)
 5083688:	d8002e15 	stw	zero,184(sp)
 508368c:	dc001e04 	addi	r16,sp,120
 5083690:	003efa06 	br	508327c <__alt_data_end+0xfffb507c>
 5083694:	18c03fcc 	andi	r3,r3,255
 5083698:	1805ad1e 	bne	r3,zero,5084d50 <___svfprintf_internal_r+0x2174>
 508369c:	01414274 	movhi	r5,1289
 50836a0:	29577704 	addi	r5,r5,24028
 50836a4:	d9403a15 	stw	r5,232(sp)
 50836a8:	9080080c 	andi	r2,r18,32
 50836ac:	10006126 	beq	r2,zero,5083834 <___svfprintf_internal_r+0xc58>
 50836b0:	d8802d17 	ldw	r2,180(sp)
 50836b4:	15000017 	ldw	r20,0(r2)
 50836b8:	15800117 	ldw	r22,4(r2)
 50836bc:	10800204 	addi	r2,r2,8
 50836c0:	d8802d15 	stw	r2,180(sp)
 50836c4:	9080004c 	andi	r2,r18,1
 50836c8:	10018e26 	beq	r2,zero,5083d04 <___svfprintf_internal_r+0x1128>
 50836cc:	a584b03a 	or	r2,r20,r22
 50836d0:	10030926 	beq	r2,zero,50842f8 <___svfprintf_internal_r+0x171c>
 50836d4:	d8c02917 	ldw	r3,164(sp)
 50836d8:	00800c04 	movi	r2,48
 50836dc:	d8802705 	stb	r2,156(sp)
 50836e0:	dc402745 	stb	r17,157(sp)
 50836e4:	d8002785 	stb	zero,158(sp)
 50836e8:	90800094 	ori	r2,r18,2
 50836ec:	18048716 	blt	r3,zero,508490c <___svfprintf_internal_r+0x1d30>
 50836f0:	00bfdfc4 	movi	r2,-129
 50836f4:	90a4703a 	and	r18,r18,r2
 50836f8:	94800094 	ori	r18,r18,2
 50836fc:	0039883a 	mov	fp,zero
 5083700:	d9003a17 	ldw	r4,232(sp)
 5083704:	dc001e04 	addi	r16,sp,120
 5083708:	a08003cc 	andi	r2,r20,15
 508370c:	b006973a 	slli	r3,r22,28
 5083710:	2085883a 	add	r2,r4,r2
 5083714:	a028d13a 	srli	r20,r20,4
 5083718:	10800003 	ldbu	r2,0(r2)
 508371c:	b02cd13a 	srli	r22,r22,4
 5083720:	843fffc4 	addi	r16,r16,-1
 5083724:	1d28b03a 	or	r20,r3,r20
 5083728:	80800005 	stb	r2,0(r16)
 508372c:	a584b03a 	or	r2,r20,r22
 5083730:	103ff51e 	bne	r2,zero,5083708 <__alt_data_end+0xfffb5508>
 5083734:	d8c02817 	ldw	r3,160(sp)
 5083738:	1c07c83a 	sub	r3,r3,r16
 508373c:	d8c02e15 	stw	r3,184(sp)
 5083740:	003ece06 	br	508327c <__alt_data_end+0xfffb507c>
 5083744:	d8c02d17 	ldw	r3,180(sp)
 5083748:	d9002d17 	ldw	r4,180(sp)
 508374c:	d8002785 	stb	zero,158(sp)
 5083750:	18800017 	ldw	r2,0(r3)
 5083754:	21000104 	addi	r4,r4,4
 5083758:	00c00044 	movi	r3,1
 508375c:	d8c02a15 	stw	r3,168(sp)
 5083760:	d8801405 	stb	r2,80(sp)
 5083764:	d9002d15 	stw	r4,180(sp)
 5083768:	d8c02e15 	stw	r3,184(sp)
 508376c:	d8002915 	stw	zero,164(sp)
 5083770:	d8003215 	stw	zero,200(sp)
 5083774:	dc001404 	addi	r16,sp,80
 5083778:	0039883a 	mov	fp,zero
 508377c:	003ecc06 	br	50832b0 <__alt_data_end+0xfffb50b0>
 5083780:	18c03fcc 	andi	r3,r3,255
 5083784:	183e9226 	beq	r3,zero,50831d0 <__alt_data_end+0xfffb4fd0>
 5083788:	d9c02785 	stb	r7,158(sp)
 508378c:	003e9006 	br	50831d0 <__alt_data_end+0xfffb4fd0>
 5083790:	00c00044 	movi	r3,1
 5083794:	01c00ac4 	movi	r7,43
 5083798:	bc400007 	ldb	r17,0(r23)
 508379c:	003d6306 	br	5082d2c <__alt_data_end+0xfffb4b2c>
 50837a0:	94800814 	ori	r18,r18,32
 50837a4:	bc400007 	ldb	r17,0(r23)
 50837a8:	003d6006 	br	5082d2c <__alt_data_end+0xfffb4b2c>
 50837ac:	d8c02d17 	ldw	r3,180(sp)
 50837b0:	d8002785 	stb	zero,158(sp)
 50837b4:	1c000017 	ldw	r16,0(r3)
 50837b8:	1d000104 	addi	r20,r3,4
 50837bc:	80040f26 	beq	r16,zero,50847fc <___svfprintf_internal_r+0x1c20>
 50837c0:	d9002917 	ldw	r4,164(sp)
 50837c4:	2003dc16 	blt	r4,zero,5084738 <___svfprintf_internal_r+0x1b5c>
 50837c8:	200d883a 	mov	r6,r4
 50837cc:	000b883a 	mov	r5,zero
 50837d0:	8009883a 	mov	r4,r16
 50837d4:	da003e15 	stw	r8,248(sp)
 50837d8:	508a6e80 	call	508a6e8 <memchr>
 50837dc:	da003e17 	ldw	r8,248(sp)
 50837e0:	10045826 	beq	r2,zero,5084944 <___svfprintf_internal_r+0x1d68>
 50837e4:	1405c83a 	sub	r2,r2,r16
 50837e8:	d8802e15 	stw	r2,184(sp)
 50837ec:	1003d816 	blt	r2,zero,5084750 <___svfprintf_internal_r+0x1b74>
 50837f0:	df002783 	ldbu	fp,158(sp)
 50837f4:	d8802a15 	stw	r2,168(sp)
 50837f8:	dd002d15 	stw	r20,180(sp)
 50837fc:	d8002915 	stw	zero,164(sp)
 5083800:	d8003215 	stw	zero,200(sp)
 5083804:	003ea306 	br	5083294 <__alt_data_end+0xfffb5094>
 5083808:	18c03fcc 	andi	r3,r3,255
 508380c:	183f8c26 	beq	r3,zero,5083640 <__alt_data_end+0xfffb5440>
 5083810:	d9c02785 	stb	r7,158(sp)
 5083814:	003f8a06 	br	5083640 <__alt_data_end+0xfffb5440>
 5083818:	18c03fcc 	andi	r3,r3,255
 508381c:	1805631e 	bne	r3,zero,5084dac <___svfprintf_internal_r+0x21d0>
 5083820:	01414274 	movhi	r5,1289
 5083824:	29577c04 	addi	r5,r5,24048
 5083828:	d9403a15 	stw	r5,232(sp)
 508382c:	9080080c 	andi	r2,r18,32
 5083830:	103f9f1e 	bne	r2,zero,50836b0 <__alt_data_end+0xfffb54b0>
 5083834:	9080040c 	andi	r2,r18,16
 5083838:	10029c26 	beq	r2,zero,50842ac <___svfprintf_internal_r+0x16d0>
 508383c:	d8c02d17 	ldw	r3,180(sp)
 5083840:	002d883a 	mov	r22,zero
 5083844:	1d000017 	ldw	r20,0(r3)
 5083848:	18c00104 	addi	r3,r3,4
 508384c:	d8c02d15 	stw	r3,180(sp)
 5083850:	003f9c06 	br	50836c4 <__alt_data_end+0xfffb54c4>
 5083854:	94800054 	ori	r18,r18,1
 5083858:	bc400007 	ldb	r17,0(r23)
 508385c:	003d3306 	br	5082d2c <__alt_data_end+0xfffb4b2c>
 5083860:	38803fcc 	andi	r2,r7,255
 5083864:	1080201c 	xori	r2,r2,128
 5083868:	10bfe004 	addi	r2,r2,-128
 508386c:	1002971e 	bne	r2,zero,50842cc <___svfprintf_internal_r+0x16f0>
 5083870:	00c00044 	movi	r3,1
 5083874:	01c00804 	movi	r7,32
 5083878:	bc400007 	ldb	r17,0(r23)
 508387c:	003d2b06 	br	5082d2c <__alt_data_end+0xfffb4b2c>
 5083880:	18c03fcc 	andi	r3,r3,255
 5083884:	183e2326 	beq	r3,zero,5083114 <__alt_data_end+0xfffb4f14>
 5083888:	d9c02785 	stb	r7,158(sp)
 508388c:	003e2106 	br	5083114 <__alt_data_end+0xfffb4f14>
 5083890:	bc400007 	ldb	r17,0(r23)
 5083894:	8a430426 	beq	r17,r9,50844a8 <___svfprintf_internal_r+0x18cc>
 5083898:	94800414 	ori	r18,r18,16
 508389c:	003d2306 	br	5082d2c <__alt_data_end+0xfffb4b2c>
 50838a0:	18c03fcc 	andi	r3,r3,255
 50838a4:	18053f1e 	bne	r3,zero,5084da4 <___svfprintf_internal_r+0x21c8>
 50838a8:	9080080c 	andi	r2,r18,32
 50838ac:	10028926 	beq	r2,zero,50842d4 <___svfprintf_internal_r+0x16f8>
 50838b0:	d9402d17 	ldw	r5,180(sp)
 50838b4:	d9002f17 	ldw	r4,188(sp)
 50838b8:	28800017 	ldw	r2,0(r5)
 50838bc:	2007d7fa 	srai	r3,r4,31
 50838c0:	29400104 	addi	r5,r5,4
 50838c4:	d9402d15 	stw	r5,180(sp)
 50838c8:	11000015 	stw	r4,0(r2)
 50838cc:	10c00115 	stw	r3,4(r2)
 50838d0:	003ced06 	br	5082c88 <__alt_data_end+0xfffb4a88>
 50838d4:	94801014 	ori	r18,r18,64
 50838d8:	bc400007 	ldb	r17,0(r23)
 50838dc:	003d1306 	br	5082d2c <__alt_data_end+0xfffb4b2c>
 50838e0:	01014274 	movhi	r4,1289
 50838e4:	21177c04 	addi	r4,r4,24048
 50838e8:	0039883a 	mov	fp,zero
 50838ec:	d9003a15 	stw	r4,232(sp)
 50838f0:	04401e04 	movi	r17,120
 50838f4:	003f8206 	br	5083700 <__alt_data_end+0xfffb5500>
 50838f8:	18c03fcc 	andi	r3,r3,255
 50838fc:	1805221e 	bne	r3,zero,5084d88 <___svfprintf_internal_r+0x21ac>
 5083900:	883d9526 	beq	r17,zero,5082f58 <__alt_data_end+0xfffb4d58>
 5083904:	00c00044 	movi	r3,1
 5083908:	d8c02a15 	stw	r3,168(sp)
 508390c:	dc401405 	stb	r17,80(sp)
 5083910:	d8002785 	stb	zero,158(sp)
 5083914:	003f9406 	br	5083768 <__alt_data_end+0xfffb5568>
 5083918:	01014274 	movhi	r4,1289
 508391c:	21177c04 	addi	r4,r4,24048
 5083920:	d9003a15 	stw	r4,232(sp)
 5083924:	d8c02d15 	stw	r3,180(sp)
 5083928:	1025883a 	mov	r18,r2
 508392c:	04401e04 	movi	r17,120
 5083930:	a584b03a 	or	r2,r20,r22
 5083934:	1000fa1e 	bne	r2,zero,5083d20 <___svfprintf_internal_r+0x1144>
 5083938:	0039883a 	mov	fp,zero
 508393c:	00800084 	movi	r2,2
 5083940:	10803fcc 	andi	r2,r2,255
 5083944:	00c00044 	movi	r3,1
 5083948:	10c21626 	beq	r2,r3,50841a4 <___svfprintf_internal_r+0x15c8>
 508394c:	00c00084 	movi	r3,2
 5083950:	10fe301e 	bne	r2,r3,5083214 <__alt_data_end+0xfffb5014>
 5083954:	003d7606 	br	5082f30 <__alt_data_end+0xfffb4d30>
 5083958:	d8c02017 	ldw	r3,128(sp)
 508395c:	003e9506 	br	50833b4 <__alt_data_end+0xfffb51b4>
 5083960:	00801944 	movi	r2,101
 5083964:	14407c0e 	bge	r2,r17,5083b58 <___svfprintf_internal_r+0xf7c>
 5083968:	d9003617 	ldw	r4,216(sp)
 508396c:	d9403717 	ldw	r5,220(sp)
 5083970:	000d883a 	mov	r6,zero
 5083974:	000f883a 	mov	r7,zero
 5083978:	d8c03d15 	stw	r3,244(sp)
 508397c:	da003e15 	stw	r8,248(sp)
 5083980:	50913a40 	call	50913a4 <__eqdf2>
 5083984:	d8c03d17 	ldw	r3,244(sp)
 5083988:	da003e17 	ldw	r8,248(sp)
 508398c:	1000f51e 	bne	r2,zero,5083d64 <___svfprintf_internal_r+0x1188>
 5083990:	d8801f17 	ldw	r2,124(sp)
 5083994:	01014274 	movhi	r4,1289
 5083998:	21178304 	addi	r4,r4,24076
 508399c:	18c00044 	addi	r3,r3,1
 50839a0:	10800044 	addi	r2,r2,1
 50839a4:	41000015 	stw	r4,0(r8)
 50839a8:	01000044 	movi	r4,1
 50839ac:	41000115 	stw	r4,4(r8)
 50839b0:	d8c02015 	stw	r3,128(sp)
 50839b4:	d8801f15 	stw	r2,124(sp)
 50839b8:	010001c4 	movi	r4,7
 50839bc:	20826616 	blt	r4,r2,5084358 <___svfprintf_internal_r+0x177c>
 50839c0:	42000204 	addi	r8,r8,8
 50839c4:	d8802617 	ldw	r2,152(sp)
 50839c8:	d9403317 	ldw	r5,204(sp)
 50839cc:	11400216 	blt	r2,r5,50839d8 <___svfprintf_internal_r+0xdfc>
 50839d0:	9080004c 	andi	r2,r18,1
 50839d4:	103ed526 	beq	r2,zero,508352c <__alt_data_end+0xfffb532c>
 50839d8:	d8803817 	ldw	r2,224(sp)
 50839dc:	d9003417 	ldw	r4,208(sp)
 50839e0:	d9403817 	ldw	r5,224(sp)
 50839e4:	1887883a 	add	r3,r3,r2
 50839e8:	d8801f17 	ldw	r2,124(sp)
 50839ec:	41000015 	stw	r4,0(r8)
 50839f0:	41400115 	stw	r5,4(r8)
 50839f4:	10800044 	addi	r2,r2,1
 50839f8:	d8c02015 	stw	r3,128(sp)
 50839fc:	d8801f15 	stw	r2,124(sp)
 5083a00:	010001c4 	movi	r4,7
 5083a04:	2082af16 	blt	r4,r2,50844c4 <___svfprintf_internal_r+0x18e8>
 5083a08:	42000204 	addi	r8,r8,8
 5083a0c:	d8803317 	ldw	r2,204(sp)
 5083a10:	143fffc4 	addi	r16,r2,-1
 5083a14:	043ec50e 	bge	zero,r16,508352c <__alt_data_end+0xfffb532c>
 5083a18:	04400404 	movi	r17,16
 5083a1c:	d8801f17 	ldw	r2,124(sp)
 5083a20:	8c00860e 	bge	r17,r16,5083c3c <___svfprintf_internal_r+0x1060>
 5083a24:	01414274 	movhi	r5,1289
 5083a28:	29578384 	addi	r5,r5,24078
 5083a2c:	d9402b15 	stw	r5,172(sp)
 5083a30:	058001c4 	movi	r22,7
 5083a34:	dd002c17 	ldw	r20,176(sp)
 5083a38:	00000306 	br	5083a48 <___svfprintf_internal_r+0xe6c>
 5083a3c:	42000204 	addi	r8,r8,8
 5083a40:	843ffc04 	addi	r16,r16,-16
 5083a44:	8c00800e 	bge	r17,r16,5083c48 <___svfprintf_internal_r+0x106c>
 5083a48:	18c00404 	addi	r3,r3,16
 5083a4c:	10800044 	addi	r2,r2,1
 5083a50:	45400015 	stw	r21,0(r8)
 5083a54:	44400115 	stw	r17,4(r8)
 5083a58:	d8c02015 	stw	r3,128(sp)
 5083a5c:	d8801f15 	stw	r2,124(sp)
 5083a60:	b0bff60e 	bge	r22,r2,5083a3c <__alt_data_end+0xfffb583c>
 5083a64:	d9801e04 	addi	r6,sp,120
 5083a68:	a00b883a 	mov	r5,r20
 5083a6c:	9809883a 	mov	r4,r19
 5083a70:	508c3d80 	call	508c3d8 <__ssprint_r>
 5083a74:	103d3e1e 	bne	r2,zero,5082f70 <__alt_data_end+0xfffb4d70>
 5083a78:	d8c02017 	ldw	r3,128(sp)
 5083a7c:	d8801f17 	ldw	r2,124(sp)
 5083a80:	da000404 	addi	r8,sp,16
 5083a84:	003fee06 	br	5083a40 <__alt_data_end+0xfffb5840>
 5083a88:	d9403117 	ldw	r5,196(sp)
 5083a8c:	d8802a17 	ldw	r2,168(sp)
 5083a90:	28adc83a 	sub	r22,r5,r2
 5083a94:	05be650e 	bge	zero,r22,508342c <__alt_data_end+0xfffb522c>
 5083a98:	07000404 	movi	fp,16
 5083a9c:	d8801f17 	ldw	r2,124(sp)
 5083aa0:	e583a20e 	bge	fp,r22,508492c <___svfprintf_internal_r+0x1d50>
 5083aa4:	01414274 	movhi	r5,1289
 5083aa8:	29578384 	addi	r5,r5,24078
 5083aac:	dc403015 	stw	r17,192(sp)
 5083ab0:	d9402b15 	stw	r5,172(sp)
 5083ab4:	b023883a 	mov	r17,r22
 5083ab8:	050001c4 	movi	r20,7
 5083abc:	902d883a 	mov	r22,r18
 5083ac0:	8025883a 	mov	r18,r16
 5083ac4:	dc002c17 	ldw	r16,176(sp)
 5083ac8:	00000306 	br	5083ad8 <___svfprintf_internal_r+0xefc>
 5083acc:	8c7ffc04 	addi	r17,r17,-16
 5083ad0:	42000204 	addi	r8,r8,8
 5083ad4:	e440110e 	bge	fp,r17,5083b1c <___svfprintf_internal_r+0xf40>
 5083ad8:	18c00404 	addi	r3,r3,16
 5083adc:	10800044 	addi	r2,r2,1
 5083ae0:	45400015 	stw	r21,0(r8)
 5083ae4:	47000115 	stw	fp,4(r8)
 5083ae8:	d8c02015 	stw	r3,128(sp)
 5083aec:	d8801f15 	stw	r2,124(sp)
 5083af0:	a0bff60e 	bge	r20,r2,5083acc <__alt_data_end+0xfffb58cc>
 5083af4:	d9801e04 	addi	r6,sp,120
 5083af8:	800b883a 	mov	r5,r16
 5083afc:	9809883a 	mov	r4,r19
 5083b00:	508c3d80 	call	508c3d8 <__ssprint_r>
 5083b04:	103d1a1e 	bne	r2,zero,5082f70 <__alt_data_end+0xfffb4d70>
 5083b08:	8c7ffc04 	addi	r17,r17,-16
 5083b0c:	d8c02017 	ldw	r3,128(sp)
 5083b10:	d8801f17 	ldw	r2,124(sp)
 5083b14:	da000404 	addi	r8,sp,16
 5083b18:	e47fef16 	blt	fp,r17,5083ad8 <__alt_data_end+0xfffb58d8>
 5083b1c:	9021883a 	mov	r16,r18
 5083b20:	b025883a 	mov	r18,r22
 5083b24:	882d883a 	mov	r22,r17
 5083b28:	dc403017 	ldw	r17,192(sp)
 5083b2c:	d9002b17 	ldw	r4,172(sp)
 5083b30:	1d87883a 	add	r3,r3,r22
 5083b34:	10800044 	addi	r2,r2,1
 5083b38:	41000015 	stw	r4,0(r8)
 5083b3c:	45800115 	stw	r22,4(r8)
 5083b40:	d8c02015 	stw	r3,128(sp)
 5083b44:	d8801f15 	stw	r2,124(sp)
 5083b48:	010001c4 	movi	r4,7
 5083b4c:	20819a16 	blt	r4,r2,50841b8 <___svfprintf_internal_r+0x15dc>
 5083b50:	42000204 	addi	r8,r8,8
 5083b54:	003e3506 	br	508342c <__alt_data_end+0xfffb522c>
 5083b58:	d9403317 	ldw	r5,204(sp)
 5083b5c:	00800044 	movi	r2,1
 5083b60:	18c00044 	addi	r3,r3,1
 5083b64:	1141710e 	bge	r2,r5,508412c <___svfprintf_internal_r+0x1550>
 5083b68:	dc401f17 	ldw	r17,124(sp)
 5083b6c:	00800044 	movi	r2,1
 5083b70:	40800115 	stw	r2,4(r8)
 5083b74:	8c400044 	addi	r17,r17,1
 5083b78:	44000015 	stw	r16,0(r8)
 5083b7c:	d8c02015 	stw	r3,128(sp)
 5083b80:	dc401f15 	stw	r17,124(sp)
 5083b84:	008001c4 	movi	r2,7
 5083b88:	14417416 	blt	r2,r17,508415c <___svfprintf_internal_r+0x1580>
 5083b8c:	42000204 	addi	r8,r8,8
 5083b90:	d8803817 	ldw	r2,224(sp)
 5083b94:	d9003417 	ldw	r4,208(sp)
 5083b98:	8c400044 	addi	r17,r17,1
 5083b9c:	10c7883a 	add	r3,r2,r3
 5083ba0:	40800115 	stw	r2,4(r8)
 5083ba4:	41000015 	stw	r4,0(r8)
 5083ba8:	d8c02015 	stw	r3,128(sp)
 5083bac:	dc401f15 	stw	r17,124(sp)
 5083bb0:	008001c4 	movi	r2,7
 5083bb4:	14417216 	blt	r2,r17,5084180 <___svfprintf_internal_r+0x15a4>
 5083bb8:	45800204 	addi	r22,r8,8
 5083bbc:	d9003617 	ldw	r4,216(sp)
 5083bc0:	d9403717 	ldw	r5,220(sp)
 5083bc4:	000d883a 	mov	r6,zero
 5083bc8:	000f883a 	mov	r7,zero
 5083bcc:	d8c03d15 	stw	r3,244(sp)
 5083bd0:	50913a40 	call	50913a4 <__eqdf2>
 5083bd4:	d8c03d17 	ldw	r3,244(sp)
 5083bd8:	1000b326 	beq	r2,zero,5083ea8 <___svfprintf_internal_r+0x12cc>
 5083bdc:	d9403317 	ldw	r5,204(sp)
 5083be0:	84000044 	addi	r16,r16,1
 5083be4:	8c400044 	addi	r17,r17,1
 5083be8:	28bfffc4 	addi	r2,r5,-1
 5083bec:	1887883a 	add	r3,r3,r2
 5083bf0:	b0800115 	stw	r2,4(r22)
 5083bf4:	b4000015 	stw	r16,0(r22)
 5083bf8:	d8c02015 	stw	r3,128(sp)
 5083bfc:	dc401f15 	stw	r17,124(sp)
 5083c00:	008001c4 	movi	r2,7
 5083c04:	1440d216 	blt	r2,r17,5083f50 <___svfprintf_internal_r+0x1374>
 5083c08:	b5800204 	addi	r22,r22,8
 5083c0c:	d9003b17 	ldw	r4,236(sp)
 5083c10:	df0022c4 	addi	fp,sp,139
 5083c14:	8c400044 	addi	r17,r17,1
 5083c18:	20c7883a 	add	r3,r4,r3
 5083c1c:	b7000015 	stw	fp,0(r22)
 5083c20:	b1000115 	stw	r4,4(r22)
 5083c24:	d8c02015 	stw	r3,128(sp)
 5083c28:	dc401f15 	stw	r17,124(sp)
 5083c2c:	008001c4 	movi	r2,7
 5083c30:	14400e16 	blt	r2,r17,5083c6c <___svfprintf_internal_r+0x1090>
 5083c34:	b2000204 	addi	r8,r22,8
 5083c38:	003e3c06 	br	508352c <__alt_data_end+0xfffb532c>
 5083c3c:	01014274 	movhi	r4,1289
 5083c40:	21178384 	addi	r4,r4,24078
 5083c44:	d9002b15 	stw	r4,172(sp)
 5083c48:	d9002b17 	ldw	r4,172(sp)
 5083c4c:	1c07883a 	add	r3,r3,r16
 5083c50:	44000115 	stw	r16,4(r8)
 5083c54:	41000015 	stw	r4,0(r8)
 5083c58:	10800044 	addi	r2,r2,1
 5083c5c:	d8c02015 	stw	r3,128(sp)
 5083c60:	d8801f15 	stw	r2,124(sp)
 5083c64:	010001c4 	movi	r4,7
 5083c68:	20be2f0e 	bge	r4,r2,5083528 <__alt_data_end+0xfffb5328>
 5083c6c:	d9402c17 	ldw	r5,176(sp)
 5083c70:	d9801e04 	addi	r6,sp,120
 5083c74:	9809883a 	mov	r4,r19
 5083c78:	508c3d80 	call	508c3d8 <__ssprint_r>
 5083c7c:	103cbc1e 	bne	r2,zero,5082f70 <__alt_data_end+0xfffb4d70>
 5083c80:	d8c02017 	ldw	r3,128(sp)
 5083c84:	da000404 	addi	r8,sp,16
 5083c88:	003e2806 	br	508352c <__alt_data_end+0xfffb532c>
 5083c8c:	d9402c17 	ldw	r5,176(sp)
 5083c90:	d9801e04 	addi	r6,sp,120
 5083c94:	9809883a 	mov	r4,r19
 5083c98:	508c3d80 	call	508c3d8 <__ssprint_r>
 5083c9c:	103e5f26 	beq	r2,zero,508361c <__alt_data_end+0xfffb541c>
 5083ca0:	003cb306 	br	5082f70 <__alt_data_end+0xfffb4d70>
 5083ca4:	d9402c17 	ldw	r5,176(sp)
 5083ca8:	d9801e04 	addi	r6,sp,120
 5083cac:	9809883a 	mov	r4,r19
 5083cb0:	508c3d80 	call	508c3d8 <__ssprint_r>
 5083cb4:	103cae1e 	bne	r2,zero,5082f70 <__alt_data_end+0xfffb4d70>
 5083cb8:	d8c02017 	ldw	r3,128(sp)
 5083cbc:	da000404 	addi	r8,sp,16
 5083cc0:	003e0d06 	br	50834f8 <__alt_data_end+0xfffb52f8>
 5083cc4:	d9402c17 	ldw	r5,176(sp)
 5083cc8:	d9801e04 	addi	r6,sp,120
 5083ccc:	9809883a 	mov	r4,r19
 5083cd0:	508c3d80 	call	508c3d8 <__ssprint_r>
 5083cd4:	103ca61e 	bne	r2,zero,5082f70 <__alt_data_end+0xfffb4d70>
 5083cd8:	d8c02017 	ldw	r3,128(sp)
 5083cdc:	da000404 	addi	r8,sp,16
 5083ce0:	003dc106 	br	50833e8 <__alt_data_end+0xfffb51e8>
 5083ce4:	d9402c17 	ldw	r5,176(sp)
 5083ce8:	d9801e04 	addi	r6,sp,120
 5083cec:	9809883a 	mov	r4,r19
 5083cf0:	508c3d80 	call	508c3d8 <__ssprint_r>
 5083cf4:	103c9e1e 	bne	r2,zero,5082f70 <__alt_data_end+0xfffb4d70>
 5083cf8:	d8c02017 	ldw	r3,128(sp)
 5083cfc:	da000404 	addi	r8,sp,16
 5083d00:	003dc706 	br	5083420 <__alt_data_end+0xfffb5220>
 5083d04:	d8802917 	ldw	r2,164(sp)
 5083d08:	d8002785 	stb	zero,158(sp)
 5083d0c:	103f0816 	blt	r2,zero,5083930 <__alt_data_end+0xfffb5730>
 5083d10:	00ffdfc4 	movi	r3,-129
 5083d14:	a584b03a 	or	r2,r20,r22
 5083d18:	90e4703a 	and	r18,r18,r3
 5083d1c:	103c8126 	beq	r2,zero,5082f24 <__alt_data_end+0xfffb4d24>
 5083d20:	0039883a 	mov	fp,zero
 5083d24:	003e7606 	br	5083700 <__alt_data_end+0xfffb5500>
 5083d28:	9080040c 	andi	r2,r18,16
 5083d2c:	10013d26 	beq	r2,zero,5084224 <___svfprintf_internal_r+0x1648>
 5083d30:	d9002d17 	ldw	r4,180(sp)
 5083d34:	d9402917 	ldw	r5,164(sp)
 5083d38:	d8002785 	stb	zero,158(sp)
 5083d3c:	20800104 	addi	r2,r4,4
 5083d40:	25000017 	ldw	r20,0(r4)
 5083d44:	002d883a 	mov	r22,zero
 5083d48:	28013f16 	blt	r5,zero,5084248 <___svfprintf_internal_r+0x166c>
 5083d4c:	00ffdfc4 	movi	r3,-129
 5083d50:	d8802d15 	stw	r2,180(sp)
 5083d54:	90e4703a 	and	r18,r18,r3
 5083d58:	a03d2b26 	beq	r20,zero,5083208 <__alt_data_end+0xfffb5008>
 5083d5c:	0039883a 	mov	fp,zero
 5083d60:	003d2e06 	br	508321c <__alt_data_end+0xfffb501c>
 5083d64:	dc402617 	ldw	r17,152(sp)
 5083d68:	0441830e 	bge	zero,r17,5084378 <___svfprintf_internal_r+0x179c>
 5083d6c:	dc403217 	ldw	r17,200(sp)
 5083d70:	d8803317 	ldw	r2,204(sp)
 5083d74:	1440010e 	bge	r2,r17,5083d7c <___svfprintf_internal_r+0x11a0>
 5083d78:	1023883a 	mov	r17,r2
 5083d7c:	04400a0e 	bge	zero,r17,5083da8 <___svfprintf_internal_r+0x11cc>
 5083d80:	d8801f17 	ldw	r2,124(sp)
 5083d84:	1c47883a 	add	r3,r3,r17
 5083d88:	44000015 	stw	r16,0(r8)
 5083d8c:	10800044 	addi	r2,r2,1
 5083d90:	44400115 	stw	r17,4(r8)
 5083d94:	d8c02015 	stw	r3,128(sp)
 5083d98:	d8801f15 	stw	r2,124(sp)
 5083d9c:	010001c4 	movi	r4,7
 5083da0:	20827516 	blt	r4,r2,5084778 <___svfprintf_internal_r+0x1b9c>
 5083da4:	42000204 	addi	r8,r8,8
 5083da8:	88027b16 	blt	r17,zero,5084798 <___svfprintf_internal_r+0x1bbc>
 5083dac:	d9003217 	ldw	r4,200(sp)
 5083db0:	2463c83a 	sub	r17,r4,r17
 5083db4:	0440990e 	bge	zero,r17,508401c <___svfprintf_internal_r+0x1440>
 5083db8:	05800404 	movi	r22,16
 5083dbc:	d8801f17 	ldw	r2,124(sp)
 5083dc0:	b441530e 	bge	r22,r17,5084310 <___svfprintf_internal_r+0x1734>
 5083dc4:	01014274 	movhi	r4,1289
 5083dc8:	21178384 	addi	r4,r4,24078
 5083dcc:	d9002b15 	stw	r4,172(sp)
 5083dd0:	070001c4 	movi	fp,7
 5083dd4:	dd002c17 	ldw	r20,176(sp)
 5083dd8:	00000306 	br	5083de8 <___svfprintf_internal_r+0x120c>
 5083ddc:	42000204 	addi	r8,r8,8
 5083de0:	8c7ffc04 	addi	r17,r17,-16
 5083de4:	b4414d0e 	bge	r22,r17,508431c <___svfprintf_internal_r+0x1740>
 5083de8:	18c00404 	addi	r3,r3,16
 5083dec:	10800044 	addi	r2,r2,1
 5083df0:	45400015 	stw	r21,0(r8)
 5083df4:	45800115 	stw	r22,4(r8)
 5083df8:	d8c02015 	stw	r3,128(sp)
 5083dfc:	d8801f15 	stw	r2,124(sp)
 5083e00:	e0bff60e 	bge	fp,r2,5083ddc <__alt_data_end+0xfffb5bdc>
 5083e04:	d9801e04 	addi	r6,sp,120
 5083e08:	a00b883a 	mov	r5,r20
 5083e0c:	9809883a 	mov	r4,r19
 5083e10:	508c3d80 	call	508c3d8 <__ssprint_r>
 5083e14:	103c561e 	bne	r2,zero,5082f70 <__alt_data_end+0xfffb4d70>
 5083e18:	d8c02017 	ldw	r3,128(sp)
 5083e1c:	d8801f17 	ldw	r2,124(sp)
 5083e20:	da000404 	addi	r8,sp,16
 5083e24:	003fee06 	br	5083de0 <__alt_data_end+0xfffb5be0>
 5083e28:	d9402c17 	ldw	r5,176(sp)
 5083e2c:	d9801e04 	addi	r6,sp,120
 5083e30:	9809883a 	mov	r4,r19
 5083e34:	508c3d80 	call	508c3d8 <__ssprint_r>
 5083e38:	103c4d1e 	bne	r2,zero,5082f70 <__alt_data_end+0xfffb4d70>
 5083e3c:	d8c02017 	ldw	r3,128(sp)
 5083e40:	df002787 	ldb	fp,158(sp)
 5083e44:	da000404 	addi	r8,sp,16
 5083e48:	003d5a06 	br	50833b4 <__alt_data_end+0xfffb51b4>
 5083e4c:	9080040c 	andi	r2,r18,16
 5083e50:	10005c26 	beq	r2,zero,5083fc4 <___svfprintf_internal_r+0x13e8>
 5083e54:	d9402d17 	ldw	r5,180(sp)
 5083e58:	d8c02917 	ldw	r3,164(sp)
 5083e5c:	d8002785 	stb	zero,158(sp)
 5083e60:	28800104 	addi	r2,r5,4
 5083e64:	2d000017 	ldw	r20,0(r5)
 5083e68:	002d883a 	mov	r22,zero
 5083e6c:	18005e16 	blt	r3,zero,5083fe8 <___svfprintf_internal_r+0x140c>
 5083e70:	00ffdfc4 	movi	r3,-129
 5083e74:	d8802d15 	stw	r2,180(sp)
 5083e78:	90e4703a 	and	r18,r18,r3
 5083e7c:	0039883a 	mov	fp,zero
 5083e80:	a03dfe26 	beq	r20,zero,508367c <__alt_data_end+0xfffb547c>
 5083e84:	00800244 	movi	r2,9
 5083e88:	153cb336 	bltu	r2,r20,5083158 <__alt_data_end+0xfffb4f58>
 5083e8c:	a5000c04 	addi	r20,r20,48
 5083e90:	dc001dc4 	addi	r16,sp,119
 5083e94:	dd001dc5 	stb	r20,119(sp)
 5083e98:	d8c02817 	ldw	r3,160(sp)
 5083e9c:	1c07c83a 	sub	r3,r3,r16
 5083ea0:	d8c02e15 	stw	r3,184(sp)
 5083ea4:	003cf506 	br	508327c <__alt_data_end+0xfffb507c>
 5083ea8:	d8803317 	ldw	r2,204(sp)
 5083eac:	143fffc4 	addi	r16,r2,-1
 5083eb0:	043f560e 	bge	zero,r16,5083c0c <__alt_data_end+0xfffb5a0c>
 5083eb4:	07000404 	movi	fp,16
 5083eb8:	e403530e 	bge	fp,r16,5084c08 <___svfprintf_internal_r+0x202c>
 5083ebc:	01414274 	movhi	r5,1289
 5083ec0:	29578384 	addi	r5,r5,24078
 5083ec4:	d9402b15 	stw	r5,172(sp)
 5083ec8:	01c001c4 	movi	r7,7
 5083ecc:	dd002c17 	ldw	r20,176(sp)
 5083ed0:	00000306 	br	5083ee0 <___svfprintf_internal_r+0x1304>
 5083ed4:	843ffc04 	addi	r16,r16,-16
 5083ed8:	b5800204 	addi	r22,r22,8
 5083edc:	e400130e 	bge	fp,r16,5083f2c <___svfprintf_internal_r+0x1350>
 5083ee0:	18c00404 	addi	r3,r3,16
 5083ee4:	8c400044 	addi	r17,r17,1
 5083ee8:	b5400015 	stw	r21,0(r22)
 5083eec:	b7000115 	stw	fp,4(r22)
 5083ef0:	d8c02015 	stw	r3,128(sp)
 5083ef4:	dc401f15 	stw	r17,124(sp)
 5083ef8:	3c7ff60e 	bge	r7,r17,5083ed4 <__alt_data_end+0xfffb5cd4>
 5083efc:	d9801e04 	addi	r6,sp,120
 5083f00:	a00b883a 	mov	r5,r20
 5083f04:	9809883a 	mov	r4,r19
 5083f08:	d9c03d15 	stw	r7,244(sp)
 5083f0c:	508c3d80 	call	508c3d8 <__ssprint_r>
 5083f10:	d9c03d17 	ldw	r7,244(sp)
 5083f14:	103c161e 	bne	r2,zero,5082f70 <__alt_data_end+0xfffb4d70>
 5083f18:	843ffc04 	addi	r16,r16,-16
 5083f1c:	d8c02017 	ldw	r3,128(sp)
 5083f20:	dc401f17 	ldw	r17,124(sp)
 5083f24:	dd800404 	addi	r22,sp,16
 5083f28:	e43fed16 	blt	fp,r16,5083ee0 <__alt_data_end+0xfffb5ce0>
 5083f2c:	d8802b17 	ldw	r2,172(sp)
 5083f30:	1c07883a 	add	r3,r3,r16
 5083f34:	8c400044 	addi	r17,r17,1
 5083f38:	b0800015 	stw	r2,0(r22)
 5083f3c:	b4000115 	stw	r16,4(r22)
 5083f40:	d8c02015 	stw	r3,128(sp)
 5083f44:	dc401f15 	stw	r17,124(sp)
 5083f48:	008001c4 	movi	r2,7
 5083f4c:	147f2e0e 	bge	r2,r17,5083c08 <__alt_data_end+0xfffb5a08>
 5083f50:	d9402c17 	ldw	r5,176(sp)
 5083f54:	d9801e04 	addi	r6,sp,120
 5083f58:	9809883a 	mov	r4,r19
 5083f5c:	508c3d80 	call	508c3d8 <__ssprint_r>
 5083f60:	103c031e 	bne	r2,zero,5082f70 <__alt_data_end+0xfffb4d70>
 5083f64:	d8c02017 	ldw	r3,128(sp)
 5083f68:	dc401f17 	ldw	r17,124(sp)
 5083f6c:	dd800404 	addi	r22,sp,16
 5083f70:	003f2606 	br	5083c0c <__alt_data_end+0xfffb5a0c>
 5083f74:	9080040c 	andi	r2,r18,16
 5083f78:	1000c326 	beq	r2,zero,5084288 <___svfprintf_internal_r+0x16ac>
 5083f7c:	d8802d17 	ldw	r2,180(sp)
 5083f80:	15000017 	ldw	r20,0(r2)
 5083f84:	10800104 	addi	r2,r2,4
 5083f88:	d8802d15 	stw	r2,180(sp)
 5083f8c:	a02dd7fa 	srai	r22,r20,31
 5083f90:	b005883a 	mov	r2,r22
 5083f94:	103c680e 	bge	r2,zero,5083138 <__alt_data_end+0xfffb4f38>
 5083f98:	0529c83a 	sub	r20,zero,r20
 5083f9c:	a004c03a 	cmpne	r2,r20,zero
 5083fa0:	05adc83a 	sub	r22,zero,r22
 5083fa4:	b0adc83a 	sub	r22,r22,r2
 5083fa8:	d8802917 	ldw	r2,164(sp)
 5083fac:	07000b44 	movi	fp,45
 5083fb0:	df002785 	stb	fp,158(sp)
 5083fb4:	10022e16 	blt	r2,zero,5084870 <___svfprintf_internal_r+0x1c94>
 5083fb8:	00bfdfc4 	movi	r2,-129
 5083fbc:	90a4703a 	and	r18,r18,r2
 5083fc0:	003c6406 	br	5083154 <__alt_data_end+0xfffb4f54>
 5083fc4:	9080100c 	andi	r2,r18,64
 5083fc8:	d8002785 	stb	zero,158(sp)
 5083fcc:	10012526 	beq	r2,zero,5084464 <___svfprintf_internal_r+0x1888>
 5083fd0:	d9002d17 	ldw	r4,180(sp)
 5083fd4:	d9402917 	ldw	r5,164(sp)
 5083fd8:	002d883a 	mov	r22,zero
 5083fdc:	20800104 	addi	r2,r4,4
 5083fe0:	2500000b 	ldhu	r20,0(r4)
 5083fe4:	283fa20e 	bge	r5,zero,5083e70 <__alt_data_end+0xfffb5c70>
 5083fe8:	d8802d15 	stw	r2,180(sp)
 5083fec:	0039883a 	mov	fp,zero
 5083ff0:	a584b03a 	or	r2,r20,r22
 5083ff4:	103c571e 	bne	r2,zero,5083154 <__alt_data_end+0xfffb4f54>
 5083ff8:	00800044 	movi	r2,1
 5083ffc:	003e5006 	br	5083940 <__alt_data_end+0xfffb5740>
 5084000:	d9402c17 	ldw	r5,176(sp)
 5084004:	d9801e04 	addi	r6,sp,120
 5084008:	9809883a 	mov	r4,r19
 508400c:	508c3d80 	call	508c3d8 <__ssprint_r>
 5084010:	103bd71e 	bne	r2,zero,5082f70 <__alt_data_end+0xfffb4d70>
 5084014:	d8c02017 	ldw	r3,128(sp)
 5084018:	da000404 	addi	r8,sp,16
 508401c:	d9003217 	ldw	r4,200(sp)
 5084020:	d8802617 	ldw	r2,152(sp)
 5084024:	d9403317 	ldw	r5,204(sp)
 5084028:	8123883a 	add	r17,r16,r4
 508402c:	11400216 	blt	r2,r5,5084038 <___svfprintf_internal_r+0x145c>
 5084030:	9100004c 	andi	r4,r18,1
 5084034:	20000d26 	beq	r4,zero,508406c <___svfprintf_internal_r+0x1490>
 5084038:	d9003817 	ldw	r4,224(sp)
 508403c:	d9403417 	ldw	r5,208(sp)
 5084040:	1907883a 	add	r3,r3,r4
 5084044:	d9001f17 	ldw	r4,124(sp)
 5084048:	41400015 	stw	r5,0(r8)
 508404c:	d9403817 	ldw	r5,224(sp)
 5084050:	21000044 	addi	r4,r4,1
 5084054:	d8c02015 	stw	r3,128(sp)
 5084058:	41400115 	stw	r5,4(r8)
 508405c:	d9001f15 	stw	r4,124(sp)
 5084060:	014001c4 	movi	r5,7
 5084064:	2901dc16 	blt	r5,r4,50847d8 <___svfprintf_internal_r+0x1bfc>
 5084068:	42000204 	addi	r8,r8,8
 508406c:	d9003317 	ldw	r4,204(sp)
 5084070:	8121883a 	add	r16,r16,r4
 5084074:	2085c83a 	sub	r2,r4,r2
 5084078:	8461c83a 	sub	r16,r16,r17
 508407c:	1400010e 	bge	r2,r16,5084084 <___svfprintf_internal_r+0x14a8>
 5084080:	1021883a 	mov	r16,r2
 5084084:	04000a0e 	bge	zero,r16,50840b0 <___svfprintf_internal_r+0x14d4>
 5084088:	d9001f17 	ldw	r4,124(sp)
 508408c:	1c07883a 	add	r3,r3,r16
 5084090:	44400015 	stw	r17,0(r8)
 5084094:	21000044 	addi	r4,r4,1
 5084098:	44000115 	stw	r16,4(r8)
 508409c:	d8c02015 	stw	r3,128(sp)
 50840a0:	d9001f15 	stw	r4,124(sp)
 50840a4:	014001c4 	movi	r5,7
 50840a8:	2901e616 	blt	r5,r4,5084844 <___svfprintf_internal_r+0x1c68>
 50840ac:	42000204 	addi	r8,r8,8
 50840b0:	8001f616 	blt	r16,zero,508488c <___svfprintf_internal_r+0x1cb0>
 50840b4:	1421c83a 	sub	r16,r2,r16
 50840b8:	043d1c0e 	bge	zero,r16,508352c <__alt_data_end+0xfffb532c>
 50840bc:	04400404 	movi	r17,16
 50840c0:	d8801f17 	ldw	r2,124(sp)
 50840c4:	8c3edd0e 	bge	r17,r16,5083c3c <__alt_data_end+0xfffb5a3c>
 50840c8:	01414274 	movhi	r5,1289
 50840cc:	29578384 	addi	r5,r5,24078
 50840d0:	d9402b15 	stw	r5,172(sp)
 50840d4:	058001c4 	movi	r22,7
 50840d8:	dd002c17 	ldw	r20,176(sp)
 50840dc:	00000306 	br	50840ec <___svfprintf_internal_r+0x1510>
 50840e0:	42000204 	addi	r8,r8,8
 50840e4:	843ffc04 	addi	r16,r16,-16
 50840e8:	8c3ed70e 	bge	r17,r16,5083c48 <__alt_data_end+0xfffb5a48>
 50840ec:	18c00404 	addi	r3,r3,16
 50840f0:	10800044 	addi	r2,r2,1
 50840f4:	45400015 	stw	r21,0(r8)
 50840f8:	44400115 	stw	r17,4(r8)
 50840fc:	d8c02015 	stw	r3,128(sp)
 5084100:	d8801f15 	stw	r2,124(sp)
 5084104:	b0bff60e 	bge	r22,r2,50840e0 <__alt_data_end+0xfffb5ee0>
 5084108:	d9801e04 	addi	r6,sp,120
 508410c:	a00b883a 	mov	r5,r20
 5084110:	9809883a 	mov	r4,r19
 5084114:	508c3d80 	call	508c3d8 <__ssprint_r>
 5084118:	103b951e 	bne	r2,zero,5082f70 <__alt_data_end+0xfffb4d70>
 508411c:	d8c02017 	ldw	r3,128(sp)
 5084120:	d8801f17 	ldw	r2,124(sp)
 5084124:	da000404 	addi	r8,sp,16
 5084128:	003fee06 	br	50840e4 <__alt_data_end+0xfffb5ee4>
 508412c:	9088703a 	and	r4,r18,r2
 5084130:	203e8d1e 	bne	r4,zero,5083b68 <__alt_data_end+0xfffb5968>
 5084134:	dc401f17 	ldw	r17,124(sp)
 5084138:	40800115 	stw	r2,4(r8)
 508413c:	44000015 	stw	r16,0(r8)
 5084140:	8c400044 	addi	r17,r17,1
 5084144:	d8c02015 	stw	r3,128(sp)
 5084148:	dc401f15 	stw	r17,124(sp)
 508414c:	008001c4 	movi	r2,7
 5084150:	147f7f16 	blt	r2,r17,5083f50 <__alt_data_end+0xfffb5d50>
 5084154:	45800204 	addi	r22,r8,8
 5084158:	003eac06 	br	5083c0c <__alt_data_end+0xfffb5a0c>
 508415c:	d9402c17 	ldw	r5,176(sp)
 5084160:	d9801e04 	addi	r6,sp,120
 5084164:	9809883a 	mov	r4,r19
 5084168:	508c3d80 	call	508c3d8 <__ssprint_r>
 508416c:	103b801e 	bne	r2,zero,5082f70 <__alt_data_end+0xfffb4d70>
 5084170:	d8c02017 	ldw	r3,128(sp)
 5084174:	dc401f17 	ldw	r17,124(sp)
 5084178:	da000404 	addi	r8,sp,16
 508417c:	003e8406 	br	5083b90 <__alt_data_end+0xfffb5990>
 5084180:	d9402c17 	ldw	r5,176(sp)
 5084184:	d9801e04 	addi	r6,sp,120
 5084188:	9809883a 	mov	r4,r19
 508418c:	508c3d80 	call	508c3d8 <__ssprint_r>
 5084190:	103b771e 	bne	r2,zero,5082f70 <__alt_data_end+0xfffb4d70>
 5084194:	d8c02017 	ldw	r3,128(sp)
 5084198:	dc401f17 	ldw	r17,124(sp)
 508419c:	dd800404 	addi	r22,sp,16
 50841a0:	003e8606 	br	5083bbc <__alt_data_end+0xfffb59bc>
 50841a4:	0029883a 	mov	r20,zero
 50841a8:	a5000c04 	addi	r20,r20,48
 50841ac:	dc001dc4 	addi	r16,sp,119
 50841b0:	dd001dc5 	stb	r20,119(sp)
 50841b4:	003f3806 	br	5083e98 <__alt_data_end+0xfffb5c98>
 50841b8:	d9402c17 	ldw	r5,176(sp)
 50841bc:	d9801e04 	addi	r6,sp,120
 50841c0:	9809883a 	mov	r4,r19
 50841c4:	508c3d80 	call	508c3d8 <__ssprint_r>
 50841c8:	103b691e 	bne	r2,zero,5082f70 <__alt_data_end+0xfffb4d70>
 50841cc:	d8c02017 	ldw	r3,128(sp)
 50841d0:	da000404 	addi	r8,sp,16
 50841d4:	003c9506 	br	508342c <__alt_data_end+0xfffb522c>
 50841d8:	d9003617 	ldw	r4,216(sp)
 50841dc:	d9403717 	ldw	r5,220(sp)
 50841e0:	da003e15 	stw	r8,248(sp)
 50841e4:	508c0f80 	call	508c0f8 <__fpclassifyd>
 50841e8:	da003e17 	ldw	r8,248(sp)
 50841ec:	1000bd1e 	bne	r2,zero,50844e4 <___svfprintf_internal_r+0x1908>
 50841f0:	008011c4 	movi	r2,71
 50841f4:	14411e0e 	bge	r2,r17,5084670 <___svfprintf_internal_r+0x1a94>
 50841f8:	04014274 	movhi	r16,1289
 50841fc:	84177604 	addi	r16,r16,24024
 5084200:	00c000c4 	movi	r3,3
 5084204:	00bfdfc4 	movi	r2,-129
 5084208:	d8c02a15 	stw	r3,168(sp)
 508420c:	90a4703a 	and	r18,r18,r2
 5084210:	df002783 	ldbu	fp,158(sp)
 5084214:	d8c02e15 	stw	r3,184(sp)
 5084218:	d8002915 	stw	zero,164(sp)
 508421c:	d8003215 	stw	zero,200(sp)
 5084220:	003c1c06 	br	5083294 <__alt_data_end+0xfffb5094>
 5084224:	9080100c 	andi	r2,r18,64
 5084228:	d8002785 	stb	zero,158(sp)
 508422c:	10009426 	beq	r2,zero,5084480 <___svfprintf_internal_r+0x18a4>
 5084230:	d8c02d17 	ldw	r3,180(sp)
 5084234:	d9002917 	ldw	r4,164(sp)
 5084238:	002d883a 	mov	r22,zero
 508423c:	18800104 	addi	r2,r3,4
 5084240:	1d00000b 	ldhu	r20,0(r3)
 5084244:	203ec10e 	bge	r4,zero,5083d4c <__alt_data_end+0xfffb5b4c>
 5084248:	a586b03a 	or	r3,r20,r22
 508424c:	d8802d15 	stw	r2,180(sp)
 5084250:	183ec21e 	bne	r3,zero,5083d5c <__alt_data_end+0xfffb5b5c>
 5084254:	0039883a 	mov	fp,zero
 5084258:	0005883a 	mov	r2,zero
 508425c:	003db806 	br	5083940 <__alt_data_end+0xfffb5740>
 5084260:	d8802d17 	ldw	r2,180(sp)
 5084264:	d8c02d17 	ldw	r3,180(sp)
 5084268:	d9002d17 	ldw	r4,180(sp)
 508426c:	10800017 	ldw	r2,0(r2)
 5084270:	18c00117 	ldw	r3,4(r3)
 5084274:	21000204 	addi	r4,r4,8
 5084278:	d8803615 	stw	r2,216(sp)
 508427c:	d8c03715 	stw	r3,220(sp)
 5084280:	d9002d15 	stw	r4,180(sp)
 5084284:	003b8206 	br	5083090 <__alt_data_end+0xfffb4e90>
 5084288:	9080100c 	andi	r2,r18,64
 508428c:	10010726 	beq	r2,zero,50846ac <___svfprintf_internal_r+0x1ad0>
 5084290:	d8c02d17 	ldw	r3,180(sp)
 5084294:	1d00000f 	ldh	r20,0(r3)
 5084298:	18c00104 	addi	r3,r3,4
 508429c:	d8c02d15 	stw	r3,180(sp)
 50842a0:	a02dd7fa 	srai	r22,r20,31
 50842a4:	b005883a 	mov	r2,r22
 50842a8:	003ba206 	br	5083134 <__alt_data_end+0xfffb4f34>
 50842ac:	9080100c 	andi	r2,r18,64
 50842b0:	10010526 	beq	r2,zero,50846c8 <___svfprintf_internal_r+0x1aec>
 50842b4:	d9002d17 	ldw	r4,180(sp)
 50842b8:	002d883a 	mov	r22,zero
 50842bc:	2500000b 	ldhu	r20,0(r4)
 50842c0:	21000104 	addi	r4,r4,4
 50842c4:	d9002d15 	stw	r4,180(sp)
 50842c8:	003cfe06 	br	50836c4 <__alt_data_end+0xfffb54c4>
 50842cc:	bc400007 	ldb	r17,0(r23)
 50842d0:	003a9606 	br	5082d2c <__alt_data_end+0xfffb4b2c>
 50842d4:	9080040c 	andi	r2,r18,16
 50842d8:	10010126 	beq	r2,zero,50846e0 <___svfprintf_internal_r+0x1b04>
 50842dc:	d9402d17 	ldw	r5,180(sp)
 50842e0:	d8c02f17 	ldw	r3,188(sp)
 50842e4:	28800017 	ldw	r2,0(r5)
 50842e8:	29400104 	addi	r5,r5,4
 50842ec:	d9402d15 	stw	r5,180(sp)
 50842f0:	10c00015 	stw	r3,0(r2)
 50842f4:	003a6406 	br	5082c88 <__alt_data_end+0xfffb4a88>
 50842f8:	d9002917 	ldw	r4,164(sp)
 50842fc:	d8002785 	stb	zero,158(sp)
 5084300:	203d8d16 	blt	r4,zero,5083938 <__alt_data_end+0xfffb5738>
 5084304:	00bfdfc4 	movi	r2,-129
 5084308:	90a4703a 	and	r18,r18,r2
 508430c:	003b0506 	br	5082f24 <__alt_data_end+0xfffb4d24>
 5084310:	01414274 	movhi	r5,1289
 5084314:	29578384 	addi	r5,r5,24078
 5084318:	d9402b15 	stw	r5,172(sp)
 508431c:	d9402b17 	ldw	r5,172(sp)
 5084320:	1c47883a 	add	r3,r3,r17
 5084324:	10800044 	addi	r2,r2,1
 5084328:	41400015 	stw	r5,0(r8)
 508432c:	44400115 	stw	r17,4(r8)
 5084330:	d8c02015 	stw	r3,128(sp)
 5084334:	d8801f15 	stw	r2,124(sp)
 5084338:	010001c4 	movi	r4,7
 508433c:	20bf3016 	blt	r4,r2,5084000 <__alt_data_end+0xfffb5e00>
 5084340:	42000204 	addi	r8,r8,8
 5084344:	003f3506 	br	508401c <__alt_data_end+0xfffb5e1c>
 5084348:	01014274 	movhi	r4,1289
 508434c:	21178384 	addi	r4,r4,24078
 5084350:	d9002b15 	stw	r4,172(sp)
 5084354:	003c5e06 	br	50834d0 <__alt_data_end+0xfffb52d0>
 5084358:	d9402c17 	ldw	r5,176(sp)
 508435c:	d9801e04 	addi	r6,sp,120
 5084360:	9809883a 	mov	r4,r19
 5084364:	508c3d80 	call	508c3d8 <__ssprint_r>
 5084368:	103b011e 	bne	r2,zero,5082f70 <__alt_data_end+0xfffb4d70>
 508436c:	d8c02017 	ldw	r3,128(sp)
 5084370:	da000404 	addi	r8,sp,16
 5084374:	003d9306 	br	50839c4 <__alt_data_end+0xfffb57c4>
 5084378:	d8801f17 	ldw	r2,124(sp)
 508437c:	01414274 	movhi	r5,1289
 5084380:	01000044 	movi	r4,1
 5084384:	18c00044 	addi	r3,r3,1
 5084388:	10800044 	addi	r2,r2,1
 508438c:	29578304 	addi	r5,r5,24076
 5084390:	41000115 	stw	r4,4(r8)
 5084394:	41400015 	stw	r5,0(r8)
 5084398:	d8c02015 	stw	r3,128(sp)
 508439c:	d8801f15 	stw	r2,124(sp)
 50843a0:	010001c4 	movi	r4,7
 50843a4:	2080b516 	blt	r4,r2,508467c <___svfprintf_internal_r+0x1aa0>
 50843a8:	42000204 	addi	r8,r8,8
 50843ac:	8800041e 	bne	r17,zero,50843c0 <___svfprintf_internal_r+0x17e4>
 50843b0:	d8803317 	ldw	r2,204(sp)
 50843b4:	1000021e 	bne	r2,zero,50843c0 <___svfprintf_internal_r+0x17e4>
 50843b8:	9080004c 	andi	r2,r18,1
 50843bc:	103c5b26 	beq	r2,zero,508352c <__alt_data_end+0xfffb532c>
 50843c0:	d9003817 	ldw	r4,224(sp)
 50843c4:	d8801f17 	ldw	r2,124(sp)
 50843c8:	d9403417 	ldw	r5,208(sp)
 50843cc:	20c7883a 	add	r3,r4,r3
 50843d0:	10800044 	addi	r2,r2,1
 50843d4:	41000115 	stw	r4,4(r8)
 50843d8:	41400015 	stw	r5,0(r8)
 50843dc:	d8c02015 	stw	r3,128(sp)
 50843e0:	d8801f15 	stw	r2,124(sp)
 50843e4:	010001c4 	movi	r4,7
 50843e8:	20818016 	blt	r4,r2,50849ec <___svfprintf_internal_r+0x1e10>
 50843ec:	42000204 	addi	r8,r8,8
 50843f0:	0463c83a 	sub	r17,zero,r17
 50843f4:	0440cb0e 	bge	zero,r17,5084724 <___svfprintf_internal_r+0x1b48>
 50843f8:	05800404 	movi	r22,16
 50843fc:	b440e80e 	bge	r22,r17,50847a0 <___svfprintf_internal_r+0x1bc4>
 5084400:	01414274 	movhi	r5,1289
 5084404:	29578384 	addi	r5,r5,24078
 5084408:	d9402b15 	stw	r5,172(sp)
 508440c:	070001c4 	movi	fp,7
 5084410:	dd002c17 	ldw	r20,176(sp)
 5084414:	00000306 	br	5084424 <___svfprintf_internal_r+0x1848>
 5084418:	42000204 	addi	r8,r8,8
 508441c:	8c7ffc04 	addi	r17,r17,-16
 5084420:	b440e20e 	bge	r22,r17,50847ac <___svfprintf_internal_r+0x1bd0>
 5084424:	18c00404 	addi	r3,r3,16
 5084428:	10800044 	addi	r2,r2,1
 508442c:	45400015 	stw	r21,0(r8)
 5084430:	45800115 	stw	r22,4(r8)
 5084434:	d8c02015 	stw	r3,128(sp)
 5084438:	d8801f15 	stw	r2,124(sp)
 508443c:	e0bff60e 	bge	fp,r2,5084418 <__alt_data_end+0xfffb6218>
 5084440:	d9801e04 	addi	r6,sp,120
 5084444:	a00b883a 	mov	r5,r20
 5084448:	9809883a 	mov	r4,r19
 508444c:	508c3d80 	call	508c3d8 <__ssprint_r>
 5084450:	103ac71e 	bne	r2,zero,5082f70 <__alt_data_end+0xfffb4d70>
 5084454:	d8c02017 	ldw	r3,128(sp)
 5084458:	d8801f17 	ldw	r2,124(sp)
 508445c:	da000404 	addi	r8,sp,16
 5084460:	003fee06 	br	508441c <__alt_data_end+0xfffb621c>
 5084464:	d8c02d17 	ldw	r3,180(sp)
 5084468:	d9002917 	ldw	r4,164(sp)
 508446c:	002d883a 	mov	r22,zero
 5084470:	18800104 	addi	r2,r3,4
 5084474:	1d000017 	ldw	r20,0(r3)
 5084478:	203e7d0e 	bge	r4,zero,5083e70 <__alt_data_end+0xfffb5c70>
 508447c:	003eda06 	br	5083fe8 <__alt_data_end+0xfffb5de8>
 5084480:	d9402d17 	ldw	r5,180(sp)
 5084484:	d8c02917 	ldw	r3,164(sp)
 5084488:	002d883a 	mov	r22,zero
 508448c:	28800104 	addi	r2,r5,4
 5084490:	2d000017 	ldw	r20,0(r5)
 5084494:	183e2d0e 	bge	r3,zero,5083d4c <__alt_data_end+0xfffb5b4c>
 5084498:	003f6b06 	br	5084248 <__alt_data_end+0xfffb6048>
 508449c:	d8c02d15 	stw	r3,180(sp)
 50844a0:	0039883a 	mov	fp,zero
 50844a4:	003ed206 	br	5083ff0 <__alt_data_end+0xfffb5df0>
 50844a8:	bc400043 	ldbu	r17,1(r23)
 50844ac:	94800814 	ori	r18,r18,32
 50844b0:	bdc00044 	addi	r23,r23,1
 50844b4:	8c403fcc 	andi	r17,r17,255
 50844b8:	8c40201c 	xori	r17,r17,128
 50844bc:	8c7fe004 	addi	r17,r17,-128
 50844c0:	003a1a06 	br	5082d2c <__alt_data_end+0xfffb4b2c>
 50844c4:	d9402c17 	ldw	r5,176(sp)
 50844c8:	d9801e04 	addi	r6,sp,120
 50844cc:	9809883a 	mov	r4,r19
 50844d0:	508c3d80 	call	508c3d8 <__ssprint_r>
 50844d4:	103aa61e 	bne	r2,zero,5082f70 <__alt_data_end+0xfffb4d70>
 50844d8:	d8c02017 	ldw	r3,128(sp)
 50844dc:	da000404 	addi	r8,sp,16
 50844e0:	003d4a06 	br	5083a0c <__alt_data_end+0xfffb580c>
 50844e4:	d9002917 	ldw	r4,164(sp)
 50844e8:	05bff7c4 	movi	r22,-33
 50844ec:	00bfffc4 	movi	r2,-1
 50844f0:	8dac703a 	and	r22,r17,r22
 50844f4:	20806a26 	beq	r4,r2,50846a0 <___svfprintf_internal_r+0x1ac4>
 50844f8:	008011c4 	movi	r2,71
 50844fc:	b0813726 	beq	r22,r2,50849dc <___svfprintf_internal_r+0x1e00>
 5084500:	d9003717 	ldw	r4,220(sp)
 5084504:	90c04014 	ori	r3,r18,256
 5084508:	d8c02b15 	stw	r3,172(sp)
 508450c:	20015d16 	blt	r4,zero,5084a84 <___svfprintf_internal_r+0x1ea8>
 5084510:	dd003717 	ldw	r20,220(sp)
 5084514:	d8002a05 	stb	zero,168(sp)
 5084518:	00801984 	movi	r2,102
 508451c:	88814026 	beq	r17,r2,5084a20 <___svfprintf_internal_r+0x1e44>
 5084520:	00801184 	movi	r2,70
 5084524:	88817126 	beq	r17,r2,5084aec <___svfprintf_internal_r+0x1f10>
 5084528:	00801144 	movi	r2,69
 508452c:	b0816226 	beq	r22,r2,5084ab8 <___svfprintf_internal_r+0x1edc>
 5084530:	d8c02917 	ldw	r3,164(sp)
 5084534:	d8802104 	addi	r2,sp,132
 5084538:	d8800315 	stw	r2,12(sp)
 508453c:	d9403617 	ldw	r5,216(sp)
 5084540:	d8802504 	addi	r2,sp,148
 5084544:	d8800215 	stw	r2,8(sp)
 5084548:	d8802604 	addi	r2,sp,152
 508454c:	d8c00015 	stw	r3,0(sp)
 5084550:	d8800115 	stw	r2,4(sp)
 5084554:	01c00084 	movi	r7,2
 5084558:	a00d883a 	mov	r6,r20
 508455c:	9809883a 	mov	r4,r19
 5084560:	d8c03d15 	stw	r3,244(sp)
 5084564:	da003e15 	stw	r8,248(sp)
 5084568:	50874fc0 	call	50874fc <_dtoa_r>
 508456c:	1021883a 	mov	r16,r2
 5084570:	008019c4 	movi	r2,103
 5084574:	d8c03d17 	ldw	r3,244(sp)
 5084578:	da003e17 	ldw	r8,248(sp)
 508457c:	8880e726 	beq	r17,r2,508491c <___svfprintf_internal_r+0x1d40>
 5084580:	008011c4 	movi	r2,71
 5084584:	8880d426 	beq	r17,r2,50848d8 <___svfprintf_internal_r+0x1cfc>
 5084588:	80f9883a 	add	fp,r16,r3
 508458c:	d9003617 	ldw	r4,216(sp)
 5084590:	000d883a 	mov	r6,zero
 5084594:	000f883a 	mov	r7,zero
 5084598:	a00b883a 	mov	r5,r20
 508459c:	da003e15 	stw	r8,248(sp)
 50845a0:	50913a40 	call	50913a4 <__eqdf2>
 50845a4:	da003e17 	ldw	r8,248(sp)
 50845a8:	1000e426 	beq	r2,zero,508493c <___svfprintf_internal_r+0x1d60>
 50845ac:	d8802117 	ldw	r2,132(sp)
 50845b0:	1700062e 	bgeu	r2,fp,50845cc <___svfprintf_internal_r+0x19f0>
 50845b4:	01000c04 	movi	r4,48
 50845b8:	10c00044 	addi	r3,r2,1
 50845bc:	d8c02115 	stw	r3,132(sp)
 50845c0:	11000005 	stb	r4,0(r2)
 50845c4:	d8802117 	ldw	r2,132(sp)
 50845c8:	173ffb36 	bltu	r2,fp,50845b8 <__alt_data_end+0xfffb63b8>
 50845cc:	1405c83a 	sub	r2,r2,r16
 50845d0:	d8803315 	stw	r2,204(sp)
 50845d4:	008011c4 	movi	r2,71
 50845d8:	b080c526 	beq	r22,r2,50848f0 <___svfprintf_internal_r+0x1d14>
 50845dc:	00801944 	movi	r2,101
 50845e0:	1441d90e 	bge	r2,r17,5084d48 <___svfprintf_internal_r+0x216c>
 50845e4:	d8c02617 	ldw	r3,152(sp)
 50845e8:	00801984 	movi	r2,102
 50845ec:	d8c03215 	stw	r3,200(sp)
 50845f0:	88813426 	beq	r17,r2,5084ac4 <___svfprintf_internal_r+0x1ee8>
 50845f4:	d8c03217 	ldw	r3,200(sp)
 50845f8:	d9003317 	ldw	r4,204(sp)
 50845fc:	19012516 	blt	r3,r4,5084a94 <___svfprintf_internal_r+0x1eb8>
 5084600:	9480004c 	andi	r18,r18,1
 5084604:	9001841e 	bne	r18,zero,5084c18 <___svfprintf_internal_r+0x203c>
 5084608:	1805883a 	mov	r2,r3
 508460c:	1801cc16 	blt	r3,zero,5084d40 <___svfprintf_internal_r+0x2164>
 5084610:	d8c03217 	ldw	r3,200(sp)
 5084614:	044019c4 	movi	r17,103
 5084618:	d8c02e15 	stw	r3,184(sp)
 508461c:	df002a07 	ldb	fp,168(sp)
 5084620:	e000a61e 	bne	fp,zero,50848bc <___svfprintf_internal_r+0x1ce0>
 5084624:	df002783 	ldbu	fp,158(sp)
 5084628:	d8802a15 	stw	r2,168(sp)
 508462c:	dc802b17 	ldw	r18,172(sp)
 5084630:	d8002915 	stw	zero,164(sp)
 5084634:	003b1706 	br	5083294 <__alt_data_end+0xfffb5094>
 5084638:	04014274 	movhi	r16,1289
 508463c:	84177304 	addi	r16,r16,24012
 5084640:	003aa606 	br	50830dc <__alt_data_end+0xfffb4edc>
 5084644:	d9003917 	ldw	r4,228(sp)
 5084648:	04001004 	movi	r16,64
 508464c:	800b883a 	mov	r5,r16
 5084650:	5089edc0 	call	5089edc <_malloc_r>
 5084654:	d9002c17 	ldw	r4,176(sp)
 5084658:	20800015 	stw	r2,0(r4)
 508465c:	20800415 	stw	r2,16(r4)
 5084660:	1001cb26 	beq	r2,zero,5084d90 <___svfprintf_internal_r+0x21b4>
 5084664:	d8802c17 	ldw	r2,176(sp)
 5084668:	14000515 	stw	r16,20(r2)
 508466c:	00397606 	br	5082c48 <__alt_data_end+0xfffb4a48>
 5084670:	04014274 	movhi	r16,1289
 5084674:	84177504 	addi	r16,r16,24020
 5084678:	003ee106 	br	5084200 <__alt_data_end+0xfffb6000>
 508467c:	d9402c17 	ldw	r5,176(sp)
 5084680:	d9801e04 	addi	r6,sp,120
 5084684:	9809883a 	mov	r4,r19
 5084688:	508c3d80 	call	508c3d8 <__ssprint_r>
 508468c:	103a381e 	bne	r2,zero,5082f70 <__alt_data_end+0xfffb4d70>
 5084690:	dc402617 	ldw	r17,152(sp)
 5084694:	d8c02017 	ldw	r3,128(sp)
 5084698:	da000404 	addi	r8,sp,16
 508469c:	003f4306 	br	50843ac <__alt_data_end+0xfffb61ac>
 50846a0:	01400184 	movi	r5,6
 50846a4:	d9402915 	stw	r5,164(sp)
 50846a8:	003f9506 	br	5084500 <__alt_data_end+0xfffb6300>
 50846ac:	d9002d17 	ldw	r4,180(sp)
 50846b0:	25000017 	ldw	r20,0(r4)
 50846b4:	21000104 	addi	r4,r4,4
 50846b8:	d9002d15 	stw	r4,180(sp)
 50846bc:	a02dd7fa 	srai	r22,r20,31
 50846c0:	b005883a 	mov	r2,r22
 50846c4:	003a9b06 	br	5083134 <__alt_data_end+0xfffb4f34>
 50846c8:	d9402d17 	ldw	r5,180(sp)
 50846cc:	002d883a 	mov	r22,zero
 50846d0:	2d000017 	ldw	r20,0(r5)
 50846d4:	29400104 	addi	r5,r5,4
 50846d8:	d9402d15 	stw	r5,180(sp)
 50846dc:	003bf906 	br	50836c4 <__alt_data_end+0xfffb54c4>
 50846e0:	9480100c 	andi	r18,r18,64
 50846e4:	90006e26 	beq	r18,zero,50848a0 <___svfprintf_internal_r+0x1cc4>
 50846e8:	d9002d17 	ldw	r4,180(sp)
 50846ec:	d9402f17 	ldw	r5,188(sp)
 50846f0:	20800017 	ldw	r2,0(r4)
 50846f4:	21000104 	addi	r4,r4,4
 50846f8:	d9002d15 	stw	r4,180(sp)
 50846fc:	1140000d 	sth	r5,0(r2)
 5084700:	00396106 	br	5082c88 <__alt_data_end+0xfffb4a88>
 5084704:	d9402c17 	ldw	r5,176(sp)
 5084708:	d9801e04 	addi	r6,sp,120
 508470c:	9809883a 	mov	r4,r19
 5084710:	508c3d80 	call	508c3d8 <__ssprint_r>
 5084714:	103a161e 	bne	r2,zero,5082f70 <__alt_data_end+0xfffb4d70>
 5084718:	d8c02017 	ldw	r3,128(sp)
 508471c:	d8801f17 	ldw	r2,124(sp)
 5084720:	da000404 	addi	r8,sp,16
 5084724:	d9403317 	ldw	r5,204(sp)
 5084728:	10800044 	addi	r2,r2,1
 508472c:	44000015 	stw	r16,0(r8)
 5084730:	28c7883a 	add	r3,r5,r3
 5084734:	003b7706 	br	5083514 <__alt_data_end+0xfffb5314>
 5084738:	8009883a 	mov	r4,r16
 508473c:	da003e15 	stw	r8,248(sp)
 5084740:	5082b440 	call	5082b44 <strlen>
 5084744:	d8802e15 	stw	r2,184(sp)
 5084748:	da003e17 	ldw	r8,248(sp)
 508474c:	103c280e 	bge	r2,zero,50837f0 <__alt_data_end+0xfffb55f0>
 5084750:	0005883a 	mov	r2,zero
 5084754:	003c2606 	br	50837f0 <__alt_data_end+0xfffb55f0>
 5084758:	00bfffc4 	movi	r2,-1
 508475c:	003a0906 	br	5082f84 <__alt_data_end+0xfffb4d84>
 5084760:	01014274 	movhi	r4,1289
 5084764:	21178784 	addi	r4,r4,24094
 5084768:	d9003515 	stw	r4,212(sp)
 508476c:	003b0606 	br	5083388 <__alt_data_end+0xfffb5188>
 5084770:	013fffc4 	movi	r4,-1
 5084774:	003a2706 	br	5083014 <__alt_data_end+0xfffb4e14>
 5084778:	d9402c17 	ldw	r5,176(sp)
 508477c:	d9801e04 	addi	r6,sp,120
 5084780:	9809883a 	mov	r4,r19
 5084784:	508c3d80 	call	508c3d8 <__ssprint_r>
 5084788:	1039f91e 	bne	r2,zero,5082f70 <__alt_data_end+0xfffb4d70>
 508478c:	d8c02017 	ldw	r3,128(sp)
 5084790:	da000404 	addi	r8,sp,16
 5084794:	003d8406 	br	5083da8 <__alt_data_end+0xfffb5ba8>
 5084798:	0023883a 	mov	r17,zero
 508479c:	003d8306 	br	5083dac <__alt_data_end+0xfffb5bac>
 50847a0:	01014274 	movhi	r4,1289
 50847a4:	21178384 	addi	r4,r4,24078
 50847a8:	d9002b15 	stw	r4,172(sp)
 50847ac:	d9002b17 	ldw	r4,172(sp)
 50847b0:	1c47883a 	add	r3,r3,r17
 50847b4:	10800044 	addi	r2,r2,1
 50847b8:	41000015 	stw	r4,0(r8)
 50847bc:	44400115 	stw	r17,4(r8)
 50847c0:	d8c02015 	stw	r3,128(sp)
 50847c4:	d8801f15 	stw	r2,124(sp)
 50847c8:	010001c4 	movi	r4,7
 50847cc:	20bfcd16 	blt	r4,r2,5084704 <__alt_data_end+0xfffb6504>
 50847d0:	42000204 	addi	r8,r8,8
 50847d4:	003fd306 	br	5084724 <__alt_data_end+0xfffb6524>
 50847d8:	d9402c17 	ldw	r5,176(sp)
 50847dc:	d9801e04 	addi	r6,sp,120
 50847e0:	9809883a 	mov	r4,r19
 50847e4:	508c3d80 	call	508c3d8 <__ssprint_r>
 50847e8:	1039e11e 	bne	r2,zero,5082f70 <__alt_data_end+0xfffb4d70>
 50847ec:	d8802617 	ldw	r2,152(sp)
 50847f0:	d8c02017 	ldw	r3,128(sp)
 50847f4:	da000404 	addi	r8,sp,16
 50847f8:	003e1c06 	br	508406c <__alt_data_end+0xfffb5e6c>
 50847fc:	d8802917 	ldw	r2,164(sp)
 5084800:	00c00184 	movi	r3,6
 5084804:	1880012e 	bgeu	r3,r2,508480c <___svfprintf_internal_r+0x1c30>
 5084808:	1805883a 	mov	r2,r3
 508480c:	d8802e15 	stw	r2,184(sp)
 5084810:	1000f316 	blt	r2,zero,5084be0 <___svfprintf_internal_r+0x2004>
 5084814:	04014274 	movhi	r16,1289
 5084818:	d8802a15 	stw	r2,168(sp)
 508481c:	dd002d15 	stw	r20,180(sp)
 5084820:	d8002915 	stw	zero,164(sp)
 5084824:	d8003215 	stw	zero,200(sp)
 5084828:	84178104 	addi	r16,r16,24068
 508482c:	0039883a 	mov	fp,zero
 5084830:	003a9f06 	br	50832b0 <__alt_data_end+0xfffb50b0>
 5084834:	01014274 	movhi	r4,1289
 5084838:	21178784 	addi	r4,r4,24094
 508483c:	d9003515 	stw	r4,212(sp)
 5084840:	003b5f06 	br	50835c0 <__alt_data_end+0xfffb53c0>
 5084844:	d9402c17 	ldw	r5,176(sp)
 5084848:	d9801e04 	addi	r6,sp,120
 508484c:	9809883a 	mov	r4,r19
 5084850:	508c3d80 	call	508c3d8 <__ssprint_r>
 5084854:	1039c61e 	bne	r2,zero,5082f70 <__alt_data_end+0xfffb4d70>
 5084858:	d8802617 	ldw	r2,152(sp)
 508485c:	d9403317 	ldw	r5,204(sp)
 5084860:	d8c02017 	ldw	r3,128(sp)
 5084864:	da000404 	addi	r8,sp,16
 5084868:	2885c83a 	sub	r2,r5,r2
 508486c:	003e1006 	br	50840b0 <__alt_data_end+0xfffb5eb0>
 5084870:	00800044 	movi	r2,1
 5084874:	10803fcc 	andi	r2,r2,255
 5084878:	00c00044 	movi	r3,1
 508487c:	10fa3526 	beq	r2,r3,5083154 <__alt_data_end+0xfffb4f54>
 5084880:	00c00084 	movi	r3,2
 5084884:	10fb9e26 	beq	r2,r3,5083700 <__alt_data_end+0xfffb5500>
 5084888:	003a6406 	br	508321c <__alt_data_end+0xfffb501c>
 508488c:	0021883a 	mov	r16,zero
 5084890:	003e0806 	br	50840b4 <__alt_data_end+0xfffb5eb4>
 5084894:	07000b44 	movi	fp,45
 5084898:	df002785 	stb	fp,158(sp)
 508489c:	003a0b06 	br	50830cc <__alt_data_end+0xfffb4ecc>
 50848a0:	d8c02d17 	ldw	r3,180(sp)
 50848a4:	d9002f17 	ldw	r4,188(sp)
 50848a8:	18800017 	ldw	r2,0(r3)
 50848ac:	18c00104 	addi	r3,r3,4
 50848b0:	d8c02d15 	stw	r3,180(sp)
 50848b4:	11000015 	stw	r4,0(r2)
 50848b8:	0038f306 	br	5082c88 <__alt_data_end+0xfffb4a88>
 50848bc:	00c00b44 	movi	r3,45
 50848c0:	d8c02785 	stb	r3,158(sp)
 50848c4:	d8802a15 	stw	r2,168(sp)
 50848c8:	dc802b17 	ldw	r18,172(sp)
 50848cc:	d8002915 	stw	zero,164(sp)
 50848d0:	07000b44 	movi	fp,45
 50848d4:	003a7306 	br	50832a4 <__alt_data_end+0xfffb50a4>
 50848d8:	9080004c 	andi	r2,r18,1
 50848dc:	1000941e 	bne	r2,zero,5084b30 <___svfprintf_internal_r+0x1f54>
 50848e0:	d8802117 	ldw	r2,132(sp)
 50848e4:	1405c83a 	sub	r2,r2,r16
 50848e8:	d8803315 	stw	r2,204(sp)
 50848ec:	b441161e 	bne	r22,r17,5084d48 <___svfprintf_internal_r+0x216c>
 50848f0:	dd802617 	ldw	r22,152(sp)
 50848f4:	00bfff44 	movi	r2,-3
 50848f8:	b0801a16 	blt	r22,r2,5084964 <___svfprintf_internal_r+0x1d88>
 50848fc:	d9402917 	ldw	r5,164(sp)
 5084900:	2d801816 	blt	r5,r22,5084964 <___svfprintf_internal_r+0x1d88>
 5084904:	dd803215 	stw	r22,200(sp)
 5084908:	003f3a06 	br	50845f4 <__alt_data_end+0xfffb63f4>
 508490c:	1025883a 	mov	r18,r2
 5084910:	0039883a 	mov	fp,zero
 5084914:	00800084 	movi	r2,2
 5084918:	003fd606 	br	5084874 <__alt_data_end+0xfffb6674>
 508491c:	9080004c 	andi	r2,r18,1
 5084920:	103f191e 	bne	r2,zero,5084588 <__alt_data_end+0xfffb6388>
 5084924:	d8802117 	ldw	r2,132(sp)
 5084928:	003f2806 	br	50845cc <__alt_data_end+0xfffb63cc>
 508492c:	01014274 	movhi	r4,1289
