
DE10_Standard_Audio.elf:     file format elf32-littlenios2
DE10_Standard_Audio.elf
architecture: nios2:r1, flags 0x00000112:
EXEC_P, HAS_SYMS, D_PAGED
start address 0x05080244

Program Header:
    LOAD off    0x00001000 vaddr 0x05080000 paddr 0x05080000 align 2**12
         filesz 0x00000020 memsz 0x00000020 flags r-x
    LOAD off    0x00001020 vaddr 0x05080020 paddr 0x05080020 align 2**12
         filesz 0x000160e0 memsz 0x000160e0 flags r-x
    LOAD off    0x00017100 vaddr 0x05096100 paddr 0x05097bfc align 2**12
         filesz 0x00001afc memsz 0x00001afc flags rw-
    LOAD off    0x000196f8 vaddr 0x050996f8 paddr 0x050996f8 align 2**12
         filesz 0x00000000 memsz 0x00000194 flags rw-

Sections:
Idx Name          Size      VMA       LMA       File off  Algn
  0 .entry        00000020  05080000  05080000  00001000  2**5
                  CONTENTS, ALLOC, LOAD, READONLY, CODE
  1 .exceptions   00000224  05080020  05080020  00001020  2**2
                  CONTENTS, ALLOC, LOAD, READONLY, CODE
  2 .text         000150ec  05080244  05080244  00001244  2**2
                  CONTENTS, ALLOC, LOAD, READONLY, CODE
  3 .rodata       00000dd0  05095330  05095330  00016330  2**2
                  CONTENTS, ALLOC, LOAD, READONLY, DATA
  4 .rwdata       00001afc  05096100  05097bfc  00017100  2**2
                  CONTENTS, ALLOC, LOAD, DATA, SMALL_DATA
  5 .bss          00000194  050996f8  050996f8  000196f8  2**2
                  ALLOC, SMALL_DATA
  6 .sdram        00000000  00000000  00000000  00018bfc  2**0
                  CONTENTS
  7 .onchip_memory2 00000000  0509988c  0509988c  00018bfc  2**0
                  CONTENTS
  8 .comment      00000023  00000000  00000000  00018bfc  2**0
                  CONTENTS, READONLY
  9 .debug_aranges 00001050  00000000  00000000  00018c20  2**3
                  CONTENTS, READONLY, DEBUGGING
 10 .debug_info   0002887f  00000000  00000000  00019c70  2**0
                  CONTENTS, READONLY, DEBUGGING
 11 .debug_abbrev 0000a382  00000000  00000000  000424ef  2**0
                  CONTENTS, READONLY, DEBUGGING
 12 .debug_line   0000da12  00000000  00000000  0004c871  2**0
                  CONTENTS, READONLY, DEBUGGING
 13 .debug_frame  00002b10  00000000  00000000  0005a284  2**2
                  CONTENTS, READONLY, DEBUGGING
 14 .debug_str    0000400d  00000000  00000000  0005cd94  2**0
                  CONTENTS, READONLY, DEBUGGING
 15 .debug_loc    0001c7f9  00000000  00000000  00060da1  2**0
                  CONTENTS, READONLY, DEBUGGING
 16 .debug_alt_sim_info 00000060  00000000  00000000  0007d59c  2**2
                  CONTENTS, READONLY, DEBUGGING
 17 .debug_ranges 00001aa0  00000000  00000000  0007d600  2**3
                  CONTENTS, READONLY, DEBUGGING
 18 .thread_model 00000003  00000000  00000000  00082bd6  2**0
                  CONTENTS, READONLY
 19 .cpu          0000000c  00000000  00000000  00082bd9  2**0
                  CONTENTS, READONLY
 20 .qsys         00000001  00000000  00000000  00082be5  2**0
                  CONTENTS, READONLY
 21 .simulation_enabled 00000001  00000000  00000000  00082be6  2**0
                  CONTENTS, READONLY
 22 .sysid_hash   00000004  00000000  00000000  00082be7  2**0
                  CONTENTS, READONLY
 23 .sysid_base   00000004  00000000  00000000  00082beb  2**0
                  CONTENTS, READONLY
 24 .sysid_time   00000004  00000000  00000000  00082bef  2**0
                  CONTENTS, READONLY
 25 .stderr_dev   00000009  00000000  00000000  00082bf3  2**0
                  CONTENTS, READONLY
 26 .stdin_dev    00000009  00000000  00000000  00082bfc  2**0
                  CONTENTS, READONLY
 27 .stdout_dev   00000009  00000000  00000000  00082c05  2**0
                  CONTENTS, READONLY
 28 .sopc_system_name 0000000a  00000000  00000000  00082c0e  2**0
                  CONTENTS, READONLY
 29 .quartus_project_dir 00000031  00000000  00000000  00082c18  2**0
                  CONTENTS, READONLY
 30 .jdi          00004193  00000000  00000000  00082c49  2**0
                  CONTENTS, READONLY
 31 .sopcinfo     000a5bf1  00000000  00000000  00086ddc  2**0
                  CONTENTS, READONLY
SYMBOL TABLE:
05080000 l    d  .entry	00000000 .entry
05080020 l    d  .exceptions	00000000 .exceptions
05080244 l    d  .text	00000000 .text
05095330 l    d  .rodata	00000000 .rodata
05096100 l    d  .rwdata	00000000 .rwdata
050996f8 l    d  .bss	00000000 .bss
00000000 l    d  .sdram	00000000 .sdram
0509988c l    d  .onchip_memory2	00000000 .onchip_memory2
00000000 l    d  .comment	00000000 .comment
00000000 l    d  .debug_aranges	00000000 .debug_aranges
00000000 l    d  .debug_info	00000000 .debug_info
00000000 l    d  .debug_abbrev	00000000 .debug_abbrev
00000000 l    d  .debug_line	00000000 .debug_line
00000000 l    d  .debug_frame	00000000 .debug_frame
00000000 l    d  .debug_str	00000000 .debug_str
00000000 l    d  .debug_loc	00000000 .debug_loc
00000000 l    d  .debug_alt_sim_info	00000000 .debug_alt_sim_info
00000000 l    d  .debug_ranges	00000000 .debug_ranges
00000000 l    df *ABS*	00000000 ../DE10_Standard_Audio_bsp//obj/HAL/src/crt0.o
0508028c l       .text	00000000 alt_after_alt_main
00000000 l    df *ABS*	00000000 alt_irq_handler.c
00000000 l    df *ABS*	00000000 alt_instruction_exception_entry.c
00000000 l    df *ABS*	00000000 AUDIO.c
0509973c l     O .bss	00000028 reg_file
00000000 l    df *ABS*	00000000 I2C.c
00000000 l    df *ABS*	00000000 LED.c
00000000 l    df *ABS*	00000000 SEG7.c
05096100 l     O .rwdata	00000010 szMap
00000000 l    df *ABS*	00000000 debug.c
00000000 l    df *ABS*	00000000 main.c
050996f8 l     O .bss	00000004 sum.4417
050996fc l     O .bss	00000002 cnt.4418
00000000 l    df *ABS*	00000000 lib2-divmod.c
00000000 l    df *ABS*	00000000 printf.c
00000000 l    df *ABS*	00000000 puts.c
00000000 l    df *ABS*	00000000 sprintf.c
00000000 l    df *ABS*	00000000 strlen.c
00000000 l    df *ABS*	00000000 vfprintf.c
05095e0e l     O .rodata	00000010 zeroes.4389
05095e1e l     O .rodata	00000010 blanks.4388
00000000 l    df *ABS*	00000000 vfprintf.c
05095e2e l     O .rodata	00000010 zeroes.4404
05086fc8 l     F .text	000000bc __sbprintf
05095e3e l     O .rodata	00000010 blanks.4403
00000000 l    df *ABS*	00000000 vsnprintf.c
00000000 l    df *ABS*	00000000 wsetup.c
00000000 l    df *ABS*	00000000 dtoa.c
050872fc l     F .text	00000200 quorem
00000000 l    df *ABS*	00000000 fflush.c
00000000 l    df *ABS*	00000000 findfp.c
05088e2c l     F .text	00000008 __fp_unlock
05088e40 l     F .text	0000019c __sinit.part.1
05088fdc l     F .text	00000008 __fp_lock
00000000 l    df *ABS*	00000000 mallocr.c
00000000 l    df *ABS*	00000000 fvwrite.c
00000000 l    df *ABS*	00000000 fwalk.c
00000000 l    df *ABS*	00000000 impure.c
05096110 l     O .rwdata	00000424 impure_data
00000000 l    df *ABS*	00000000 locale.c
05096554 l     O .rwdata	00000020 lc_ctype_charset
05096534 l     O .rwdata	00000020 lc_message_charset
05096574 l     O .rwdata	00000038 lconv
00000000 l    df *ABS*	00000000 makebuf.c
00000000 l    df *ABS*	00000000 mallocr.c
00000000 l    df *ABS*	00000000 memchr.c
00000000 l    df *ABS*	00000000 memcpy.c
00000000 l    df *ABS*	00000000 memmove.c
00000000 l    df *ABS*	00000000 memset.c
00000000 l    df *ABS*	00000000 mprec.c
05095e70 l     O .rodata	0000000c p05.2768
00000000 l    df *ABS*	00000000 mallocr.c
00000000 l    df *ABS*	00000000 s_fpclassify.c
00000000 l    df *ABS*	00000000 sbrkr.c
00000000 l    df *ABS*	00000000 stdio.c
00000000 l    df *ABS*	00000000 strcmp.c
00000000 l    df *ABS*	00000000 vfprintf.c
05095fa4 l     O .rodata	00000010 blanks.4332
05095f94 l     O .rodata	00000010 zeroes.4333
00000000 l    df *ABS*	00000000 vfprintf.c
0508d7e4 l     F .text	000000fc __sprint_r.part.0
05095fc4 l     O .rodata	00000010 blanks.4348
05095fb4 l     O .rodata	00000010 zeroes.4349
0508ed70 l     F .text	000000bc __sbprintf
00000000 l    df *ABS*	00000000 writer.c
00000000 l    df *ABS*	00000000 closer.c
00000000 l    df *ABS*	00000000 mallocr.c
00000000 l    df *ABS*	00000000 fclose.c
00000000 l    df *ABS*	00000000 fputwc.c
00000000 l    df *ABS*	00000000 fstatr.c
00000000 l    df *ABS*	00000000 int_errno.c
00000000 l    df *ABS*	00000000 isattyr.c
00000000 l    df *ABS*	00000000 lseekr.c
00000000 l    df *ABS*	00000000 readr.c
00000000 l    df *ABS*	00000000 wbuf.c
00000000 l    df *ABS*	00000000 wcrtomb.c
00000000 l    df *ABS*	00000000 wctomb_r.c
00000000 l    df *ABS*	00000000 libgcc2.c
00000000 l    df *ABS*	00000000 libgcc2.c
00000000 l    df *ABS*	00000000 adddf3.c
00000000 l    df *ABS*	00000000 divdf3.c
00000000 l    df *ABS*	00000000 eqdf2.c
00000000 l    df *ABS*	00000000 gedf2.c
00000000 l    df *ABS*	00000000 ledf2.c
00000000 l    df *ABS*	00000000 muldf3.c
00000000 l    df *ABS*	00000000 subdf3.c
00000000 l    df *ABS*	00000000 fixdfsi.c
00000000 l    df *ABS*	00000000 floatsidf.c
00000000 l    df *ABS*	00000000 floatunsidf.c
00000000 l    df *ABS*	00000000 libgcc2.c
00000000 l    df *ABS*	00000000 libgcc2.c
00000000 l    df *ABS*	00000000 alt_close.c
05092878 l     F .text	0000003c alt_get_errno
00000000 l    df *ABS*	00000000 alt_dev.c
05092984 l     F .text	0000002c alt_dev_null_write
00000000 l    df *ABS*	00000000 alt_errno.c
00000000 l    df *ABS*	00000000 alt_fstat.c
050929b0 l     F .text	0000003c alt_get_errno
00000000 l    df *ABS*	00000000 alt_irq_register.c
00000000 l    df *ABS*	00000000 alt_irq_vars.c
00000000 l    df *ABS*	00000000 alt_isatty.c
05092c1c l     F .text	0000003c alt_get_errno
00000000 l    df *ABS*	00000000 alt_load.c
05092cfc l     F .text	00000068 alt_load_section
00000000 l    df *ABS*	00000000 alt_lseek.c
05092de8 l     F .text	0000003c alt_get_errno
00000000 l    df *ABS*	00000000 alt_main.c
00000000 l    df *ABS*	00000000 alt_malloc_lock.c
00000000 l    df *ABS*	00000000 alt_read.c
05092fbc l     F .text	0000003c alt_get_errno
00000000 l    df *ABS*	00000000 alt_release_fd.c
00000000 l    df *ABS*	00000000 alt_sbrk.c
05097bf0 l     O .rwdata	00000004 heap_end
00000000 l    df *ABS*	00000000 alt_usleep.c
00000000 l    df *ABS*	00000000 alt_write.c
05093238 l     F .text	0000003c alt_get_errno
00000000 l    df *ABS*	00000000 alt_sys_init.c
0509336c l     F .text	00000034 alt_dev_reg
05096b5c l     O .rwdata	00001060 jtag_uart
00000000 l    df *ABS*	00000000 altera_avalon_jtag_uart_fd.c
00000000 l    df *ABS*	00000000 altera_avalon_jtag_uart_init.c
05093660 l     F .text	0000020c altera_avalon_jtag_uart_irq
0509386c l     F .text	000000a0 altera_avalon_jtag_uart_timeout
00000000 l    df *ABS*	00000000 altera_avalon_jtag_uart_ioctl.c
00000000 l    df *ABS*	00000000 altera_avalon_jtag_uart_read.c
00000000 l    df *ABS*	00000000 altera_avalon_jtag_uart_write.c
00000000 l    df *ABS*	00000000 altera_avalon_timer_sc.c
05093ea4 l     F .text	00000078 alt_avalon_timer_sc_irq
00000000 l    df *ABS*	00000000 alt_alarm_start.c
00000000 l    df *ABS*	00000000 alt_busy_sleep.c
00000000 l    df *ABS*	00000000 alt_dcache_flush_all.c
00000000 l    df *ABS*	00000000 alt_dev_llist_insert.c
05094264 l     F .text	0000003c alt_get_errno
00000000 l    df *ABS*	00000000 alt_do_ctors.c
00000000 l    df *ABS*	00000000 alt_do_dtors.c
00000000 l    df *ABS*	00000000 alt_icache_flush_all.c
00000000 l    df *ABS*	00000000 alt_iic.c
00000000 l    df *ABS*	00000000 alt_iic_isr_register.c
00000000 l    df *ABS*	00000000 alt_io_redirect.c
050946d8 l     F .text	000000c4 alt_open_fd
00000000 l    df *ABS*	00000000 alt_open.c
05094818 l     F .text	0000003c alt_get_errno
05094854 l     F .text	000000c4 alt_file_locked
00000000 l    df *ABS*	00000000 alt_tick.c
00000000 l    df *ABS*	00000000 altera_nios2_gen2_irq.c
00000000 l    df *ABS*	00000000 alt_find_dev.c
00000000 l    df *ABS*	00000000 alt_find_file.c
00000000 l    df *ABS*	00000000 alt_get_fd.c
00000000 l    df *ABS*	00000000 alt_icache_flush.c
00000000 l    df *ABS*	00000000 atexit.c
00000000 l    df *ABS*	00000000 exit.c
00000000 l    df *ABS*	00000000 memcmp.c
00000000 l    df *ABS*	00000000 __atexit.c
00000000 l    df *ABS*	00000000 __call_atexit.c
00000000 l    df *ABS*	00000000 alt_exit.c
05099738 g     O .bss	00000004 alt_instruction_exception_handler
0508207c g     F .text	00000054 display_time_elapsed
0508ba1c g     F .text	00000074 _mprec_log10
050810cc g     F .text	00000124 I2C_Read
0508bb08 g     F .text	0000008c __any_on
0508f30c g     F .text	00000054 _isatty_r
05095e7c g     O .rodata	00000028 __mprec_tinytens
05092ef8 g     F .text	0000007c alt_main
050829ac g     F .text	000000c0 _puts_r
05081e0c g     F .text	00000064 button_monitor_isr
0509978c g     O .bss	00000100 alt_irq
0508f360 g     F .text	00000060 _lseek_r
05097bfc g       *ABS*	00000000 __flash_rwdata_start
050913a4 g     F .text	00000088 .hidden __eqdf2
05081cb0 g     F .text	0000003c ui_is_mic_record
0509988c g       *ABS*	00000000 __alt_heap_start
05080290 g     F .text	00000188 AUDIO_Init
05082970 g     F .text	0000003c printf
0508f578 g     F .text	0000009c _wcrtomb_r
050804d8 g     F .text	00000078 AUDIO_AdcEnableHighPassFilter
0508c298 g     F .text	0000005c __sseek
0508917c g     F .text	00000010 __sinit
0508f420 g     F .text	00000140 __swbuf_r
05089c44 g     F .text	0000007c _setlocale_r
05088fe4 g     F .text	00000068 __sfmoreglue
05092f98 g     F .text	00000024 __malloc_unlock
0508a914 g     F .text	0000015c memmove
05089164 g     F .text	00000018 _cleanup
05080d8c g     F .text	000000f4 aduio_RegWrite
05080fa0 g     F .text	00000030 AUDIO_FifoClear
0508ab98 g     F .text	000000a8 _Balloc
05081764 g     F .text	00000030 LED_AllOff
0509142c g     F .text	000000dc .hidden __gtdf2
05094c10 g     F .text	00000024 altera_nios2_gen2_irq_init
05080f48 g     F .text	00000058 AUDIO_AdcFifoGetData
05081470 g     F .text	00000130 i2c_write
05080000 g     F .entry	0000001c __reset
050820d0 g     F .text	00000098 show_power
05080020 g       *ABS*	00000000 __flash_exceptions_start
0508f2b0 g     F .text	0000005c _fstat_r
0509971c g     O .bss	00000004 errno
0508c214 g     F .text	00000008 __seofread
0508c5a8 g     F .text	0000123c ___svfiprintf_internal_r
05099728 g     O .bss	00000004 alt_argv
0509fbbc g       *ABS*	00000000 _gp
05093208 g     F .text	00000030 usleep
050822d0 g     F .text	00000064 show_menu
050969dc g     O .rwdata	00000180 alt_fd_list
05094c34 g     F .text	00000090 alt_find_dev
0508a7cc g     F .text	00000148 memcpy
050816f8 g     F .text	0000003c LED_Display
05088e34 g     F .text	0000000c _cleanup_r
05092690 g     F .text	000000dc .hidden __floatsidf
05081e70 g     F .text	00000084 button_monitor_start
0509479c g     F .text	0000007c alt_io_redirect
05091508 g     F .text	000000f4 .hidden __ltdf2
05095330 g       *ABS*	00000000 __DTOR_END__
05082a6c g     F .text	00000014 puts
05094f00 g     F .text	0000009c alt_exception_cause_generated_bad_addr
0508c0f8 g     F .text	00000074 __fpclassifyd
0508b978 g     F .text	000000a4 __ratio
0508ed54 g     F .text	0000001c __vfiprintf_internal
05081ef4 g     F .text	00000188 init_audio
05093a64 g     F .text	0000021c altera_avalon_jtag_uart_read
05082940 g     F .text	00000030 _printf_r
05082884 g     F .text	00000064 .hidden __udivsi3
05092c58 g     F .text	000000a4 isatty
05080c74 g     F .text	0000008c AUDIO_EnableByPass
05095ecc g     O .rodata	000000c8 __mprec_tens
05089cc0 g     F .text	0000000c __locale_charset
05087174 g     F .text	00000034 vsnprintf
05094e70 g     F .text	00000090 alt_icache_flush
050811f0 g     F .text	0000017c I2C_MultipleRead
05099718 g     O .bss	00000004 __malloc_top_pad
05080a4c g     F .text	00000114 AUDIO_SetLineInVol
05097bc4 g     O .rwdata	00000004 __mb_cur_max
05089cf0 g     F .text	0000000c _localeconv_r
0508afa4 g     F .text	0000003c __i2b
05089600 g     F .text	000004bc __sfvwrite_r
05081808 g     F .text	00000060 SEG7_Clear
0508c16c g     F .text	00000054 _sbrk_r
05081c20 g     F .text	00000090 myprintf_dword_array
0508f3c0 g     F .text	00000060 _read_r
05097be4 g     O .rwdata	00000004 alt_max_fd
0508efa4 g     F .text	000000f0 _fclose_r
05088dfc g     F .text	00000030 fflush
05080600 g     F .text	000000e0 AUDIO_DacEnableZeroCross
05099714 g     O .bss	00000004 __malloc_max_sbrked_mem
05092a9c g     F .text	00000180 alt_irq_register
05090210 g     F .text	000008ac .hidden __adddf3
0508b720 g     F .text	0000010c __b2d
0508fcd8 g     F .text	00000538 .hidden __umoddi3
05092e24 g     F .text	000000d4 lseek
05097bbc g     O .rwdata	00000004 _global_impure_ptr
0508bb94 g     F .text	00000564 _realloc_r
0509988c g       *ABS*	00000000 __bss_end
050945e8 g     F .text	000000f0 alt_iic_isr_register
05094b08 g     F .text	00000108 alt_tick
0508f760 g     F .text	00000578 .hidden __udivdi3
0508f20c g     F .text	00000024 _fputwc_r
05095ea4 g     O .rodata	00000028 __mprec_bigtens
0508ad88 g     F .text	00000104 __s2b
0509276c g     F .text	000000a8 .hidden __floatunsidf
05080460 g     F .text	00000078 AUDIO_MicBoost
0508b460 g     F .text	00000060 __mcmp
0508919c g     F .text	00000018 __fp_lock_all
0509459c g     F .text	0000004c alt_ic_irq_enabled
05080fd0 g     F .text	000000fc I2C_Write
050818c8 g     F .text	00000074 SEG7_Number
05094a6c g     F .text	0000009c alt_alarm_stop
05099720 g     O .bss	00000004 alt_irq_active
050800fc g     F .exceptions	000000d4 alt_irq_handler
050969b4 g     O .rwdata	00000028 alt_dev_null
0508136c g     F .text	0000008c i2c_start
0509421c g     F .text	00000048 alt_dcache_flush_all
0508ae8c g     F .text	00000068 __hi0bits
05092610 g     F .text	00000080 .hidden __fixdfsi
05097bfc g       *ABS*	00000000 __ram_rwdata_end
05097bdc g     O .rwdata	00000008 alt_dev_list
05093274 g     F .text	000000f8 write
05096100 g       *ABS*	00000000 __ram_rodata_end
050929ec g     F .text	000000b0 fstat
05091508 g     F .text	000000f4 .hidden __ledf2
05081b2c g     F .text	0000006c myprintf
0508b1d8 g     F .text	00000140 __pow5mult
0508d8f8 g     F .text	0000145c ___vfiprintf_internal_r
0509970c g     O .bss	00000004 __nlocale_changed
050828e8 g     F .text	00000058 .hidden __umodsi3
05080d00 g     F .text	0000008c AUDIO_EnableSiteTone
0509988c g       *ABS*	00000000 end
05081734 g     F .text	00000030 LED_AllOn
050935a0 g     F .text	000000c0 altera_avalon_jtag_uart_init
050801d0 g     F .exceptions	00000074 alt_instruction_exception_entry
05095330 g       *ABS*	00000000 __CTOR_LIST__
050ce200 g       *ABS*	00000000 __alt_stack_pointer
05093f1c g     F .text	0000007c alt_avalon_timer_sc_init
05092814 g     F .text	00000064 .hidden __clzsi2
05093c80 g     F .text	00000224 altera_avalon_jtag_uart_write
0508918c g     F .text	00000004 __sfp_lock_acquire
0508a6e8 g     F .text	000000e4 memchr
05084db4 g     F .text	000021f8 ___vfprintf_internal_r
05082a80 g     F .text	00000058 _sprintf_r
050892f0 g     F .text	00000310 _free_r
05089ccc g     F .text	00000010 __locale_mb_cur_max
0509517c g     F .text	00000180 __call_exitprocs
05099708 g     O .bss	00000004 __mlocale_changed
05097bc8 g     O .rwdata	00000004 __malloc_sbrk_base
05080244 g     F .text	0000004c _start
05099730 g     O .bss	00000004 _alt_tick_rate
0508b318 g     F .text	00000148 __lshift
05099734 g     O .bss	00000004 _alt_nticks
05092ff8 g     F .text	000000fc read
050933d8 g     F .text	00000064 alt_sys_init
0508c3d8 g     F .text	000001d0 __ssprint_r
05095064 g     F .text	00000118 __register_exitproc
050806e0 g     F .text	0000008c AUDIO_DacEnableSoftMute
0508afe0 g     F .text	000001f8 __multiply
0509390c g     F .text	00000068 altera_avalon_jtag_uart_close
05096100 g       *ABS*	00000000 __ram_rwdata_start
05095330 g       *ABS*	00000000 __ram_rodata_start
05099764 g     O .bss	00000028 __malloc_current_mallinfo
0508b82c g     F .text	0000014c __d2b
05081d28 g     F .text	0000003c ui_is_dac_zero_cross
0509343c g     F .text	00000060 altera_avalon_jtag_uart_read_fd
05094dcc g     F .text	000000a4 alt_get_fd
050940c4 g     F .text	00000158 alt_busy_sleep
0508ee8c g     F .text	00000054 _close_r
05094fe8 g     F .text	0000007c memcmp
050934fc g     F .text	00000050 altera_avalon_jtag_uart_close_fd
0509988c g       *ABS*	00000000 __alt_stack_base
0509354c g     F .text	00000054 altera_avalon_jtag_uart_ioctl_fd
050871a8 g     F .text	00000154 __swsetup_r
05082168 g     F .text	00000058 init
05090abc g     F .text	000008e8 .hidden __divdf3
0508904c g     F .text	00000118 __sfp
0508ba90 g     F .text	00000078 __copybits
05080550 g     F .text	000000b0 AUDIO_DacDeemphasisControl
050965ac g     O .rwdata	00000408 __malloc_av_
05089198 g     F .text	00000004 __sinit_lock_release
05087084 g     F .text	000000f0 _vsnprintf_r
050813f8 g     F .text	00000078 i2c_stop
050915fc g     F .text	00000718 .hidden __muldf3
0508c1c0 g     F .text	00000054 __sread
05081868 g     F .text	00000060 SEG7_Full
05094cc4 g     F .text	00000108 alt_find_file
05081a0c g     F .text	000000ec SEG7_Decimal
050942a0 g     F .text	000000a4 alt_dev_llist_insert
05092f74 g     F .text	00000024 __malloc_lock
05093158 g     F .text	000000b0 sbrk
05082bdc g     F .text	000021d8 ___svfprintf_internal_r
050808d8 g     F .text	00000090 AUDIO_SetInputSource
05088da0 g     F .text	0000005c _fflush_r
0508eee0 g     F .text	000000c4 _calloc_r
05080418 g     F .text	00000048 AUDIO_InterfaceActive
050996f8 g       *ABS*	00000000 __bss_start
0508aa70 g     F .text	00000128 memset
05082334 g     F .text	00000458 main
0509972c g     O .bss	00000004 alt_envp
05099710 g     O .bss	00000004 __malloc_max_total_mem
0509349c g     F .text	00000060 altera_avalon_jtag_uart_write_fd
050815a0 g     F .text	00000158 i2c_read
0508f560 g     F .text	00000018 __swbuf
05099700 g     O .bss	00000004 record_sample_rate
0508c2f4 g     F .text	00000008 __sclose
050ce200 g       *ABS*	00000000 __alt_heap_limit
0508f094 g     F .text	00000014 fclose
050874fc g     F .text	00001688 _dtoa_r
05089edc g     F .text	0000080c _malloc_r
0508f6d4 g     F .text	00000030 __ascii_wctomb
05097be8 g     O .rwdata	00000004 alt_errno
05089abc g     F .text	000000c4 _fwalk
05081d64 g     F .text	000000a8 ui_get_sample_rate
0508278c g     F .text	00000084 .hidden __divsi3
050891cc g     F .text	00000124 _malloc_trim_r
05095330 g       *ABS*	00000000 __CTOR_END__
050807f8 g     F .text	000000e0 AUDIO_LineInMute
0508c2fc g     F .text	000000dc strcmp
0508076c g     F .text	0000008c AUDIO_MicMute
05095330 g       *ABS*	00000000 __flash_rodata_start
05095330 g       *ABS*	00000000 __DTOR_LIST__
050913a4 g     F .text	00000088 .hidden __nedf2
050933a0 g     F .text	00000038 alt_irq_init
050930f4 g     F .text	00000064 alt_release_fd
05082ad8 g     F .text	0000006c sprintf
05095fd4 g     O .rodata	00000100 .hidden __clz_tab
0508193c g     F .text	000000d0 SEG7_Hex
05081af8 g     F .text	00000034 debug_output
05099704 g     O .bss	00000004 _PathLocale
05094f9c g     F .text	00000014 atexit
050821c0 g     F .text	00000110 dump_record_data
0508ee2c g     F .text	00000060 _write_r
05089cfc g     F .text	00000018 setlocale
05097bc0 g     O .rwdata	00000004 _impure_ptr
05099724 g     O .bss	00000004 alt_argc
05088b84 g     F .text	0000021c __sflush_r
050943a4 g     F .text	00000060 _do_dtors
05089ce8 g     F .text	00000008 __locale_cjk_lang
05080f0c g     F .text	0000003c AUDIO_AdcFifoNotEmpty
05080020 g       .exceptions	00000000 alt_irq_entry
0508b6bc g     F .text	00000064 __ulp
050891b4 g     F .text	00000018 __fp_unlock_all
05081cec g     F .text	0000003c ui_is_mic_boost
05080ebc g     F .text	00000050 AUDIO_DacFifoSetData
05097bd4 g     O .rwdata	00000008 alt_fs_list
05081b98 g     F .text	00000088 myprintf_hex_array
05080020 g       *ABS*	00000000 __ram_exceptions_start
05080968 g     F .text	000000e4 AUDIO_SetSampleRate
05089d14 g     F .text	0000000c localeconv
05080000 g       *ABS*	00000000 __alt_mem_onchip_memory2
05094438 g     F .text	00000050 alt_ic_isr_register
05097bfc g       *ABS*	00000000 _edata
0509988c g       *ABS*	00000000 _end
05080b60 g     F .text	00000114 AUDIO_SetLineOutVol
0508f0a8 g     F .text	00000164 __fputwc
05080244 g       *ABS*	00000000 __ram_exceptions_end
05093974 g     F .text	000000f0 altera_avalon_jtag_uart_ioctl
05094510 g     F .text	0000008c alt_ic_irq_disable
0508c21c g     F .text	0000007c __swrite
05097bcc g     O .rwdata	00000004 __malloc_trim_threshold
05089cdc g     F .text	0000000c __locale_msgcharset
05094fb0 g     F .text	00000038 exit
05081794 g     F .text	00000074 LED_LightCount
05089b80 g     F .text	000000c4 _fwalk_reent
0508b4c0 g     F .text	000001fc __mdiff
05082810 g     F .text	00000074 .hidden __modsi3
050ce200 g       *ABS*	00000000 __alt_data_end
05080020 g     F .exceptions	00000000 alt_exception
05089190 g     F .text	00000004 __sfp_lock_release
00000000 g       *ABS*	00000000 __alt_mem_sdram
050952fc g     F .text	00000034 _exit
05093f98 g     F .text	0000012c alt_alarm_start
05089d20 g     F .text	000001bc __smakebuf_r
05082b44 g     F .text	00000098 strlen
05094918 g     F .text	00000154 open
05080e80 g     F .text	0000003c AUDIO_DacFifoNotFull
0509142c g     F .text	000000dc .hidden __gedf2
05097bd0 g     O .rwdata	00000004 __wctomb
0508d8e0 g     F .text	00000018 __sprint_r
05094404 g     F .text	00000034 alt_icache_flush_all
05097bec g     O .rwdata	00000004 alt_priority_mask
05094488 g     F .text	00000088 alt_ic_irq_enable
05086fac g     F .text	0000001c __vfprintf_internal
0508f704 g     F .text	0000005c _wctomb_r
05091d14 g     F .text	000008fc .hidden __subdf3
0508aef4 g     F .text	000000b0 __lo0bits
05097bf4 g     O .rwdata	00000008 alt_alarm_list
05094344 g     F .text	00000060 _do_ctors
0508f614 g     F .text	000000c0 wcrtomb
050928b4 g     F .text	000000d0 close
05092d64 g     F .text	00000084 alt_load
0508f230 g     F .text	00000080 fputwc
05089194 g     F .text	00000004 __sinit_lock_acquire
0508ac68 g     F .text	00000120 __multadd
050954e0 g     O .rodata	00000800 szMenu
0508ac40 g     F .text	00000028 _Bfree



Disassembly of section .entry:

05080000 <__reset>:
#if NIOS2_ICACHE_SIZE > 0 && defined(ALT_ALLOW_CODE_AT_RESET) && (!defined(ALT_SIM_OPTIMIZE) || defined(NIOS2_ECC_PRESENT))
    /* Assume the instruction cache size is always a power of two. */
#if NIOS2_ICACHE_SIZE > 0x8000
    movhi r2, %hi(NIOS2_ICACHE_SIZE)
#else
    movui r2, NIOS2_ICACHE_SIZE
 5080000:	00840014 	movui	r2,4096
#endif

0:
    initi r2
 5080004:	1001483a 	initi	r2
    addi r2, r2, -NIOS2_ICACHE_LINE_SIZE
 5080008:	10bff804 	addi	r2,r2,-32
    bgt r2, zero, 0b
 508000c:	00bffd16 	blt	zero,r2,5080004 <__alt_data_end+0xfffb1e04>
 * Jump to the _start entry point in the .text section if reset code
 * is allowed or if optimizing for RTL simulation.
 */
#if defined(ALT_ALLOW_CODE_AT_RESET) || defined(ALT_SIM_OPTIMIZE)
    /* Jump to the _start entry point in the .text section. */
    movhi r1, %hi(_start)
 5080010:	00414234 	movhi	at,1288
    ori r1, r1, %lo(_start)
 5080014:	08409114 	ori	at,at,580
    jmp r1
 5080018:	0800683a 	jmp	at
 508001c:	00000000 	call	0 <__alt_mem_sdram>

Disassembly of section .exceptions:

05080020 <alt_exception>:

#else /* ALT_EXCEPTION_STACK disabled */
        /* 
         * Reserve space on normal stack for registers about to be pushed.
         */
        addi  sp, sp, -76
 5080020:	deffed04 	addi	sp,sp,-76
         * documentation for details).
         *
         * Leave a gap in the stack frame at 4(sp) for the muldiv handler to
         * store zero into.
         */
        stw   ra,  0(sp)
 5080024:	dfc00015 	stw	ra,0(sp)
        stw   r1,   8(sp)
 5080028:	d8400215 	stw	at,8(sp)
        stw   r2,  12(sp)
 508002c:	d8800315 	stw	r2,12(sp)
        stw   r3,  16(sp)
 5080030:	d8c00415 	stw	r3,16(sp)
        stw   r4,  20(sp)
 5080034:	d9000515 	stw	r4,20(sp)
        stw   r5,  24(sp)
 5080038:	d9400615 	stw	r5,24(sp)
        stw   r6,  28(sp)
 508003c:	d9800715 	stw	r6,28(sp)
        stw   r7,  32(sp)
 5080040:	d9c00815 	stw	r7,32(sp)
        rdctl r5, estatus   /* Read early to avoid usage stall */
 5080044:	000b307a 	rdctl	r5,estatus
        stw   r8,  36(sp)
 5080048:	da000915 	stw	r8,36(sp)
        stw   r9,  40(sp)
 508004c:	da400a15 	stw	r9,40(sp)
        stw   r10, 44(sp)
 5080050:	da800b15 	stw	r10,44(sp)
        stw   r11, 48(sp)
 5080054:	dac00c15 	stw	r11,48(sp)
        stw   r12, 52(sp)
 5080058:	db000d15 	stw	r12,52(sp)
        stw   r13, 56(sp)
 508005c:	db400e15 	stw	r13,56(sp)
        stw   r14, 60(sp)
 5080060:	db800f15 	stw	r14,60(sp)
        stw   r15, 64(sp)
 5080064:	dbc01015 	stw	r15,64(sp)
        /*
         * ea-4 contains the address of the instruction being executed
         * when the exception occured. For interrupt exceptions, we will
         * will be re-issue the isntruction. Store it in 72(sp)
         */
        stw   r5,  68(sp)  /* estatus */
 5080068:	d9401115 	stw	r5,68(sp)
        addi  r15, ea, -4  /* instruction that caused exception */
 508006c:	ebffff04 	addi	r15,ea,-4
        stw   r15,  72(sp)
 5080070:	dbc01215 	stw	r15,72(sp)
#else
        /*
         * Test to see if the exception was a software exception or caused 
         * by an external interrupt, and vector accordingly.
         */
        rdctl r4, ipending
 5080074:	0009313a 	rdctl	r4,ipending
        andi  r2, r5, 1
 5080078:	2880004c 	andi	r2,r5,1
        beq   r2, zero, .Lnot_irq
 508007c:	10000326 	beq	r2,zero,508008c <alt_exception+0x6c>
        beq   r4, zero, .Lnot_irq
 5080080:	20000226 	beq	r4,zero,508008c <alt_exception+0x6c>
        /*
         * Now that all necessary registers have been preserved, call 
         * alt_irq_handler() to process the interrupts.
         */

        call alt_irq_handler
 5080084:	50800fc0 	call	50800fc <alt_irq_handler>

        .section .exceptions.irqreturn, "xa"

        br    .Lexception_exit
 5080088:	00000706 	br	50800a8 <alt_exception+0x88>
         * upon completion, so we write ea (address of instruction *after*
         * the one where the exception occured) into 72(sp). The actual
         * instruction that caused the exception is written in r2, which these
         * handlers will utilize.
         */
        stw ea, 72(sp) /* EA is PC+4 so will skip over instruction causing exception */
 508008c:	df401215 	stw	ea,72(sp)
.Lunknown_16bit:
        addi.n r4, r4, 2 /* Need PC+2 to skip over instruction causing exception */
        stw r4, 72(sp)

#else /* CDX is not Enabled and all instructions are 32bits */
        ldw r2, -4(ea) /* Instruction value that caused exception */
 5080090:	e8bfff17 	ldw	r2,-4(ea)
         * debugger is present) or go into an infinite loop since the
         * handling behavior is undefined; in that case we will not return here.
         */

        /* Load exception-causing address as first argument (r4) */
        addi   r4, ea, -4
 5080094:	e93fff04 	addi	r4,ea,-4

        /* Call the instruction-exception entry */
        call   alt_instruction_exception_entry
 5080098:	50801d00 	call	50801d0 <alt_instruction_exception_entry>
         * instruction
         *
         * Return code was 0: Skip. The instruction after the exception is
         * already stored in 72(sp).
         */
        bne   r2, r0, .Lexception_exit
 508009c:	1000021e 	bne	r2,zero,50800a8 <alt_exception+0x88>

        /*
         * Otherwise, modify 72(sp) to re-issue the instruction that caused the
         * exception.
         */
        addi  r15, ea, -4  /* instruction that caused exception */
 50800a0:	ebffff04 	addi	r15,ea,-4
        stw   r15,  72(sp)
 50800a4:	dbc01215 	stw	r15,72(sp)
        /* 
         * Restore the saved registers, so that all general purpose registers 
         * have been restored to their state at the time the interrupt occured.
         */

        ldw   r5,  68(sp)
 50800a8:	d9401117 	ldw	r5,68(sp)
        ldw   ea,  72(sp)  /* This becomes the PC once eret is executed */
 50800ac:	df401217 	ldw	ea,72(sp)
        ldw   ra,   0(sp)
 50800b0:	dfc00017 	ldw	ra,0(sp)

        wrctl estatus, r5
 50800b4:	2801707a 	wrctl	estatus,r5

        ldw   r1,   8(sp)
 50800b8:	d8400217 	ldw	at,8(sp)
        ldw   r2,  12(sp)
 50800bc:	d8800317 	ldw	r2,12(sp)
        ldw   r3,  16(sp)
 50800c0:	d8c00417 	ldw	r3,16(sp)
        ldw   r4,  20(sp)
 50800c4:	d9000517 	ldw	r4,20(sp)
        ldw   r5,  24(sp)
 50800c8:	d9400617 	ldw	r5,24(sp)
        ldw   r6,  28(sp)
 50800cc:	d9800717 	ldw	r6,28(sp)
        ldw   r7,  32(sp)
 50800d0:	d9c00817 	ldw	r7,32(sp)

#if defined(ALT_EXCEPTION_STACK) && defined(ALT_STACK_CHECK)
        ldw   et, %gprel(alt_exception_old_stack_limit)(gp)
#endif

        ldw   r8,  36(sp)
 50800d4:	da000917 	ldw	r8,36(sp)
        ldw   r9,  40(sp)
 50800d8:	da400a17 	ldw	r9,40(sp)
        ldw   r10, 44(sp)
 50800dc:	da800b17 	ldw	r10,44(sp)
        ldw   r11, 48(sp)
 50800e0:	dac00c17 	ldw	r11,48(sp)
        ldw   r12, 52(sp)
 50800e4:	db000d17 	ldw	r12,52(sp)
        ldw   r13, 56(sp)
 50800e8:	db400e17 	ldw	r13,56(sp)
        ldw   r14, 60(sp)
 50800ec:	db800f17 	ldw	r14,60(sp)
        ldw   r15, 64(sp)
 50800f0:	dbc01017 	ldw	r15,64(sp)
        stw   et, %gprel(alt_stack_limit_value)(gp)
        stw   zero, %gprel(alt_exception_old_stack_limit)(gp)
#endif /* ALT_STACK_CHECK */
        ldw   sp,  76(sp)
#else /* ALT_EXCEPTION_STACK disabled */
        addi  sp, sp, 76
 50800f4:	dec01304 	addi	sp,sp,76

        /*
         * Return to the interrupted instruction.
         */

        eret
 50800f8:	ef80083a 	eret

050800fc <alt_irq_handler>:
 * instruction is present if the macro ALT_CI_INTERRUPT_VECTOR defined.
 */

void alt_irq_handler (void) __attribute__ ((section (".exceptions")));
void alt_irq_handler (void)
{
 50800fc:	defff904 	addi	sp,sp,-28
 5080100:	dfc00615 	stw	ra,24(sp)
 5080104:	df000515 	stw	fp,20(sp)
 5080108:	df000504 	addi	fp,sp,20
  
  /*
   * Notify the operating system that we are at interrupt level.
   */ 
  
  ALT_OS_INT_ENTER();
 508010c:	0001883a 	nop
#ifndef NIOS2_EIC_PRESENT
static ALT_INLINE alt_u32 ALT_ALWAYS_INLINE alt_irq_pending (void)
{
  alt_u32 active;

  NIOS2_READ_IPENDING (active);
 5080110:	0005313a 	rdctl	r2,ipending
 5080114:	e0bffe15 	stw	r2,-8(fp)

  return active;
 5080118:	e0bffe17 	ldw	r2,-8(fp)
   * Consider the case where the high priority interupt is asserted during
   * the interrupt entry sequence for a lower priority interrupt to see why
   * this is the case.
   */

  active = alt_irq_pending ();
 508011c:	e0bffb15 	stw	r2,-20(fp)

  do
  {
    i = 0;
 5080120:	e03ffd15 	stw	zero,-12(fp)
    mask = 1;
 5080124:	00800044 	movi	r2,1
 5080128:	e0bffc15 	stw	r2,-16(fp)
     * called to clear the interrupt condition.
     */

    do
    {
      if (active & mask)
 508012c:	e0fffb17 	ldw	r3,-20(fp)
 5080130:	e0bffc17 	ldw	r2,-16(fp)
 5080134:	1884703a 	and	r2,r3,r2
 5080138:	10001426 	beq	r2,zero,508018c <alt_irq_handler+0x90>
      { 
#ifdef ALT_ENHANCED_INTERRUPT_API_PRESENT
        alt_irq[i].handler(alt_irq[i].context); 
 508013c:	008142b4 	movhi	r2,1290
 5080140:	10a5e304 	addi	r2,r2,-26740
 5080144:	e0fffd17 	ldw	r3,-12(fp)
 5080148:	180690fa 	slli	r3,r3,3
 508014c:	10c5883a 	add	r2,r2,r3
 5080150:	10c00017 	ldw	r3,0(r2)
 5080154:	008142b4 	movhi	r2,1290
 5080158:	10a5e304 	addi	r2,r2,-26740
 508015c:	e13ffd17 	ldw	r4,-12(fp)
 5080160:	200890fa 	slli	r4,r4,3
 5080164:	1105883a 	add	r2,r2,r4
 5080168:	10800104 	addi	r2,r2,4
 508016c:	10800017 	ldw	r2,0(r2)
 5080170:	1009883a 	mov	r4,r2
 5080174:	183ee83a 	callr	r3
#else
        alt_irq[i].handler(alt_irq[i].context, i); 
#endif
        break;
 5080178:	0001883a 	nop
#ifndef NIOS2_EIC_PRESENT
static ALT_INLINE alt_u32 ALT_ALWAYS_INLINE alt_irq_pending (void)
{
  alt_u32 active;

  NIOS2_READ_IPENDING (active);
 508017c:	0005313a 	rdctl	r2,ipending
 5080180:	e0bfff15 	stw	r2,-4(fp)

  return active;
 5080184:	e0bfff17 	ldw	r2,-4(fp)
 5080188:	00000706 	br	50801a8 <alt_irq_handler+0xac>
      }
      mask <<= 1;
 508018c:	e0bffc17 	ldw	r2,-16(fp)
 5080190:	1085883a 	add	r2,r2,r2
 5080194:	e0bffc15 	stw	r2,-16(fp)
      i++;
 5080198:	e0bffd17 	ldw	r2,-12(fp)
 508019c:	10800044 	addi	r2,r2,1
 50801a0:	e0bffd15 	stw	r2,-12(fp)

    } while (1);
 50801a4:	003fe106 	br	508012c <__alt_data_end+0xfffb1f2c>

    active = alt_irq_pending ();
 50801a8:	e0bffb15 	stw	r2,-20(fp)
    
  } while (active);
 50801ac:	e0bffb17 	ldw	r2,-20(fp)
 50801b0:	103fdb1e 	bne	r2,zero,5080120 <__alt_data_end+0xfffb1f20>

  /*
   * Notify the operating system that interrupt processing is complete.
   */ 

  ALT_OS_INT_EXIT();
 50801b4:	0001883a 	nop
}
 50801b8:	0001883a 	nop
 50801bc:	e037883a 	mov	sp,fp
 50801c0:	dfc00117 	ldw	ra,4(sp)
 50801c4:	df000017 	ldw	fp,0(sp)
 50801c8:	dec00204 	addi	sp,sp,8
 50801cc:	f800283a 	ret

050801d0 <alt_instruction_exception_entry>:
 * that handler if it has been registered. Absent a handler, it will
 * break break or hang as discussed below.
 */
int 
alt_instruction_exception_entry (alt_u32 exception_pc)
{
 50801d0:	defffb04 	addi	sp,sp,-20
 50801d4:	dfc00415 	stw	ra,16(sp)
 50801d8:	df000315 	stw	fp,12(sp)
 50801dc:	df000304 	addi	fp,sp,12
 50801e0:	e13fff15 	stw	r4,-4(fp)
 * NIOS2_EXCEPTION_CAUSE_NOT_PRESENT. Your handling routine should
 * check the validity of the cause argument before proceeding.
 */
#ifdef NIOS2_HAS_EXTRA_EXCEPTION_INFO
  /* Get exception cause & "badaddr" */
  NIOS2_READ_EXCEPTION(cause);
 50801e4:	000531fa 	rdctl	r2,exception
 50801e8:	e0bffd15 	stw	r2,-12(fp)
  cause = ( (cause & NIOS2_EXCEPTION_REG_CAUSE_MASK) >>
 50801ec:	e0bffd17 	ldw	r2,-12(fp)
 50801f0:	10801f0c 	andi	r2,r2,124
 50801f4:	1004d0ba 	srli	r2,r2,2
 50801f8:	e0bffd15 	stw	r2,-12(fp)
              NIOS2_EXCEPTION_REG_CAUSE_OFST );

  NIOS2_READ_BADADDR(badaddr);
 50801fc:	0005333a 	rdctl	r2,badaddr
 5080200:	e0bffe15 	stw	r2,-8(fp)
#else
  cause = NIOS2_EXCEPTION_CAUSE_NOT_PRESENT;
  badaddr = 0;
#endif /* NIOS2_HAS_EXTRA_EXCEPTION_INFO */

  if(alt_instruction_exception_handler) {
 5080204:	d0a6df17 	ldw	r2,-25732(gp)
 5080208:	10000726 	beq	r2,zero,5080228 <alt_instruction_exception_entry+0x58>
     * Call handler. Its return value indicates whether the exception-causing
     * instruction should be re-issued. The code that called us,
     * alt_eceptions_entry.S, will look at this value and adjust the ea
     * register as necessary
     */
    return alt_instruction_exception_handler(cause, exception_pc, badaddr);
 508020c:	d0a6df17 	ldw	r2,-25732(gp)
 5080210:	e0fffd17 	ldw	r3,-12(fp)
 5080214:	e1bffe17 	ldw	r6,-8(fp)
 5080218:	e17fff17 	ldw	r5,-4(fp)
 508021c:	1809883a 	mov	r4,r3
 5080220:	103ee83a 	callr	r2
 5080224:	00000206 	br	5080230 <alt_instruction_exception_entry+0x60>
   *    (a peripheral which negates its interrupt output before its
   *    interrupt handler has been executed will cause spurious interrupts)
   */
  else {
#ifdef NIOS2_HAS_DEBUG_STUB
    NIOS2_BREAK();
 5080228:	003da03a 	break	0
      ;
#endif /* NIOS2_HAS_DEBUG_STUB */
  }

  /* We should not get here. Remove compiler warning. */
  return NIOS2_EXCEPTION_RETURN_REISSUE_INST;
 508022c:	0005883a 	mov	r2,zero
}
 5080230:	e037883a 	mov	sp,fp
 5080234:	dfc00117 	ldw	ra,4(sp)
 5080238:	df000017 	ldw	fp,0(sp)
 508023c:	dec00204 	addi	sp,sp,8
 5080240:	f800283a 	ret

Disassembly of section .text:

05080244 <_start>:

    /* Assume the data cache size is always a power of two. */
#if NIOS2_DCACHE_SIZE > 0x8000
    movhi r2, %hi(NIOS2_DCACHE_SIZE)
#else
    movui r2, NIOS2_DCACHE_SIZE
 5080244:	00820014 	movui	r2,2048
#endif

0:
    initd 0(r2)
 5080248:	10000033 	initd	0(r2)
#ifdef NIOS2_ECC_PRESENT
    addi r2, r2, -4
#else
    addi r2, r2, -NIOS2_DCACHE_LINE_SIZE
 508024c:	10bff804 	addi	r2,r2,-32
#endif
    bgt r2, zero, 0b
 5080250:	00bffd16 	blt	zero,r2,5080248 <__alt_data_end+0xfffb2048>

    /*
     * Now that the caches are initialized, set up the stack pointer and global pointer.
     * The values provided by the linker are assumed to be correctly aligned.
     */
    movhi sp, %hi(__alt_stack_pointer)
 5080254:	06c14334 	movhi	sp,1292
    ori sp, sp, %lo(__alt_stack_pointer)
 5080258:	def88014 	ori	sp,sp,57856
    movhi gp, %hi(_gp)
 508025c:	06814274 	movhi	gp,1289
    ori gp, gp, %lo(_gp)
 5080260:	d6beef14 	ori	gp,gp,64444
 */
#ifndef ALT_SIM_OPTIMIZE
    /* Log that the BSS is about to be cleared. */
    ALT_LOG_PUTS(alt_log_msg_bss)

    movhi r2, %hi(__bss_start)
 5080264:	00814274 	movhi	r2,1289
    ori r2, r2, %lo(__bss_start)
 5080268:	10a5be14 	ori	r2,r2,38648

    movhi r3, %hi(__bss_end)
 508026c:	00c14274 	movhi	r3,1289
    ori r3, r3, %lo(__bss_end)
 5080270:	18e62314 	ori	r3,r3,39052

    beq r2, r3, 1f
 5080274:	10c00326 	beq	r2,r3,5080284 <_start+0x40>

0:
    stw zero, (r2)
 5080278:	10000015 	stw	zero,0(r2)
    addi r2, r2, 4
 508027c:	10800104 	addi	r2,r2,4
    bltu r2, r3, 0b
 5080280:	10fffd36 	bltu	r2,r3,5080278 <__alt_data_end+0xfffb2078>
     * section aren't defined until alt_load() has been called).
     */
    mov   et, zero
#endif

    call alt_load
 5080284:	5092d640 	call	5092d64 <alt_load>

    /* Log that alt_main is about to be called. */
    ALT_LOG_PUTS(alt_log_msg_alt_main)

    /* Call the C entry point. It should never return. */
    call alt_main
 5080288:	5092ef80 	call	5092ef8 <alt_main>

0508028c <alt_after_alt_main>:

    /* Wait in infinite loop in case alt_main does return. */
alt_after_alt_main:
    br alt_after_alt_main
 508028c:	003fff06 	br	508028c <__alt_data_end+0xfffb208c>

05080290 <AUDIO_Init>:

/////////////////////////////////////////////////////////////////////////
///////////// External function body ////////////////////////////////////
/////////////////////////////////////////////////////////////////////////

bool AUDIO_Init(void){
 5080290:	defffd04 	addi	sp,sp,-12
 5080294:	dfc00215 	stw	ra,8(sp)
 5080298:	df000115 	stw	fp,4(sp)
 508029c:	df000104 	addi	fp,sp,4
   bool bSuccess = TRUE;
 50802a0:	00800044 	movi	r2,1
 50802a4:	e0bfff15 	stw	r2,-4(fp)
    AUDIO_DEBUG(("[AUDIO] AUDIO_Init...\r\n"));
 50802a8:	01014274 	movhi	r4,1289
 50802ac:	2114cc04 	addi	r4,r4,21296
 50802b0:	5081b2c0 	call	5081b2c <myprintf>

    if (bSuccess)
 50802b4:	e0bfff17 	ldw	r2,-4(fp)
 50802b8:	10000426 	beq	r2,zero,50802cc <AUDIO_Init+0x3c>
        bSuccess = aduio_RegWrite(15, 0x0000);  // reset
 50802bc:	000b883a 	mov	r5,zero
 50802c0:	010003c4 	movi	r4,15
 50802c4:	5080d8c0 	call	5080d8c <aduio_RegWrite>
 50802c8:	e0bfff15 	stw	r2,-4(fp)
        
    if (bSuccess)
 50802cc:	e0bfff17 	ldw	r2,-4(fp)
 50802d0:	10000426 	beq	r2,zero,50802e4 <AUDIO_Init+0x54>
        bSuccess = aduio_RegWrite(9, 0x0000);  // inactive interface         
 50802d4:	000b883a 	mov	r5,zero
 50802d8:	01000244 	movi	r4,9
 50802dc:	5080d8c0 	call	5080d8c <aduio_RegWrite>
 50802e0:	e0bfff15 	stw	r2,-4(fp)
       
    //usleep(20*1000);    
    if (bSuccess)
 50802e4:	e0bfff17 	ldw	r2,-4(fp)
 50802e8:	10000426 	beq	r2,zero,50802fc <AUDIO_Init+0x6c>
        bSuccess = aduio_RegWrite(0, 0x0017);  // Left Line In: set left line in volume
 50802ec:	014005c4 	movi	r5,23
 50802f0:	0009883a 	mov	r4,zero
 50802f4:	5080d8c0 	call	5080d8c <aduio_RegWrite>
 50802f8:	e0bfff15 	stw	r2,-4(fp)
        
    if (bSuccess)
 50802fc:	e0bfff17 	ldw	r2,-4(fp)
 5080300:	10000426 	beq	r2,zero,5080314 <AUDIO_Init+0x84>
        bSuccess = aduio_RegWrite(1, 0x0017);  // Right Line In: set right line in volume
 5080304:	014005c4 	movi	r5,23
 5080308:	01000044 	movi	r4,1
 508030c:	5080d8c0 	call	5080d8c <aduio_RegWrite>
 5080310:	e0bfff15 	stw	r2,-4(fp)
        
    if (bSuccess)
 5080314:	e0bfff17 	ldw	r2,-4(fp)
 5080318:	10000426 	beq	r2,zero,508032c <AUDIO_Init+0x9c>
        bSuccess = aduio_RegWrite(2, 0x005B);  // Left Headphone Out: set left line out volume
 508031c:	014016c4 	movi	r5,91
 5080320:	01000084 	movi	r4,2
 5080324:	5080d8c0 	call	5080d8c <aduio_RegWrite>
 5080328:	e0bfff15 	stw	r2,-4(fp)
        
    if (bSuccess)
 508032c:	e0bfff17 	ldw	r2,-4(fp)
 5080330:	10000426 	beq	r2,zero,5080344 <AUDIO_Init+0xb4>
        bSuccess = aduio_RegWrite(3, 0x005B);  // Right Headphone Out: set right line out volume
 5080334:	014016c4 	movi	r5,91
 5080338:	010000c4 	movi	r4,3
 508033c:	5080d8c0 	call	5080d8c <aduio_RegWrite>
 5080340:	e0bfff15 	stw	r2,-4(fp)
        
    if (bSuccess)      
 5080344:	e0bfff17 	ldw	r2,-4(fp)
 5080348:	10000426 	beq	r2,zero,508035c <AUDIO_Init+0xcc>
        bSuccess = aduio_RegWrite(4, 0x0015);  // Analogue Audio Path Control: set mic as input and boost it, and enable dac         
 508034c:	01400544 	movi	r5,21
 5080350:	01000104 	movi	r4,4
 5080354:	5080d8c0 	call	5080d8c <aduio_RegWrite>
 5080358:	e0bfff15 	stw	r2,-4(fp)
                
    if (bSuccess)
 508035c:	e0bfff17 	ldw	r2,-4(fp)
 5080360:	10000426 	beq	r2,zero,5080374 <AUDIO_Init+0xe4>
        bSuccess = aduio_RegWrite(5, 0x0000);  // Digital Audio Path Control: disable soft mute         
 5080364:	000b883a 	mov	r5,zero
 5080368:	01000144 	movi	r4,5
 508036c:	5080d8c0 	call	5080d8c <aduio_RegWrite>
 5080370:	e0bfff15 	stw	r2,-4(fp)

    if (bSuccess)
 5080374:	e0bfff17 	ldw	r2,-4(fp)
 5080378:	10000426 	beq	r2,zero,508038c <AUDIO_Init+0xfc>
        bSuccess = aduio_RegWrite(6, 0);  // power down control: power on all         
 508037c:	000b883a 	mov	r5,zero
 5080380:	01000184 	movi	r4,6
 5080384:	5080d8c0 	call	5080d8c <aduio_RegWrite>
 5080388:	e0bfff15 	stw	r2,-4(fp)

    if (bSuccess)
 508038c:	e0bfff17 	ldw	r2,-4(fp)
 5080390:	10000426 	beq	r2,zero,50803a4 <AUDIO_Init+0x114>
        bSuccess = aduio_RegWrite(7, 0x0042);  // I2S, iwl=16-bits, Enable Master Mode         
 5080394:	01401084 	movi	r5,66
 5080398:	010001c4 	movi	r4,7
 508039c:	5080d8c0 	call	5080d8c <aduio_RegWrite>
 50803a0:	e0bfff15 	stw	r2,-4(fp)
//        bSuccess = aduio_RegWrite(7, 0x0041);  // MSB-First, left justified, iwl=16-bits, Enable Master Mode         

    if (bSuccess)
 50803a4:	e0bfff17 	ldw	r2,-4(fp)
 50803a8:	10000426 	beq	r2,zero,50803bc <AUDIO_Init+0x12c>
        bSuccess = aduio_RegWrite(8, 0x0002);  // Normal, Base OVer-Sampleing Rate 384 fs (BOSR=1)         
 50803ac:	01400084 	movi	r5,2
 50803b0:	01000204 	movi	r4,8
 50803b4:	5080d8c0 	call	5080d8c <aduio_RegWrite>
 50803b8:	e0bfff15 	stw	r2,-4(fp)


    if (bSuccess)
 50803bc:	e0bfff17 	ldw	r2,-4(fp)
 50803c0:	10000426 	beq	r2,zero,50803d4 <AUDIO_Init+0x144>
        bSuccess = aduio_RegWrite(9, 0x0001);  // active interface
 50803c4:	01400044 	movi	r5,1
 50803c8:	01000244 	movi	r4,9
 50803cc:	5080d8c0 	call	5080d8c <aduio_RegWrite>
 50803d0:	e0bfff15 	stw	r2,-4(fp)
        
        
         
    AUDIO_DEBUG(("[AUDIO] AUDIO_Init %s\r\n", bSuccess?"success":"fail"));        
 50803d4:	e0bfff17 	ldw	r2,-4(fp)
 50803d8:	10000326 	beq	r2,zero,50803e8 <AUDIO_Init+0x158>
 50803dc:	00814274 	movhi	r2,1289
 50803e0:	1094d204 	addi	r2,r2,21320
 50803e4:	00000206 	br	50803f0 <AUDIO_Init+0x160>
 50803e8:	00814274 	movhi	r2,1289
 50803ec:	1094d404 	addi	r2,r2,21328
 50803f0:	100b883a 	mov	r5,r2
 50803f4:	01014274 	movhi	r4,1289
 50803f8:	2114d604 	addi	r4,r4,21336
 50803fc:	5081b2c0 	call	5081b2c <myprintf>
    
    return bSuccess;        
 5080400:	e0bfff17 	ldw	r2,-4(fp)
         
}
 5080404:	e037883a 	mov	sp,fp
 5080408:	dfc00117 	ldw	ra,4(sp)
 508040c:	df000017 	ldw	fp,0(sp)
 5080410:	dec00204 	addi	sp,sp,8
 5080414:	f800283a 	ret

05080418 <AUDIO_InterfaceActive>:

bool AUDIO_InterfaceActive(bool bActive){
 5080418:	defffc04 	addi	sp,sp,-16
 508041c:	dfc00315 	stw	ra,12(sp)
 5080420:	df000215 	stw	fp,8(sp)
 5080424:	df000204 	addi	fp,sp,8
 5080428:	e13fff15 	stw	r4,-4(fp)
    bool bSuccess;
    bSuccess = aduio_RegWrite(9, bActive?0x0001:0x0000); 
 508042c:	e0bfff17 	ldw	r2,-4(fp)
 5080430:	1004c03a 	cmpne	r2,r2,zero
 5080434:	10803fcc 	andi	r2,r2,255
 5080438:	100b883a 	mov	r5,r2
 508043c:	01000244 	movi	r4,9
 5080440:	5080d8c0 	call	5080d8c <aduio_RegWrite>
 5080444:	e0bffe15 	stw	r2,-8(fp)
    return bSuccess;
 5080448:	e0bffe17 	ldw	r2,-8(fp)
}
 508044c:	e037883a 	mov	sp,fp
 5080450:	dfc00117 	ldw	ra,4(sp)
 5080454:	df000017 	ldw	fp,0(sp)
 5080458:	dec00204 	addi	sp,sp,8
 508045c:	f800283a 	ret

05080460 <AUDIO_MicBoost>:

bool AUDIO_MicBoost(bool bBoost){
 5080460:	defffb04 	addi	sp,sp,-20
 5080464:	dfc00415 	stw	ra,16(sp)
 5080468:	df000315 	stw	fp,12(sp)
 508046c:	df000304 	addi	fp,sp,12
 5080470:	e13fff15 	stw	r4,-4(fp)
    bool bSuccess;
    alt_u16 control;
    control = reg_file[4];
 5080474:	008142b4 	movhi	r2,1290
 5080478:	10a5cf04 	addi	r2,r2,-26820
 508047c:	1080020b 	ldhu	r2,8(r2)
 5080480:	e0bffd0d 	sth	r2,-12(fp)
    if (bBoost)
 5080484:	e0bfff17 	ldw	r2,-4(fp)
 5080488:	10000426 	beq	r2,zero,508049c <AUDIO_MicBoost+0x3c>
        control |= 0x0001;
 508048c:	e0bffd0b 	ldhu	r2,-12(fp)
 5080490:	10800054 	ori	r2,r2,1
 5080494:	e0bffd0d 	sth	r2,-12(fp)
 5080498:	00000406 	br	50804ac <AUDIO_MicBoost+0x4c>
    else        
        control &= 0xFFFE;
 508049c:	e0fffd0b 	ldhu	r3,-12(fp)
 50804a0:	00bfff84 	movi	r2,-2
 50804a4:	1884703a 	and	r2,r3,r2
 50804a8:	e0bffd0d 	sth	r2,-12(fp)
    bSuccess = aduio_RegWrite(4, control);  // Left Line In: set left line in volume
 50804ac:	e0bffd0b 	ldhu	r2,-12(fp)
 50804b0:	100b883a 	mov	r5,r2
 50804b4:	01000104 	movi	r4,4
 50804b8:	5080d8c0 	call	5080d8c <aduio_RegWrite>
 50804bc:	e0bffe15 	stw	r2,-8(fp)
    return bSuccess;
 50804c0:	e0bffe17 	ldw	r2,-8(fp)
}
 50804c4:	e037883a 	mov	sp,fp
 50804c8:	dfc00117 	ldw	ra,4(sp)
 50804cc:	df000017 	ldw	fp,0(sp)
 50804d0:	dec00204 	addi	sp,sp,8
 50804d4:	f800283a 	ret

050804d8 <AUDIO_AdcEnableHighPassFilter>:

bool AUDIO_AdcEnableHighPassFilter(bool bEnable){
 50804d8:	defffb04 	addi	sp,sp,-20
 50804dc:	dfc00415 	stw	ra,16(sp)
 50804e0:	df000315 	stw	fp,12(sp)
 50804e4:	df000304 	addi	fp,sp,12
 50804e8:	e13fff15 	stw	r4,-4(fp)
    bool bSuccess;
    alt_u16 control;
    control = reg_file[5];
 50804ec:	008142b4 	movhi	r2,1290
 50804f0:	10a5cf04 	addi	r2,r2,-26820
 50804f4:	1080028b 	ldhu	r2,10(r2)
 50804f8:	e0bffd0d 	sth	r2,-12(fp)
    if (bEnable)
 50804fc:	e0bfff17 	ldw	r2,-4(fp)
 5080500:	10000526 	beq	r2,zero,5080518 <AUDIO_AdcEnableHighPassFilter+0x40>
        control &= 0xFFFE;
 5080504:	e0fffd0b 	ldhu	r3,-12(fp)
 5080508:	00bfff84 	movi	r2,-2
 508050c:	1884703a 	and	r2,r3,r2
 5080510:	e0bffd0d 	sth	r2,-12(fp)
 5080514:	00000306 	br	5080524 <AUDIO_AdcEnableHighPassFilter+0x4c>
    else        
        control |= 0x0001;
 5080518:	e0bffd0b 	ldhu	r2,-12(fp)
 508051c:	10800054 	ori	r2,r2,1
 5080520:	e0bffd0d 	sth	r2,-12(fp)
    bSuccess = aduio_RegWrite(5, control);  // Left Line In: set left line in volume
 5080524:	e0bffd0b 	ldhu	r2,-12(fp)
 5080528:	100b883a 	mov	r5,r2
 508052c:	01000144 	movi	r4,5
 5080530:	5080d8c0 	call	5080d8c <aduio_RegWrite>
 5080534:	e0bffe15 	stw	r2,-8(fp)
    return bSuccess;    
 5080538:	e0bffe17 	ldw	r2,-8(fp)
}
 508053c:	e037883a 	mov	sp,fp
 5080540:	dfc00117 	ldw	ra,4(sp)
 5080544:	df000017 	ldw	fp,0(sp)
 5080548:	dec00204 	addi	sp,sp,8
 508054c:	f800283a 	ret

05080550 <AUDIO_DacDeemphasisControl>:



bool AUDIO_DacDeemphasisControl(alt_u8 deemphasis_type){
 5080550:	defffb04 	addi	sp,sp,-20
 5080554:	dfc00415 	stw	ra,16(sp)
 5080558:	df000315 	stw	fp,12(sp)
 508055c:	df000304 	addi	fp,sp,12
 5080560:	2005883a 	mov	r2,r4
 5080564:	e0bfff05 	stb	r2,-4(fp)
    bool bSuccess;
    alt_u16 control;
    control = reg_file[5];
 5080568:	008142b4 	movhi	r2,1290
 508056c:	10a5cf04 	addi	r2,r2,-26820
 5080570:	1080028b 	ldhu	r2,10(r2)
 5080574:	e0bffd0d 	sth	r2,-12(fp)
    control &= 0xFFF9;
 5080578:	e0fffd0b 	ldhu	r3,-12(fp)
 508057c:	00bffe44 	movi	r2,-7
 5080580:	1884703a 	and	r2,r3,r2
 5080584:	e0bffd0d 	sth	r2,-12(fp)
    switch(deemphasis_type){
 5080588:	e0bfff03 	ldbu	r2,-4(fp)
 508058c:	10c000a0 	cmpeqi	r3,r2,2
 5080590:	1800081e 	bne	r3,zero,50805b4 <AUDIO_DacDeemphasisControl+0x64>
 5080594:	10c000e0 	cmpeqi	r3,r2,3
 5080598:	18000a1e 	bne	r3,zero,50805c4 <AUDIO_DacDeemphasisControl+0x74>
 508059c:	10800060 	cmpeqi	r2,r2,1
 50805a0:	10000c26 	beq	r2,zero,50805d4 <AUDIO_DacDeemphasisControl+0x84>
        case DEEMPHASIS_48K: control |= ((0x03) << 1); break;
 50805a4:	e0bffd0b 	ldhu	r2,-12(fp)
 50805a8:	10800194 	ori	r2,r2,6
 50805ac:	e0bffd0d 	sth	r2,-12(fp)
 50805b0:	00000806 	br	50805d4 <AUDIO_DacDeemphasisControl+0x84>
        case DEEMPHASIS_44K1: control |= ((0x02) << 1); break;
 50805b4:	e0bffd0b 	ldhu	r2,-12(fp)
 50805b8:	10800114 	ori	r2,r2,4
 50805bc:	e0bffd0d 	sth	r2,-12(fp)
 50805c0:	00000406 	br	50805d4 <AUDIO_DacDeemphasisControl+0x84>
        case DEEMPHASIS_32K: control |= ((0x01) << 1); break;
 50805c4:	e0bffd0b 	ldhu	r2,-12(fp)
 50805c8:	10800094 	ori	r2,r2,2
 50805cc:	e0bffd0d 	sth	r2,-12(fp)
 50805d0:	0001883a 	nop
    }
    bSuccess = aduio_RegWrite(5, control);  // Left Line In: set left line in volume
 50805d4:	e0bffd0b 	ldhu	r2,-12(fp)
 50805d8:	100b883a 	mov	r5,r2
 50805dc:	01000144 	movi	r4,5
 50805e0:	5080d8c0 	call	5080d8c <aduio_RegWrite>
 50805e4:	e0bffe15 	stw	r2,-8(fp)
    return bSuccess;       
 50805e8:	e0bffe17 	ldw	r2,-8(fp)
}
 50805ec:	e037883a 	mov	sp,fp
 50805f0:	dfc00117 	ldw	ra,4(sp)
 50805f4:	df000017 	ldw	fp,0(sp)
 50805f8:	dec00204 	addi	sp,sp,8
 50805fc:	f800283a 	ret

05080600 <AUDIO_DacEnableZeroCross>:

bool AUDIO_DacEnableZeroCross(bool bEnable){
 5080600:	defffa04 	addi	sp,sp,-24
 5080604:	dfc00515 	stw	ra,20(sp)
 5080608:	df000415 	stw	fp,16(sp)
 508060c:	df000404 	addi	fp,sp,16
 5080610:	e13fff15 	stw	r4,-4(fp)
    bool bSuccess;
    alt_u16 control_l, control_r;
    alt_u16 mask;
    control_l = reg_file[2];
 5080614:	008142b4 	movhi	r2,1290
 5080618:	10a5cf04 	addi	r2,r2,-26820
 508061c:	1080010b 	ldhu	r2,4(r2)
 5080620:	e0bffd0d 	sth	r2,-12(fp)
    control_r = reg_file[3];
 5080624:	008142b4 	movhi	r2,1290
 5080628:	10a5cf04 	addi	r2,r2,-26820
 508062c:	1080018b 	ldhu	r2,6(r2)
 5080630:	e0bffd8d 	sth	r2,-10(fp)
    mask = 0x01 << 7;
 5080634:	00802004 	movi	r2,128
 5080638:	e0bffe0d 	sth	r2,-8(fp)
    if (bEnable){
 508063c:	e0bfff17 	ldw	r2,-4(fp)
 5080640:	10000926 	beq	r2,zero,5080668 <AUDIO_DacEnableZeroCross+0x68>
        control_l |= mask;
 5080644:	e0fffd0b 	ldhu	r3,-12(fp)
 5080648:	e0bffe0b 	ldhu	r2,-8(fp)
 508064c:	1884b03a 	or	r2,r3,r2
 5080650:	e0bffd0d 	sth	r2,-12(fp)
        control_r |= mask;
 5080654:	e0fffd8b 	ldhu	r3,-10(fp)
 5080658:	e0bffe0b 	ldhu	r2,-8(fp)
 508065c:	1884b03a 	or	r2,r3,r2
 5080660:	e0bffd8d 	sth	r2,-10(fp)
 5080664:	00000c06 	br	5080698 <AUDIO_DacEnableZeroCross+0x98>
    }else{        
        control_l &= ~mask;
 5080668:	e0bffe0b 	ldhu	r2,-8(fp)
 508066c:	0084303a 	nor	r2,zero,r2
 5080670:	1007883a 	mov	r3,r2
 5080674:	e0bffd0b 	ldhu	r2,-12(fp)
 5080678:	1884703a 	and	r2,r3,r2
 508067c:	e0bffd0d 	sth	r2,-12(fp)
        control_r &= ~mask;
 5080680:	e0bffe0b 	ldhu	r2,-8(fp)
 5080684:	0084303a 	nor	r2,zero,r2
 5080688:	1007883a 	mov	r3,r2
 508068c:	e0bffd8b 	ldhu	r2,-10(fp)
 5080690:	1884703a 	and	r2,r3,r2
 5080694:	e0bffd8d 	sth	r2,-10(fp)
    }        
    bSuccess = aduio_RegWrite(2, control_l);  // Left Line In: set left line in volume
 5080698:	e0bffd0b 	ldhu	r2,-12(fp)
 508069c:	100b883a 	mov	r5,r2
 50806a0:	01000084 	movi	r4,2
 50806a4:	5080d8c0 	call	5080d8c <aduio_RegWrite>
 50806a8:	e0bffc15 	stw	r2,-16(fp)
    if (bSuccess)
 50806ac:	e0bffc17 	ldw	r2,-16(fp)
 50806b0:	10000526 	beq	r2,zero,50806c8 <AUDIO_DacEnableZeroCross+0xc8>
        bSuccess = aduio_RegWrite(3, control_r);  // Left Line In: set left line in volume
 50806b4:	e0bffd8b 	ldhu	r2,-10(fp)
 50806b8:	100b883a 	mov	r5,r2
 50806bc:	010000c4 	movi	r4,3
 50806c0:	5080d8c0 	call	5080d8c <aduio_RegWrite>
 50806c4:	e0bffc15 	stw	r2,-16(fp)
    return bSuccess;      
 50806c8:	e0bffc17 	ldw	r2,-16(fp)
}
 50806cc:	e037883a 	mov	sp,fp
 50806d0:	dfc00117 	ldw	ra,4(sp)
 50806d4:	df000017 	ldw	fp,0(sp)
 50806d8:	dec00204 	addi	sp,sp,8
 50806dc:	f800283a 	ret

050806e0 <AUDIO_DacEnableSoftMute>:

bool AUDIO_DacEnableSoftMute(bool bEnable){
 50806e0:	defffb04 	addi	sp,sp,-20
 50806e4:	dfc00415 	stw	ra,16(sp)
 50806e8:	df000315 	stw	fp,12(sp)
 50806ec:	df000304 	addi	fp,sp,12
 50806f0:	e13fff15 	stw	r4,-4(fp)
    bool bSuccess;
    alt_u16 control;
    alt_u16 mask;
    control = reg_file[5];
 50806f4:	008142b4 	movhi	r2,1290
 50806f8:	10a5cf04 	addi	r2,r2,-26820
 50806fc:	1080028b 	ldhu	r2,10(r2)
 5080700:	e0bffd0d 	sth	r2,-12(fp)
    mask = 0x01 << 3;
 5080704:	00800204 	movi	r2,8
 5080708:	e0bffd8d 	sth	r2,-10(fp)
    if (bEnable)
 508070c:	e0bfff17 	ldw	r2,-4(fp)
 5080710:	10000526 	beq	r2,zero,5080728 <AUDIO_DacEnableSoftMute+0x48>
        control |= mask;
 5080714:	e0fffd0b 	ldhu	r3,-12(fp)
 5080718:	e0bffd8b 	ldhu	r2,-10(fp)
 508071c:	1884b03a 	or	r2,r3,r2
 5080720:	e0bffd0d 	sth	r2,-12(fp)
 5080724:	00000606 	br	5080740 <AUDIO_DacEnableSoftMute+0x60>
    else        
        control &= ~mask;
 5080728:	e0bffd8b 	ldhu	r2,-10(fp)
 508072c:	0084303a 	nor	r2,zero,r2
 5080730:	1007883a 	mov	r3,r2
 5080734:	e0bffd0b 	ldhu	r2,-12(fp)
 5080738:	1884703a 	and	r2,r3,r2
 508073c:	e0bffd0d 	sth	r2,-12(fp)
    bSuccess = aduio_RegWrite(5, control);  // Left Line In: set left line in volume
 5080740:	e0bffd0b 	ldhu	r2,-12(fp)
 5080744:	100b883a 	mov	r5,r2
 5080748:	01000144 	movi	r4,5
 508074c:	5080d8c0 	call	5080d8c <aduio_RegWrite>
 5080750:	e0bffe15 	stw	r2,-8(fp)
    return bSuccess;      
 5080754:	e0bffe17 	ldw	r2,-8(fp)
}
 5080758:	e037883a 	mov	sp,fp
 508075c:	dfc00117 	ldw	ra,4(sp)
 5080760:	df000017 	ldw	fp,0(sp)
 5080764:	dec00204 	addi	sp,sp,8
 5080768:	f800283a 	ret

0508076c <AUDIO_MicMute>:

bool AUDIO_MicMute(bool bMute){
 508076c:	defffb04 	addi	sp,sp,-20
 5080770:	dfc00415 	stw	ra,16(sp)
 5080774:	df000315 	stw	fp,12(sp)
 5080778:	df000304 	addi	fp,sp,12
 508077c:	e13fff15 	stw	r4,-4(fp)
    bool bSuccess;
    alt_u16 control;
    alt_u16 mask;
    control = reg_file[4];
 5080780:	008142b4 	movhi	r2,1290
 5080784:	10a5cf04 	addi	r2,r2,-26820
 5080788:	1080020b 	ldhu	r2,8(r2)
 508078c:	e0bffd0d 	sth	r2,-12(fp)
    mask = 0x01 << 1;
 5080790:	00800084 	movi	r2,2
 5080794:	e0bffd8d 	sth	r2,-10(fp)
    if (bMute)
 5080798:	e0bfff17 	ldw	r2,-4(fp)
 508079c:	10000526 	beq	r2,zero,50807b4 <AUDIO_MicMute+0x48>
        control |= mask;
 50807a0:	e0fffd0b 	ldhu	r3,-12(fp)
 50807a4:	e0bffd8b 	ldhu	r2,-10(fp)
 50807a8:	1884b03a 	or	r2,r3,r2
 50807ac:	e0bffd0d 	sth	r2,-12(fp)
 50807b0:	00000606 	br	50807cc <AUDIO_MicMute+0x60>
    else        
        control &= ~mask;
 50807b4:	e0bffd8b 	ldhu	r2,-10(fp)
 50807b8:	0084303a 	nor	r2,zero,r2
 50807bc:	1007883a 	mov	r3,r2
 50807c0:	e0bffd0b 	ldhu	r2,-12(fp)
 50807c4:	1884703a 	and	r2,r3,r2
 50807c8:	e0bffd0d 	sth	r2,-12(fp)
    bSuccess = aduio_RegWrite(4, control);  // Left Line In: set left line in volume
 50807cc:	e0bffd0b 	ldhu	r2,-12(fp)
 50807d0:	100b883a 	mov	r5,r2
 50807d4:	01000104 	movi	r4,4
 50807d8:	5080d8c0 	call	5080d8c <aduio_RegWrite>
 50807dc:	e0bffe15 	stw	r2,-8(fp)
    return bSuccess;        
 50807e0:	e0bffe17 	ldw	r2,-8(fp)
}
 50807e4:	e037883a 	mov	sp,fp
 50807e8:	dfc00117 	ldw	ra,4(sp)
 50807ec:	df000017 	ldw	fp,0(sp)
 50807f0:	dec00204 	addi	sp,sp,8
 50807f4:	f800283a 	ret

050807f8 <AUDIO_LineInMute>:

bool AUDIO_LineInMute(bool bMute){
 50807f8:	defffa04 	addi	sp,sp,-24
 50807fc:	dfc00515 	stw	ra,20(sp)
 5080800:	df000415 	stw	fp,16(sp)
 5080804:	df000404 	addi	fp,sp,16
 5080808:	e13fff15 	stw	r4,-4(fp)
    bool bSuccess;
    alt_u16 control_l, control_r;
    alt_u16 mask;
    control_l = reg_file[0];
 508080c:	008142b4 	movhi	r2,1290
 5080810:	10a5cf04 	addi	r2,r2,-26820
 5080814:	1080000b 	ldhu	r2,0(r2)
 5080818:	e0bffd0d 	sth	r2,-12(fp)
    control_r = reg_file[1];
 508081c:	008142b4 	movhi	r2,1290
 5080820:	10a5cf04 	addi	r2,r2,-26820
 5080824:	1080008b 	ldhu	r2,2(r2)
 5080828:	e0bffd8d 	sth	r2,-10(fp)
    mask = 0x01 << 7;
 508082c:	00802004 	movi	r2,128
 5080830:	e0bffe0d 	sth	r2,-8(fp)
    if (bMute){
 5080834:	e0bfff17 	ldw	r2,-4(fp)
 5080838:	10000926 	beq	r2,zero,5080860 <AUDIO_LineInMute+0x68>
        control_l |= mask;
 508083c:	e0fffd0b 	ldhu	r3,-12(fp)
 5080840:	e0bffe0b 	ldhu	r2,-8(fp)
 5080844:	1884b03a 	or	r2,r3,r2
 5080848:	e0bffd0d 	sth	r2,-12(fp)
        control_r |= mask;
 508084c:	e0fffd8b 	ldhu	r3,-10(fp)
 5080850:	e0bffe0b 	ldhu	r2,-8(fp)
 5080854:	1884b03a 	or	r2,r3,r2
 5080858:	e0bffd8d 	sth	r2,-10(fp)
 508085c:	00000c06 	br	5080890 <AUDIO_LineInMute+0x98>
    }else{        
        control_l &= ~mask;
 5080860:	e0bffe0b 	ldhu	r2,-8(fp)
 5080864:	0084303a 	nor	r2,zero,r2
 5080868:	1007883a 	mov	r3,r2
 508086c:	e0bffd0b 	ldhu	r2,-12(fp)
 5080870:	1884703a 	and	r2,r3,r2
 5080874:	e0bffd0d 	sth	r2,-12(fp)
        control_r &= ~mask;
 5080878:	e0bffe0b 	ldhu	r2,-8(fp)
 508087c:	0084303a 	nor	r2,zero,r2
 5080880:	1007883a 	mov	r3,r2
 5080884:	e0bffd8b 	ldhu	r2,-10(fp)
 5080888:	1884703a 	and	r2,r3,r2
 508088c:	e0bffd8d 	sth	r2,-10(fp)
    }        
    bSuccess = aduio_RegWrite(0, control_l);  // Left Line In: set left line in volume
 5080890:	e0bffd0b 	ldhu	r2,-12(fp)
 5080894:	100b883a 	mov	r5,r2
 5080898:	0009883a 	mov	r4,zero
 508089c:	5080d8c0 	call	5080d8c <aduio_RegWrite>
 50808a0:	e0bffc15 	stw	r2,-16(fp)
    if (bSuccess)
 50808a4:	e0bffc17 	ldw	r2,-16(fp)
 50808a8:	10000526 	beq	r2,zero,50808c0 <AUDIO_LineInMute+0xc8>
        bSuccess = aduio_RegWrite(1, control_r);  // Left Line In: set left line in volume
 50808ac:	e0bffd8b 	ldhu	r2,-10(fp)
 50808b0:	100b883a 	mov	r5,r2
 50808b4:	01000044 	movi	r4,1
 50808b8:	5080d8c0 	call	5080d8c <aduio_RegWrite>
 50808bc:	e0bffc15 	stw	r2,-16(fp)
    return bSuccess;        
 50808c0:	e0bffc17 	ldw	r2,-16(fp)
}
 50808c4:	e037883a 	mov	sp,fp
 50808c8:	dfc00117 	ldw	ra,4(sp)
 50808cc:	df000017 	ldw	fp,0(sp)
 50808d0:	dec00204 	addi	sp,sp,8
 50808d4:	f800283a 	ret

050808d8 <AUDIO_SetInputSource>:



bool AUDIO_SetInputSource(alt_u8 InputSource){
 50808d8:	defffb04 	addi	sp,sp,-20
 50808dc:	dfc00415 	stw	ra,16(sp)
 50808e0:	df000315 	stw	fp,12(sp)
 50808e4:	df000304 	addi	fp,sp,12
 50808e8:	2005883a 	mov	r2,r4
 50808ec:	e0bfff05 	stb	r2,-4(fp)
    bool bSuccess;
    alt_u16 control;
    alt_u16 mask;
    control = reg_file[4];
 50808f0:	008142b4 	movhi	r2,1290
 50808f4:	10a5cf04 	addi	r2,r2,-26820
 50808f8:	1080020b 	ldhu	r2,8(r2)
 50808fc:	e0bffd0d 	sth	r2,-12(fp)
    mask = 0x01 << 2;
 5080900:	00800104 	movi	r2,4
 5080904:	e0bffd8d 	sth	r2,-10(fp)
    if (InputSource == SOURCE_MIC)
 5080908:	e0bfff03 	ldbu	r2,-4(fp)
 508090c:	1000051e 	bne	r2,zero,5080924 <AUDIO_SetInputSource+0x4c>
        control |= mask;
 5080910:	e0fffd0b 	ldhu	r3,-12(fp)
 5080914:	e0bffd8b 	ldhu	r2,-10(fp)
 5080918:	1884b03a 	or	r2,r3,r2
 508091c:	e0bffd0d 	sth	r2,-12(fp)
 5080920:	00000606 	br	508093c <AUDIO_SetInputSource+0x64>
    else        
        control &= ~mask;
 5080924:	e0bffd8b 	ldhu	r2,-10(fp)
 5080928:	0084303a 	nor	r2,zero,r2
 508092c:	1007883a 	mov	r3,r2
 5080930:	e0bffd0b 	ldhu	r2,-12(fp)
 5080934:	1884703a 	and	r2,r3,r2
 5080938:	e0bffd0d 	sth	r2,-12(fp)
    bSuccess = aduio_RegWrite(4, control);  // Left Line In: set left line in volume
 508093c:	e0bffd0b 	ldhu	r2,-12(fp)
 5080940:	100b883a 	mov	r5,r2
 5080944:	01000104 	movi	r4,4
 5080948:	5080d8c0 	call	5080d8c <aduio_RegWrite>
 508094c:	e0bffe15 	stw	r2,-8(fp)
    return bSuccess;       
 5080950:	e0bffe17 	ldw	r2,-8(fp)
}
 5080954:	e037883a 	mov	sp,fp
 5080958:	dfc00117 	ldw	ra,4(sp)
 508095c:	df000017 	ldw	fp,0(sp)
 5080960:	dec00204 	addi	sp,sp,8
 5080964:	f800283a 	ret

05080968 <AUDIO_SetSampleRate>:

// See datasheet page 39
bool AUDIO_SetSampleRate(alt_u8 SampleRate){
 5080968:	defffb04 	addi	sp,sp,-20
 508096c:	dfc00415 	stw	ra,16(sp)
 5080970:	df000315 	stw	fp,12(sp)
 5080974:	df000304 	addi	fp,sp,12
 5080978:	2005883a 	mov	r2,r4
 508097c:	e0bfff05 	stb	r2,-4(fp)
    bool bSuccess;
    alt_u16 control;
    control = 0;
 5080980:	e03ffd0d 	sth	zero,-12(fp)

    switch(SampleRate){
 5080984:	e0bfff03 	ldbu	r2,-4(fp)
 5080988:	10c001e8 	cmpgeui	r3,r2,7
 508098c:	1800211e 	bne	r3,zero,5080a14 <AUDIO_SetSampleRate+0xac>
 5080990:	100690ba 	slli	r3,r2,2
 5080994:	00814234 	movhi	r2,1288
 5080998:	10826a04 	addi	r2,r2,2472
 508099c:	1885883a 	add	r2,r3,r2
 50809a0:	10800017 	ldw	r2,0(r2)
 50809a4:	1000683a 	jmp	r2
 50809a8:	050809c4 	movi	r20,8231
 50809ac:	050809cc 	andi	r20,zero,8231
 50809b0:	050809d8 	cmpnei	r20,zero,8231
 50809b4:	050809e4 	muli	r20,zero,8231
 50809b8:	050809f0 	cmpltui	r20,zero,8231
 50809bc:	050809fc 	xorhi	r20,zero,8231
 50809c0:	05080a08 	cmpgei	r20,zero,8232
         // MCLK = 18.432
        case RATE_ADC48K_DAC48K: control = (0x0) << 2; break;
 50809c4:	e03ffd0d 	sth	zero,-12(fp)
 50809c8:	00001206 	br	5080a14 <AUDIO_SetSampleRate+0xac>
        case RATE_ADC48K_DAC8K: control = (0x1) << 2; break;
 50809cc:	00800104 	movi	r2,4
 50809d0:	e0bffd0d 	sth	r2,-12(fp)
 50809d4:	00000f06 	br	5080a14 <AUDIO_SetSampleRate+0xac>
        case RATE_ADC8K_DAC48K: control = (0x2) << 2; break;
 50809d8:	00800204 	movi	r2,8
 50809dc:	e0bffd0d 	sth	r2,-12(fp)
 50809e0:	00000c06 	br	5080a14 <AUDIO_SetSampleRate+0xac>
        case RATE_ADC8K_DAC8K: control = (0x3) << 2; break;
 50809e4:	00800304 	movi	r2,12
 50809e8:	e0bffd0d 	sth	r2,-12(fp)
 50809ec:	00000906 	br	5080a14 <AUDIO_SetSampleRate+0xac>
        case RATE_ADC32K_DAC32K: control = (0x6) << 2; break;
 50809f0:	00800604 	movi	r2,24
 50809f4:	e0bffd0d 	sth	r2,-12(fp)
 50809f8:	00000606 	br	5080a14 <AUDIO_SetSampleRate+0xac>
        case RATE_ADC96K_DAC96K: control = (0x7) << 2; break;
 50809fc:	00800704 	movi	r2,28
 5080a00:	e0bffd0d 	sth	r2,-12(fp)
 5080a04:	00000306 	br	5080a14 <AUDIO_SetSampleRate+0xac>
        case RATE_ADC44K1_DAC44K1: control = (0x8) << 2; break;
 5080a08:	00800804 	movi	r2,32
 5080a0c:	e0bffd0d 	sth	r2,-12(fp)
 5080a10:	0001883a 	nop
        // MCLK = 11.2896
      //  case RATE_ADC44K1_DAC8K: control = (0x9) << 2; break;
      //  case RATE_ADC8K_DAC44K1: control = (0xA) << 2; break;
    }
    control |= 0x02; // BOSR=1 (384fs = 384*48k = 18.432M)
 5080a14:	e0bffd0b 	ldhu	r2,-12(fp)
 5080a18:	10800094 	ori	r2,r2,2
 5080a1c:	e0bffd0d 	sth	r2,-12(fp)
        
    bSuccess = aduio_RegWrite(8, control);  // Left Line In: set left line in volume
 5080a20:	e0bffd0b 	ldhu	r2,-12(fp)
 5080a24:	100b883a 	mov	r5,r2
 5080a28:	01000204 	movi	r4,8
 5080a2c:	5080d8c0 	call	5080d8c <aduio_RegWrite>
 5080a30:	e0bffe15 	stw	r2,-8(fp)
    return bSuccess;      
 5080a34:	e0bffe17 	ldw	r2,-8(fp)
}
 5080a38:	e037883a 	mov	sp,fp
 5080a3c:	dfc00117 	ldw	ra,4(sp)
 5080a40:	df000017 	ldw	fp,0(sp)
 5080a44:	dec00204 	addi	sp,sp,8
 5080a48:	f800283a 	ret

05080a4c <AUDIO_SetLineInVol>:





bool AUDIO_SetLineInVol(alt_u16 l_vol, alt_u16 r_vol){
 5080a4c:	defffa04 	addi	sp,sp,-24
 5080a50:	dfc00515 	stw	ra,20(sp)
 5080a54:	df000415 	stw	fp,16(sp)
 5080a58:	df000404 	addi	fp,sp,16
 5080a5c:	2007883a 	mov	r3,r4
 5080a60:	2805883a 	mov	r2,r5
 5080a64:	e0fffe0d 	sth	r3,-8(fp)
 5080a68:	e0bfff0d 	sth	r2,-4(fp)
    bool bSuccess;
    alt_u16 control;
    
    // left
    control = reg_file[0];
 5080a6c:	008142b4 	movhi	r2,1290
 5080a70:	10a5cf04 	addi	r2,r2,-26820
 5080a74:	1080000b 	ldhu	r2,0(r2)
 5080a78:	e0bffd0d 	sth	r2,-12(fp)
    control &= 0xFFE0;
 5080a7c:	e0fffd0b 	ldhu	r3,-12(fp)
 5080a80:	00bff804 	movi	r2,-32
 5080a84:	1884703a 	and	r2,r3,r2
 5080a88:	e0bffd0d 	sth	r2,-12(fp)
    control += l_vol & 0x1F;
 5080a8c:	e0bffe0b 	ldhu	r2,-8(fp)
 5080a90:	108007cc 	andi	r2,r2,31
 5080a94:	1007883a 	mov	r3,r2
 5080a98:	e0bffd0b 	ldhu	r2,-12(fp)
 5080a9c:	1885883a 	add	r2,r3,r2
 5080aa0:	e0bffd0d 	sth	r2,-12(fp)
    bSuccess = aduio_RegWrite(0, control);
 5080aa4:	e0bffd0b 	ldhu	r2,-12(fp)
 5080aa8:	100b883a 	mov	r5,r2
 5080aac:	0009883a 	mov	r4,zero
 5080ab0:	5080d8c0 	call	5080d8c <aduio_RegWrite>
 5080ab4:	e0bffc15 	stw	r2,-16(fp)
    
    if (bSuccess){
 5080ab8:	e0bffc17 	ldw	r2,-16(fp)
 5080abc:	10001326 	beq	r2,zero,5080b0c <AUDIO_SetLineInVol+0xc0>
        // right
        control = reg_file[1];
 5080ac0:	008142b4 	movhi	r2,1290
 5080ac4:	10a5cf04 	addi	r2,r2,-26820
 5080ac8:	1080008b 	ldhu	r2,2(r2)
 5080acc:	e0bffd0d 	sth	r2,-12(fp)
        control &= 0xFFE0;
 5080ad0:	e0fffd0b 	ldhu	r3,-12(fp)
 5080ad4:	00bff804 	movi	r2,-32
 5080ad8:	1884703a 	and	r2,r3,r2
 5080adc:	e0bffd0d 	sth	r2,-12(fp)
        control += r_vol & 0x1F;
 5080ae0:	e0bfff0b 	ldhu	r2,-4(fp)
 5080ae4:	108007cc 	andi	r2,r2,31
 5080ae8:	1007883a 	mov	r3,r2
 5080aec:	e0bffd0b 	ldhu	r2,-12(fp)
 5080af0:	1885883a 	add	r2,r3,r2
 5080af4:	e0bffd0d 	sth	r2,-12(fp)
        bSuccess = aduio_RegWrite(1, control);        
 5080af8:	e0bffd0b 	ldhu	r2,-12(fp)
 5080afc:	100b883a 	mov	r5,r2
 5080b00:	01000044 	movi	r4,1
 5080b04:	5080d8c0 	call	5080d8c <aduio_RegWrite>
 5080b08:	e0bffc15 	stw	r2,-16(fp)
    }
    
    AUDIO_DEBUG(("[AUDIO] set Line-In vol(%d,%d) %s\r\n", l_vol, r_vol, bSuccess?"success":"fail"));        
 5080b0c:	e0fffe0b 	ldhu	r3,-8(fp)
 5080b10:	e13fff0b 	ldhu	r4,-4(fp)
 5080b14:	e0bffc17 	ldw	r2,-16(fp)
 5080b18:	10000326 	beq	r2,zero,5080b28 <AUDIO_SetLineInVol+0xdc>
 5080b1c:	00814274 	movhi	r2,1289
 5080b20:	1094d204 	addi	r2,r2,21320
 5080b24:	00000206 	br	5080b30 <AUDIO_SetLineInVol+0xe4>
 5080b28:	00814274 	movhi	r2,1289
 5080b2c:	1094d404 	addi	r2,r2,21328
 5080b30:	100f883a 	mov	r7,r2
 5080b34:	200d883a 	mov	r6,r4
 5080b38:	180b883a 	mov	r5,r3
 5080b3c:	01014274 	movhi	r4,1289
 5080b40:	2114dc04 	addi	r4,r4,21360
 5080b44:	5081b2c0 	call	5081b2c <myprintf>
    return bSuccess;
 5080b48:	e0bffc17 	ldw	r2,-16(fp)
}
 5080b4c:	e037883a 	mov	sp,fp
 5080b50:	dfc00117 	ldw	ra,4(sp)
 5080b54:	df000017 	ldw	fp,0(sp)
 5080b58:	dec00204 	addi	sp,sp,8
 5080b5c:	f800283a 	ret

05080b60 <AUDIO_SetLineOutVol>:

bool AUDIO_SetLineOutVol(alt_u16 l_vol, alt_u16 r_vol){
 5080b60:	defffa04 	addi	sp,sp,-24
 5080b64:	dfc00515 	stw	ra,20(sp)
 5080b68:	df000415 	stw	fp,16(sp)
 5080b6c:	df000404 	addi	fp,sp,16
 5080b70:	2007883a 	mov	r3,r4
 5080b74:	2805883a 	mov	r2,r5
 5080b78:	e0fffe0d 	sth	r3,-8(fp)
 5080b7c:	e0bfff0d 	sth	r2,-4(fp)
    bool bSuccess;
    alt_u16 control;

 
    // left
    control = reg_file[2];
 5080b80:	008142b4 	movhi	r2,1290
 5080b84:	10a5cf04 	addi	r2,r2,-26820
 5080b88:	1080010b 	ldhu	r2,4(r2)
 5080b8c:	e0bffd0d 	sth	r2,-12(fp)
    control &= 0xFF80;
 5080b90:	e0fffd0b 	ldhu	r3,-12(fp)
 5080b94:	00bfe004 	movi	r2,-128
 5080b98:	1884703a 	and	r2,r3,r2
 5080b9c:	e0bffd0d 	sth	r2,-12(fp)
    control += l_vol & 0x7F;
 5080ba0:	e0bffe0b 	ldhu	r2,-8(fp)
 5080ba4:	10801fcc 	andi	r2,r2,127
 5080ba8:	1007883a 	mov	r3,r2
 5080bac:	e0bffd0b 	ldhu	r2,-12(fp)
 5080bb0:	1885883a 	add	r2,r3,r2
 5080bb4:	e0bffd0d 	sth	r2,-12(fp)
    bSuccess = aduio_RegWrite(2, control);
 5080bb8:	e0bffd0b 	ldhu	r2,-12(fp)
 5080bbc:	100b883a 	mov	r5,r2
 5080bc0:	01000084 	movi	r4,2
 5080bc4:	5080d8c0 	call	5080d8c <aduio_RegWrite>
 5080bc8:	e0bffc15 	stw	r2,-16(fp)
    
    if (bSuccess){
 5080bcc:	e0bffc17 	ldw	r2,-16(fp)
 5080bd0:	10001326 	beq	r2,zero,5080c20 <AUDIO_SetLineOutVol+0xc0>
        // right
        control = reg_file[3];
 5080bd4:	008142b4 	movhi	r2,1290
 5080bd8:	10a5cf04 	addi	r2,r2,-26820
 5080bdc:	1080018b 	ldhu	r2,6(r2)
 5080be0:	e0bffd0d 	sth	r2,-12(fp)
        control &= 0xFF80;
 5080be4:	e0fffd0b 	ldhu	r3,-12(fp)
 5080be8:	00bfe004 	movi	r2,-128
 5080bec:	1884703a 	and	r2,r3,r2
 5080bf0:	e0bffd0d 	sth	r2,-12(fp)
        control += r_vol & 0x7F;
 5080bf4:	e0bfff0b 	ldhu	r2,-4(fp)
 5080bf8:	10801fcc 	andi	r2,r2,127
 5080bfc:	1007883a 	mov	r3,r2
 5080c00:	e0bffd0b 	ldhu	r2,-12(fp)
 5080c04:	1885883a 	add	r2,r3,r2
 5080c08:	e0bffd0d 	sth	r2,-12(fp)
        bSuccess = aduio_RegWrite(3, control);        
 5080c0c:	e0bffd0b 	ldhu	r2,-12(fp)
 5080c10:	100b883a 	mov	r5,r2
 5080c14:	010000c4 	movi	r4,3
 5080c18:	5080d8c0 	call	5080d8c <aduio_RegWrite>
 5080c1c:	e0bffc15 	stw	r2,-16(fp)
    }    
    
    AUDIO_DEBUG(("[AUDIO] set Line-Out vol(%d,%d) %s\r\n", l_vol, r_vol, bSuccess?"success":"fail"));
 5080c20:	e0fffe0b 	ldhu	r3,-8(fp)
 5080c24:	e13fff0b 	ldhu	r4,-4(fp)
 5080c28:	e0bffc17 	ldw	r2,-16(fp)
 5080c2c:	10000326 	beq	r2,zero,5080c3c <AUDIO_SetLineOutVol+0xdc>
 5080c30:	00814274 	movhi	r2,1289
 5080c34:	1094d204 	addi	r2,r2,21320
 5080c38:	00000206 	br	5080c44 <AUDIO_SetLineOutVol+0xe4>
 5080c3c:	00814274 	movhi	r2,1289
 5080c40:	1094d404 	addi	r2,r2,21328
 5080c44:	100f883a 	mov	r7,r2
 5080c48:	200d883a 	mov	r6,r4
 5080c4c:	180b883a 	mov	r5,r3
 5080c50:	01014274 	movhi	r4,1289
 5080c54:	2114e504 	addi	r4,r4,21396
 5080c58:	5081b2c0 	call	5081b2c <myprintf>
    
    return bSuccess;
 5080c5c:	e0bffc17 	ldw	r2,-16(fp)
}
 5080c60:	e037883a 	mov	sp,fp
 5080c64:	dfc00117 	ldw	ra,4(sp)
 5080c68:	df000017 	ldw	fp,0(sp)
 5080c6c:	dec00204 	addi	sp,sp,8
 5080c70:	f800283a 	ret

05080c74 <AUDIO_EnableByPass>:


bool AUDIO_EnableByPass(bool bEnable){
 5080c74:	defffb04 	addi	sp,sp,-20
 5080c78:	dfc00415 	stw	ra,16(sp)
 5080c7c:	df000315 	stw	fp,12(sp)
 5080c80:	df000304 	addi	fp,sp,12
 5080c84:	e13fff15 	stw	r4,-4(fp)
    bool bSuccess;
    alt_u16 control;
    alt_u16 mask;
    control = reg_file[4];
 5080c88:	008142b4 	movhi	r2,1290
 5080c8c:	10a5cf04 	addi	r2,r2,-26820
 5080c90:	1080020b 	ldhu	r2,8(r2)
 5080c94:	e0bffd0d 	sth	r2,-12(fp)
    mask = 0x01 << 3;
 5080c98:	00800204 	movi	r2,8
 5080c9c:	e0bffd8d 	sth	r2,-10(fp)
    if (bEnable)
 5080ca0:	e0bfff17 	ldw	r2,-4(fp)
 5080ca4:	10000526 	beq	r2,zero,5080cbc <AUDIO_EnableByPass+0x48>
        control |= mask;
 5080ca8:	e0fffd0b 	ldhu	r3,-12(fp)
 5080cac:	e0bffd8b 	ldhu	r2,-10(fp)
 5080cb0:	1884b03a 	or	r2,r3,r2
 5080cb4:	e0bffd0d 	sth	r2,-12(fp)
 5080cb8:	00000606 	br	5080cd4 <AUDIO_EnableByPass+0x60>
    else        
        control &= ~mask;
 5080cbc:	e0bffd8b 	ldhu	r2,-10(fp)
 5080cc0:	0084303a 	nor	r2,zero,r2
 5080cc4:	1007883a 	mov	r3,r2
 5080cc8:	e0bffd0b 	ldhu	r2,-12(fp)
 5080ccc:	1884703a 	and	r2,r3,r2
 5080cd0:	e0bffd0d 	sth	r2,-12(fp)
    bSuccess = aduio_RegWrite(4, control); 
 5080cd4:	e0bffd0b 	ldhu	r2,-12(fp)
 5080cd8:	100b883a 	mov	r5,r2
 5080cdc:	01000104 	movi	r4,4
 5080ce0:	5080d8c0 	call	5080d8c <aduio_RegWrite>
 5080ce4:	e0bffe15 	stw	r2,-8(fp)
    return bSuccess;  	
 5080ce8:	e0bffe17 	ldw	r2,-8(fp)
}
 5080cec:	e037883a 	mov	sp,fp
 5080cf0:	dfc00117 	ldw	ra,4(sp)
 5080cf4:	df000017 	ldw	fp,0(sp)
 5080cf8:	dec00204 	addi	sp,sp,8
 5080cfc:	f800283a 	ret

05080d00 <AUDIO_EnableSiteTone>:

bool AUDIO_EnableSiteTone(bool bEnable){
 5080d00:	defffb04 	addi	sp,sp,-20
 5080d04:	dfc00415 	stw	ra,16(sp)
 5080d08:	df000315 	stw	fp,12(sp)
 5080d0c:	df000304 	addi	fp,sp,12
 5080d10:	e13fff15 	stw	r4,-4(fp)
    bool bSuccess;
    alt_u16 control;
    alt_u16 mask;
    control = reg_file[4];
 5080d14:	008142b4 	movhi	r2,1290
 5080d18:	10a5cf04 	addi	r2,r2,-26820
 5080d1c:	1080020b 	ldhu	r2,8(r2)
 5080d20:	e0bffd0d 	sth	r2,-12(fp)
    mask = 0x01 << 5;
 5080d24:	00800804 	movi	r2,32
 5080d28:	e0bffd8d 	sth	r2,-10(fp)
    if (bEnable)
 5080d2c:	e0bfff17 	ldw	r2,-4(fp)
 5080d30:	10000526 	beq	r2,zero,5080d48 <AUDIO_EnableSiteTone+0x48>
        control |= mask;
 5080d34:	e0fffd0b 	ldhu	r3,-12(fp)
 5080d38:	e0bffd8b 	ldhu	r2,-10(fp)
 5080d3c:	1884b03a 	or	r2,r3,r2
 5080d40:	e0bffd0d 	sth	r2,-12(fp)
 5080d44:	00000606 	br	5080d60 <AUDIO_EnableSiteTone+0x60>
    else        
        control &= ~mask;
 5080d48:	e0bffd8b 	ldhu	r2,-10(fp)
 5080d4c:	0084303a 	nor	r2,zero,r2
 5080d50:	1007883a 	mov	r3,r2
 5080d54:	e0bffd0b 	ldhu	r2,-12(fp)
 5080d58:	1884703a 	and	r2,r3,r2
 5080d5c:	e0bffd0d 	sth	r2,-12(fp)
    bSuccess = aduio_RegWrite(4, control); 
 5080d60:	e0bffd0b 	ldhu	r2,-12(fp)
 5080d64:	100b883a 	mov	r5,r2
 5080d68:	01000104 	movi	r4,4
 5080d6c:	5080d8c0 	call	5080d8c <aduio_RegWrite>
 5080d70:	e0bffe15 	stw	r2,-8(fp)
    return bSuccess;        
 5080d74:	e0bffe17 	ldw	r2,-8(fp)
}
 5080d78:	e037883a 	mov	sp,fp
 5080d7c:	dfc00117 	ldw	ra,4(sp)
 5080d80:	df000017 	ldw	fp,0(sp)
 5080d84:	dec00204 	addi	sp,sp,8
 5080d88:	f800283a 	ret

05080d8c <aduio_RegWrite>:

/////////////////////////////////////////////////////////////////////////
///////////// Interla function body ////////////////////////////////////
/////////////////////////////////////////////////////////////////////////

bool aduio_RegWrite(alt_u8 reg_index, alt_u16 data16){
 5080d8c:	defff904 	addi	sp,sp,-28
 5080d90:	dfc00615 	stw	ra,24(sp)
 5080d94:	df000515 	stw	fp,20(sp)
 5080d98:	df000504 	addi	fp,sp,20
 5080d9c:	2007883a 	mov	r3,r4
 5080da0:	2805883a 	mov	r2,r5
 5080da4:	e0fffe05 	stb	r3,-8(fp)
 5080da8:	e0bfff0d 	sth	r2,-4(fp)
    bool bSuccess;
    alt_u8 data, control;
    if (reg_index <= 10)
 5080dac:	e0bffe03 	ldbu	r2,-8(fp)
 5080db0:	108002e8 	cmpgeui	r2,r2,11
 5080db4:	1000071e 	bne	r2,zero,5080dd4 <aduio_RegWrite+0x48>
        reg_file[reg_index] = data16;
 5080db8:	e0fffe03 	ldbu	r3,-8(fp)
 5080dbc:	008142b4 	movhi	r2,1290
 5080dc0:	10a5cf04 	addi	r2,r2,-26820
 5080dc4:	18c7883a 	add	r3,r3,r3
 5080dc8:	10c5883a 	add	r2,r2,r3
 5080dcc:	e0ffff0b 	ldhu	r3,-4(fp)
 5080dd0:	10c0000d 	sth	r3,0(r2)
    data = data16 & 0xFF;
 5080dd4:	e0bfff0b 	ldhu	r2,-4(fp)
 5080dd8:	e0bffc05 	stb	r2,-16(fp)
    control = (reg_index << 1) & 0xFE;
 5080ddc:	e0bffe03 	ldbu	r2,-8(fp)
 5080de0:	1085883a 	add	r2,r2,r2
 5080de4:	e0bffc45 	stb	r2,-15(fp)
    control |= ((data16 >> 8) & 0x01);
 5080de8:	e0bfff0b 	ldhu	r2,-4(fp)
 5080dec:	1004d23a 	srli	r2,r2,8
 5080df0:	1080004c 	andi	r2,r2,1
 5080df4:	1007883a 	mov	r3,r2
 5080df8:	e0bffc43 	ldbu	r2,-15(fp)
 5080dfc:	1884b03a 	or	r2,r3,r2
 5080e00:	e0bffc45 	stb	r2,-15(fp)
    AUDIO_DEBUG(("[AUDIO] set audio reg[%02d] = %04Xh\r\n", reg_index, data16));
 5080e04:	e0bffe03 	ldbu	r2,-8(fp)
 5080e08:	e0ffff0b 	ldhu	r3,-4(fp)
 5080e0c:	180d883a 	mov	r6,r3
 5080e10:	100b883a 	mov	r5,r2
 5080e14:	01014274 	movhi	r4,1289
 5080e18:	2114ef04 	addi	r4,r4,21436
 5080e1c:	5081b2c0 	call	5081b2c <myprintf>
    bSuccess = I2C_Write(I2C_SCL_BASE, I2C_SDA_BASE, I2C_AUDIO_ADDR, control, data);
 5080e20:	e0fffc43 	ldbu	r3,-15(fp)
 5080e24:	e0bffc03 	ldbu	r2,-16(fp)
 5080e28:	d8800015 	stw	r2,0(sp)
 5080e2c:	180f883a 	mov	r7,r3
 5080e30:	01800d04 	movi	r6,52
 5080e34:	01410034 	movhi	r5,1024
 5080e38:	29400804 	addi	r5,r5,32
 5080e3c:	01010034 	movhi	r4,1024
 5080e40:	21000c04 	addi	r4,r4,48
 5080e44:	5080fd00 	call	5080fd0 <I2C_Write>
 5080e48:	e0bffd15 	stw	r2,-12(fp)
    if (!bSuccess) 
 5080e4c:	e0bffd17 	ldw	r2,-12(fp)
 5080e50:	1000031e 	bne	r2,zero,5080e60 <aduio_RegWrite+0xd4>
        AUDIO_DEBUG(("[AUDIO] write reg fail!!!!\r\n"));
 5080e54:	01014274 	movhi	r4,1289
 5080e58:	2114f904 	addi	r4,r4,21476
 5080e5c:	5081b2c0 	call	5081b2c <myprintf>
    usleep(50*1000);  // wait audio chip read        
 5080e60:	0130d414 	movui	r4,50000
 5080e64:	50932080 	call	5093208 <usleep>
    return bSuccess;        
 5080e68:	e0bffd17 	ldw	r2,-12(fp)
}
 5080e6c:	e037883a 	mov	sp,fp
 5080e70:	dfc00117 	ldw	ra,4(sp)
 5080e74:	df000017 	ldw	fp,0(sp)
 5080e78:	dec00204 	addi	sp,sp,8
 5080e7c:	f800283a 	ret

05080e80 <AUDIO_DacFifoNotFull>:

/////////////////////////////////////////////////////////////////////////
///////////// Audio Play & Recor ////////////////////////////////////////
/////////////////////////////////////////////////////////////////////////
// check whether the dac-fifo is full.
bool AUDIO_DacFifoNotFull(void){
 5080e80:	defffe04 	addi	sp,sp,-8
 5080e84:	df000115 	stw	fp,4(sp)
 5080e88:	df000104 	addi	fp,sp,4
    bool bReady;
    bReady = AUDIO_DAC_FULL()?FALSE:TRUE;
 5080e8c:	00814434 	movhi	r2,1296
 5080e90:	10840504 	addi	r2,r2,4116
 5080e94:	10800037 	ldwio	r2,0(r2)
 5080e98:	1080004c 	andi	r2,r2,1
 5080e9c:	1005003a 	cmpeq	r2,r2,zero
 5080ea0:	10803fcc 	andi	r2,r2,255
 5080ea4:	e0bfff15 	stw	r2,-4(fp)
    return bReady;
 5080ea8:	e0bfff17 	ldw	r2,-4(fp)
}
 5080eac:	e037883a 	mov	sp,fp
 5080eb0:	df000017 	ldw	fp,0(sp)
 5080eb4:	dec00104 	addi	sp,sp,4
 5080eb8:	f800283a 	ret

05080ebc <AUDIO_DacFifoSetData>:

// call AUDIO_PlayIsReady to make sure the fifo is not full before call this function 
void AUDIO_DacFifoSetData(short ch_left, short ch_right){
 5080ebc:	defffd04 	addi	sp,sp,-12
 5080ec0:	df000215 	stw	fp,8(sp)
 5080ec4:	df000204 	addi	fp,sp,8
 5080ec8:	2007883a 	mov	r3,r4
 5080ecc:	2805883a 	mov	r2,r5
 5080ed0:	e0fffe0d 	sth	r3,-8(fp)
 5080ed4:	e0bfff0d 	sth	r2,-4(fp)
    AUDIO_DAC_WRITE_L(ch_left);
 5080ed8:	e0fffe0f 	ldh	r3,-8(fp)
 5080edc:	00814434 	movhi	r2,1296
 5080ee0:	10840004 	addi	r2,r2,4096
 5080ee4:	10c00035 	stwio	r3,0(r2)
    AUDIO_DAC_WRITE_R(ch_right);
 5080ee8:	e0ffff0f 	ldh	r3,-4(fp)
 5080eec:	00814434 	movhi	r2,1296
 5080ef0:	10840104 	addi	r2,r2,4100
 5080ef4:	10c00035 	stwio	r3,0(r2)
}
 5080ef8:	0001883a 	nop
 5080efc:	e037883a 	mov	sp,fp
 5080f00:	df000017 	ldw	fp,0(sp)
 5080f04:	dec00104 	addi	sp,sp,4
 5080f08:	f800283a 	ret

05080f0c <AUDIO_AdcFifoNotEmpty>:

// wheck whether there is data available in adc-fifo
bool AUDIO_AdcFifoNotEmpty(void){
 5080f0c:	defffe04 	addi	sp,sp,-8
 5080f10:	df000115 	stw	fp,4(sp)
 5080f14:	df000104 	addi	fp,sp,4
    bool bReady;
    bReady = AUDIO_ADC_EMPTY()?FALSE:TRUE;
 5080f18:	00814434 	movhi	r2,1296
 5080f1c:	10840504 	addi	r2,r2,4116
 5080f20:	10800037 	ldwio	r2,0(r2)
 5080f24:	1080008c 	andi	r2,r2,2
 5080f28:	1005003a 	cmpeq	r2,r2,zero
 5080f2c:	10803fcc 	andi	r2,r2,255
 5080f30:	e0bfff15 	stw	r2,-4(fp)
    return bReady;
 5080f34:	e0bfff17 	ldw	r2,-4(fp)
}
 5080f38:	e037883a 	mov	sp,fp
 5080f3c:	df000017 	ldw	fp,0(sp)
 5080f40:	dec00104 	addi	sp,sp,4
 5080f44:	f800283a 	ret

05080f48 <AUDIO_AdcFifoGetData>:


// make sure the data is available before call this fucntion
void AUDIO_AdcFifoGetData(short *pch_left, short *pch_right){
 5080f48:	defffd04 	addi	sp,sp,-12
 5080f4c:	df000215 	stw	fp,8(sp)
 5080f50:	df000204 	addi	fp,sp,8
 5080f54:	e13ffe15 	stw	r4,-8(fp)
 5080f58:	e17fff15 	stw	r5,-4(fp)
    *pch_left = AUDIO_ADC_READ_L();
 5080f5c:	00814434 	movhi	r2,1296
 5080f60:	10840204 	addi	r2,r2,4104
 5080f64:	10800037 	ldwio	r2,0(r2)
 5080f68:	1007883a 	mov	r3,r2
 5080f6c:	e0bffe17 	ldw	r2,-8(fp)
 5080f70:	10c0000d 	sth	r3,0(r2)
    *pch_right = AUDIO_ADC_READ_R();
 5080f74:	00814434 	movhi	r2,1296
 5080f78:	10840304 	addi	r2,r2,4108
 5080f7c:	10800037 	ldwio	r2,0(r2)
 5080f80:	1007883a 	mov	r3,r2
 5080f84:	e0bfff17 	ldw	r2,-4(fp)
 5080f88:	10c0000d 	sth	r3,0(r2)
    
}
 5080f8c:	0001883a 	nop
 5080f90:	e037883a 	mov	sp,fp
 5080f94:	df000017 	ldw	fp,0(sp)
 5080f98:	dec00104 	addi	sp,sp,4
 5080f9c:	f800283a 	ret

05080fa0 <AUDIO_FifoClear>:

void AUDIO_FifoClear(void){
 5080fa0:	deffff04 	addi	sp,sp,-4
 5080fa4:	df000015 	stw	fp,0(sp)
 5080fa8:	d839883a 	mov	fp,sp
    AUDIO_FIFO_CLEAR();
 5080fac:	00c00044 	movi	r3,1
 5080fb0:	00814434 	movhi	r2,1296
 5080fb4:	10840404 	addi	r2,r2,4112
 5080fb8:	10c00035 	stwio	r3,0(r2)
}
 5080fbc:	0001883a 	nop
 5080fc0:	e037883a 	mov	sp,fp
 5080fc4:	df000017 	ldw	fp,0(sp)
 5080fc8:	dec00104 	addi	sp,sp,4
 5080fcc:	f800283a 	ret

05080fd0 <I2C_Write>:
bool i2c_write(alt_u32 clk_base, alt_u32 data_base, alt_u8 Data);
void i2c_read(alt_u32 clk_base, alt_u32 data_base, alt_u8 *pData, bool bAck);



bool I2C_Write(alt_u32 clk_base, alt_u32 data_base, alt_8 DeviceAddr, alt_u8 ControlAddr, alt_u8 ControlData){
 5080fd0:	defff804 	addi	sp,sp,-32
 5080fd4:	dfc00715 	stw	ra,28(sp)
 5080fd8:	df000615 	stw	fp,24(sp)
 5080fdc:	df000604 	addi	fp,sp,24
 5080fe0:	e13ffb15 	stw	r4,-20(fp)
 5080fe4:	e17ffc15 	stw	r5,-16(fp)
 5080fe8:	3009883a 	mov	r4,r6
 5080fec:	3807883a 	mov	r3,r7
 5080ff0:	e0800217 	ldw	r2,8(fp)
 5080ff4:	e13ffd05 	stb	r4,-12(fp)
 5080ff8:	e0fffe05 	stb	r3,-8(fp)
 5080ffc:	e0bfff05 	stb	r2,-4(fp)
    bool bSuccess = TRUE;
 5081000:	00800044 	movi	r2,1
 5081004:	e0bffa15 	stw	r2,-24(fp)
    //alt_u8 DeviceAddr;
    
    // device id
    //DeviceAddr = HMB_E2_I2C_ID;

    i2c_start(clk_base, data_base);
 5081008:	e17ffc17 	ldw	r5,-16(fp)
 508100c:	e13ffb17 	ldw	r4,-20(fp)
 5081010:	508136c0 	call	508136c <i2c_start>
    if (!i2c_write(clk_base, data_base, DeviceAddr)){  // send ID
 5081014:	e0bffd03 	ldbu	r2,-12(fp)
 5081018:	10803fcc 	andi	r2,r2,255
 508101c:	100d883a 	mov	r6,r2
 5081020:	e17ffc17 	ldw	r5,-16(fp)
 5081024:	e13ffb17 	ldw	r4,-20(fp)
 5081028:	50814700 	call	5081470 <i2c_write>
 508102c:	1000041e 	bne	r2,zero,5081040 <I2C_Write+0x70>
        bSuccess = FALSE;
 5081030:	e03ffa15 	stw	zero,-24(fp)
        I2C_DEBUG(("I2C HMB_E2 Fail: Address NACK!\n"));
 5081034:	01014274 	movhi	r4,1289
 5081038:	21150104 	addi	r4,r4,21508
 508103c:	5081b2c0 	call	5081b2c <myprintf>
    }
    if (bSuccess && !i2c_write(clk_base, data_base, ControlAddr)){ // send sub-address
 5081040:	e0bffa17 	ldw	r2,-24(fp)
 5081044:	10000a26 	beq	r2,zero,5081070 <I2C_Write+0xa0>
 5081048:	e0bffe03 	ldbu	r2,-8(fp)
 508104c:	100d883a 	mov	r6,r2
 5081050:	e17ffc17 	ldw	r5,-16(fp)
 5081054:	e13ffb17 	ldw	r4,-20(fp)
 5081058:	50814700 	call	5081470 <i2c_write>
 508105c:	1000041e 	bne	r2,zero,5081070 <I2C_Write+0xa0>
        bSuccess = FALSE;
 5081060:	e03ffa15 	stw	zero,-24(fp)
        I2C_DEBUG(("I2C HMB_E2 Fail: SubAddress NACK!\n"));
 5081064:	01014274 	movhi	r4,1289
 5081068:	21150904 	addi	r4,r4,21540
 508106c:	5081b2c0 	call	5081b2c <myprintf>
    }            
    if (bSuccess && !i2c_write(clk_base, data_base, ControlData)){  
 5081070:	e0bffa17 	ldw	r2,-24(fp)
 5081074:	10000a26 	beq	r2,zero,50810a0 <I2C_Write+0xd0>
 5081078:	e0bfff03 	ldbu	r2,-4(fp)
 508107c:	100d883a 	mov	r6,r2
 5081080:	e17ffc17 	ldw	r5,-16(fp)
 5081084:	e13ffb17 	ldw	r4,-20(fp)
 5081088:	50814700 	call	5081470 <i2c_write>
 508108c:	1000041e 	bne	r2,zero,50810a0 <I2C_Write+0xd0>
        bSuccess = FALSE;
 5081090:	e03ffa15 	stw	zero,-24(fp)
        I2C_DEBUG(("I2C HMB_E2 Fail: write NACK!\n"));
 5081094:	01014274 	movhi	r4,1289
 5081098:	21151204 	addi	r4,r4,21576
 508109c:	5081b2c0 	call	5081b2c <myprintf>
    }
    i2c_stop(clk_base, data_base);
 50810a0:	e17ffc17 	ldw	r5,-16(fp)
 50810a4:	e13ffb17 	ldw	r4,-20(fp)
 50810a8:	50813f80 	call	50813f8 <i2c_stop>
    
    usleep(7*1000); // delay to wait EE2 ready (at least 5 ms delay is required)
 50810ac:	0106d604 	movi	r4,7000
 50810b0:	50932080 	call	5093208 <usleep>
    
    return bSuccess;
 50810b4:	e0bffa17 	ldw	r2,-24(fp)

    
}
 50810b8:	e037883a 	mov	sp,fp
 50810bc:	dfc00117 	ldw	ra,4(sp)
 50810c0:	df000017 	ldw	fp,0(sp)
 50810c4:	dec00204 	addi	sp,sp,8
 50810c8:	f800283a 	ret

050810cc <I2C_Read>:

bool I2C_Read(alt_u32 clk_base, alt_u32 data_base, alt_8 DeviceAddr, alt_u8 ControlAddr, alt_u8 *pControlData){
 50810cc:	defff904 	addi	sp,sp,-28
 50810d0:	dfc00615 	stw	ra,24(sp)
 50810d4:	df000515 	stw	fp,20(sp)
 50810d8:	df000504 	addi	fp,sp,20
 50810dc:	e13ffc15 	stw	r4,-16(fp)
 50810e0:	e17ffd15 	stw	r5,-12(fp)
 50810e4:	3007883a 	mov	r3,r6
 50810e8:	3805883a 	mov	r2,r7
 50810ec:	e0fffe05 	stb	r3,-8(fp)
 50810f0:	e0bfff05 	stb	r2,-4(fp)
    bool bSuccess = TRUE;
 50810f4:	00800044 	movi	r2,1
 50810f8:	e0bffb15 	stw	r2,-20(fp)
    //alt_u8 DeviceAddr;
   
    // device id
    //DeviceAddr = HMB_E2_I2C_ID;

    i2c_start(clk_base, data_base);
 50810fc:	e17ffd17 	ldw	r5,-12(fp)
 5081100:	e13ffc17 	ldw	r4,-16(fp)
 5081104:	508136c0 	call	508136c <i2c_start>
    if (!i2c_write(clk_base, data_base, DeviceAddr)){  // send ID
 5081108:	e0bffe03 	ldbu	r2,-8(fp)
 508110c:	10803fcc 	andi	r2,r2,255
 5081110:	100d883a 	mov	r6,r2
 5081114:	e17ffd17 	ldw	r5,-12(fp)
 5081118:	e13ffc17 	ldw	r4,-16(fp)
 508111c:	50814700 	call	5081470 <i2c_write>
 5081120:	1000041e 	bne	r2,zero,5081134 <I2C_Read+0x68>
        bSuccess = FALSE;
 5081124:	e03ffb15 	stw	zero,-20(fp)
        I2C_DEBUG(("I2C HMB_E2 Fail: Address NACK!\n"));
 5081128:	01014274 	movhi	r4,1289
 508112c:	21150104 	addi	r4,r4,21508
 5081130:	5081b2c0 	call	5081b2c <myprintf>
    }
    if (bSuccess && !i2c_write(clk_base, data_base, ControlAddr)){ // send sub-address
 5081134:	e0bffb17 	ldw	r2,-20(fp)
 5081138:	10000a26 	beq	r2,zero,5081164 <I2C_Read+0x98>
 508113c:	e0bfff03 	ldbu	r2,-4(fp)
 5081140:	100d883a 	mov	r6,r2
 5081144:	e17ffd17 	ldw	r5,-12(fp)
 5081148:	e13ffc17 	ldw	r4,-16(fp)
 508114c:	50814700 	call	5081470 <i2c_write>
 5081150:	1000041e 	bne	r2,zero,5081164 <I2C_Read+0x98>
        bSuccess = FALSE;
 5081154:	e03ffb15 	stw	zero,-20(fp)
        I2C_DEBUG(("I2C HMB_E2 Fail: SubAddress NACK!\n"));
 5081158:	01014274 	movhi	r4,1289
 508115c:	21150904 	addi	r4,r4,21540
 5081160:	5081b2c0 	call	5081b2c <myprintf>
    }            
    i2c_start(clk_base, data_base);  // restart
 5081164:	e17ffd17 	ldw	r5,-12(fp)
 5081168:	e13ffc17 	ldw	r4,-16(fp)
 508116c:	508136c0 	call	508136c <i2c_start>
    DeviceAddr |= 1; // Read
 5081170:	e0bffe03 	ldbu	r2,-8(fp)
 5081174:	10800054 	ori	r2,r2,1
 5081178:	e0bffe05 	stb	r2,-8(fp)
    if (bSuccess && !i2c_write(clk_base, data_base, DeviceAddr)){  // send id
 508117c:	e0bffb17 	ldw	r2,-20(fp)
 5081180:	10000b26 	beq	r2,zero,50811b0 <I2C_Read+0xe4>
 5081184:	e0bffe03 	ldbu	r2,-8(fp)
 5081188:	10803fcc 	andi	r2,r2,255
 508118c:	100d883a 	mov	r6,r2
 5081190:	e17ffd17 	ldw	r5,-12(fp)
 5081194:	e13ffc17 	ldw	r4,-16(fp)
 5081198:	50814700 	call	5081470 <i2c_write>
 508119c:	1000041e 	bne	r2,zero,50811b0 <I2C_Read+0xe4>
        bSuccess = FALSE;
 50811a0:	e03ffb15 	stw	zero,-20(fp)
        I2C_DEBUG(("I2C HMB_E2 Fail: Address+1 NACK!\n"));
 50811a4:	01014274 	movhi	r4,1289
 50811a8:	21151a04 	addi	r4,r4,21608
 50811ac:	5081b2c0 	call	5081b2c <myprintf>
    }
    
    if (bSuccess){
 50811b0:	e0bffb17 	ldw	r2,-20(fp)
 50811b4:	10000526 	beq	r2,zero,50811cc <I2C_Read+0x100>
        i2c_read(clk_base, data_base, pControlData, FALSE);  // read
 50811b8:	000f883a 	mov	r7,zero
 50811bc:	e1800217 	ldw	r6,8(fp)
 50811c0:	e17ffd17 	ldw	r5,-12(fp)
 50811c4:	e13ffc17 	ldw	r4,-16(fp)
 50811c8:	50815a00 	call	50815a0 <i2c_read>
    }        
    i2c_stop(clk_base, data_base);
 50811cc:	e17ffd17 	ldw	r5,-12(fp)
 50811d0:	e13ffc17 	ldw	r4,-16(fp)
 50811d4:	50813f80 	call	50813f8 <i2c_stop>
    
    return bSuccess;
 50811d8:	e0bffb17 	ldw	r2,-20(fp)
}
 50811dc:	e037883a 	mov	sp,fp
 50811e0:	dfc00117 	ldw	ra,4(sp)
 50811e4:	df000017 	ldw	fp,0(sp)
 50811e8:	dec00204 	addi	sp,sp,8
 50811ec:	f800283a 	ret

050811f0 <I2C_MultipleRead>:

bool I2C_MultipleRead(alt_u32 clk_base, alt_u32 data_base, alt_8 DeviceAddr, alt_u8 szData[], alt_u16 len){
 50811f0:	defff604 	addi	sp,sp,-40
 50811f4:	dfc00915 	stw	ra,36(sp)
 50811f8:	df000815 	stw	fp,32(sp)
 50811fc:	df000804 	addi	fp,sp,32
 5081200:	e13ffb15 	stw	r4,-20(fp)
 5081204:	e17ffc15 	stw	r5,-16(fp)
 5081208:	3007883a 	mov	r3,r6
 508120c:	e1fffe15 	stw	r7,-8(fp)
 5081210:	e0800217 	ldw	r2,8(fp)
 5081214:	e0fffd05 	stb	r3,-12(fp)
 5081218:	e0bfff0d 	sth	r2,-4(fp)
    int i;
    bool bSuccess = TRUE;
 508121c:	00800044 	movi	r2,1
 5081220:	e0bff915 	stw	r2,-28(fp)
    //alt_u8 DeviceAddr, 
    alt_u8 ControlAddr = 0;
 5081224:	e03ffa05 	stb	zero,-24(fp)
    
   
    // device id
    //DeviceAddr = HMB_E2_I2C_ID;

    i2c_start(clk_base, data_base);
 5081228:	e17ffc17 	ldw	r5,-16(fp)
 508122c:	e13ffb17 	ldw	r4,-20(fp)
 5081230:	508136c0 	call	508136c <i2c_start>
    if (!i2c_write(clk_base, data_base, DeviceAddr)){  // send ID
 5081234:	e0bffd03 	ldbu	r2,-12(fp)
 5081238:	10803fcc 	andi	r2,r2,255
 508123c:	100d883a 	mov	r6,r2
 5081240:	e17ffc17 	ldw	r5,-16(fp)
 5081244:	e13ffb17 	ldw	r4,-20(fp)
 5081248:	50814700 	call	5081470 <i2c_write>
 508124c:	1000041e 	bne	r2,zero,5081260 <I2C_MultipleRead+0x70>
        bSuccess = FALSE;
 5081250:	e03ff915 	stw	zero,-28(fp)
        I2C_DEBUG(("I2C HMB_E2 Fail: Address NACK!\n"));
 5081254:	01014274 	movhi	r4,1289
 5081258:	21150104 	addi	r4,r4,21508
 508125c:	5081b2c0 	call	5081b2c <myprintf>
    }
    if (bSuccess && !i2c_write(clk_base, data_base, ControlAddr)){ // send sub-address
 5081260:	e0bff917 	ldw	r2,-28(fp)
 5081264:	10000a26 	beq	r2,zero,5081290 <I2C_MultipleRead+0xa0>
 5081268:	e0bffa03 	ldbu	r2,-24(fp)
 508126c:	100d883a 	mov	r6,r2
 5081270:	e17ffc17 	ldw	r5,-16(fp)
 5081274:	e13ffb17 	ldw	r4,-20(fp)
 5081278:	50814700 	call	5081470 <i2c_write>
 508127c:	1000041e 	bne	r2,zero,5081290 <I2C_MultipleRead+0xa0>
        bSuccess = FALSE;
 5081280:	e03ff915 	stw	zero,-28(fp)
        I2C_DEBUG(("I2C HMB_E2 Fail: SubAddress NACK!\n"));
 5081284:	01014274 	movhi	r4,1289
 5081288:	21150904 	addi	r4,r4,21540
 508128c:	5081b2c0 	call	5081b2c <myprintf>
    }    
    if (bSuccess)        
 5081290:	e0bff917 	ldw	r2,-28(fp)
 5081294:	10000326 	beq	r2,zero,50812a4 <I2C_MultipleRead+0xb4>
        i2c_start(clk_base, data_base);  // restart
 5081298:	e17ffc17 	ldw	r5,-16(fp)
 508129c:	e13ffb17 	ldw	r4,-20(fp)
 50812a0:	508136c0 	call	508136c <i2c_start>
    DeviceAddr |= 1; // Read
 50812a4:	e0bffd03 	ldbu	r2,-12(fp)
 50812a8:	10800054 	ori	r2,r2,1
 50812ac:	e0bffd05 	stb	r2,-12(fp)
    if (bSuccess && !i2c_write(clk_base, data_base, DeviceAddr)){  // send id
 50812b0:	e0bff917 	ldw	r2,-28(fp)
 50812b4:	10000b26 	beq	r2,zero,50812e4 <I2C_MultipleRead+0xf4>
 50812b8:	e0bffd03 	ldbu	r2,-12(fp)
 50812bc:	10803fcc 	andi	r2,r2,255
 50812c0:	100d883a 	mov	r6,r2
 50812c4:	e17ffc17 	ldw	r5,-16(fp)
 50812c8:	e13ffb17 	ldw	r4,-20(fp)
 50812cc:	50814700 	call	5081470 <i2c_write>
 50812d0:	1000041e 	bne	r2,zero,50812e4 <I2C_MultipleRead+0xf4>
        bSuccess = FALSE;
 50812d4:	e03ff915 	stw	zero,-28(fp)
        I2C_DEBUG(("I2C HMB_E2 Fail: Address+1 NACK!\n"));
 50812d8:	01014274 	movhi	r4,1289
 50812dc:	21151a04 	addi	r4,r4,21608
 50812e0:	5081b2c0 	call	5081b2c <myprintf>
    }
    
    if (bSuccess){
 50812e4:	e0bff917 	ldw	r2,-28(fp)
 50812e8:	10001726 	beq	r2,zero,5081348 <I2C_MultipleRead+0x158>
        for(i=0;i<len && bSuccess;i++){
 50812ec:	e03ff815 	stw	zero,-32(fp)
 50812f0:	00001006 	br	5081334 <I2C_MultipleRead+0x144>
            i2c_read(clk_base, data_base, &szData[i], (i==(len-1))?FALSE:TRUE);  // read
 50812f4:	e0bff817 	ldw	r2,-32(fp)
 50812f8:	e0fffe17 	ldw	r3,-8(fp)
 50812fc:	1889883a 	add	r4,r3,r2
 5081300:	e0bfff0b 	ldhu	r2,-4(fp)
 5081304:	10ffffc4 	addi	r3,r2,-1
 5081308:	e0bff817 	ldw	r2,-32(fp)
 508130c:	1884c03a 	cmpne	r2,r3,r2
 5081310:	10803fcc 	andi	r2,r2,255
 5081314:	100f883a 	mov	r7,r2
 5081318:	200d883a 	mov	r6,r4
 508131c:	e17ffc17 	ldw	r5,-16(fp)
 5081320:	e13ffb17 	ldw	r4,-20(fp)
 5081324:	50815a00 	call	50815a0 <i2c_read>
        bSuccess = FALSE;
        I2C_DEBUG(("I2C HMB_E2 Fail: Address+1 NACK!\n"));
    }
    
    if (bSuccess){
        for(i=0;i<len && bSuccess;i++){
 5081328:	e0bff817 	ldw	r2,-32(fp)
 508132c:	10800044 	addi	r2,r2,1
 5081330:	e0bff815 	stw	r2,-32(fp)
 5081334:	e0bfff0b 	ldhu	r2,-4(fp)
 5081338:	e0fff817 	ldw	r3,-32(fp)
 508133c:	1880020e 	bge	r3,r2,5081348 <I2C_MultipleRead+0x158>
 5081340:	e0bff917 	ldw	r2,-28(fp)
 5081344:	103feb1e 	bne	r2,zero,50812f4 <__alt_data_end+0xfffb30f4>
            i2c_read(clk_base, data_base, &szData[i], (i==(len-1))?FALSE:TRUE);  // read
        }            
    }        
    i2c_stop(clk_base, data_base);
 5081348:	e17ffc17 	ldw	r5,-16(fp)
 508134c:	e13ffb17 	ldw	r4,-20(fp)
 5081350:	50813f80 	call	50813f8 <i2c_stop>
    
    return bSuccess;    
 5081354:	e0bff917 	ldw	r2,-28(fp)
    
}
 5081358:	e037883a 	mov	sp,fp
 508135c:	dfc00117 	ldw	ra,4(sp)
 5081360:	df000017 	ldw	fp,0(sp)
 5081364:	dec00204 	addi	sp,sp,8
 5081368:	f800283a 	ret

0508136c <i2c_start>:
///////////// Interncal function (i2cXXX) body //////////////////////////////////////////////
/////////////////////////////////////////////////////////////////////////////////////////////


//SDA 1->0 while SCL=1
void i2c_start(alt_u32 clk_base, alt_u32 data_base){
 508136c:	defffc04 	addi	sp,sp,-16
 5081370:	dfc00315 	stw	ra,12(sp)
 5081374:	df000215 	stw	fp,8(sp)
 5081378:	df000204 	addi	fp,sp,8
 508137c:	e13ffe15 	stw	r4,-8(fp)
 5081380:	e17fff15 	stw	r5,-4(fp)
    
    // make sure it is in normal state
    SDA_DIR_OUT(data_base);  // data output enabled
 5081384:	e0bfff17 	ldw	r2,-4(fp)
 5081388:	10800104 	addi	r2,r2,4
 508138c:	1007883a 	mov	r3,r2
 5081390:	00800044 	movi	r2,1
 5081394:	18800035 	stwio	r2,0(r3)
    
    
    
    // start condition 
    SDA_HIGH(data_base); // data high
 5081398:	e0bfff17 	ldw	r2,-4(fp)
 508139c:	00c00044 	movi	r3,1
 50813a0:	10c00035 	stwio	r3,0(r2)
    SCL_HIGH(clk_base);
 50813a4:	e0bffe17 	ldw	r2,-8(fp)
 50813a8:	00c00044 	movi	r3,1
 50813ac:	10c00035 	stwio	r3,0(r2)
    SCL_DELAY;
 50813b0:	01000044 	movi	r4,1
 50813b4:	50932080 	call	5093208 <usleep>
     
    SDA_LOW(data_base); // data low
 50813b8:	e0bfff17 	ldw	r2,-4(fp)
 50813bc:	0007883a 	mov	r3,zero
 50813c0:	10c00035 	stwio	r3,0(r2)
    SCL_DELAY; 
 50813c4:	01000044 	movi	r4,1
 50813c8:	50932080 	call	5093208 <usleep>
    SCL_LOW(clk_base); // clock low
 50813cc:	e0bffe17 	ldw	r2,-8(fp)
 50813d0:	0007883a 	mov	r3,zero
 50813d4:	10c00035 	stwio	r3,0(r2)
    SCL_DELAY;
 50813d8:	01000044 	movi	r4,1
 50813dc:	50932080 	call	5093208 <usleep>
}
 50813e0:	0001883a 	nop
 50813e4:	e037883a 	mov	sp,fp
 50813e8:	dfc00117 	ldw	ra,4(sp)
 50813ec:	df000017 	ldw	fp,0(sp)
 50813f0:	dec00204 	addi	sp,sp,8
 50813f4:	f800283a 	ret

050813f8 <i2c_stop>:

// SDA 0->1 while SCL=1
void i2c_stop(alt_u32 clk_base, alt_u32 data_base){
 50813f8:	defffc04 	addi	sp,sp,-16
 50813fc:	dfc00315 	stw	ra,12(sp)
 5081400:	df000215 	stw	fp,8(sp)
 5081404:	df000204 	addi	fp,sp,8
 5081408:	e13ffe15 	stw	r4,-8(fp)
 508140c:	e17fff15 	stw	r5,-4(fp)
    // assume SCL = 0
    
    SDA_DIR_OUT(data_base);  // data output enabled
 5081410:	e0bfff17 	ldw	r2,-4(fp)
 5081414:	10800104 	addi	r2,r2,4
 5081418:	1007883a 	mov	r3,r2
 508141c:	00800044 	movi	r2,1
 5081420:	18800035 	stwio	r2,0(r3)
    SDA_LOW(data_base); // Data Low
 5081424:	e0bfff17 	ldw	r2,-4(fp)
 5081428:	0007883a 	mov	r3,zero
 508142c:	10c00035 	stwio	r3,0(r2)
    //SCL_DELAY; 
    SCL_HIGH(clk_base);  // clock high
 5081430:	e0bffe17 	ldw	r2,-8(fp)
 5081434:	00c00044 	movi	r3,1
 5081438:	10c00035 	stwio	r3,0(r2)
    SCL_DELAY; // clock high long delay
 508143c:	01000044 	movi	r4,1
 5081440:	50932080 	call	5093208 <usleep>
    SDA_HIGH(data_base); // data high
 5081444:	e0bfff17 	ldw	r2,-4(fp)
 5081448:	00c00044 	movi	r3,1
 508144c:	10c00035 	stwio	r3,0(r2)
    SCL_DELAY; // data high delay
 5081450:	01000044 	movi	r4,1
 5081454:	50932080 	call	5093208 <usleep>
}
 5081458:	0001883a 	nop
 508145c:	e037883a 	mov	sp,fp
 5081460:	dfc00117 	ldw	ra,4(sp)
 5081464:	df000017 	ldw	fp,0(sp)
 5081468:	dec00204 	addi	sp,sp,8
 508146c:	f800283a 	ret

05081470 <i2c_write>:

bool i2c_write(alt_u32 clk_base, alt_u32 data_base, alt_u8 Data){ // return true if device response ack
 5081470:	defff804 	addi	sp,sp,-32
 5081474:	dfc00715 	stw	ra,28(sp)
 5081478:	df000615 	stw	fp,24(sp)
 508147c:	df000604 	addi	fp,sp,24
 5081480:	e13ffd15 	stw	r4,-12(fp)
 5081484:	e17ffe15 	stw	r5,-8(fp)
 5081488:	3005883a 	mov	r2,r6
 508148c:	e0bfff05 	stb	r2,-4(fp)
    alt_u8 Mask = 0x80;
 5081490:	00bfe004 	movi	r2,-128
 5081494:	e0bffa05 	stb	r2,-24(fp)
    bool bAck;
    int i;
    
    // assume, SCL = 0
    
    SDA_DIR_OUT(data_base);  // data write mode
 5081498:	e0bffe17 	ldw	r2,-8(fp)
 508149c:	10800104 	addi	r2,r2,4
 50814a0:	1007883a 	mov	r3,r2
 50814a4:	00800044 	movi	r2,1
 50814a8:	18800035 	stwio	r2,0(r3)
    
    for(i=0;i<8;i++){
 50814ac:	e03ffb15 	stw	zero,-20(fp)
 50814b0:	00001f06 	br	5081530 <i2c_write+0xc0>
        SCL_LOW(clk_base);  // new, make sure data change at clk low
 50814b4:	e0bffd17 	ldw	r2,-12(fp)
 50814b8:	0007883a 	mov	r3,zero
 50814bc:	10c00035 	stwio	r3,0(r2)
        // output data on bus
        if (Data & Mask){ // there is a delay in this command
 50814c0:	e0ffff03 	ldbu	r3,-4(fp)
 50814c4:	e0bffa03 	ldbu	r2,-24(fp)
 50814c8:	1884703a 	and	r2,r3,r2
 50814cc:	10803fcc 	andi	r2,r2,255
 50814d0:	10000426 	beq	r2,zero,50814e4 <i2c_write+0x74>
            SDA_HIGH(data_base);
 50814d4:	e0bffe17 	ldw	r2,-8(fp)
 50814d8:	00c00044 	movi	r3,1
 50814dc:	10c00035 	stwio	r3,0(r2)
 50814e0:	00000306 	br	50814f0 <i2c_write+0x80>
        }else{    
            SDA_LOW(data_base);
 50814e4:	e0bffe17 	ldw	r2,-8(fp)
 50814e8:	0007883a 	mov	r3,zero
 50814ec:	10c00035 	stwio	r3,0(r2)
        }
        Mask >>= 1; // there is a delay in this command
 50814f0:	e0bffa03 	ldbu	r2,-24(fp)
 50814f4:	1004d07a 	srli	r2,r2,1
 50814f8:	e0bffa05 	stb	r2,-24(fp)
        // clock high
        SCL_HIGH(clk_base);
 50814fc:	e0bffd17 	ldw	r2,-12(fp)
 5081500:	00c00044 	movi	r3,1
 5081504:	10c00035 	stwio	r3,0(r2)
        SCL_DELAY;
 5081508:	01000044 	movi	r4,1
 508150c:	50932080 	call	5093208 <usleep>
        SCL_LOW(clk_base);
 5081510:	e0bffd17 	ldw	r2,-12(fp)
 5081514:	0007883a 	mov	r3,zero
 5081518:	10c00035 	stwio	r3,0(r2)
        SCL_DELAY;
 508151c:	01000044 	movi	r4,1
 5081520:	50932080 	call	5093208 <usleep>
    
    // assume, SCL = 0
    
    SDA_DIR_OUT(data_base);  // data write mode
    
    for(i=0;i<8;i++){
 5081524:	e0bffb17 	ldw	r2,-20(fp)
 5081528:	10800044 	addi	r2,r2,1
 508152c:	e0bffb15 	stw	r2,-20(fp)
 5081530:	e0bffb17 	ldw	r2,-20(fp)
 5081534:	10800210 	cmplti	r2,r2,8
 5081538:	103fde1e 	bne	r2,zero,50814b4 <__alt_data_end+0xfffb32b4>
        SCL_LOW(clk_base);
        SCL_DELAY;
    }
    
    //===== get ack
    SDA_DIR_IN(data_base);  // data read mode
 508153c:	e0bffe17 	ldw	r2,-8(fp)
 5081540:	10800104 	addi	r2,r2,4
 5081544:	0007883a 	mov	r3,zero
 5081548:	10c00035 	stwio	r3,0(r2)
    //SCL_DELAY;
    // clock high
    SCL_HIGH(clk_base);  // clock high
 508154c:	e0bffd17 	ldw	r2,-12(fp)
 5081550:	00c00044 	movi	r3,1
 5081554:	10c00035 	stwio	r3,0(r2)
    SCL_DELAY;  // clock high delay
 5081558:	01000044 	movi	r4,1
 508155c:	50932080 	call	5093208 <usleep>
    bAck = SDA_READ(data_base)?FALSE:TRUE;  // get ack
 5081560:	e0bffe17 	ldw	r2,-8(fp)
 5081564:	10800037 	ldwio	r2,0(r2)
 5081568:	1005003a 	cmpeq	r2,r2,zero
 508156c:	10803fcc 	andi	r2,r2,255
 5081570:	e0bffc15 	stw	r2,-16(fp)
    //SCL_DELAY;
    //SDA_DIR_OUT;
    SCL_LOW(clk_base); // clock low         
 5081574:	e0bffd17 	ldw	r2,-12(fp)
 5081578:	0007883a 	mov	r3,zero
 508157c:	10c00035 	stwio	r3,0(r2)
    SCL_DELAY; // clock low delay
 5081580:	01000044 	movi	r4,1
 5081584:	50932080 	call	5093208 <usleep>
    return bAck;
 5081588:	e0bffc17 	ldw	r2,-16(fp)
}    
 508158c:	e037883a 	mov	sp,fp
 5081590:	dfc00117 	ldw	ra,4(sp)
 5081594:	df000017 	ldw	fp,0(sp)
 5081598:	dec00204 	addi	sp,sp,8
 508159c:	f800283a 	ret

050815a0 <i2c_read>:

void i2c_read(alt_u32 clk_base, alt_u32 data_base, alt_u8 *pData, bool bAck){ // return true if device response ack
 50815a0:	defff804 	addi	sp,sp,-32
 50815a4:	dfc00715 	stw	ra,28(sp)
 50815a8:	df000615 	stw	fp,24(sp)
 50815ac:	df000604 	addi	fp,sp,24
 50815b0:	e13ffc15 	stw	r4,-16(fp)
 50815b4:	e17ffd15 	stw	r5,-12(fp)
 50815b8:	e1bffe15 	stw	r6,-8(fp)
 50815bc:	e1ffff15 	stw	r7,-4(fp)
    alt_u8 Data=0;
 50815c0:	e03ffa05 	stb	zero,-24(fp)
    int i;
    
    // assume SCL = low
    
    SDA_DIR_IN(data_base);  // set data read mode
 50815c4:	e0bffd17 	ldw	r2,-12(fp)
 50815c8:	10800104 	addi	r2,r2,4
 50815cc:	0007883a 	mov	r3,zero
 50815d0:	10c00035 	stwio	r3,0(r2)
    SCL_LOW(clk_base); // clock low
 50815d4:	e0bffc17 	ldw	r2,-16(fp)
 50815d8:	0007883a 	mov	r3,zero
 50815dc:	10c00035 	stwio	r3,0(r2)
    SCL_DELAY; // clock low delay
 50815e0:	01000044 	movi	r4,1
 50815e4:	50932080 	call	5093208 <usleep>

    for(i=0;i<8;i++){
 50815e8:	e03ffb15 	stw	zero,-20(fp)
 50815ec:	00001606 	br	5081648 <i2c_read+0xa8>
        Data <<= 1;
 50815f0:	e0bffa03 	ldbu	r2,-24(fp)
 50815f4:	1085883a 	add	r2,r2,r2
 50815f8:	e0bffa05 	stb	r2,-24(fp)
        SCL_HIGH(clk_base);  // clock high
 50815fc:	e0bffc17 	ldw	r2,-16(fp)
 5081600:	00c00044 	movi	r3,1
 5081604:	10c00035 	stwio	r3,0(r2)
        SCL_DELAY;
 5081608:	01000044 	movi	r4,1
 508160c:	50932080 	call	5093208 <usleep>
        if (SDA_READ(data_base))  // read data   
 5081610:	e0bffd17 	ldw	r2,-12(fp)
 5081614:	10800037 	ldwio	r2,0(r2)
 5081618:	10000326 	beq	r2,zero,5081628 <i2c_read+0x88>
            Data |= 0x01;
 508161c:	e0bffa03 	ldbu	r2,-24(fp)
 5081620:	10800054 	ori	r2,r2,1
 5081624:	e0bffa05 	stb	r2,-24(fp)
        SCL_LOW(clk_base);  // clock log  
 5081628:	e0bffc17 	ldw	r2,-16(fp)
 508162c:	0007883a 	mov	r3,zero
 5081630:	10c00035 	stwio	r3,0(r2)
        SCL_DELAY;
 5081634:	01000044 	movi	r4,1
 5081638:	50932080 	call	5093208 <usleep>
    
    SDA_DIR_IN(data_base);  // set data read mode
    SCL_LOW(clk_base); // clock low
    SCL_DELAY; // clock low delay

    for(i=0;i<8;i++){
 508163c:	e0bffb17 	ldw	r2,-20(fp)
 5081640:	10800044 	addi	r2,r2,1
 5081644:	e0bffb15 	stw	r2,-20(fp)
 5081648:	e0bffb17 	ldw	r2,-20(fp)
 508164c:	10800210 	cmplti	r2,r2,8
 5081650:	103fe71e 	bne	r2,zero,50815f0 <__alt_data_end+0xfffb33f0>
        SCL_LOW(clk_base);  // clock log  
        SCL_DELAY;
    }
    
    // send ACK
    SCL_LOW(clk_base);  // new, make sure data change at clk low
 5081654:	e0bffc17 	ldw	r2,-16(fp)
 5081658:	0007883a 	mov	r3,zero
 508165c:	10c00035 	stwio	r3,0(r2)
    SDA_DIR_OUT(data_base);  // set data write mode
 5081660:	e0bffd17 	ldw	r2,-12(fp)
 5081664:	10800104 	addi	r2,r2,4
 5081668:	1007883a 	mov	r3,r2
 508166c:	00800044 	movi	r2,1
 5081670:	18800035 	stwio	r2,0(r3)
    if (bAck)
 5081674:	e0bfff17 	ldw	r2,-4(fp)
 5081678:	10000426 	beq	r2,zero,508168c <i2c_read+0xec>
        SDA_LOW(data_base);
 508167c:	e0bffd17 	ldw	r2,-12(fp)
 5081680:	0007883a 	mov	r3,zero
 5081684:	10c00035 	stwio	r3,0(r2)
 5081688:	00000306 	br	5081698 <i2c_read+0xf8>
    else
        SDA_HIGH(data_base);
 508168c:	e0bffd17 	ldw	r2,-12(fp)
 5081690:	00c00044 	movi	r3,1
 5081694:	10c00035 	stwio	r3,0(r2)
    SCL_HIGH(clk_base); // clock high
 5081698:	e0bffc17 	ldw	r2,-16(fp)
 508169c:	00c00044 	movi	r3,1
 50816a0:	10c00035 	stwio	r3,0(r2)
    SCL_DELAY; // clock high  delay
 50816a4:	01000044 	movi	r4,1
 50816a8:	50932080 	call	5093208 <usleep>
    SCL_LOW(clk_base); // clock low
 50816ac:	e0bffc17 	ldw	r2,-16(fp)
 50816b0:	0007883a 	mov	r3,zero
 50816b4:	10c00035 	stwio	r3,0(r2)
    SCL_DELAY; // clock low delay
 50816b8:	01000044 	movi	r4,1
 50816bc:	50932080 	call	5093208 <usleep>
    SDA_LOW(data_base);  // data low
 50816c0:	e0bffd17 	ldw	r2,-12(fp)
 50816c4:	0007883a 	mov	r3,zero
 50816c8:	10c00035 	stwio	r3,0(r2)
    SCL_DELAY; // data low delay
 50816cc:	01000044 	movi	r4,1
 50816d0:	50932080 	call	5093208 <usleep>
//    SDA_DIR_IN;  // set data read mode
    
    *pData = Data;
 50816d4:	e0bffe17 	ldw	r2,-8(fp)
 50816d8:	e0fffa03 	ldbu	r3,-24(fp)
 50816dc:	10c00005 	stb	r3,0(r2)
}
 50816e0:	0001883a 	nop
 50816e4:	e037883a 	mov	sp,fp
 50816e8:	dfc00117 	ldw	ra,4(sp)
 50816ec:	df000017 	ldw	fp,0(sp)
 50816f0:	dec00204 	addi	sp,sp,8
 50816f4:	f800283a 	ret

050816f8 <LED_Display>:
#define LED_INIT_MASK   (0x01 << 24)

#define LED_SET(mask)   IOWR_ALTERA_AVALON_PIO_DATA(PIO_LED_BASE, mask)


void LED_Display(alt_u32 Mask){ // 1: light, 0:unlight
 50816f8:	defffd04 	addi	sp,sp,-12
 50816fc:	df000215 	stw	fp,8(sp)
 5081700:	df000204 	addi	fp,sp,8
 5081704:	e13fff15 	stw	r4,-4(fp)
    alt_u32 ThisMask;
    ThisMask = Mask;//~(Mask & 0x7FFFFFF);
 5081708:	e0bfff17 	ldw	r2,-4(fp)
 508170c:	e0bffe15 	stw	r2,-8(fp)
    LED_SET(ThisMask);  //0:ligh, 1:unlight
 5081710:	e0fffe17 	ldw	r3,-8(fp)
 5081714:	00810034 	movhi	r2,1024
 5081718:	10801404 	addi	r2,r2,80
 508171c:	10c00035 	stwio	r3,0(r2)
    
}
 5081720:	0001883a 	nop
 5081724:	e037883a 	mov	sp,fp
 5081728:	df000017 	ldw	fp,0(sp)
 508172c:	dec00104 	addi	sp,sp,4
 5081730:	f800283a 	ret

05081734 <LED_AllOn>:


void LED_AllOn(void){
 5081734:	defffe04 	addi	sp,sp,-8
 5081738:	dfc00115 	stw	ra,4(sp)
 508173c:	df000015 	stw	fp,0(sp)
 5081740:	d839883a 	mov	fp,sp
    LED_Display(0xFFFFFFFF);       
 5081744:	013fffc4 	movi	r4,-1
 5081748:	50816f80 	call	50816f8 <LED_Display>
}
 508174c:	0001883a 	nop
 5081750:	e037883a 	mov	sp,fp
 5081754:	dfc00117 	ldw	ra,4(sp)
 5081758:	df000017 	ldw	fp,0(sp)
 508175c:	dec00204 	addi	sp,sp,8
 5081760:	f800283a 	ret

05081764 <LED_AllOff>:

void LED_AllOff(void){
 5081764:	defffe04 	addi	sp,sp,-8
 5081768:	dfc00115 	stw	ra,4(sp)
 508176c:	df000015 	stw	fp,0(sp)
 5081770:	d839883a 	mov	fp,sp
    LED_Display(0x00);       
 5081774:	0009883a 	mov	r4,zero
 5081778:	50816f80 	call	50816f8 <LED_Display>
}
 508177c:	0001883a 	nop
 5081780:	e037883a 	mov	sp,fp
 5081784:	dfc00117 	ldw	ra,4(sp)
 5081788:	df000017 	ldw	fp,0(sp)
 508178c:	dec00204 	addi	sp,sp,8
 5081790:	f800283a 	ret

05081794 <LED_LightCount>:


void LED_LightCount(alt_u8 LightCount){ // 1: light, 0:unlight
 5081794:	defffb04 	addi	sp,sp,-20
 5081798:	dfc00415 	stw	ra,16(sp)
 508179c:	df000315 	stw	fp,12(sp)
 50817a0:	df000304 	addi	fp,sp,12
 50817a4:	2005883a 	mov	r2,r4
 50817a8:	e0bfff05 	stb	r2,-4(fp)
    alt_u32 Mask = 0;
 50817ac:	e03ffd15 	stw	zero,-12(fp)
    int i;
    for(i=0;i<LightCount;i++){
 50817b0:	e03ffe15 	stw	zero,-8(fp)
 50817b4:	00000906 	br	50817dc <LED_LightCount+0x48>
        Mask <<= 1;
 50817b8:	e0bffd17 	ldw	r2,-12(fp)
 50817bc:	1085883a 	add	r2,r2,r2
 50817c0:	e0bffd15 	stw	r2,-12(fp)
        Mask |= 0x01;
 50817c4:	e0bffd17 	ldw	r2,-12(fp)
 50817c8:	10800054 	ori	r2,r2,1
 50817cc:	e0bffd15 	stw	r2,-12(fp)


void LED_LightCount(alt_u8 LightCount){ // 1: light, 0:unlight
    alt_u32 Mask = 0;
    int i;
    for(i=0;i<LightCount;i++){
 50817d0:	e0bffe17 	ldw	r2,-8(fp)
 50817d4:	10800044 	addi	r2,r2,1
 50817d8:	e0bffe15 	stw	r2,-8(fp)
 50817dc:	e0bfff03 	ldbu	r2,-4(fp)
 50817e0:	e0fffe17 	ldw	r3,-8(fp)
 50817e4:	18bff416 	blt	r3,r2,50817b8 <__alt_data_end+0xfffb35b8>
        Mask <<= 1;
        Mask |= 0x01;
    }
    LED_Display(Mask);  //0:ligh, 1:unlight
 50817e8:	e13ffd17 	ldw	r4,-12(fp)
 50817ec:	50816f80 	call	50816f8 <LED_Display>
    
}
 50817f0:	0001883a 	nop
 50817f4:	e037883a 	mov	sp,fp
 50817f8:	dfc00117 	ldw	ra,4(sp)
 50817fc:	df000017 	ldw	fp,0(sp)
 5081800:	dec00204 	addi	sp,sp,8
 5081804:	f800283a 	ret

05081808 <SEG7_Clear>:
static    unsigned char szMap[] = {
        63, 6, 91, 79, 102, 109, 125, 7, 
        127, 111, 119, 124, 57, 94, 121, 113
    };  // 0,1,2,....9, a, b, c, d, e, f
    
void SEG7_Clear(void){
 5081808:	defffe04 	addi	sp,sp,-8
 508180c:	df000115 	stw	fp,4(sp)
 5081810:	df000104 	addi	fp,sp,4
    int i;
    for(i=0;i<SEG7_NUM;i++){
 5081814:	e03fff15 	stw	zero,-4(fp)
 5081818:	00000b06 	br	5081848 <SEG7_Clear+0x40>
        SEG7_SET(i, 0x00);
 508181c:	e0bfff17 	ldw	r2,-4(fp)
 5081820:	1085883a 	add	r2,r2,r2
 5081824:	1085883a 	add	r2,r2,r2
 5081828:	1007883a 	mov	r3,r2
 508182c:	00810034 	movhi	r2,1024
 5081830:	1885883a 	add	r2,r3,r2
 5081834:	0007883a 	mov	r3,zero
 5081838:	10c00035 	stwio	r3,0(r2)
        127, 111, 119, 124, 57, 94, 121, 113
    };  // 0,1,2,....9, a, b, c, d, e, f
    
void SEG7_Clear(void){
    int i;
    for(i=0;i<SEG7_NUM;i++){
 508183c:	e0bfff17 	ldw	r2,-4(fp)
 5081840:	10800044 	addi	r2,r2,1
 5081844:	e0bfff15 	stw	r2,-4(fp)
 5081848:	e0bfff17 	ldw	r2,-4(fp)
 508184c:	10800190 	cmplti	r2,r2,6
 5081850:	103ff21e 	bne	r2,zero,508181c <__alt_data_end+0xfffb361c>
        SEG7_SET(i, 0x00);
    }        
}
 5081854:	0001883a 	nop
 5081858:	e037883a 	mov	sp,fp
 508185c:	df000017 	ldw	fp,0(sp)
 5081860:	dec00104 	addi	sp,sp,4
 5081864:	f800283a 	ret

05081868 <SEG7_Full>:
void SEG7_Full(void){
 5081868:	defffe04 	addi	sp,sp,-8
 508186c:	df000115 	stw	fp,4(sp)
 5081870:	df000104 	addi	fp,sp,4
    int i;
    for(i=0;i<SEG7_NUM;i++){
 5081874:	e03fff15 	stw	zero,-4(fp)
 5081878:	00000b06 	br	50818a8 <SEG7_Full+0x40>
        SEG7_SET(i, 0xFF);
 508187c:	e0bfff17 	ldw	r2,-4(fp)
 5081880:	1085883a 	add	r2,r2,r2
 5081884:	1085883a 	add	r2,r2,r2
 5081888:	1007883a 	mov	r3,r2
 508188c:	00810034 	movhi	r2,1024
 5081890:	1885883a 	add	r2,r3,r2
 5081894:	00c03fc4 	movi	r3,255
 5081898:	10c00035 	stwio	r3,0(r2)
        SEG7_SET(i, 0x00);
    }        
}
void SEG7_Full(void){
    int i;
    for(i=0;i<SEG7_NUM;i++){
 508189c:	e0bfff17 	ldw	r2,-4(fp)
 50818a0:	10800044 	addi	r2,r2,1
 50818a4:	e0bfff15 	stw	r2,-4(fp)
 50818a8:	e0bfff17 	ldw	r2,-4(fp)
 50818ac:	10800190 	cmplti	r2,r2,6
 50818b0:	103ff21e 	bne	r2,zero,508187c <__alt_data_end+0xfffb367c>
        SEG7_SET(i, 0xFF);
    }        
}
 50818b4:	0001883a 	nop
 50818b8:	e037883a 	mov	sp,fp
 50818bc:	df000017 	ldw	fp,0(sp)
 50818c0:	dec00104 	addi	sp,sp,4
 50818c4:	f800283a 	ret

050818c8 <SEG7_Number>:

void SEG7_Number(void){
 50818c8:	defffe04 	addi	sp,sp,-8
 50818cc:	df000115 	stw	fp,4(sp)
 50818d0:	df000104 	addi	fp,sp,4
    int i;
    for(i=0;i<SEG7_NUM;i++){
 50818d4:	e03fff15 	stw	zero,-4(fp)
 50818d8:	00001006 	br	508191c <SEG7_Number+0x54>
        SEG7_SET(i, szMap[i]);
 50818dc:	e0bfff17 	ldw	r2,-4(fp)
 50818e0:	1085883a 	add	r2,r2,r2
 50818e4:	1085883a 	add	r2,r2,r2
 50818e8:	1007883a 	mov	r3,r2
 50818ec:	00810034 	movhi	r2,1024
 50818f0:	1887883a 	add	r3,r3,r2
 50818f4:	00814274 	movhi	r2,1289
 50818f8:	10984004 	addi	r2,r2,24832
 50818fc:	e13fff17 	ldw	r4,-4(fp)
 5081900:	1105883a 	add	r2,r2,r4
 5081904:	10800003 	ldbu	r2,0(r2)
 5081908:	10803fcc 	andi	r2,r2,255
 508190c:	18800035 	stwio	r2,0(r3)
    }        
}

void SEG7_Number(void){
    int i;
    for(i=0;i<SEG7_NUM;i++){
 5081910:	e0bfff17 	ldw	r2,-4(fp)
 5081914:	10800044 	addi	r2,r2,1
 5081918:	e0bfff15 	stw	r2,-4(fp)
 508191c:	e0bfff17 	ldw	r2,-4(fp)
 5081920:	10800190 	cmplti	r2,r2,6
 5081924:	103fed1e 	bne	r2,zero,50818dc <__alt_data_end+0xfffb36dc>
        SEG7_SET(i, szMap[i]);
    }        
}
 5081928:	0001883a 	nop
 508192c:	e037883a 	mov	sp,fp
 5081930:	df000017 	ldw	fp,0(sp)
 5081934:	dec00104 	addi	sp,sp,4
 5081938:	f800283a 	ret

0508193c <SEG7_Hex>:

void SEG7_Hex(alt_u32 Data, alt_u8 point_mask){
 508193c:	defffb04 	addi	sp,sp,-20
 5081940:	df000415 	stw	fp,16(sp)
 5081944:	df000404 	addi	fp,sp,16
 5081948:	e13ffe15 	stw	r4,-8(fp)
 508194c:	2805883a 	mov	r2,r5
 5081950:	e0bfff05 	stb	r2,-4(fp)
    alt_u8 mask = 0x01;
 5081954:	00800044 	movi	r2,1
 5081958:	e0bffc05 	stb	r2,-16(fp)
    alt_u8 seg_mask;
    int i;
    
    //
    seg_mask = 0;
 508195c:	e03ffc45 	stb	zero,-15(fp)
    for(i=0;i<SEG7_NUM;i++){
 5081960:	e03ffd15 	stw	zero,-12(fp)
 5081964:	00002106 	br	50819ec <SEG7_Hex+0xb0>
        seg_mask = szMap[Data & 0x0F];
 5081968:	e0bffe17 	ldw	r2,-8(fp)
 508196c:	10c003cc 	andi	r3,r2,15
 5081970:	00814274 	movhi	r2,1289
 5081974:	10984004 	addi	r2,r2,24832
 5081978:	10c5883a 	add	r2,r2,r3
 508197c:	10800003 	ldbu	r2,0(r2)
 5081980:	e0bffc45 	stb	r2,-15(fp)
        Data >>= 4;
 5081984:	e0bffe17 	ldw	r2,-8(fp)
 5081988:	1004d13a 	srli	r2,r2,4
 508198c:	e0bffe15 	stw	r2,-8(fp)
        if (point_mask & mask)
 5081990:	e0ffff03 	ldbu	r3,-4(fp)
 5081994:	e0bffc03 	ldbu	r2,-16(fp)
 5081998:	1884703a 	and	r2,r3,r2
 508199c:	10803fcc 	andi	r2,r2,255
 50819a0:	10000426 	beq	r2,zero,50819b4 <SEG7_Hex+0x78>
            seg_mask |= 0x80;
 50819a4:	e0fffc43 	ldbu	r3,-15(fp)
 50819a8:	00bfe004 	movi	r2,-128
 50819ac:	1884b03a 	or	r2,r3,r2
 50819b0:	e0bffc45 	stb	r2,-15(fp)
        mask <<= 1;     
 50819b4:	e0bffc03 	ldbu	r2,-16(fp)
 50819b8:	1085883a 	add	r2,r2,r2
 50819bc:	e0bffc05 	stb	r2,-16(fp)
        SEG7_SET(i, seg_mask);
 50819c0:	e0bffd17 	ldw	r2,-12(fp)
 50819c4:	1085883a 	add	r2,r2,r2
 50819c8:	1085883a 	add	r2,r2,r2
 50819cc:	1007883a 	mov	r3,r2
 50819d0:	00810034 	movhi	r2,1024
 50819d4:	1885883a 	add	r2,r3,r2
 50819d8:	e0fffc43 	ldbu	r3,-15(fp)
 50819dc:	10c00035 	stwio	r3,0(r2)
    alt_u8 seg_mask;
    int i;
    
    //
    seg_mask = 0;
    for(i=0;i<SEG7_NUM;i++){
 50819e0:	e0bffd17 	ldw	r2,-12(fp)
 50819e4:	10800044 	addi	r2,r2,1
 50819e8:	e0bffd15 	stw	r2,-12(fp)
 50819ec:	e0bffd17 	ldw	r2,-12(fp)
 50819f0:	10800190 	cmplti	r2,r2,6
 50819f4:	103fdc1e 	bne	r2,zero,5081968 <__alt_data_end+0xfffb3768>
        if (point_mask & mask)
            seg_mask |= 0x80;
        mask <<= 1;     
        SEG7_SET(i, seg_mask);
    }        
}
 50819f8:	0001883a 	nop
 50819fc:	e037883a 	mov	sp,fp
 5081a00:	df000017 	ldw	fp,0(sp)
 5081a04:	dec00104 	addi	sp,sp,4
 5081a08:	f800283a 	ret

05081a0c <SEG7_Decimal>:

void SEG7_Decimal(alt_u32 Data, alt_u8 point_mask){
 5081a0c:	defffa04 	addi	sp,sp,-24
 5081a10:	dfc00515 	stw	ra,20(sp)
 5081a14:	df000415 	stw	fp,16(sp)
 5081a18:	df000404 	addi	fp,sp,16
 5081a1c:	e13ffe15 	stw	r4,-8(fp)
 5081a20:	2805883a 	mov	r2,r5
 5081a24:	e0bfff05 	stb	r2,-4(fp)
    alt_u8 mask = 0x01;
 5081a28:	00800044 	movi	r2,1
 5081a2c:	e0bffc05 	stb	r2,-16(fp)
    alt_u8 seg_mask;
    int i;
    
    //
    seg_mask = 0;
 5081a30:	e03ffc45 	stb	zero,-15(fp)
    for(i=0;i<SEG7_NUM;i++){
 5081a34:	e03ffd15 	stw	zero,-12(fp)
 5081a38:	00002606 	br	5081ad4 <SEG7_Decimal+0xc8>
        seg_mask = szMap[Data%10];
 5081a3c:	e0bffe17 	ldw	r2,-8(fp)
 5081a40:	01400284 	movi	r5,10
 5081a44:	1009883a 	mov	r4,r2
 5081a48:	50828e80 	call	50828e8 <__umodsi3>
 5081a4c:	1007883a 	mov	r3,r2
 5081a50:	00814274 	movhi	r2,1289
 5081a54:	10984004 	addi	r2,r2,24832
 5081a58:	10c5883a 	add	r2,r2,r3
 5081a5c:	10800003 	ldbu	r2,0(r2)
 5081a60:	e0bffc45 	stb	r2,-15(fp)
        Data /= 10;
 5081a64:	e0bffe17 	ldw	r2,-8(fp)
 5081a68:	01400284 	movi	r5,10
 5081a6c:	1009883a 	mov	r4,r2
 5081a70:	50828840 	call	5082884 <__udivsi3>
 5081a74:	e0bffe15 	stw	r2,-8(fp)
        if (point_mask & mask)
 5081a78:	e0ffff03 	ldbu	r3,-4(fp)
 5081a7c:	e0bffc03 	ldbu	r2,-16(fp)
 5081a80:	1884703a 	and	r2,r3,r2
 5081a84:	10803fcc 	andi	r2,r2,255
 5081a88:	10000426 	beq	r2,zero,5081a9c <SEG7_Decimal+0x90>
            seg_mask |= 0x80;
 5081a8c:	e0fffc43 	ldbu	r3,-15(fp)
 5081a90:	00bfe004 	movi	r2,-128
 5081a94:	1884b03a 	or	r2,r3,r2
 5081a98:	e0bffc45 	stb	r2,-15(fp)
        mask <<= 1;   
 5081a9c:	e0bffc03 	ldbu	r2,-16(fp)
 5081aa0:	1085883a 	add	r2,r2,r2
 5081aa4:	e0bffc05 	stb	r2,-16(fp)
        SEG7_SET(i, seg_mask);
 5081aa8:	e0bffd17 	ldw	r2,-12(fp)
 5081aac:	1085883a 	add	r2,r2,r2
 5081ab0:	1085883a 	add	r2,r2,r2
 5081ab4:	1007883a 	mov	r3,r2
 5081ab8:	00810034 	movhi	r2,1024
 5081abc:	1885883a 	add	r2,r3,r2
 5081ac0:	e0fffc43 	ldbu	r3,-15(fp)
 5081ac4:	10c00035 	stwio	r3,0(r2)
    alt_u8 seg_mask;
    int i;
    
    //
    seg_mask = 0;
    for(i=0;i<SEG7_NUM;i++){
 5081ac8:	e0bffd17 	ldw	r2,-12(fp)
 5081acc:	10800044 	addi	r2,r2,1
 5081ad0:	e0bffd15 	stw	r2,-12(fp)
 5081ad4:	e0bffd17 	ldw	r2,-12(fp)
 5081ad8:	10800190 	cmplti	r2,r2,6
 5081adc:	103fd71e 	bne	r2,zero,5081a3c <__alt_data_end+0xfffb383c>
            seg_mask |= 0x80;
        mask <<= 1;   
        SEG7_SET(i, seg_mask);
    }        
  
} 
 5081ae0:	0001883a 	nop
 5081ae4:	e037883a 	mov	sp,fp
 5081ae8:	dfc00117 	ldw	ra,4(sp)
 5081aec:	df000017 	ldw	fp,0(sp)
 5081af0:	dec00204 	addi	sp,sp,8
 5081af4:	f800283a 	ret

05081af8 <debug_output>:
    if (!UART_IsOpened())
        UART_Open();
    UART_WriteString(pMessage);  // UART debug
}
#else
void debug_output(char *pMessage){
 5081af8:	defffd04 	addi	sp,sp,-12
 5081afc:	dfc00215 	stw	ra,8(sp)
 5081b00:	df000115 	stw	fp,4(sp)
 5081b04:	df000104 	addi	fp,sp,4
 5081b08:	e13fff15 	stw	r4,-4(fp)
    printf(pMessage);
 5081b0c:	e13fff17 	ldw	r4,-4(fp)
 5081b10:	50829700 	call	5082970 <printf>
}
 5081b14:	0001883a 	nop
 5081b18:	e037883a 	mov	sp,fp
 5081b1c:	dfc00117 	ldw	ra,4(sp)
 5081b20:	df000017 	ldw	fp,0(sp)
 5081b24:	dec00204 	addi	sp,sp,8
 5081b28:	f800283a 	ret

05081b2c <myprintf>:

#endif


int myprintf(char *format, ...){
 5081b2c:	deff7804 	addi	sp,sp,-544
 5081b30:	dfc08415 	stw	ra,528(sp)
 5081b34:	df008315 	stw	fp,524(sp)
 5081b38:	df008304 	addi	fp,sp,524
 5081b3c:	e13fff15 	stw	r4,-4(fp)
 5081b40:	e1400215 	stw	r5,8(fp)
 5081b44:	e1800315 	stw	r6,12(fp)
 5081b48:	e1c00415 	stw	r7,16(fp)
    int rc;
    char szText[512];
    
    va_list paramList;
    va_start(paramList, format);
 5081b4c:	e0800204 	addi	r2,fp,8
 5081b50:	e0bffe15 	stw	r2,-8(fp)
    rc = vsnprintf(szText, 512, format, paramList);
 5081b54:	e0fffe17 	ldw	r3,-8(fp)
 5081b58:	e0bf7e04 	addi	r2,fp,-520
 5081b5c:	180f883a 	mov	r7,r3
 5081b60:	e1bfff17 	ldw	r6,-4(fp)
 5081b64:	01408004 	movi	r5,512
 5081b68:	1009883a 	mov	r4,r2
 5081b6c:	50871740 	call	5087174 <vsnprintf>
 5081b70:	e0bf7d15 	stw	r2,-524(fp)
    va_end(paramList);
    
    debug_output(szText);
 5081b74:	e0bf7e04 	addi	r2,fp,-520
 5081b78:	1009883a 	mov	r4,r2
 5081b7c:	5081af80 	call	5081af8 <debug_output>

    return rc;    
 5081b80:	e0bf7d17 	ldw	r2,-524(fp)
}
 5081b84:	e037883a 	mov	sp,fp
 5081b88:	dfc00117 	ldw	ra,4(sp)
 5081b8c:	df000017 	ldw	fp,0(sp)
 5081b90:	dec00504 	addi	sp,sp,20
 5081b94:	f800283a 	ret

05081b98 <myprintf_hex_array>:


int myprintf_hex_array(unsigned char *pHex, int len){
 5081b98:	defff704 	addi	sp,sp,-36
 5081b9c:	dfc00815 	stw	ra,32(sp)
 5081ba0:	df000715 	stw	fp,28(sp)
 5081ba4:	df000704 	addi	fp,sp,28
 5081ba8:	e13ffe15 	stw	r4,-8(fp)
 5081bac:	e17fff15 	stw	r5,-4(fp)
    int i;
    unsigned char szText[16];
    for(i=0;i<len;i++){
 5081bb0:	e03ff915 	stw	zero,-28(fp)
 5081bb4:	00001106 	br	5081bfc <myprintf_hex_array+0x64>
        sprintf(szText, "[%02X]", *(pHex+i));
 5081bb8:	e0bff917 	ldw	r2,-28(fp)
 5081bbc:	e0fffe17 	ldw	r3,-8(fp)
 5081bc0:	1885883a 	add	r2,r3,r2
 5081bc4:	10800003 	ldbu	r2,0(r2)
 5081bc8:	10c03fcc 	andi	r3,r2,255
 5081bcc:	e0bffa04 	addi	r2,fp,-24
 5081bd0:	180d883a 	mov	r6,r3
 5081bd4:	01414274 	movhi	r5,1289
 5081bd8:	29552304 	addi	r5,r5,21644
 5081bdc:	1009883a 	mov	r4,r2
 5081be0:	5082ad80 	call	5082ad8 <sprintf>
        DEBUG((szText));
 5081be4:	e0bffa04 	addi	r2,fp,-24
 5081be8:	1009883a 	mov	r4,r2
 5081bec:	5081b2c0 	call	5081b2c <myprintf>


int myprintf_hex_array(unsigned char *pHex, int len){
    int i;
    unsigned char szText[16];
    for(i=0;i<len;i++){
 5081bf0:	e0bff917 	ldw	r2,-28(fp)
 5081bf4:	10800044 	addi	r2,r2,1
 5081bf8:	e0bff915 	stw	r2,-28(fp)
 5081bfc:	e0fff917 	ldw	r3,-28(fp)
 5081c00:	e0bfff17 	ldw	r2,-4(fp)
 5081c04:	18bfec16 	blt	r3,r2,5081bb8 <__alt_data_end+0xfffb39b8>
        sprintf(szText, "[%02X]", *(pHex+i));
        DEBUG((szText));
    }
    return len;
 5081c08:	e0bfff17 	ldw	r2,-4(fp)
}
 5081c0c:	e037883a 	mov	sp,fp
 5081c10:	dfc00117 	ldw	ra,4(sp)
 5081c14:	df000017 	ldw	fp,0(sp)
 5081c18:	dec00204 	addi	sp,sp,8
 5081c1c:	f800283a 	ret

05081c20 <myprintf_dword_array>:

int  myprintf_dword_array(unsigned int *pArray, int nElementCount){
 5081c20:	defff704 	addi	sp,sp,-36
 5081c24:	dfc00815 	stw	ra,32(sp)
 5081c28:	df000715 	stw	fp,28(sp)
 5081c2c:	df000704 	addi	fp,sp,28
 5081c30:	e13ffe15 	stw	r4,-8(fp)
 5081c34:	e17fff15 	stw	r5,-4(fp)
    int i;
    char szText[16];
    for(i=0;i<nElementCount;i++){
 5081c38:	e03ff915 	stw	zero,-28(fp)
 5081c3c:	00001306 	br	5081c8c <myprintf_dword_array+0x6c>
        sprintf(szText, "[%08X]", *(pArray+i));
 5081c40:	e0bff917 	ldw	r2,-28(fp)
 5081c44:	1085883a 	add	r2,r2,r2
 5081c48:	1085883a 	add	r2,r2,r2
 5081c4c:	1007883a 	mov	r3,r2
 5081c50:	e0bffe17 	ldw	r2,-8(fp)
 5081c54:	10c5883a 	add	r2,r2,r3
 5081c58:	10c00017 	ldw	r3,0(r2)
 5081c5c:	e0bffa04 	addi	r2,fp,-24
 5081c60:	180d883a 	mov	r6,r3
 5081c64:	01414274 	movhi	r5,1289
 5081c68:	29552504 	addi	r5,r5,21652
 5081c6c:	1009883a 	mov	r4,r2
 5081c70:	5082ad80 	call	5082ad8 <sprintf>
        DEBUG((szText));
 5081c74:	e0bffa04 	addi	r2,fp,-24
 5081c78:	1009883a 	mov	r4,r2
 5081c7c:	5081b2c0 	call	5081b2c <myprintf>
}

int  myprintf_dword_array(unsigned int *pArray, int nElementCount){
    int i;
    char szText[16];
    for(i=0;i<nElementCount;i++){
 5081c80:	e0bff917 	ldw	r2,-28(fp)
 5081c84:	10800044 	addi	r2,r2,1
 5081c88:	e0bff915 	stw	r2,-28(fp)
 5081c8c:	e0fff917 	ldw	r3,-28(fp)
 5081c90:	e0bfff17 	ldw	r2,-4(fp)
 5081c94:	18bfea16 	blt	r3,r2,5081c40 <__alt_data_end+0xfffb3a40>
        sprintf(szText, "[%08X]", *(pArray+i));
        DEBUG((szText));
    }
    return nElementCount;
 5081c98:	e0bfff17 	ldw	r2,-4(fp)
}
 5081c9c:	e037883a 	mov	sp,fp
 5081ca0:	dfc00117 	ldw	ra,4(sp)
 5081ca4:	df000017 	ldw	fp,0(sp)
 5081ca8:	dec00204 	addi	sp,sp,8
 5081cac:	f800283a 	ret

05081cb0 <ui_is_mic_record>:
int record_sample_rate;

///////////////////////////////////////////////////////////////////////////////
//////////// Internal function implement(body) ////////////////////////////////
///////////////////////////////////////////////////////////////////////////////
bool ui_is_mic_record(void){
 5081cb0:	defffe04 	addi	sp,sp,-8
 5081cb4:	df000115 	stw	fp,4(sp)
 5081cb8:	df000104 	addi	fp,sp,4
    bool bMicRecord;
    bMicRecord = (IORD(SW_BASE, 0) & 0x01)?FALSE:TRUE;
 5081cbc:	00810034 	movhi	r2,1024
 5081cc0:	10801004 	addi	r2,r2,64
 5081cc4:	10800037 	ldwio	r2,0(r2)
 5081cc8:	1080004c 	andi	r2,r2,1
 5081ccc:	1005003a 	cmpeq	r2,r2,zero
 5081cd0:	10803fcc 	andi	r2,r2,255
 5081cd4:	e0bfff15 	stw	r2,-4(fp)
    return bMicRecord;
 5081cd8:	e0bfff17 	ldw	r2,-4(fp)
}
 5081cdc:	e037883a 	mov	sp,fp
 5081ce0:	df000017 	ldw	fp,0(sp)
 5081ce4:	dec00104 	addi	sp,sp,4
 5081ce8:	f800283a 	ret

05081cec <ui_is_mic_boost>:

bool ui_is_mic_boost(void){
 5081cec:	defffe04 	addi	sp,sp,-8
 5081cf0:	df000115 	stw	fp,4(sp)
 5081cf4:	df000104 	addi	fp,sp,4
    bool bMicBoost;
    bMicBoost = (IORD(SW_BASE, 0) & (0x01 << 1))?TRUE:FALSE;
 5081cf8:	00810034 	movhi	r2,1024
 5081cfc:	10801004 	addi	r2,r2,64
 5081d00:	10800037 	ldwio	r2,0(r2)
 5081d04:	1080008c 	andi	r2,r2,2
 5081d08:	1004c03a 	cmpne	r2,r2,zero
 5081d0c:	10803fcc 	andi	r2,r2,255
 5081d10:	e0bfff15 	stw	r2,-4(fp)
    return bMicBoost;
 5081d14:	e0bfff17 	ldw	r2,-4(fp)
}
 5081d18:	e037883a 	mov	sp,fp
 5081d1c:	df000017 	ldw	fp,0(sp)
 5081d20:	dec00104 	addi	sp,sp,4
 5081d24:	f800283a 	ret

05081d28 <ui_is_dac_zero_cross>:

bool ui_is_dac_zero_cross(void){
 5081d28:	defffe04 	addi	sp,sp,-8
 5081d2c:	df000115 	stw	fp,4(sp)
 5081d30:	df000104 	addi	fp,sp,4
    bool bZeroCross;
    bZeroCross = (IORD(SW_BASE, 0) & (0x01 << 2))?TRUE:FALSE;
 5081d34:	00810034 	movhi	r2,1024
 5081d38:	10801004 	addi	r2,r2,64
 5081d3c:	10800037 	ldwio	r2,0(r2)
 5081d40:	1080010c 	andi	r2,r2,4
 5081d44:	1004c03a 	cmpne	r2,r2,zero
 5081d48:	10803fcc 	andi	r2,r2,255
 5081d4c:	e0bfff15 	stw	r2,-4(fp)
    return bZeroCross;
 5081d50:	e0bfff17 	ldw	r2,-4(fp)
}
 5081d54:	e037883a 	mov	sp,fp
 5081d58:	df000017 	ldw	fp,0(sp)
 5081d5c:	dec00104 	addi	sp,sp,4
 5081d60:	f800283a 	ret

05081d64 <ui_get_sample_rate>:

int ui_get_sample_rate(void){
 5081d64:	defffd04 	addi	sp,sp,-12
 5081d68:	df000215 	stw	fp,8(sp)
 5081d6c:	df000204 	addi	fp,sp,8
    int sample_rate = 96000;
 5081d70:	00800074 	movhi	r2,1
 5081d74:	109dc004 	addi	r2,r2,30464
 5081d78:	e0bffe15 	stw	r2,-8(fp)
    alt_u32 mask;
    mask = IORD(SW_BASE, 0);
 5081d7c:	00810034 	movhi	r2,1024
 5081d80:	10801004 	addi	r2,r2,64
 5081d84:	10800037 	ldwio	r2,0(r2)
 5081d88:	e0bfff15 	stw	r2,-4(fp)
    mask = (mask >> 3) & 0x07;
 5081d8c:	e0bfff17 	ldw	r2,-4(fp)
 5081d90:	1004d0fa 	srli	r2,r2,3
 5081d94:	108001cc 	andi	r2,r2,7
 5081d98:	e0bfff15 	stw	r2,-4(fp)
    if (mask == 1)
 5081d9c:	e0bfff17 	ldw	r2,-4(fp)
 5081da0:	10800058 	cmpnei	r2,r2,1
 5081da4:	1000031e 	bne	r2,zero,5081db4 <ui_get_sample_rate+0x50>
        sample_rate = 48000;
 5081da8:	00aee014 	movui	r2,48000
 5081dac:	e0bffe15 	stw	r2,-8(fp)
 5081db0:	00001106 	br	5081df8 <ui_get_sample_rate+0x94>
    else if (mask == 2)
 5081db4:	e0bfff17 	ldw	r2,-4(fp)
 5081db8:	10800098 	cmpnei	r2,r2,2
 5081dbc:	1000031e 	bne	r2,zero,5081dcc <ui_get_sample_rate+0x68>
        sample_rate = 44100;
 5081dc0:	00ab1114 	movui	r2,44100
 5081dc4:	e0bffe15 	stw	r2,-8(fp)
 5081dc8:	00000b06 	br	5081df8 <ui_get_sample_rate+0x94>
    else if (mask == 3)
 5081dcc:	e0bfff17 	ldw	r2,-4(fp)
 5081dd0:	108000d8 	cmpnei	r2,r2,3
 5081dd4:	1000031e 	bne	r2,zero,5081de4 <ui_get_sample_rate+0x80>
        sample_rate = 32000;
 5081dd8:	009f4004 	movi	r2,32000
 5081ddc:	e0bffe15 	stw	r2,-8(fp)
 5081de0:	00000506 	br	5081df8 <ui_get_sample_rate+0x94>
    else if (mask == 4)
 5081de4:	e0bfff17 	ldw	r2,-4(fp)
 5081de8:	10800118 	cmpnei	r2,r2,4
 5081dec:	1000021e 	bne	r2,zero,5081df8 <ui_get_sample_rate+0x94>
        sample_rate = 8000;
 5081df0:	0087d004 	movi	r2,8000
 5081df4:	e0bffe15 	stw	r2,-8(fp)
    return sample_rate;
 5081df8:	e0bffe17 	ldw	r2,-8(fp)
}
 5081dfc:	e037883a 	mov	sp,fp
 5081e00:	df000017 	ldw	fp,0(sp)
 5081e04:	dec00104 	addi	sp,sp,4
 5081e08:	f800283a 	ret

05081e0c <button_monitor_isr>:

void button_monitor_isr(void* context, alt_u32 id){
 5081e0c:	defffc04 	addi	sp,sp,-16
 5081e10:	df000315 	stw	fp,12(sp)
 5081e14:	df000304 	addi	fp,sp,12
 5081e18:	e13ffe15 	stw	r4,-8(fp)
 5081e1c:	e17fff15 	stw	r5,-4(fp)
    volatile alt_u32* pPressedMask = (volatile alt_u32*)context;
 5081e20:	e0bffe17 	ldw	r2,-8(fp)
 5081e24:	e0bffd15 	stw	r2,-12(fp)
    *pPressedMask |= IORD_ALTERA_AVALON_PIO_EDGE_CAP(KEY_BASE) & 0x0F;  // 4-button
 5081e28:	00810034 	movhi	r2,1024
 5081e2c:	10801b04 	addi	r2,r2,108
 5081e30:	10800037 	ldwio	r2,0(r2)
 5081e34:	10c003cc 	andi	r3,r2,15
 5081e38:	e0bffd17 	ldw	r2,-12(fp)
 5081e3c:	10800017 	ldw	r2,0(r2)
 5081e40:	10c6b03a 	or	r3,r2,r3
 5081e44:	e0bffd17 	ldw	r2,-12(fp)
 5081e48:	10c00015 	stw	r3,0(r2)

    IOWR_ALTERA_AVALON_PIO_EDGE_CAP(KEY_BASE,0);
 5081e4c:	0007883a 	mov	r3,zero
 5081e50:	00810034 	movhi	r2,1024
 5081e54:	10801b04 	addi	r2,r2,108
 5081e58:	10c00035 	stwio	r3,0(r2)
}
 5081e5c:	0001883a 	nop
 5081e60:	e037883a 	mov	sp,fp
 5081e64:	df000017 	ldw	fp,0(sp)
 5081e68:	dec00104 	addi	sp,sp,4
 5081e6c:	f800283a 	ret

05081e70 <button_monitor_start>:

bool button_monitor_start(volatile alt_u32 *pPressedMask){
 5081e70:	defffc04 	addi	sp,sp,-16
 5081e74:	dfc00315 	stw	ra,12(sp)
 5081e78:	df000215 	stw	fp,8(sp)
 5081e7c:	df000204 	addi	fp,sp,8
 5081e80:	e13fff15 	stw	r4,-4(fp)
    bool bSuccess = TRUE;
 5081e84:	00800044 	movi	r2,1
 5081e88:	e0bffe15 	stw	r2,-8(fp)
    // enable interrupt
    IOWR_ALTERA_AVALON_PIO_IRQ_MASK(KEY_BASE, 0x0F); // 4-button
 5081e8c:	00c003c4 	movi	r3,15
 5081e90:	00810034 	movhi	r2,1024
 5081e94:	10801a04 	addi	r2,r2,104
 5081e98:	10c00035 	stwio	r3,0(r2)

    // Reset the edge catpure register
    IOWR_ALTERA_AVALON_PIO_EDGE_CAP(KEY_BASE,0);
 5081e9c:	0007883a 	mov	r3,zero
 5081ea0:	00810034 	movhi	r2,1024
 5081ea4:	10801b04 	addi	r2,r2,108
 5081ea8:	10c00035 	stwio	r3,0(r2)

    // register IRQ
    if (bSuccess && (alt_irq_register(KEY_IRQ, (void *)pPressedMask, button_monitor_isr) != 0)){
 5081eac:	e0bffe17 	ldw	r2,-8(fp)
 5081eb0:	10000a26 	beq	r2,zero,5081edc <button_monitor_start+0x6c>
 5081eb4:	01814234 	movhi	r6,1288
 5081eb8:	31878304 	addi	r6,r6,7692
 5081ebc:	e17fff17 	ldw	r5,-4(fp)
 5081ec0:	01000084 	movi	r4,2
 5081ec4:	5092a9c0 	call	5092a9c <alt_irq_register>
 5081ec8:	10000426 	beq	r2,zero,5081edc <button_monitor_start+0x6c>
        printf("[SW-MONITOR]register button IRQ fail\r\n");
 5081ecc:	01014274 	movhi	r4,1289
 5081ed0:	21152704 	addi	r4,r4,21660
 5081ed4:	5082a6c0 	call	5082a6c <puts>
        bSuccess = FALSE;
 5081ed8:	e03ffe15 	stw	zero,-8(fp)
    }

    return bSuccess;
 5081edc:	e0bffe17 	ldw	r2,-8(fp)
}
 5081ee0:	e037883a 	mov	sp,fp
 5081ee4:	dfc00117 	ldw	ra,4(sp)
 5081ee8:	df000017 	ldw	fp,0(sp)
 5081eec:	dec00204 	addi	sp,sp,8
 5081ef0:	f800283a 	ret

05081ef4 <init_audio>:




bool init_audio(AUDIO_FUNC audio_func){
 5081ef4:	defffb04 	addi	sp,sp,-20
 5081ef8:	dfc00415 	stw	ra,16(sp)
 5081efc:	df000315 	stw	fp,12(sp)
 5081f00:	df000304 	addi	fp,sp,12
 5081f04:	e13fff15 	stw	r4,-4(fp)
    bool bSuccess = TRUE;
 5081f08:	00800044 	movi	r2,1
 5081f0c:	e0bffd15 	stw	r2,-12(fp)
    AUDIO_InterfaceActive(FALSE);
 5081f10:	0009883a 	mov	r4,zero
 5081f14:	50804180 	call	5080418 <AUDIO_InterfaceActive>
    //
    if (audio_func == MIC_RECORD){
 5081f18:	e0bfff17 	ldw	r2,-4(fp)
 5081f1c:	10000f1e 	bne	r2,zero,5081f5c <init_audio+0x68>
        bool bMicBoost;
        bMicBoost = ui_is_mic_boost();
 5081f20:	5081cec0 	call	5081cec <ui_is_mic_boost>
 5081f24:	e0bffe15 	stw	r2,-8(fp)
        AUDIO_SetInputSource(SOURCE_MIC);
 5081f28:	0009883a 	mov	r4,zero
 5081f2c:	50808d80 	call	50808d8 <AUDIO_SetInputSource>
        AUDIO_DacEnableSoftMute(TRUE);
 5081f30:	01000044 	movi	r4,1
 5081f34:	50806e00 	call	50806e0 <AUDIO_DacEnableSoftMute>
        AUDIO_AdcEnableHighPassFilter(FALSE);
 5081f38:	0009883a 	mov	r4,zero
 5081f3c:	50804d80 	call	50804d8 <AUDIO_AdcEnableHighPassFilter>
        AUDIO_MicBoost(bMicBoost);
 5081f40:	e13ffe17 	ldw	r4,-8(fp)
 5081f44:	50804600 	call	5080460 <AUDIO_MicBoost>
        AUDIO_MicMute(FALSE);
 5081f48:	0009883a 	mov	r4,zero
 5081f4c:	508076c0 	call	508076c <AUDIO_MicMute>
        AUDIO_LineInMute(TRUE);
 5081f50:	01000044 	movi	r4,1
 5081f54:	50807f80 	call	50807f8 <AUDIO_LineInMute>
 5081f58:	00002606 	br	5081ff4 <init_audio+0x100>
    }else if (audio_func == LINEIN_RECORD){
 5081f5c:	e0bfff17 	ldw	r2,-4(fp)
 5081f60:	10800058 	cmpnei	r2,r2,1
 5081f64:	10000e1e 	bne	r2,zero,5081fa0 <init_audio+0xac>
        AUDIO_SetInputSource(SOURCE_LINEIN);
 5081f68:	01000044 	movi	r4,1
 5081f6c:	50808d80 	call	50808d8 <AUDIO_SetInputSource>
        AUDIO_DacEnableSoftMute(TRUE);
 5081f70:	01000044 	movi	r4,1
 5081f74:	50806e00 	call	50806e0 <AUDIO_DacEnableSoftMute>
        AUDIO_AdcEnableHighPassFilter(FALSE);
 5081f78:	0009883a 	mov	r4,zero
 5081f7c:	50804d80 	call	50804d8 <AUDIO_AdcEnableHighPassFilter>
        AUDIO_MicMute(TRUE);
 5081f80:	01000044 	movi	r4,1
 5081f84:	508076c0 	call	508076c <AUDIO_MicMute>
        AUDIO_LineInMute(FALSE);
 5081f88:	0009883a 	mov	r4,zero
 5081f8c:	50807f80 	call	50807f8 <AUDIO_LineInMute>
        AUDIO_SetLineInVol(0x17, 0x17);  // max 0x1F, min:0; 0x17: 0dB (assume max input is 2.0v rms)
 5081f90:	014005c4 	movi	r5,23
 5081f94:	010005c4 	movi	r4,23
 5081f98:	5080a4c0 	call	5080a4c <AUDIO_SetLineInVol>
 5081f9c:	00001506 	br	5081ff4 <init_audio+0x100>
    }else if (audio_func == LINEOUT_PLAY){
 5081fa0:	e0bfff17 	ldw	r2,-4(fp)
 5081fa4:	10800098 	cmpnei	r2,r2,2
 5081fa8:	1000121e 	bne	r2,zero,5081ff4 <init_audio+0x100>
        AUDIO_DacEnableSoftMute(TRUE);
 5081fac:	01000044 	movi	r4,1
 5081fb0:	50806e00 	call	50806e0 <AUDIO_DacEnableSoftMute>
        AUDIO_MicBoost(FALSE);
 5081fb4:	0009883a 	mov	r4,zero
 5081fb8:	50804600 	call	5080460 <AUDIO_MicBoost>
        AUDIO_MicMute(TRUE);
 5081fbc:	01000044 	movi	r4,1
 5081fc0:	508076c0 	call	508076c <AUDIO_MicMute>
        AUDIO_LineInMute(FALSE);
 5081fc4:	0009883a 	mov	r4,zero
 5081fc8:	50807f80 	call	50807f8 <AUDIO_LineInMute>
        AUDIO_DacEnableSoftMute(FALSE);
 5081fcc:	0009883a 	mov	r4,zero
 5081fd0:	50806e00 	call	50806e0 <AUDIO_DacEnableSoftMute>
        //AUDIO_DacDeemphasisControl(DEEMPHASIS_48K);
        AUDIO_DacEnableZeroCross(ui_is_dac_zero_cross());
 5081fd4:	5081d280 	call	5081d28 <ui_is_dac_zero_cross>
 5081fd8:	1009883a 	mov	r4,r2
 5081fdc:	50806000 	call	5080600 <AUDIO_DacEnableZeroCross>
        AUDIO_SetLineOutVol(LINEOUT_DEFUALT_VOL, LINEOUT_DEFUALT_VOL); // max 7F, min: 30, 0x79: 0 db
 5081fe0:	01401e44 	movi	r5,121
 5081fe4:	01001e44 	movi	r4,121
 5081fe8:	5080b600 	call	5080b60 <AUDIO_SetLineOutVol>
        AUDIO_DacEnableSoftMute(FALSE);
 5081fec:	0009883a 	mov	r4,zero
 5081ff0:	50806e00 	call	50806e0 <AUDIO_DacEnableSoftMute>
    }

    if (record_sample_rate == 8000)
 5081ff4:	d0a6d117 	ldw	r2,-25788(gp)
 5081ff8:	1087d018 	cmpnei	r2,r2,8000
 5081ffc:	1000031e 	bne	r2,zero,508200c <init_audio+0x118>
        AUDIO_SetSampleRate(RATE_ADC8K_DAC8K);
 5082000:	010000c4 	movi	r4,3
 5082004:	50809680 	call	5080968 <AUDIO_SetSampleRate>
 5082008:	00001406 	br	508205c <init_audio+0x168>
    else if (record_sample_rate == 32000)
 508200c:	d0a6d117 	ldw	r2,-25788(gp)
 5082010:	109f4018 	cmpnei	r2,r2,32000
 5082014:	1000031e 	bne	r2,zero,5082024 <init_audio+0x130>
        AUDIO_SetSampleRate(RATE_ADC32K_DAC32K);
 5082018:	01000104 	movi	r4,4
 508201c:	50809680 	call	5080968 <AUDIO_SetSampleRate>
 5082020:	00000e06 	br	508205c <init_audio+0x168>
    else if (record_sample_rate == 48000)
 5082024:	d0e6d117 	ldw	r3,-25788(gp)
 5082028:	00aee014 	movui	r2,48000
 508202c:	1880031e 	bne	r3,r2,508203c <init_audio+0x148>
        AUDIO_SetSampleRate(RATE_ADC48K_DAC48K);
 5082030:	0009883a 	mov	r4,zero
 5082034:	50809680 	call	5080968 <AUDIO_SetSampleRate>
 5082038:	00000806 	br	508205c <init_audio+0x168>
    else if (record_sample_rate == 44100)
 508203c:	d0e6d117 	ldw	r3,-25788(gp)
 5082040:	00ab1114 	movui	r2,44100
 5082044:	1880031e 	bne	r3,r2,5082054 <init_audio+0x160>
        AUDIO_SetSampleRate(RATE_ADC44K1_DAC44K1);
 5082048:	01000184 	movi	r4,6
 508204c:	50809680 	call	5080968 <AUDIO_SetSampleRate>
 5082050:	00000206 	br	508205c <init_audio+0x168>
    else
        AUDIO_SetSampleRate(RATE_ADC96K_DAC96K);
 5082054:	01000144 	movi	r4,5
 5082058:	50809680 	call	5080968 <AUDIO_SetSampleRate>
    //
    AUDIO_InterfaceActive(TRUE);
 508205c:	01000044 	movi	r4,1
 5082060:	50804180 	call	5080418 <AUDIO_InterfaceActive>

    return bSuccess;
 5082064:	e0bffd17 	ldw	r2,-12(fp)
}
 5082068:	e037883a 	mov	sp,fp
 508206c:	dfc00117 	ldw	ra,4(sp)
 5082070:	df000017 	ldw	fp,0(sp)
 5082074:	dec00204 	addi	sp,sp,8
 5082078:	f800283a 	ret

0508207c <display_time_elapsed>:


void display_time_elapsed(alt_u32 sample_num){
 508207c:	defffc04 	addi	sp,sp,-16
 5082080:	dfc00315 	stw	ra,12(sp)
 5082084:	df000215 	stw	fp,8(sp)
 5082088:	df000204 	addi	fp,sp,8
 508208c:	e13fff15 	stw	r4,-4(fp)
    // assume sample rate is 48K
    alt_u32 time;
    time = sample_num * 100 / record_sample_rate;
 5082090:	e0bfff17 	ldw	r2,-4(fp)
 5082094:	10801924 	muli	r2,r2,100
 5082098:	d0e6d117 	ldw	r3,-25788(gp)
 508209c:	180b883a 	mov	r5,r3
 50820a0:	1009883a 	mov	r4,r2
 50820a4:	50828840 	call	5082884 <__udivsi3>
 50820a8:	e0bffe15 	stw	r2,-8(fp)
    SEG7_Decimal(time, 0x04);
 50820ac:	01400104 	movi	r5,4
 50820b0:	e13ffe17 	ldw	r4,-8(fp)
 50820b4:	5081a0c0 	call	5081a0c <SEG7_Decimal>
}
 50820b8:	0001883a 	nop
 50820bc:	e037883a 	mov	sp,fp
 50820c0:	dfc00117 	ldw	ra,4(sp)
 50820c4:	df000017 	ldw	fp,0(sp)
 50820c8:	dec00204 	addi	sp,sp,8
 50820cc:	f800283a 	ret

050820d0 <show_power>:

void show_power(short sample){
 50820d0:	defffc04 	addi	sp,sp,-16
 50820d4:	dfc00315 	stw	ra,12(sp)
 50820d8:	df000215 	stw	fp,8(sp)
 50820dc:	df000204 	addi	fp,sp,8
 50820e0:	2005883a 	mov	r2,r4
 50820e4:	e0bfff0d 	sth	r2,-4(fp)
    static alt_u32 sum = 0;
    static alt_u16   cnt = 0;
    alt_u16 power = 0;
 50820e8:	e03ffe0d 	sth	zero,-8(fp)
    sum += (sample >= 0)?sample:-sample;
 50820ec:	e0bfff0f 	ldh	r2,-4(fp)
 50820f0:	10000216 	blt	r2,zero,50820fc <show_power+0x2c>
 50820f4:	e0bfff0f 	ldh	r2,-4(fp)
 50820f8:	00000206 	br	5082104 <show_power+0x34>
 50820fc:	e0bfff0f 	ldh	r2,-4(fp)
 5082100:	0085c83a 	sub	r2,zero,r2
 5082104:	d0e6cf17 	ldw	r3,-25796(gp)
 5082108:	10c5883a 	add	r2,r2,r3
 508210c:	d0a6cf15 	stw	r2,-25796(gp)
    cnt++;
 5082110:	d0a6d00b 	ldhu	r2,-25792(gp)
 5082114:	10800044 	addi	r2,r2,1
 5082118:	d0a6d00d 	sth	r2,-25792(gp)
    if (cnt == 32){
 508211c:	d0a6d00b 	ldhu	r2,-25792(gp)
 5082120:	10bfffcc 	andi	r2,r2,65535
 5082124:	10800818 	cmpnei	r2,r2,32
 5082128:	1000091e 	bne	r2,zero,5082150 <show_power+0x80>
        power = sum >> 13;
 508212c:	d0a6cf17 	ldw	r2,-25796(gp)
 5082130:	1004d37a 	srli	r2,r2,13
 5082134:	e0bffe0d 	sth	r2,-8(fp)
        LED_LightCount(power);
 5082138:	e0bffe0b 	ldhu	r2,-8(fp)
 508213c:	10803fcc 	andi	r2,r2,255
 5082140:	1009883a 	mov	r4,r2
 5082144:	50817940 	call	5081794 <LED_LightCount>
        sum = 0;
 5082148:	d026cf15 	stw	zero,-25796(gp)
        cnt = 0;
 508214c:	d026d00d 	sth	zero,-25792(gp)
    }
}
 5082150:	0001883a 	nop
 5082154:	e037883a 	mov	sp,fp
 5082158:	dfc00117 	ldw	ra,4(sp)
 508215c:	df000017 	ldw	fp,0(sp)
 5082160:	dec00204 	addi	sp,sp,8
 5082164:	f800283a 	ret

05082168 <init>:


bool init(void){
 5082168:	defffd04 	addi	sp,sp,-12
 508216c:	dfc00215 	stw	ra,8(sp)
 5082170:	df000115 	stw	fp,4(sp)
 5082174:	df000104 	addi	fp,sp,4
    bool bSuccess = TRUE;
 5082178:	00800044 	movi	r2,1
 508217c:	e0bfff15 	stw	r2,-4(fp)

    SEG7_Clear();
 5082180:	50818080 	call	5081808 <SEG7_Clear>


    SEG7_Decimal(0x00000000, 0x00);
 5082184:	000b883a 	mov	r5,zero
 5082188:	0009883a 	mov	r4,zero
 508218c:	5081a0c0 	call	5081a0c <SEG7_Decimal>

    // prepare
    if (!AUDIO_Init()){
 5082190:	50802900 	call	5080290 <AUDIO_Init>
 5082194:	1000041e 	bne	r2,zero,50821a8 <init+0x40>

        printf("Audio Init Error\r\n");
 5082198:	01014274 	movhi	r4,1289
 508219c:	21153104 	addi	r4,r4,21700
 50821a0:	5082a6c0 	call	5082a6c <puts>
        bSuccess = FALSE;
 50821a4:	e03fff15 	stw	zero,-4(fp)
    }


    return bSuccess;
 50821a8:	e0bfff17 	ldw	r2,-4(fp)
}
 50821ac:	e037883a 	mov	sp,fp
 50821b0:	dfc00117 	ldw	ra,4(sp)
 50821b4:	df000017 	ldw	fp,0(sp)
 50821b8:	dec00204 	addi	sp,sp,8
 50821bc:	f800283a 	ret

050821c0 <dump_record_data>:

void dump_record_data(alt_u32 *pData, alt_u32 len){
 50821c0:	defff804 	addi	sp,sp,-32
 50821c4:	dfc00715 	stw	ra,28(sp)
 50821c8:	df000615 	stw	fp,24(sp)
 50821cc:	df000604 	addi	fp,sp,24
 50821d0:	e13ffe15 	stw	r4,-8(fp)
 50821d4:	e17fff15 	stw	r5,-4(fp)
    short sample_l, sample_r, sample_max = 0;
 50821d8:	e03ffa0d 	sth	zero,-24(fp)
    alt_u32 data;
    int i;
    //return ;
    for(i=0;i<len;i++){
 50821dc:	e03ffb15 	stw	zero,-20(fp)
 50821e0:	00002d06 	br	5082298 <dump_record_data+0xd8>
        data = *pData++;
 50821e4:	e0bffe17 	ldw	r2,-8(fp)
 50821e8:	10c00104 	addi	r3,r2,4
 50821ec:	e0fffe15 	stw	r3,-8(fp)
 50821f0:	10800017 	ldw	r2,0(r2)
 50821f4:	e0bffc15 	stw	r2,-16(fp)
        sample_l = (short)((data >> 16) & 0xFFFF);
 50821f8:	e0bffc17 	ldw	r2,-16(fp)
 50821fc:	1004d43a 	srli	r2,r2,16
 5082200:	e0bffd0d 	sth	r2,-12(fp)
        sample_r = (short)(data & 0xFFFF);
 5082204:	e0bffc17 	ldw	r2,-16(fp)
 5082208:	e0bffd8d 	sth	r2,-10(fp)
        //printf("[%d]%d/%d\n", i, sample_l, sample_r);
        if (sample_l > 0 && sample_max <  sample_l)
 508220c:	e0bffd0f 	ldh	r2,-12(fp)
 5082210:	0080050e 	bge	zero,r2,5082228 <dump_record_data+0x68>
 5082214:	e0fffa0f 	ldh	r3,-24(fp)
 5082218:	e0bffd0f 	ldh	r2,-12(fp)
 508221c:	1880020e 	bge	r3,r2,5082228 <dump_record_data+0x68>
            sample_max = sample_l;
 5082220:	e0bffd0b 	ldhu	r2,-12(fp)
 5082224:	e0bffa0d 	sth	r2,-24(fp)
        if (sample_l < 0 && sample_max <  -sample_l)
 5082228:	e0bffd0f 	ldh	r2,-12(fp)
 508222c:	1000070e 	bge	r2,zero,508224c <dump_record_data+0x8c>
 5082230:	e0fffa0f 	ldh	r3,-24(fp)
 5082234:	e0bffd0f 	ldh	r2,-12(fp)
 5082238:	0085c83a 	sub	r2,zero,r2
 508223c:	1880030e 	bge	r3,r2,508224c <dump_record_data+0x8c>
            sample_max = -sample_l;
 5082240:	e0bffd0b 	ldhu	r2,-12(fp)
 5082244:	0085c83a 	sub	r2,zero,r2
 5082248:	e0bffa0d 	sth	r2,-24(fp)
        if (sample_r > 0 && sample_max <  sample_r)
 508224c:	e0bffd8f 	ldh	r2,-10(fp)
 5082250:	0080050e 	bge	zero,r2,5082268 <dump_record_data+0xa8>
 5082254:	e0fffa0f 	ldh	r3,-24(fp)
 5082258:	e0bffd8f 	ldh	r2,-10(fp)
 508225c:	1880020e 	bge	r3,r2,5082268 <dump_record_data+0xa8>
            sample_max = sample_r;
 5082260:	e0bffd8b 	ldhu	r2,-10(fp)
 5082264:	e0bffa0d 	sth	r2,-24(fp)
        if (sample_r < 0 && sample_max <  -sample_r)
 5082268:	e0bffd8f 	ldh	r2,-10(fp)
 508226c:	1000070e 	bge	r2,zero,508228c <dump_record_data+0xcc>
 5082270:	e0fffa0f 	ldh	r3,-24(fp)
 5082274:	e0bffd8f 	ldh	r2,-10(fp)
 5082278:	0085c83a 	sub	r2,zero,r2
 508227c:	1880030e 	bge	r3,r2,508228c <dump_record_data+0xcc>
            sample_max = -sample_r;
 5082280:	e0bffd8b 	ldhu	r2,-10(fp)
 5082284:	0085c83a 	sub	r2,zero,r2
 5082288:	e0bffa0d 	sth	r2,-24(fp)
void dump_record_data(alt_u32 *pData, alt_u32 len){
    short sample_l, sample_r, sample_max = 0;
    alt_u32 data;
    int i;
    //return ;
    for(i=0;i<len;i++){
 508228c:	e0bffb17 	ldw	r2,-20(fp)
 5082290:	10800044 	addi	r2,r2,1
 5082294:	e0bffb15 	stw	r2,-20(fp)
 5082298:	e0fffb17 	ldw	r3,-20(fp)
 508229c:	e0bfff17 	ldw	r2,-4(fp)
 50822a0:	18bfd036 	bltu	r3,r2,50821e4 <__alt_data_end+0xfffb3fe4>
        if (sample_r > 0 && sample_max <  sample_r)
            sample_max = sample_r;
        if (sample_r < 0 && sample_max <  -sample_r)
            sample_max = -sample_r;
    }
    printf("max=%d\n", sample_max);
 50822a4:	e0bffa0f 	ldh	r2,-24(fp)
 50822a8:	100b883a 	mov	r5,r2
 50822ac:	01014274 	movhi	r4,1289
 50822b0:	21153604 	addi	r4,r4,21720
 50822b4:	50829700 	call	5082970 <printf>
}
 50822b8:	0001883a 	nop
 50822bc:	e037883a 	mov	sp,fp
 50822c0:	dfc00117 	ldw	ra,4(sp)
 50822c4:	df000017 	ldw	fp,0(sp)
 50822c8:	dec00204 	addi	sp,sp,8
 50822cc:	f800283a 	ret

050822d0 <show_menu>:
    "  LED:  Display audio singal strength.\n",
    "  SEG7: Display time elapsed for playing/recording.\n"
    "\n\n"
};

void show_menu(void){
 50822d0:	defffd04 	addi	sp,sp,-12
 50822d4:	dfc00215 	stw	ra,8(sp)
 50822d8:	df000115 	stw	fp,4(sp)
 50822dc:	df000104 	addi	fp,sp,4
    int i;
    for(i=0;i<sizeof(szMenu)/sizeof(szMenu[0]);i++)
 50822e0:	e03fff15 	stw	zero,-4(fp)
 50822e4:	00000a06 	br	5082310 <show_menu+0x40>
        printf(szMenu[i]);
 50822e8:	e0bfff17 	ldw	r2,-4(fp)
 50822ec:	100691fa 	slli	r3,r2,7
 50822f0:	00814274 	movhi	r2,1289
 50822f4:	10953804 	addi	r2,r2,21728
 50822f8:	1885883a 	add	r2,r3,r2
 50822fc:	1009883a 	mov	r4,r2
 5082300:	50829700 	call	5082970 <printf>
    "\n\n"
};

void show_menu(void){
    int i;
    for(i=0;i<sizeof(szMenu)/sizeof(szMenu[0]);i++)
 5082304:	e0bfff17 	ldw	r2,-4(fp)
 5082308:	10800044 	addi	r2,r2,1
 508230c:	e0bfff15 	stw	r2,-4(fp)
 5082310:	e0bfff17 	ldw	r2,-4(fp)
 5082314:	10800430 	cmpltui	r2,r2,16
 5082318:	103ff31e 	bne	r2,zero,50822e8 <__alt_data_end+0xfffb40e8>
        printf(szMenu[i]);
}
 508231c:	0001883a 	nop
 5082320:	e037883a 	mov	sp,fp
 5082324:	dfc00117 	ldw	ra,4(sp)
 5082328:	df000017 	ldw	fp,0(sp)
 508232c:	dec00204 	addi	sp,sp,8
 5082330:	f800283a 	ret

05082334 <main>:

int main()
{
 5082334:	deffeb04 	addi	sp,sp,-84
 5082338:	dfc01415 	stw	ra,80(sp)
 508233c:	df001315 	stw	fp,76(sp)
 5082340:	df001304 	addi	fp,sp,76
    typedef enum{
        ST_STANDY,
        ST_RECODING,
        ST_PLAYING
    }STATE;
    STATE state = ST_STANDY;
 5082344:	e03fed15 	stw	zero,-76(fp)
    volatile alt_u32 button_mask=0;
 5082348:	e03ffe15 	stw	zero,-8(fp)
    bool bRecordPressed, bPlayPressed, bError = FALSE;
 508234c:	e03fee15 	stw	zero,-72(fp)
    alt_u32 *pBuf, *pPlaying, *pRecording, RecordLen, PlayLen, data, try_cnt, buf_sample_size;
    alt_u16 ch_right, ch_left;


    printf("\nHello World\n");
 5082350:	01014274 	movhi	r4,1289
 5082354:	21173804 	addi	r4,r4,23776
 5082358:	5082a6c0 	call	5082a6c <puts>

    show_menu();
 508235c:	50822d00 	call	50822d0 <show_menu>
    if (!init())
 5082360:	50821680 	call	5082168 <init>
 5082364:	1000021e 	bne	r2,zero,5082370 <main+0x3c>
        return 0;
 5082368:	0005883a 	mov	r2,zero
 508236c:	00010206 	br	5082778 <main+0x444>


#ifdef USE_SDRAM_FOR_DATA
    pBuf = (alt_u32 *)SDRAM_BASE;
 5082370:	e03ff615 	stw	zero,-40(fp)
    buf_sample_size = SDRAM_SPAN/sizeof(alt_u32);
 5082374:	00804034 	movhi	r2,256
 5082378:	e0bff715 	stw	r2,-36(fp)
        LCD_TextOut("malloc fail\n\n");
        printf("malloc fail\r\n");
        return 0;
    }
#endif
    button_monitor_start(&button_mask);  // button IRQ
 508237c:	e0bffe04 	addi	r2,fp,-8
 5082380:	1009883a 	mov	r4,r2
 5082384:	5081e700 	call	5081e70 <button_monitor_start>
    printf("ready\n");
 5082388:	01014274 	movhi	r4,1289
 508238c:	21173c04 	addi	r4,r4,23792
 5082390:	5082a6c0 	call	5082a6c <puts>


    // test
    record_sample_rate = ui_get_sample_rate();
 5082394:	5081d640 	call	5081d64 <ui_get_sample_rate>
 5082398:	d0a6d115 	stw	r2,-25788(gp)
    RecordLen = buf_sample_size;
 508239c:	e0bff717 	ldw	r2,-36(fp)
 50823a0:	e0bff115 	stw	r2,-60(fp)
    //

    // infinite loop
    while(1){
        //
        bRecordPressed = (button_mask & RECORD_BUTTON)?TRUE:FALSE;
 50823a4:	e0bffe17 	ldw	r2,-8(fp)
 50823a8:	1080020c 	andi	r2,r2,8
 50823ac:	1004c03a 	cmpne	r2,r2,zero
 50823b0:	10803fcc 	andi	r2,r2,255
 50823b4:	e0bff815 	stw	r2,-32(fp)
        bPlayPressed = (button_mask & PLAY_BUTTON)?TRUE:FALSE;
 50823b8:	e0bffe17 	ldw	r2,-8(fp)
 50823bc:	1080010c 	andi	r2,r2,4
 50823c0:	1004c03a 	cmpne	r2,r2,zero
 50823c4:	10803fcc 	andi	r2,r2,255
 50823c8:	e0bff915 	stw	r2,-28(fp)
        if (bPlayPressed || bRecordPressed)
 50823cc:	e0bff917 	ldw	r2,-28(fp)
 50823d0:	1000021e 	bne	r2,zero,50823dc <main+0xa8>
 50823d4:	e0bff817 	ldw	r2,-32(fp)
 50823d8:	10000126 	beq	r2,zero,50823e0 <main+0xac>
            button_mask = 0;
 50823dc:	e03ffe15 	stw	zero,-8(fp)
        if (state == ST_STANDY){
 50823e0:	e0bfed17 	ldw	r2,-76(fp)
 50823e4:	1000431e 	bne	r2,zero,50824f4 <main+0x1c0>
            if (bRecordPressed){
 50823e8:	e0bff817 	ldw	r2,-32(fp)
 50823ec:	10002826 	beq	r2,zero,5082490 <main+0x15c>
                bool bMicRecord;
                record_sample_rate = ui_get_sample_rate();
 50823f0:	5081d640 	call	5081d64 <ui_get_sample_rate>
 50823f4:	d0a6d115 	stw	r2,-25788(gp)
                bMicRecord = ui_is_mic_record();
 50823f8:	5081cb00 	call	5081cb0 <ui_is_mic_record>
 50823fc:	e0bffa15 	stw	r2,-24(fp)
                AUDIO_FifoClear();
 5082400:	5080fa00 	call	5080fa0 <AUDIO_FifoClear>
                init_audio(bMicRecord?MIC_RECORD:LINEIN_RECORD);
 5082404:	e0bffa17 	ldw	r2,-24(fp)
 5082408:	1005003a 	cmpeq	r2,r2,zero
 508240c:	10803fcc 	andi	r2,r2,255
 5082410:	1009883a 	mov	r4,r2
 5082414:	5081ef40 	call	5081ef4 <init_audio>
                AUDIO_FifoClear();
 5082418:	5080fa00 	call	5080fa0 <AUDIO_FifoClear>
                state = ST_RECODING;
 508241c:	00800044 	movi	r2,1
 5082420:	e0bfed15 	stw	r2,-76(fp)
                if (bMicRecord){
 5082424:	e0bffa17 	ldw	r2,-24(fp)
 5082428:	10001026 	beq	r2,zero,508246c <main+0x138>
                    bool bMicBoost = ui_is_mic_boost();
 508242c:	5081cec0 	call	5081cec <ui_is_mic_boost>
 5082430:	e0bffb15 	stw	r2,-20(fp)
                    printf("MIC %srecording (sample rate = %d)...\r\n", bMicBoost?"Boost ":"", record_sample_rate);
 5082434:	e0bffb17 	ldw	r2,-20(fp)
 5082438:	10000326 	beq	r2,zero,5082448 <main+0x114>
 508243c:	00814274 	movhi	r2,1289
 5082440:	10973e04 	addi	r2,r2,23800
 5082444:	00000206 	br	5082450 <main+0x11c>
 5082448:	00814274 	movhi	r2,1289
 508244c:	10974004 	addi	r2,r2,23808
 5082450:	d0e6d117 	ldw	r3,-25788(gp)
 5082454:	180d883a 	mov	r6,r3
 5082458:	100b883a 	mov	r5,r2
 508245c:	01014274 	movhi	r4,1289
 5082460:	21174104 	addi	r4,r4,23812
 5082464:	50829700 	call	5082970 <printf>
 5082468:	00000506 	br	5082480 <main+0x14c>

                }else{
                    printf("LINE-IN recording (sample rate = %d)...\r\n", record_sample_rate);
 508246c:	d0a6d117 	ldw	r2,-25788(gp)
 5082470:	100b883a 	mov	r5,r2
 5082474:	01014274 	movhi	r4,1289
 5082478:	21174b04 	addi	r4,r4,23852
 508247c:	50829700 	call	5082970 <printf>


                }
                pRecording = pBuf;
 5082480:	e0bff617 	ldw	r2,-40(fp)
 5082484:	e0bff015 	stw	r2,-64(fp)
                RecordLen = 0;
 5082488:	e03ff115 	stw	zero,-60(fp)
 508248c:	00001706 	br	50824ec <main+0x1b8>
            }else if (bPlayPressed){
 5082490:	e0bff917 	ldw	r2,-28(fp)
 5082494:	10001526 	beq	r2,zero,50824ec <main+0x1b8>
                if (RecordLen == 0){
 5082498:	e0bff117 	ldw	r2,-60(fp)
 508249c:	1000041e 	bne	r2,zero,50824b0 <main+0x17c>
                    printf("Please record before play audio\r\n");
 50824a0:	01014274 	movhi	r4,1289
 50824a4:	21175604 	addi	r4,r4,23896
 50824a8:	5082a6c0 	call	5082a6c <puts>
 50824ac:	00000f06 	br	50824ec <main+0x1b8>

                }else{
                    bool bZeroCross = ui_is_dac_zero_cross();
 50824b0:	5081d280 	call	5081d28 <ui_is_dac_zero_cross>
 50824b4:	e0bffc15 	stw	r2,-16(fp)
                    AUDIO_FifoClear();
 50824b8:	5080fa00 	call	5080fa0 <AUDIO_FifoClear>
                    init_audio(LINEOUT_PLAY);
 50824bc:	01000084 	movi	r4,2
 50824c0:	5081ef40 	call	5081ef4 <init_audio>
                    state = ST_PLAYING;
 50824c4:	00800084 	movi	r2,2
 50824c8:	e0bfed15 	stw	r2,-76(fp)
                    printf("playing (sample rate = %d)...\r\n", record_sample_rate);
 50824cc:	d0a6d117 	ldw	r2,-25788(gp)
 50824d0:	100b883a 	mov	r5,r2
 50824d4:	01014274 	movhi	r4,1289
 50824d8:	21175f04 	addi	r4,r4,23932
 50824dc:	50829700 	call	5082970 <printf>


                    pPlaying = pBuf;
 50824e0:	e0bff617 	ldw	r2,-40(fp)
 50824e4:	e0bfef15 	stw	r2,-68(fp)
                    PlayLen = 0;
 50824e8:	e03ff215 	stw	zero,-56(fp)
                }
            }
            bError = FALSE;
 50824ec:	e03fee15 	stw	zero,-72(fp)
 50824f0:	003fac06 	br	50823a4 <__alt_data_end+0xfffb41a4>
        }else if (state == ST_RECODING){
 50824f4:	e0bfed17 	ldw	r2,-76(fp)
 50824f8:	10800058 	cmpnei	r2,r2,1
 50824fc:	10004a1e 	bne	r2,zero,5082628 <main+0x2f4>
            if (bRecordPressed || (RecordLen >= buf_sample_size) || bError){
 5082500:	e0bff817 	ldw	r2,-32(fp)
 5082504:	1000051e 	bne	r2,zero,508251c <main+0x1e8>
 5082508:	e0fff117 	ldw	r3,-60(fp)
 508250c:	e0bff717 	ldw	r2,-36(fp)
 5082510:	1880022e 	bgeu	r3,r2,508251c <main+0x1e8>
 5082514:	e0bfee17 	ldw	r2,-72(fp)
 5082518:	10000b26 	beq	r2,zero,5082548 <main+0x214>
                // stop record
                printf("record %d samples\n", (int)RecordLen);
 508251c:	e0bff117 	ldw	r2,-60(fp)
 5082520:	100b883a 	mov	r5,r2
 5082524:	01014274 	movhi	r4,1289
 5082528:	21176704 	addi	r4,r4,23964
 508252c:	50829700 	call	5082970 <printf>


                state = ST_STANDY;
 5082530:	e03fed15 	stw	zero,-76(fp)
                LED_AllOff();
 5082534:	50817640 	call	5081764 <LED_AllOff>
                dump_record_data(pBuf, RecordLen);
 5082538:	e17ff117 	ldw	r5,-60(fp)
 508253c:	e13ff617 	ldw	r4,-40(fp)
 5082540:	50821c00 	call	50821c0 <dump_record_data>
 5082544:	00008b06 	br	5082774 <main+0x440>

            }else{
                // continue recoding
                int i = 0;
 5082548:	e03ff415 	stw	zero,-48(fp)
                while ((i < RECORD_BLOCK_SIZE) && (RecordLen < buf_sample_size)){
 508254c:	00002d06 	br	5082604 <main+0x2d0>
                    try_cnt = 0;
 5082550:	e03ff315 	stw	zero,-52(fp)
                    while (!AUDIO_AdcFifoNotEmpty() && try_cnt < MAX_TRY_CNT){ // wait while empty
 5082554:	00000306 	br	5082564 <main+0x230>
                        try_cnt++;
 5082558:	e0bff317 	ldw	r2,-52(fp)
 508255c:	10800044 	addi	r2,r2,1
 5082560:	e0bff315 	stw	r2,-52(fp)
            }else{
                // continue recoding
                int i = 0;
                while ((i < RECORD_BLOCK_SIZE) && (RecordLen < buf_sample_size)){
                    try_cnt = 0;
                    while (!AUDIO_AdcFifoNotEmpty() && try_cnt < MAX_TRY_CNT){ // wait while empty
 5082564:	5080f0c0 	call	5080f0c <AUDIO_AdcFifoNotEmpty>
 5082568:	1000031e 	bne	r2,zero,5082578 <main+0x244>
 508256c:	e0bff317 	ldw	r2,-52(fp)
 5082570:	10810030 	cmpltui	r2,r2,1024
 5082574:	103ff81e 	bne	r2,zero,5082558 <__alt_data_end+0xfffb4358>
                        try_cnt++;
                    }
                    if (try_cnt >= MAX_TRY_CNT){
 5082578:	e0bff317 	ldw	r2,-52(fp)
 508257c:	10810030 	cmpltui	r2,r2,1024
 5082580:	1000031e 	bne	r2,zero,5082590 <main+0x25c>
                        bError = TRUE;
 5082584:	00800044 	movi	r2,1
 5082588:	e0bfee15 	stw	r2,-72(fp)
                        break;
 508258c:	00002306 	br	508261c <main+0x2e8>
                    }
                    AUDIO_AdcFifoGetData(&ch_left, &ch_right);
 5082590:	e0ffff04 	addi	r3,fp,-4
 5082594:	e0bfff84 	addi	r2,fp,-2
 5082598:	180b883a 	mov	r5,r3
 508259c:	1009883a 	mov	r4,r2
 50825a0:	5080f480 	call	5080f48 <AUDIO_AdcFifoGetData>
                    data = (ch_left << 16) | ch_right;
 50825a4:	e0bfff8b 	ldhu	r2,-2(fp)
 50825a8:	10bfffcc 	andi	r2,r2,65535
 50825ac:	1006943a 	slli	r3,r2,16
 50825b0:	e0bfff0b 	ldhu	r2,-4(fp)
 50825b4:	10bfffcc 	andi	r2,r2,65535
 50825b8:	1884b03a 	or	r2,r3,r2
 50825bc:	e0bffd15 	stw	r2,-12(fp)
                    *pRecording++ = data;
 50825c0:	e0bff017 	ldw	r2,-64(fp)
 50825c4:	10c00104 	addi	r3,r2,4
 50825c8:	e0fff015 	stw	r3,-64(fp)
 50825cc:	e0fffd17 	ldw	r3,-12(fp)
 50825d0:	10c00015 	stw	r3,0(r2)
                    RecordLen++;
 50825d4:	e0bff117 	ldw	r2,-60(fp)
 50825d8:	10800044 	addi	r2,r2,1
 50825dc:	e0bff115 	stw	r2,-60(fp)
                    i++;
 50825e0:	e0bff417 	ldw	r2,-48(fp)
 50825e4:	10800044 	addi	r2,r2,1
 50825e8:	e0bff415 	stw	r2,-48(fp)
                    show_power(data & 0xFFFF);
 50825ec:	e0bffd17 	ldw	r2,-12(fp)
 50825f0:	10bfffcc 	andi	r2,r2,65535
 50825f4:	10a0001c 	xori	r2,r2,32768
 50825f8:	10a00004 	addi	r2,r2,-32768
 50825fc:	1009883a 	mov	r4,r2
 5082600:	50820d00 	call	50820d0 <show_power>
                dump_record_data(pBuf, RecordLen);

            }else{
                // continue recoding
                int i = 0;
                while ((i < RECORD_BLOCK_SIZE) && (RecordLen < buf_sample_size)){
 5082604:	e0bff417 	ldw	r2,-48(fp)
 5082608:	10803e88 	cmpgei	r2,r2,250
 508260c:	1000031e 	bne	r2,zero,508261c <main+0x2e8>
 5082610:	e0fff117 	ldw	r3,-60(fp)
 5082614:	e0bff717 	ldw	r2,-36(fp)
 5082618:	18bfcd36 	bltu	r3,r2,5082550 <__alt_data_end+0xfffb4350>
                    *pRecording++ = data;
                    RecordLen++;
                    i++;
                    show_power(data & 0xFFFF);
                }  // while
                display_time_elapsed(RecordLen);
 508261c:	e13ff117 	ldw	r4,-60(fp)
 5082620:	508207c0 	call	508207c <display_time_elapsed>
 5082624:	003f5f06 	br	50823a4 <__alt_data_end+0xfffb41a4>
            }
        }else if (state == ST_PLAYING){
 5082628:	e0bfed17 	ldw	r2,-76(fp)
 508262c:	10800098 	cmpnei	r2,r2,2
 5082630:	103f5c1e 	bne	r2,zero,50823a4 <__alt_data_end+0xfffb41a4>
            if (bPlayPressed || (PlayLen >= RecordLen) || bError){
 5082634:	e0bff917 	ldw	r2,-28(fp)
 5082638:	1000051e 	bne	r2,zero,5082650 <main+0x31c>
 508263c:	e0fff217 	ldw	r3,-56(fp)
 5082640:	e0bff117 	ldw	r2,-60(fp)
 5082644:	1880022e 	bgeu	r3,r2,5082650 <main+0x31c>
 5082648:	e0bfee17 	ldw	r2,-72(fp)
 508264c:	10000e26 	beq	r2,zero,5082688 <main+0x354>
                // stop playing
                printf("Play Stop %s\r\n", bError?"(Error)":"");
 5082650:	e0bfee17 	ldw	r2,-72(fp)
 5082654:	10000326 	beq	r2,zero,5082664 <main+0x330>
 5082658:	00814274 	movhi	r2,1289
 508265c:	10976c04 	addi	r2,r2,23984
 5082660:	00000206 	br	508266c <main+0x338>
 5082664:	00814274 	movhi	r2,1289
 5082668:	10974004 	addi	r2,r2,23808
 508266c:	100b883a 	mov	r5,r2
 5082670:	01014274 	movhi	r4,1289
 5082674:	21176e04 	addi	r4,r4,23992
 5082678:	50829700 	call	5082970 <printf>

                state = ST_STANDY;
 508267c:	e03fed15 	stw	zero,-76(fp)
                LED_AllOff();
 5082680:	50817640 	call	5081764 <LED_AllOff>
 5082684:	00003b06 	br	5082774 <main+0x440>
            }else{
                // continue playing
                int i = 0;
 5082688:	e03ff515 	stw	zero,-44(fp)
                while ((i < PLAY_BLOCK_SIZE) && (PlayLen < RecordLen)){
 508268c:	00003106 	br	5082754 <main+0x420>
                    try_cnt = 0;
 5082690:	e03ff315 	stw	zero,-52(fp)
                    while (!AUDIO_DacFifoNotFull() && try_cnt < MAX_TRY_CNT){  // wait while full
 5082694:	00000306 	br	50826a4 <main+0x370>
                        try_cnt++;
 5082698:	e0bff317 	ldw	r2,-52(fp)
 508269c:	10800044 	addi	r2,r2,1
 50826a0:	e0bff315 	stw	r2,-52(fp)
            }else{
                // continue playing
                int i = 0;
                while ((i < PLAY_BLOCK_SIZE) && (PlayLen < RecordLen)){
                    try_cnt = 0;
                    while (!AUDIO_DacFifoNotFull() && try_cnt < MAX_TRY_CNT){  // wait while full
 50826a4:	5080e800 	call	5080e80 <AUDIO_DacFifoNotFull>
 50826a8:	1000031e 	bne	r2,zero,50826b8 <main+0x384>
 50826ac:	e0bff317 	ldw	r2,-52(fp)
 50826b0:	10810030 	cmpltui	r2,r2,1024
 50826b4:	103ff81e 	bne	r2,zero,5082698 <__alt_data_end+0xfffb4498>
                        try_cnt++;
                    }
                    if (try_cnt >= MAX_TRY_CNT){
 50826b8:	e0bff317 	ldw	r2,-52(fp)
 50826bc:	10810030 	cmpltui	r2,r2,1024
 50826c0:	1000031e 	bne	r2,zero,50826d0 <main+0x39c>
                        bError = TRUE;
 50826c4:	00800044 	movi	r2,1
 50826c8:	e0bfee15 	stw	r2,-72(fp)
                        break;
 50826cc:	00002706 	br	508276c <main+0x438>
                    }
                    data = *pPlaying++;
 50826d0:	e0bfef17 	ldw	r2,-68(fp)
 50826d4:	10c00104 	addi	r3,r2,4
 50826d8:	e0ffef15 	stw	r3,-68(fp)
 50826dc:	10800017 	ldw	r2,0(r2)
 50826e0:	e0bffd15 	stw	r2,-12(fp)

                    //data = 0;
                    ch_left = data >> 16;
 50826e4:	e0bffd17 	ldw	r2,-12(fp)
 50826e8:	1004d43a 	srli	r2,r2,16
 50826ec:	e0bfff8d 	sth	r2,-2(fp)
                    ch_right = data & 0xFFFF;
 50826f0:	e0bffd17 	ldw	r2,-12(fp)
 50826f4:	e0bfff0d 	sth	r2,-4(fp)
                    AUDIO_DacFifoSetData(ch_left, ch_right);
 50826f8:	e0bfff8b 	ldhu	r2,-2(fp)
 50826fc:	10bfffcc 	andi	r2,r2,65535
 5082700:	10a0001c 	xori	r2,r2,32768
 5082704:	10a00004 	addi	r2,r2,-32768
 5082708:	e0ffff0b 	ldhu	r3,-4(fp)
 508270c:	18ffffcc 	andi	r3,r3,65535
 5082710:	18e0001c 	xori	r3,r3,32768
 5082714:	18e00004 	addi	r3,r3,-32768
 5082718:	180b883a 	mov	r5,r3
 508271c:	1009883a 	mov	r4,r2
 5082720:	5080ebc0 	call	5080ebc <AUDIO_DacFifoSetData>
                    i++;
 5082724:	e0bff517 	ldw	r2,-44(fp)
 5082728:	10800044 	addi	r2,r2,1
 508272c:	e0bff515 	stw	r2,-44(fp)
                    PlayLen++;
 5082730:	e0bff217 	ldw	r2,-56(fp)
 5082734:	10800044 	addi	r2,r2,1
 5082738:	e0bff215 	stw	r2,-56(fp)
                    show_power(data & 0xFFFF);
 508273c:	e0bffd17 	ldw	r2,-12(fp)
 5082740:	10bfffcc 	andi	r2,r2,65535
 5082744:	10a0001c 	xori	r2,r2,32768
 5082748:	10a00004 	addi	r2,r2,-32768
 508274c:	1009883a 	mov	r4,r2
 5082750:	50820d00 	call	50820d0 <show_power>
                state = ST_STANDY;
                LED_AllOff();
            }else{
                // continue playing
                int i = 0;
                while ((i < PLAY_BLOCK_SIZE) && (PlayLen < RecordLen)){
 5082754:	e0bff517 	ldw	r2,-44(fp)
 5082758:	10803e88 	cmpgei	r2,r2,250
 508275c:	1000031e 	bne	r2,zero,508276c <main+0x438>
 5082760:	e0fff217 	ldw	r3,-56(fp)
 5082764:	e0bff117 	ldw	r2,-60(fp)
 5082768:	18bfc936 	bltu	r3,r2,5082690 <__alt_data_end+0xfffb4490>
                    i++;
                    PlayLen++;
                    show_power(data & 0xFFFF);
                    //printf("[%d] %d/%d\n", PlayLen, (short)((data >> 16) & 0xFFFF), (short)(data & 0xFFFF));
                }
                display_time_elapsed(PlayLen);
 508276c:	e13ff217 	ldw	r4,-56(fp)
 5082770:	508207c0 	call	508207c <display_time_elapsed>
            }
        }
    }
 5082774:	003f0b06 	br	50823a4 <__alt_data_end+0xfffb41a4>

}
 5082778:	e037883a 	mov	sp,fp
 508277c:	dfc00117 	ldw	ra,4(sp)
 5082780:	df000017 	ldw	fp,0(sp)
 5082784:	dec00204 	addi	sp,sp,8
 5082788:	f800283a 	ret

0508278c <__divsi3>:
 508278c:	20001b16 	blt	r4,zero,50827fc <__divsi3+0x70>
 5082790:	000f883a 	mov	r7,zero
 5082794:	28001616 	blt	r5,zero,50827f0 <__divsi3+0x64>
 5082798:	200d883a 	mov	r6,r4
 508279c:	29001a2e 	bgeu	r5,r4,5082808 <__divsi3+0x7c>
 50827a0:	00800804 	movi	r2,32
 50827a4:	00c00044 	movi	r3,1
 50827a8:	00000106 	br	50827b0 <__divsi3+0x24>
 50827ac:	10000d26 	beq	r2,zero,50827e4 <__divsi3+0x58>
 50827b0:	294b883a 	add	r5,r5,r5
 50827b4:	10bfffc4 	addi	r2,r2,-1
 50827b8:	18c7883a 	add	r3,r3,r3
 50827bc:	293ffb36 	bltu	r5,r4,50827ac <__alt_data_end+0xfffb45ac>
 50827c0:	0005883a 	mov	r2,zero
 50827c4:	18000726 	beq	r3,zero,50827e4 <__divsi3+0x58>
 50827c8:	0005883a 	mov	r2,zero
 50827cc:	31400236 	bltu	r6,r5,50827d8 <__divsi3+0x4c>
 50827d0:	314dc83a 	sub	r6,r6,r5
 50827d4:	10c4b03a 	or	r2,r2,r3
 50827d8:	1806d07a 	srli	r3,r3,1
 50827dc:	280ad07a 	srli	r5,r5,1
 50827e0:	183ffa1e 	bne	r3,zero,50827cc <__alt_data_end+0xfffb45cc>
 50827e4:	38000126 	beq	r7,zero,50827ec <__divsi3+0x60>
 50827e8:	0085c83a 	sub	r2,zero,r2
 50827ec:	f800283a 	ret
 50827f0:	014bc83a 	sub	r5,zero,r5
 50827f4:	39c0005c 	xori	r7,r7,1
 50827f8:	003fe706 	br	5082798 <__alt_data_end+0xfffb4598>
 50827fc:	0109c83a 	sub	r4,zero,r4
 5082800:	01c00044 	movi	r7,1
 5082804:	003fe306 	br	5082794 <__alt_data_end+0xfffb4594>
 5082808:	00c00044 	movi	r3,1
 508280c:	003fee06 	br	50827c8 <__alt_data_end+0xfffb45c8>

05082810 <__modsi3>:
 5082810:	20001716 	blt	r4,zero,5082870 <__modsi3+0x60>
 5082814:	000f883a 	mov	r7,zero
 5082818:	2005883a 	mov	r2,r4
 508281c:	28001216 	blt	r5,zero,5082868 <__modsi3+0x58>
 5082820:	2900162e 	bgeu	r5,r4,508287c <__modsi3+0x6c>
 5082824:	01800804 	movi	r6,32
 5082828:	00c00044 	movi	r3,1
 508282c:	00000106 	br	5082834 <__modsi3+0x24>
 5082830:	30000a26 	beq	r6,zero,508285c <__modsi3+0x4c>
 5082834:	294b883a 	add	r5,r5,r5
 5082838:	31bfffc4 	addi	r6,r6,-1
 508283c:	18c7883a 	add	r3,r3,r3
 5082840:	293ffb36 	bltu	r5,r4,5082830 <__alt_data_end+0xfffb4630>
 5082844:	18000526 	beq	r3,zero,508285c <__modsi3+0x4c>
 5082848:	1806d07a 	srli	r3,r3,1
 508284c:	11400136 	bltu	r2,r5,5082854 <__modsi3+0x44>
 5082850:	1145c83a 	sub	r2,r2,r5
 5082854:	280ad07a 	srli	r5,r5,1
 5082858:	183ffb1e 	bne	r3,zero,5082848 <__alt_data_end+0xfffb4648>
 508285c:	38000126 	beq	r7,zero,5082864 <__modsi3+0x54>
 5082860:	0085c83a 	sub	r2,zero,r2
 5082864:	f800283a 	ret
 5082868:	014bc83a 	sub	r5,zero,r5
 508286c:	003fec06 	br	5082820 <__alt_data_end+0xfffb4620>
 5082870:	0109c83a 	sub	r4,zero,r4
 5082874:	01c00044 	movi	r7,1
 5082878:	003fe706 	br	5082818 <__alt_data_end+0xfffb4618>
 508287c:	00c00044 	movi	r3,1
 5082880:	003ff106 	br	5082848 <__alt_data_end+0xfffb4648>

05082884 <__udivsi3>:
 5082884:	200d883a 	mov	r6,r4
 5082888:	2900152e 	bgeu	r5,r4,50828e0 <__udivsi3+0x5c>
 508288c:	28001416 	blt	r5,zero,50828e0 <__udivsi3+0x5c>
 5082890:	00800804 	movi	r2,32
 5082894:	00c00044 	movi	r3,1
 5082898:	00000206 	br	50828a4 <__udivsi3+0x20>
 508289c:	10000e26 	beq	r2,zero,50828d8 <__udivsi3+0x54>
 50828a0:	28000516 	blt	r5,zero,50828b8 <__udivsi3+0x34>
 50828a4:	294b883a 	add	r5,r5,r5
 50828a8:	10bfffc4 	addi	r2,r2,-1
 50828ac:	18c7883a 	add	r3,r3,r3
 50828b0:	293ffa36 	bltu	r5,r4,508289c <__alt_data_end+0xfffb469c>
 50828b4:	18000826 	beq	r3,zero,50828d8 <__udivsi3+0x54>
 50828b8:	0005883a 	mov	r2,zero
 50828bc:	31400236 	bltu	r6,r5,50828c8 <__udivsi3+0x44>
 50828c0:	314dc83a 	sub	r6,r6,r5
 50828c4:	10c4b03a 	or	r2,r2,r3
 50828c8:	1806d07a 	srli	r3,r3,1
 50828cc:	280ad07a 	srli	r5,r5,1
 50828d0:	183ffa1e 	bne	r3,zero,50828bc <__alt_data_end+0xfffb46bc>
 50828d4:	f800283a 	ret
 50828d8:	0005883a 	mov	r2,zero
 50828dc:	f800283a 	ret
 50828e0:	00c00044 	movi	r3,1
 50828e4:	003ff406 	br	50828b8 <__alt_data_end+0xfffb46b8>

050828e8 <__umodsi3>:
 50828e8:	2005883a 	mov	r2,r4
 50828ec:	2900122e 	bgeu	r5,r4,5082938 <__umodsi3+0x50>
 50828f0:	28001116 	blt	r5,zero,5082938 <__umodsi3+0x50>
 50828f4:	01800804 	movi	r6,32
 50828f8:	00c00044 	movi	r3,1
 50828fc:	00000206 	br	5082908 <__umodsi3+0x20>
 5082900:	30000c26 	beq	r6,zero,5082934 <__umodsi3+0x4c>
 5082904:	28000516 	blt	r5,zero,508291c <__umodsi3+0x34>
 5082908:	294b883a 	add	r5,r5,r5
 508290c:	31bfffc4 	addi	r6,r6,-1
 5082910:	18c7883a 	add	r3,r3,r3
 5082914:	293ffa36 	bltu	r5,r4,5082900 <__alt_data_end+0xfffb4700>
 5082918:	18000626 	beq	r3,zero,5082934 <__umodsi3+0x4c>
 508291c:	1806d07a 	srli	r3,r3,1
 5082920:	11400136 	bltu	r2,r5,5082928 <__umodsi3+0x40>
 5082924:	1145c83a 	sub	r2,r2,r5
 5082928:	280ad07a 	srli	r5,r5,1
 508292c:	183ffb1e 	bne	r3,zero,508291c <__alt_data_end+0xfffb471c>
 5082930:	f800283a 	ret
 5082934:	f800283a 	ret
 5082938:	00c00044 	movi	r3,1
 508293c:	003ff706 	br	508291c <__alt_data_end+0xfffb471c>

05082940 <_printf_r>:
 5082940:	defffd04 	addi	sp,sp,-12
 5082944:	2805883a 	mov	r2,r5
 5082948:	dfc00015 	stw	ra,0(sp)
 508294c:	d9800115 	stw	r6,4(sp)
 5082950:	d9c00215 	stw	r7,8(sp)
 5082954:	21400217 	ldw	r5,8(r4)
 5082958:	d9c00104 	addi	r7,sp,4
 508295c:	100d883a 	mov	r6,r2
 5082960:	5084db40 	call	5084db4 <___vfprintf_internal_r>
 5082964:	dfc00017 	ldw	ra,0(sp)
 5082968:	dec00304 	addi	sp,sp,12
 508296c:	f800283a 	ret

05082970 <printf>:
 5082970:	defffc04 	addi	sp,sp,-16
 5082974:	dfc00015 	stw	ra,0(sp)
 5082978:	d9400115 	stw	r5,4(sp)
 508297c:	d9800215 	stw	r6,8(sp)
 5082980:	d9c00315 	stw	r7,12(sp)
 5082984:	00814274 	movhi	r2,1289
 5082988:	109ef004 	addi	r2,r2,31680
 508298c:	10800017 	ldw	r2,0(r2)
 5082990:	200b883a 	mov	r5,r4
 5082994:	d9800104 	addi	r6,sp,4
 5082998:	11000217 	ldw	r4,8(r2)
 508299c:	5086fac0 	call	5086fac <__vfprintf_internal>
 50829a0:	dfc00017 	ldw	ra,0(sp)
 50829a4:	dec00404 	addi	sp,sp,16
 50829a8:	f800283a 	ret

050829ac <_puts_r>:
 50829ac:	defff604 	addi	sp,sp,-40
 50829b0:	dc000715 	stw	r16,28(sp)
 50829b4:	2021883a 	mov	r16,r4
 50829b8:	2809883a 	mov	r4,r5
 50829bc:	dc400815 	stw	r17,32(sp)
 50829c0:	dfc00915 	stw	ra,36(sp)
 50829c4:	2823883a 	mov	r17,r5
 50829c8:	5082b440 	call	5082b44 <strlen>
 50829cc:	10c00044 	addi	r3,r2,1
 50829d0:	d8800115 	stw	r2,4(sp)
 50829d4:	00814274 	movhi	r2,1289
 50829d8:	10977204 	addi	r2,r2,24008
 50829dc:	d8800215 	stw	r2,8(sp)
 50829e0:	00800044 	movi	r2,1
 50829e4:	d8800315 	stw	r2,12(sp)
 50829e8:	00800084 	movi	r2,2
 50829ec:	dc400015 	stw	r17,0(sp)
 50829f0:	d8c00615 	stw	r3,24(sp)
 50829f4:	dec00415 	stw	sp,16(sp)
 50829f8:	d8800515 	stw	r2,20(sp)
 50829fc:	80000226 	beq	r16,zero,5082a08 <_puts_r+0x5c>
 5082a00:	80800e17 	ldw	r2,56(r16)
 5082a04:	10001426 	beq	r2,zero,5082a58 <_puts_r+0xac>
 5082a08:	81400217 	ldw	r5,8(r16)
 5082a0c:	2880030b 	ldhu	r2,12(r5)
 5082a10:	10c8000c 	andi	r3,r2,8192
 5082a14:	1800061e 	bne	r3,zero,5082a30 <_puts_r+0x84>
 5082a18:	29001917 	ldw	r4,100(r5)
 5082a1c:	00f7ffc4 	movi	r3,-8193
 5082a20:	10880014 	ori	r2,r2,8192
 5082a24:	20c6703a 	and	r3,r4,r3
 5082a28:	2880030d 	sth	r2,12(r5)
 5082a2c:	28c01915 	stw	r3,100(r5)
 5082a30:	d9800404 	addi	r6,sp,16
 5082a34:	8009883a 	mov	r4,r16
 5082a38:	50896000 	call	5089600 <__sfvwrite_r>
 5082a3c:	1000091e 	bne	r2,zero,5082a64 <_puts_r+0xb8>
 5082a40:	00800284 	movi	r2,10
 5082a44:	dfc00917 	ldw	ra,36(sp)
 5082a48:	dc400817 	ldw	r17,32(sp)
 5082a4c:	dc000717 	ldw	r16,28(sp)
 5082a50:	dec00a04 	addi	sp,sp,40
 5082a54:	f800283a 	ret
 5082a58:	8009883a 	mov	r4,r16
 5082a5c:	508917c0 	call	508917c <__sinit>
 5082a60:	003fe906 	br	5082a08 <__alt_data_end+0xfffb4808>
 5082a64:	00bfffc4 	movi	r2,-1
 5082a68:	003ff606 	br	5082a44 <__alt_data_end+0xfffb4844>

05082a6c <puts>:
 5082a6c:	00814274 	movhi	r2,1289
 5082a70:	109ef004 	addi	r2,r2,31680
 5082a74:	200b883a 	mov	r5,r4
 5082a78:	11000017 	ldw	r4,0(r2)
 5082a7c:	50829ac1 	jmpi	50829ac <_puts_r>

05082a80 <_sprintf_r>:
 5082a80:	deffe404 	addi	sp,sp,-112
 5082a84:	2807883a 	mov	r3,r5
 5082a88:	dfc01a15 	stw	ra,104(sp)
 5082a8c:	d9c01b15 	stw	r7,108(sp)
 5082a90:	00a00034 	movhi	r2,32768
 5082a94:	10bfffc4 	addi	r2,r2,-1
 5082a98:	02008204 	movi	r8,520
 5082a9c:	d8800215 	stw	r2,8(sp)
 5082aa0:	d8800515 	stw	r2,20(sp)
 5082aa4:	d9c01b04 	addi	r7,sp,108
 5082aa8:	d80b883a 	mov	r5,sp
 5082aac:	00bfffc4 	movi	r2,-1
 5082ab0:	d8c00015 	stw	r3,0(sp)
 5082ab4:	d8c00415 	stw	r3,16(sp)
 5082ab8:	da00030d 	sth	r8,12(sp)
 5082abc:	d880038d 	sth	r2,14(sp)
 5082ac0:	5082bdc0 	call	5082bdc <___svfprintf_internal_r>
 5082ac4:	d8c00017 	ldw	r3,0(sp)
 5082ac8:	18000005 	stb	zero,0(r3)
 5082acc:	dfc01a17 	ldw	ra,104(sp)
 5082ad0:	dec01c04 	addi	sp,sp,112
 5082ad4:	f800283a 	ret

05082ad8 <sprintf>:
 5082ad8:	deffe304 	addi	sp,sp,-116
 5082adc:	2007883a 	mov	r3,r4
 5082ae0:	dfc01a15 	stw	ra,104(sp)
 5082ae4:	d9801b15 	stw	r6,108(sp)
 5082ae8:	d9c01c15 	stw	r7,112(sp)
 5082aec:	01014274 	movhi	r4,1289
 5082af0:	211ef004 	addi	r4,r4,31680
 5082af4:	21000017 	ldw	r4,0(r4)
 5082af8:	00a00034 	movhi	r2,32768
 5082afc:	10bfffc4 	addi	r2,r2,-1
 5082b00:	280d883a 	mov	r6,r5
 5082b04:	02008204 	movi	r8,520
 5082b08:	d8800215 	stw	r2,8(sp)
 5082b0c:	d8800515 	stw	r2,20(sp)
 5082b10:	d9c01b04 	addi	r7,sp,108
 5082b14:	d80b883a 	mov	r5,sp
 5082b18:	00bfffc4 	movi	r2,-1
 5082b1c:	d8c00015 	stw	r3,0(sp)
 5082b20:	d8c00415 	stw	r3,16(sp)
 5082b24:	da00030d 	sth	r8,12(sp)
 5082b28:	d880038d 	sth	r2,14(sp)
 5082b2c:	5082bdc0 	call	5082bdc <___svfprintf_internal_r>
 5082b30:	d8c00017 	ldw	r3,0(sp)
 5082b34:	18000005 	stb	zero,0(r3)
 5082b38:	dfc01a17 	ldw	ra,104(sp)
 5082b3c:	dec01d04 	addi	sp,sp,116
 5082b40:	f800283a 	ret

05082b44 <strlen>:
 5082b44:	208000cc 	andi	r2,r4,3
 5082b48:	10002026 	beq	r2,zero,5082bcc <strlen+0x88>
 5082b4c:	20800007 	ldb	r2,0(r4)
 5082b50:	10002026 	beq	r2,zero,5082bd4 <strlen+0x90>
 5082b54:	2005883a 	mov	r2,r4
 5082b58:	00000206 	br	5082b64 <strlen+0x20>
 5082b5c:	10c00007 	ldb	r3,0(r2)
 5082b60:	18001826 	beq	r3,zero,5082bc4 <strlen+0x80>
 5082b64:	10800044 	addi	r2,r2,1
 5082b68:	10c000cc 	andi	r3,r2,3
 5082b6c:	183ffb1e 	bne	r3,zero,5082b5c <__alt_data_end+0xfffb495c>
 5082b70:	10c00017 	ldw	r3,0(r2)
 5082b74:	01ffbff4 	movhi	r7,65279
 5082b78:	39ffbfc4 	addi	r7,r7,-257
 5082b7c:	00ca303a 	nor	r5,zero,r3
 5082b80:	01a02074 	movhi	r6,32897
 5082b84:	19c7883a 	add	r3,r3,r7
 5082b88:	31a02004 	addi	r6,r6,-32640
 5082b8c:	1946703a 	and	r3,r3,r5
 5082b90:	1986703a 	and	r3,r3,r6
 5082b94:	1800091e 	bne	r3,zero,5082bbc <strlen+0x78>
 5082b98:	10800104 	addi	r2,r2,4
 5082b9c:	10c00017 	ldw	r3,0(r2)
 5082ba0:	19cb883a 	add	r5,r3,r7
 5082ba4:	00c6303a 	nor	r3,zero,r3
 5082ba8:	28c6703a 	and	r3,r5,r3
 5082bac:	1986703a 	and	r3,r3,r6
 5082bb0:	183ff926 	beq	r3,zero,5082b98 <__alt_data_end+0xfffb4998>
 5082bb4:	00000106 	br	5082bbc <strlen+0x78>
 5082bb8:	10800044 	addi	r2,r2,1
 5082bbc:	10c00007 	ldb	r3,0(r2)
 5082bc0:	183ffd1e 	bne	r3,zero,5082bb8 <__alt_data_end+0xfffb49b8>
 5082bc4:	1105c83a 	sub	r2,r2,r4
 5082bc8:	f800283a 	ret
 5082bcc:	2005883a 	mov	r2,r4
 5082bd0:	003fe706 	br	5082b70 <__alt_data_end+0xfffb4970>
 5082bd4:	0005883a 	mov	r2,zero
 5082bd8:	f800283a 	ret

05082bdc <___svfprintf_internal_r>:
 5082bdc:	deffb704 	addi	sp,sp,-292
 5082be0:	dfc04815 	stw	ra,288(sp)
 5082be4:	ddc04615 	stw	r23,280(sp)
 5082be8:	d9402c15 	stw	r5,176(sp)
 5082bec:	d9003915 	stw	r4,228(sp)
 5082bf0:	302f883a 	mov	r23,r6
 5082bf4:	d9c02d15 	stw	r7,180(sp)
 5082bf8:	df004715 	stw	fp,284(sp)
 5082bfc:	dd804515 	stw	r22,276(sp)
 5082c00:	dd404415 	stw	r21,272(sp)
 5082c04:	dd004315 	stw	r20,268(sp)
 5082c08:	dcc04215 	stw	r19,264(sp)
 5082c0c:	dc804115 	stw	r18,260(sp)
 5082c10:	dc404015 	stw	r17,256(sp)
 5082c14:	dc003f15 	stw	r16,252(sp)
 5082c18:	5089cf00 	call	5089cf0 <_localeconv_r>
 5082c1c:	10800017 	ldw	r2,0(r2)
 5082c20:	1009883a 	mov	r4,r2
 5082c24:	d8803415 	stw	r2,208(sp)
 5082c28:	5082b440 	call	5082b44 <strlen>
 5082c2c:	d8c02c17 	ldw	r3,176(sp)
 5082c30:	d8803815 	stw	r2,224(sp)
 5082c34:	1880030b 	ldhu	r2,12(r3)
 5082c38:	1080200c 	andi	r2,r2,128
 5082c3c:	10000226 	beq	r2,zero,5082c48 <___svfprintf_internal_r+0x6c>
 5082c40:	18800417 	ldw	r2,16(r3)
 5082c44:	10067f26 	beq	r2,zero,5084644 <___svfprintf_internal_r+0x1a68>
 5082c48:	dcc03917 	ldw	r19,228(sp)
 5082c4c:	d8c00404 	addi	r3,sp,16
 5082c50:	05414274 	movhi	r21,1289
 5082c54:	d9001e04 	addi	r4,sp,120
 5082c58:	ad578384 	addi	r21,r21,24078
 5082c5c:	d8c01e15 	stw	r3,120(sp)
 5082c60:	d8002015 	stw	zero,128(sp)
 5082c64:	d8001f15 	stw	zero,124(sp)
 5082c68:	d8003315 	stw	zero,204(sp)
 5082c6c:	d8003615 	stw	zero,216(sp)
 5082c70:	d8003715 	stw	zero,220(sp)
 5082c74:	1811883a 	mov	r8,r3
 5082c78:	d8003a15 	stw	zero,232(sp)
 5082c7c:	d8003b15 	stw	zero,236(sp)
 5082c80:	d8002f15 	stw	zero,188(sp)
 5082c84:	d9002815 	stw	r4,160(sp)
 5082c88:	b8800007 	ldb	r2,0(r23)
 5082c8c:	10026726 	beq	r2,zero,508362c <___svfprintf_internal_r+0xa50>
 5082c90:	00c00944 	movi	r3,37
 5082c94:	b821883a 	mov	r16,r23
 5082c98:	10c0021e 	bne	r2,r3,5082ca4 <___svfprintf_internal_r+0xc8>
 5082c9c:	00001406 	br	5082cf0 <___svfprintf_internal_r+0x114>
 5082ca0:	10c00326 	beq	r2,r3,5082cb0 <___svfprintf_internal_r+0xd4>
 5082ca4:	84000044 	addi	r16,r16,1
 5082ca8:	80800007 	ldb	r2,0(r16)
 5082cac:	103ffc1e 	bne	r2,zero,5082ca0 <__alt_data_end+0xfffb4aa0>
 5082cb0:	85e3c83a 	sub	r17,r16,r23
 5082cb4:	88000e26 	beq	r17,zero,5082cf0 <___svfprintf_internal_r+0x114>
 5082cb8:	d8c02017 	ldw	r3,128(sp)
 5082cbc:	d8801f17 	ldw	r2,124(sp)
 5082cc0:	45c00015 	stw	r23,0(r8)
 5082cc4:	1c47883a 	add	r3,r3,r17
 5082cc8:	10800044 	addi	r2,r2,1
 5082ccc:	d8c02015 	stw	r3,128(sp)
 5082cd0:	44400115 	stw	r17,4(r8)
 5082cd4:	d8801f15 	stw	r2,124(sp)
 5082cd8:	00c001c4 	movi	r3,7
 5082cdc:	18809716 	blt	r3,r2,5082f3c <___svfprintf_internal_r+0x360>
 5082ce0:	42000204 	addi	r8,r8,8
 5082ce4:	d9402f17 	ldw	r5,188(sp)
 5082ce8:	2c4b883a 	add	r5,r5,r17
 5082cec:	d9402f15 	stw	r5,188(sp)
 5082cf0:	80800007 	ldb	r2,0(r16)
 5082cf4:	10009826 	beq	r2,zero,5082f58 <___svfprintf_internal_r+0x37c>
 5082cf8:	84400047 	ldb	r17,1(r16)
 5082cfc:	00bfffc4 	movi	r2,-1
 5082d00:	85c00044 	addi	r23,r16,1
 5082d04:	d8002785 	stb	zero,158(sp)
 5082d08:	0007883a 	mov	r3,zero
 5082d0c:	000f883a 	mov	r7,zero
 5082d10:	d8802915 	stw	r2,164(sp)
 5082d14:	d8003115 	stw	zero,196(sp)
 5082d18:	0025883a 	mov	r18,zero
 5082d1c:	01401604 	movi	r5,88
 5082d20:	01800244 	movi	r6,9
 5082d24:	02800a84 	movi	r10,42
 5082d28:	02401b04 	movi	r9,108
 5082d2c:	bdc00044 	addi	r23,r23,1
 5082d30:	88bff804 	addi	r2,r17,-32
 5082d34:	2882f036 	bltu	r5,r2,50838f8 <___svfprintf_internal_r+0xd1c>
 5082d38:	100490ba 	slli	r2,r2,2
 5082d3c:	01014234 	movhi	r4,1288
 5082d40:	210b5404 	addi	r4,r4,11600
 5082d44:	1105883a 	add	r2,r2,r4
 5082d48:	10800017 	ldw	r2,0(r2)
 5082d4c:	1000683a 	jmp	r2
 5082d50:	05083860 	cmpeqi	r20,zero,8417
 5082d54:	050838f8 	rdprs	r20,zero,8419
 5082d58:	050838f8 	rdprs	r20,zero,8419
 5082d5c:	05083854 	movui	r20,8417
 5082d60:	050838f8 	rdprs	r20,zero,8419
 5082d64:	050838f8 	rdprs	r20,zero,8419
 5082d68:	050838f8 	rdprs	r20,zero,8419
 5082d6c:	050838f8 	rdprs	r20,zero,8419
 5082d70:	050838f8 	rdprs	r20,zero,8419
 5082d74:	050838f8 	rdprs	r20,zero,8419
 5082d78:	05082fb4 	movhi	r20,8382
 5082d7c:	05083790 	cmplti	r20,zero,8414
 5082d80:	050838f8 	rdprs	r20,zero,8419
 5082d84:	05082ec4 	movi	r20,8379
 5082d88:	05082fdc 	xori	r20,zero,8383
 5082d8c:	050838f8 	rdprs	r20,zero,8419
 5082d90:	05083050 	cmplti	r20,zero,8385
 5082d94:	0508301c 	xori	r20,zero,8384
 5082d98:	0508301c 	xori	r20,zero,8384
 5082d9c:	0508301c 	xori	r20,zero,8384
 5082da0:	0508301c 	xori	r20,zero,8384
 5082da4:	0508301c 	xori	r20,zero,8384
 5082da8:	0508301c 	xori	r20,zero,8384
 5082dac:	0508301c 	xori	r20,zero,8384
 5082db0:	0508301c 	xori	r20,zero,8384
 5082db4:	0508301c 	xori	r20,zero,8384
 5082db8:	050838f8 	rdprs	r20,zero,8419
 5082dbc:	050838f8 	rdprs	r20,zero,8419
 5082dc0:	050838f8 	rdprs	r20,zero,8419
 5082dc4:	050838f8 	rdprs	r20,zero,8419
 5082dc8:	050838f8 	rdprs	r20,zero,8419
 5082dcc:	050838f8 	rdprs	r20,zero,8419
 5082dd0:	050838f8 	rdprs	r20,zero,8419
 5082dd4:	050838f8 	rdprs	r20,zero,8419
 5082dd8:	050838f8 	rdprs	r20,zero,8419
 5082ddc:	050838f8 	rdprs	r20,zero,8419
 5082de0:	05083108 	cmpgei	r20,zero,8388
 5082de4:	0508305c 	xori	r20,zero,8385
 5082de8:	050838f8 	rdprs	r20,zero,8419
 5082dec:	0508305c 	xori	r20,zero,8385
 5082df0:	050838f8 	rdprs	r20,zero,8419
 5082df4:	050838f8 	rdprs	r20,zero,8419
 5082df8:	050838f8 	rdprs	r20,zero,8419
 5082dfc:	050838f8 	rdprs	r20,zero,8419
 5082e00:	050830fc 	xorhi	r20,zero,8387
 5082e04:	050838f8 	rdprs	r20,zero,8419
 5082e08:	050838f8 	rdprs	r20,zero,8419
 5082e0c:	050831c4 	movi	r20,8391
 5082e10:	050838f8 	rdprs	r20,zero,8419
 5082e14:	050838f8 	rdprs	r20,zero,8419
 5082e18:	050838f8 	rdprs	r20,zero,8419
 5082e1c:	050838f8 	rdprs	r20,zero,8419
 5082e20:	050838f8 	rdprs	r20,zero,8419
 5082e24:	05083634 	movhi	r20,8408
 5082e28:	050838f8 	rdprs	r20,zero,8419
 5082e2c:	050838f8 	rdprs	r20,zero,8419
 5082e30:	05083694 	movui	r20,8410
 5082e34:	050838f8 	rdprs	r20,zero,8419
 5082e38:	050838f8 	rdprs	r20,zero,8419
 5082e3c:	050838f8 	rdprs	r20,zero,8419
 5082e40:	050838f8 	rdprs	r20,zero,8419
 5082e44:	050838f8 	rdprs	r20,zero,8419
 5082e48:	050838f8 	rdprs	r20,zero,8419
 5082e4c:	050838f8 	rdprs	r20,zero,8419
 5082e50:	050838f8 	rdprs	r20,zero,8419
 5082e54:	050838f8 	rdprs	r20,zero,8419
 5082e58:	050838f8 	rdprs	r20,zero,8419
 5082e5c:	05083744 	movi	r20,8413
 5082e60:	05083880 	call	508388 <__alt_mem_sdram+0x508388>
 5082e64:	0508305c 	xori	r20,zero,8385
 5082e68:	0508305c 	xori	r20,zero,8385
 5082e6c:	0508305c 	xori	r20,zero,8385
 5082e70:	050838d4 	movui	r20,8419
 5082e74:	05083880 	call	508388 <__alt_mem_sdram+0x508388>
 5082e78:	050838f8 	rdprs	r20,zero,8419
 5082e7c:	050838f8 	rdprs	r20,zero,8419
 5082e80:	05083890 	cmplti	r20,zero,8418
 5082e84:	050838f8 	rdprs	r20,zero,8419
 5082e88:	050838a0 	cmpeqi	r20,zero,8418
 5082e8c:	05083780 	call	508378 <__alt_mem_sdram+0x508378>
 5082e90:	05082ed0 	cmplti	r20,zero,8379
 5082e94:	050837a0 	cmpeqi	r20,zero,8414
 5082e98:	050838f8 	rdprs	r20,zero,8419
 5082e9c:	050837ac 	andhi	r20,zero,8414
 5082ea0:	050838f8 	rdprs	r20,zero,8419
 5082ea4:	05083808 	cmpgei	r20,zero,8416
 5082ea8:	050838f8 	rdprs	r20,zero,8419
 5082eac:	050838f8 	rdprs	r20,zero,8419
 5082eb0:	05083818 	cmpnei	r20,zero,8416
 5082eb4:	d9003117 	ldw	r4,196(sp)
 5082eb8:	d8802d15 	stw	r2,180(sp)
 5082ebc:	0109c83a 	sub	r4,zero,r4
 5082ec0:	d9003115 	stw	r4,196(sp)
 5082ec4:	94800114 	ori	r18,r18,4
 5082ec8:	bc400007 	ldb	r17,0(r23)
 5082ecc:	003f9706 	br	5082d2c <__alt_data_end+0xfffb4b2c>
 5082ed0:	00800c04 	movi	r2,48
 5082ed4:	d9002d17 	ldw	r4,180(sp)
 5082ed8:	d9402917 	ldw	r5,164(sp)
 5082edc:	d8802705 	stb	r2,156(sp)
 5082ee0:	00801e04 	movi	r2,120
 5082ee4:	d8802745 	stb	r2,157(sp)
 5082ee8:	d8002785 	stb	zero,158(sp)
 5082eec:	20c00104 	addi	r3,r4,4
 5082ef0:	25000017 	ldw	r20,0(r4)
 5082ef4:	002d883a 	mov	r22,zero
 5082ef8:	90800094 	ori	r2,r18,2
 5082efc:	28028616 	blt	r5,zero,5083918 <___svfprintf_internal_r+0xd3c>
 5082f00:	00bfdfc4 	movi	r2,-129
 5082f04:	90a4703a 	and	r18,r18,r2
 5082f08:	d8c02d15 	stw	r3,180(sp)
 5082f0c:	94800094 	ori	r18,r18,2
 5082f10:	a002731e 	bne	r20,zero,50838e0 <___svfprintf_internal_r+0xd04>
 5082f14:	00814274 	movhi	r2,1289
 5082f18:	10977c04 	addi	r2,r2,24048
 5082f1c:	d8803a15 	stw	r2,232(sp)
 5082f20:	04401e04 	movi	r17,120
 5082f24:	d8c02917 	ldw	r3,164(sp)
 5082f28:	0039883a 	mov	fp,zero
 5082f2c:	1801d526 	beq	r3,zero,5083684 <___svfprintf_internal_r+0xaa8>
 5082f30:	0029883a 	mov	r20,zero
 5082f34:	002d883a 	mov	r22,zero
 5082f38:	0001f106 	br	5083700 <___svfprintf_internal_r+0xb24>
 5082f3c:	d9402c17 	ldw	r5,176(sp)
 5082f40:	d9801e04 	addi	r6,sp,120
 5082f44:	9809883a 	mov	r4,r19
 5082f48:	508c3d80 	call	508c3d8 <__ssprint_r>
 5082f4c:	1000081e 	bne	r2,zero,5082f70 <___svfprintf_internal_r+0x394>
 5082f50:	da000404 	addi	r8,sp,16
 5082f54:	003f6306 	br	5082ce4 <__alt_data_end+0xfffb4ae4>
 5082f58:	d8802017 	ldw	r2,128(sp)
 5082f5c:	10000426 	beq	r2,zero,5082f70 <___svfprintf_internal_r+0x394>
 5082f60:	d9402c17 	ldw	r5,176(sp)
 5082f64:	d9003917 	ldw	r4,228(sp)
 5082f68:	d9801e04 	addi	r6,sp,120
 5082f6c:	508c3d80 	call	508c3d8 <__ssprint_r>
 5082f70:	d8802c17 	ldw	r2,176(sp)
 5082f74:	10c0030b 	ldhu	r3,12(r2)
 5082f78:	d8802f17 	ldw	r2,188(sp)
 5082f7c:	18c0100c 	andi	r3,r3,64
 5082f80:	1805f51e 	bne	r3,zero,5084758 <___svfprintf_internal_r+0x1b7c>
 5082f84:	dfc04817 	ldw	ra,288(sp)
 5082f88:	df004717 	ldw	fp,284(sp)
 5082f8c:	ddc04617 	ldw	r23,280(sp)
 5082f90:	dd804517 	ldw	r22,276(sp)
 5082f94:	dd404417 	ldw	r21,272(sp)
 5082f98:	dd004317 	ldw	r20,268(sp)
 5082f9c:	dcc04217 	ldw	r19,264(sp)
 5082fa0:	dc804117 	ldw	r18,260(sp)
 5082fa4:	dc404017 	ldw	r17,256(sp)
 5082fa8:	dc003f17 	ldw	r16,252(sp)
 5082fac:	dec04904 	addi	sp,sp,292
 5082fb0:	f800283a 	ret
 5082fb4:	d8802d17 	ldw	r2,180(sp)
 5082fb8:	d9002d17 	ldw	r4,180(sp)
 5082fbc:	10800017 	ldw	r2,0(r2)
 5082fc0:	d8803115 	stw	r2,196(sp)
 5082fc4:	20800104 	addi	r2,r4,4
 5082fc8:	d9003117 	ldw	r4,196(sp)
 5082fcc:	203fb916 	blt	r4,zero,5082eb4 <__alt_data_end+0xfffb4cb4>
 5082fd0:	d8802d15 	stw	r2,180(sp)
 5082fd4:	bc400007 	ldb	r17,0(r23)
 5082fd8:	003f5406 	br	5082d2c <__alt_data_end+0xfffb4b2c>
 5082fdc:	bc400007 	ldb	r17,0(r23)
 5082fe0:	bac00044 	addi	r11,r23,1
 5082fe4:	8a873926 	beq	r17,r10,5084ccc <___svfprintf_internal_r+0x20f0>
 5082fe8:	88bff404 	addi	r2,r17,-48
 5082fec:	0009883a 	mov	r4,zero
 5082ff0:	30868836 	bltu	r6,r2,5084a14 <___svfprintf_internal_r+0x1e38>
 5082ff4:	5c400007 	ldb	r17,0(r11)
 5082ff8:	210002a4 	muli	r4,r4,10
 5082ffc:	5dc00044 	addi	r23,r11,1
 5083000:	b817883a 	mov	r11,r23
 5083004:	2089883a 	add	r4,r4,r2
 5083008:	88bff404 	addi	r2,r17,-48
 508300c:	30bff92e 	bgeu	r6,r2,5082ff4 <__alt_data_end+0xfffb4df4>
 5083010:	2005d716 	blt	r4,zero,5084770 <___svfprintf_internal_r+0x1b94>
 5083014:	d9002915 	stw	r4,164(sp)
 5083018:	003f4506 	br	5082d30 <__alt_data_end+0xfffb4b30>
 508301c:	b809883a 	mov	r4,r23
 5083020:	d8003115 	stw	zero,196(sp)
 5083024:	88bff404 	addi	r2,r17,-48
 5083028:	0017883a 	mov	r11,zero
 508302c:	24400007 	ldb	r17,0(r4)
 5083030:	5ac002a4 	muli	r11,r11,10
 5083034:	bdc00044 	addi	r23,r23,1
 5083038:	b809883a 	mov	r4,r23
 508303c:	12d7883a 	add	r11,r2,r11
 5083040:	88bff404 	addi	r2,r17,-48
 5083044:	30bff92e 	bgeu	r6,r2,508302c <__alt_data_end+0xfffb4e2c>
 5083048:	dac03115 	stw	r11,196(sp)
 508304c:	003f3806 	br	5082d30 <__alt_data_end+0xfffb4b30>
 5083050:	94802014 	ori	r18,r18,128
 5083054:	bc400007 	ldb	r17,0(r23)
 5083058:	003f3406 	br	5082d2c <__alt_data_end+0xfffb4b2c>
 508305c:	18c03fcc 	andi	r3,r3,255
 5083060:	1807471e 	bne	r3,zero,5084d80 <___svfprintf_internal_r+0x21a4>
 5083064:	9080020c 	andi	r2,r18,8
 5083068:	10047d26 	beq	r2,zero,5084260 <___svfprintf_internal_r+0x1684>
 508306c:	d8c02d17 	ldw	r3,180(sp)
 5083070:	d9002d17 	ldw	r4,180(sp)
 5083074:	d9402d17 	ldw	r5,180(sp)
 5083078:	18c00017 	ldw	r3,0(r3)
 508307c:	21000117 	ldw	r4,4(r4)
 5083080:	29400204 	addi	r5,r5,8
 5083084:	d8c03615 	stw	r3,216(sp)
 5083088:	d9003715 	stw	r4,220(sp)
 508308c:	d9402d15 	stw	r5,180(sp)
 5083090:	d9003617 	ldw	r4,216(sp)
 5083094:	d9403717 	ldw	r5,220(sp)
 5083098:	da003e15 	stw	r8,248(sp)
 508309c:	04000044 	movi	r16,1
 50830a0:	508c0f80 	call	508c0f8 <__fpclassifyd>
 50830a4:	da003e17 	ldw	r8,248(sp)
 50830a8:	14044b1e 	bne	r2,r16,50841d8 <___svfprintf_internal_r+0x15fc>
 50830ac:	d9003617 	ldw	r4,216(sp)
 50830b0:	d9403717 	ldw	r5,220(sp)
 50830b4:	000d883a 	mov	r6,zero
 50830b8:	000f883a 	mov	r7,zero
 50830bc:	50915080 	call	5091508 <__ledf2>
 50830c0:	da003e17 	ldw	r8,248(sp)
 50830c4:	1005f316 	blt	r2,zero,5084894 <___svfprintf_internal_r+0x1cb8>
 50830c8:	df002783 	ldbu	fp,158(sp)
 50830cc:	008011c4 	movi	r2,71
 50830d0:	1445590e 	bge	r2,r17,5084638 <___svfprintf_internal_r+0x1a5c>
 50830d4:	04014274 	movhi	r16,1289
 50830d8:	84177404 	addi	r16,r16,24016
 50830dc:	00c000c4 	movi	r3,3
 50830e0:	00bfdfc4 	movi	r2,-129
 50830e4:	d8c02a15 	stw	r3,168(sp)
 50830e8:	90a4703a 	and	r18,r18,r2
 50830ec:	d8c02e15 	stw	r3,184(sp)
 50830f0:	d8002915 	stw	zero,164(sp)
 50830f4:	d8003215 	stw	zero,200(sp)
 50830f8:	00006606 	br	5083294 <___svfprintf_internal_r+0x6b8>
 50830fc:	94800214 	ori	r18,r18,8
 5083100:	bc400007 	ldb	r17,0(r23)
 5083104:	003f0906 	br	5082d2c <__alt_data_end+0xfffb4b2c>
 5083108:	18c03fcc 	andi	r3,r3,255
 508310c:	1807181e 	bne	r3,zero,5084d70 <___svfprintf_internal_r+0x2194>
 5083110:	94800414 	ori	r18,r18,16
 5083114:	9080080c 	andi	r2,r18,32
 5083118:	10039626 	beq	r2,zero,5083f74 <___svfprintf_internal_r+0x1398>
 508311c:	d9402d17 	ldw	r5,180(sp)
 5083120:	28800117 	ldw	r2,4(r5)
 5083124:	2d000017 	ldw	r20,0(r5)
 5083128:	29400204 	addi	r5,r5,8
 508312c:	d9402d15 	stw	r5,180(sp)
 5083130:	102d883a 	mov	r22,r2
 5083134:	10039816 	blt	r2,zero,5083f98 <___svfprintf_internal_r+0x13bc>
 5083138:	d9402917 	ldw	r5,164(sp)
 508313c:	df002783 	ldbu	fp,158(sp)
 5083140:	2803ab16 	blt	r5,zero,5083ff0 <___svfprintf_internal_r+0x1414>
 5083144:	00ffdfc4 	movi	r3,-129
 5083148:	a584b03a 	or	r2,r20,r22
 508314c:	90e4703a 	and	r18,r18,r3
 5083150:	10014a26 	beq	r2,zero,508367c <___svfprintf_internal_r+0xaa0>
 5083154:	b0034b26 	beq	r22,zero,5083e84 <___svfprintf_internal_r+0x12a8>
 5083158:	dc402a15 	stw	r17,168(sp)
 508315c:	dc001e04 	addi	r16,sp,120
 5083160:	b023883a 	mov	r17,r22
 5083164:	402d883a 	mov	r22,r8
 5083168:	a009883a 	mov	r4,r20
 508316c:	880b883a 	mov	r5,r17
 5083170:	01800284 	movi	r6,10
 5083174:	000f883a 	mov	r7,zero
 5083178:	508fcd80 	call	508fcd8 <__umoddi3>
 508317c:	10800c04 	addi	r2,r2,48
 5083180:	843fffc4 	addi	r16,r16,-1
 5083184:	a009883a 	mov	r4,r20
 5083188:	880b883a 	mov	r5,r17
 508318c:	80800005 	stb	r2,0(r16)
 5083190:	01800284 	movi	r6,10
 5083194:	000f883a 	mov	r7,zero
 5083198:	508f7600 	call	508f760 <__udivdi3>
 508319c:	1029883a 	mov	r20,r2
 50831a0:	10c4b03a 	or	r2,r2,r3
 50831a4:	1823883a 	mov	r17,r3
 50831a8:	103fef1e 	bne	r2,zero,5083168 <__alt_data_end+0xfffb4f68>
 50831ac:	d8c02817 	ldw	r3,160(sp)
 50831b0:	dc402a17 	ldw	r17,168(sp)
 50831b4:	b011883a 	mov	r8,r22
 50831b8:	1c07c83a 	sub	r3,r3,r16
 50831bc:	d8c02e15 	stw	r3,184(sp)
 50831c0:	00002e06 	br	508327c <___svfprintf_internal_r+0x6a0>
 50831c4:	18c03fcc 	andi	r3,r3,255
 50831c8:	1806e71e 	bne	r3,zero,5084d68 <___svfprintf_internal_r+0x218c>
 50831cc:	94800414 	ori	r18,r18,16
 50831d0:	9080080c 	andi	r2,r18,32
 50831d4:	1002d426 	beq	r2,zero,5083d28 <___svfprintf_internal_r+0x114c>
 50831d8:	d9402d17 	ldw	r5,180(sp)
 50831dc:	d8c02917 	ldw	r3,164(sp)
 50831e0:	d8002785 	stb	zero,158(sp)
 50831e4:	28800204 	addi	r2,r5,8
 50831e8:	2d000017 	ldw	r20,0(r5)
 50831ec:	2d800117 	ldw	r22,4(r5)
 50831f0:	18041516 	blt	r3,zero,5084248 <___svfprintf_internal_r+0x166c>
 50831f4:	013fdfc4 	movi	r4,-129
 50831f8:	a586b03a 	or	r3,r20,r22
 50831fc:	d8802d15 	stw	r2,180(sp)
 5083200:	9124703a 	and	r18,r18,r4
 5083204:	1802d51e 	bne	r3,zero,5083d5c <___svfprintf_internal_r+0x1180>
 5083208:	d9402917 	ldw	r5,164(sp)
 508320c:	0039883a 	mov	fp,zero
 5083210:	2806be26 	beq	r5,zero,5084d0c <___svfprintf_internal_r+0x2130>
 5083214:	0029883a 	mov	r20,zero
 5083218:	002d883a 	mov	r22,zero
 508321c:	dc001e04 	addi	r16,sp,120
 5083220:	a006d0fa 	srli	r3,r20,3
 5083224:	b008977a 	slli	r4,r22,29
 5083228:	b02cd0fa 	srli	r22,r22,3
 508322c:	a50001cc 	andi	r20,r20,7
 5083230:	a0800c04 	addi	r2,r20,48
 5083234:	843fffc4 	addi	r16,r16,-1
 5083238:	20e8b03a 	or	r20,r4,r3
 508323c:	80800005 	stb	r2,0(r16)
 5083240:	a586b03a 	or	r3,r20,r22
 5083244:	183ff61e 	bne	r3,zero,5083220 <__alt_data_end+0xfffb5020>
 5083248:	90c0004c 	andi	r3,r18,1
 508324c:	18013926 	beq	r3,zero,5083734 <___svfprintf_internal_r+0xb58>
 5083250:	10803fcc 	andi	r2,r2,255
 5083254:	1080201c 	xori	r2,r2,128
 5083258:	10bfe004 	addi	r2,r2,-128
 508325c:	00c00c04 	movi	r3,48
 5083260:	10c13426 	beq	r2,r3,5083734 <___svfprintf_internal_r+0xb58>
 5083264:	80ffffc5 	stb	r3,-1(r16)
 5083268:	d8c02817 	ldw	r3,160(sp)
 508326c:	80bfffc4 	addi	r2,r16,-1
 5083270:	1021883a 	mov	r16,r2
 5083274:	1887c83a 	sub	r3,r3,r2
 5083278:	d8c02e15 	stw	r3,184(sp)
 508327c:	d8802e17 	ldw	r2,184(sp)
 5083280:	d9002917 	ldw	r4,164(sp)
 5083284:	1100010e 	bge	r2,r4,508328c <___svfprintf_internal_r+0x6b0>
 5083288:	2005883a 	mov	r2,r4
 508328c:	d8802a15 	stw	r2,168(sp)
 5083290:	d8003215 	stw	zero,200(sp)
 5083294:	e7003fcc 	andi	fp,fp,255
 5083298:	e700201c 	xori	fp,fp,128
 508329c:	e73fe004 	addi	fp,fp,-128
 50832a0:	e0000326 	beq	fp,zero,50832b0 <___svfprintf_internal_r+0x6d4>
 50832a4:	d8c02a17 	ldw	r3,168(sp)
 50832a8:	18c00044 	addi	r3,r3,1
 50832ac:	d8c02a15 	stw	r3,168(sp)
 50832b0:	90c0008c 	andi	r3,r18,2
 50832b4:	d8c02b15 	stw	r3,172(sp)
 50832b8:	18000326 	beq	r3,zero,50832c8 <___svfprintf_internal_r+0x6ec>
 50832bc:	d8c02a17 	ldw	r3,168(sp)
 50832c0:	18c00084 	addi	r3,r3,2
 50832c4:	d8c02a15 	stw	r3,168(sp)
 50832c8:	90c0210c 	andi	r3,r18,132
 50832cc:	d8c03015 	stw	r3,192(sp)
 50832d0:	1801a11e 	bne	r3,zero,5083958 <___svfprintf_internal_r+0xd7c>
 50832d4:	d9003117 	ldw	r4,196(sp)
 50832d8:	d8c02a17 	ldw	r3,168(sp)
 50832dc:	20e9c83a 	sub	r20,r4,r3
 50832e0:	05019d0e 	bge	zero,r20,5083958 <___svfprintf_internal_r+0xd7c>
 50832e4:	02400404 	movi	r9,16
 50832e8:	d8c02017 	ldw	r3,128(sp)
 50832ec:	d8801f17 	ldw	r2,124(sp)
 50832f0:	4d051b0e 	bge	r9,r20,5084760 <___svfprintf_internal_r+0x1b84>
 50832f4:	01414274 	movhi	r5,1289
 50832f8:	29578784 	addi	r5,r5,24094
 50832fc:	dc403c15 	stw	r17,240(sp)
 5083300:	d9403515 	stw	r5,212(sp)
 5083304:	a023883a 	mov	r17,r20
 5083308:	482d883a 	mov	r22,r9
 508330c:	9029883a 	mov	r20,r18
 5083310:	070001c4 	movi	fp,7
 5083314:	8025883a 	mov	r18,r16
 5083318:	dc002c17 	ldw	r16,176(sp)
 508331c:	00000306 	br	508332c <___svfprintf_internal_r+0x750>
 5083320:	8c7ffc04 	addi	r17,r17,-16
 5083324:	42000204 	addi	r8,r8,8
 5083328:	b440130e 	bge	r22,r17,5083378 <___svfprintf_internal_r+0x79c>
 508332c:	01014274 	movhi	r4,1289
 5083330:	18c00404 	addi	r3,r3,16
 5083334:	10800044 	addi	r2,r2,1
 5083338:	21178784 	addi	r4,r4,24094
 508333c:	41000015 	stw	r4,0(r8)
 5083340:	45800115 	stw	r22,4(r8)
 5083344:	d8c02015 	stw	r3,128(sp)
 5083348:	d8801f15 	stw	r2,124(sp)
 508334c:	e0bff40e 	bge	fp,r2,5083320 <__alt_data_end+0xfffb5120>
 5083350:	d9801e04 	addi	r6,sp,120
 5083354:	800b883a 	mov	r5,r16
 5083358:	9809883a 	mov	r4,r19
 508335c:	508c3d80 	call	508c3d8 <__ssprint_r>
 5083360:	103f031e 	bne	r2,zero,5082f70 <__alt_data_end+0xfffb4d70>
 5083364:	8c7ffc04 	addi	r17,r17,-16
 5083368:	d8c02017 	ldw	r3,128(sp)
 508336c:	d8801f17 	ldw	r2,124(sp)
 5083370:	da000404 	addi	r8,sp,16
 5083374:	b47fed16 	blt	r22,r17,508332c <__alt_data_end+0xfffb512c>
 5083378:	9021883a 	mov	r16,r18
 508337c:	a025883a 	mov	r18,r20
 5083380:	8829883a 	mov	r20,r17
 5083384:	dc403c17 	ldw	r17,240(sp)
 5083388:	d9403517 	ldw	r5,212(sp)
 508338c:	a0c7883a 	add	r3,r20,r3
 5083390:	10800044 	addi	r2,r2,1
 5083394:	41400015 	stw	r5,0(r8)
 5083398:	45000115 	stw	r20,4(r8)
 508339c:	d8c02015 	stw	r3,128(sp)
 50833a0:	d8801f15 	stw	r2,124(sp)
 50833a4:	010001c4 	movi	r4,7
 50833a8:	20829f16 	blt	r4,r2,5083e28 <___svfprintf_internal_r+0x124c>
 50833ac:	df002787 	ldb	fp,158(sp)
 50833b0:	42000204 	addi	r8,r8,8
 50833b4:	e0000c26 	beq	fp,zero,50833e8 <___svfprintf_internal_r+0x80c>
 50833b8:	d8801f17 	ldw	r2,124(sp)
 50833bc:	d9002784 	addi	r4,sp,158
 50833c0:	18c00044 	addi	r3,r3,1
 50833c4:	10800044 	addi	r2,r2,1
 50833c8:	41000015 	stw	r4,0(r8)
 50833cc:	01000044 	movi	r4,1
 50833d0:	41000115 	stw	r4,4(r8)
 50833d4:	d8c02015 	stw	r3,128(sp)
 50833d8:	d8801f15 	stw	r2,124(sp)
 50833dc:	010001c4 	movi	r4,7
 50833e0:	20823816 	blt	r4,r2,5083cc4 <___svfprintf_internal_r+0x10e8>
 50833e4:	42000204 	addi	r8,r8,8
 50833e8:	d8802b17 	ldw	r2,172(sp)
 50833ec:	10000c26 	beq	r2,zero,5083420 <___svfprintf_internal_r+0x844>
 50833f0:	d8801f17 	ldw	r2,124(sp)
 50833f4:	d9002704 	addi	r4,sp,156
 50833f8:	18c00084 	addi	r3,r3,2
 50833fc:	10800044 	addi	r2,r2,1
 5083400:	41000015 	stw	r4,0(r8)
 5083404:	01000084 	movi	r4,2
 5083408:	41000115 	stw	r4,4(r8)
 508340c:	d8c02015 	stw	r3,128(sp)
 5083410:	d8801f15 	stw	r2,124(sp)
 5083414:	010001c4 	movi	r4,7
 5083418:	20823216 	blt	r4,r2,5083ce4 <___svfprintf_internal_r+0x1108>
 508341c:	42000204 	addi	r8,r8,8
 5083420:	d9003017 	ldw	r4,192(sp)
 5083424:	00802004 	movi	r2,128
 5083428:	20819726 	beq	r4,r2,5083a88 <___svfprintf_internal_r+0xeac>
 508342c:	d9402917 	ldw	r5,164(sp)
 5083430:	d8802e17 	ldw	r2,184(sp)
 5083434:	28adc83a 	sub	r22,r5,r2
 5083438:	05802f0e 	bge	zero,r22,50834f8 <___svfprintf_internal_r+0x91c>
 508343c:	07000404 	movi	fp,16
 5083440:	d8801f17 	ldw	r2,124(sp)
 5083444:	e583c00e 	bge	fp,r22,5084348 <___svfprintf_internal_r+0x176c>
 5083448:	01414274 	movhi	r5,1289
 508344c:	29578384 	addi	r5,r5,24078
 5083450:	dc402915 	stw	r17,164(sp)
 5083454:	d9402b15 	stw	r5,172(sp)
 5083458:	b023883a 	mov	r17,r22
 508345c:	050001c4 	movi	r20,7
 5083460:	902d883a 	mov	r22,r18
 5083464:	8025883a 	mov	r18,r16
 5083468:	dc002c17 	ldw	r16,176(sp)
 508346c:	00000306 	br	508347c <___svfprintf_internal_r+0x8a0>
 5083470:	8c7ffc04 	addi	r17,r17,-16
 5083474:	42000204 	addi	r8,r8,8
 5083478:	e440110e 	bge	fp,r17,50834c0 <___svfprintf_internal_r+0x8e4>
 508347c:	18c00404 	addi	r3,r3,16
 5083480:	10800044 	addi	r2,r2,1
 5083484:	45400015 	stw	r21,0(r8)
 5083488:	47000115 	stw	fp,4(r8)
 508348c:	d8c02015 	stw	r3,128(sp)
 5083490:	d8801f15 	stw	r2,124(sp)
 5083494:	a0bff60e 	bge	r20,r2,5083470 <__alt_data_end+0xfffb5270>
 5083498:	d9801e04 	addi	r6,sp,120
 508349c:	800b883a 	mov	r5,r16
 50834a0:	9809883a 	mov	r4,r19
 50834a4:	508c3d80 	call	508c3d8 <__ssprint_r>
 50834a8:	103eb11e 	bne	r2,zero,5082f70 <__alt_data_end+0xfffb4d70>
 50834ac:	8c7ffc04 	addi	r17,r17,-16
 50834b0:	d8c02017 	ldw	r3,128(sp)
 50834b4:	d8801f17 	ldw	r2,124(sp)
 50834b8:	da000404 	addi	r8,sp,16
 50834bc:	e47fef16 	blt	fp,r17,508347c <__alt_data_end+0xfffb527c>
 50834c0:	9021883a 	mov	r16,r18
 50834c4:	b025883a 	mov	r18,r22
 50834c8:	882d883a 	mov	r22,r17
 50834cc:	dc402917 	ldw	r17,164(sp)
 50834d0:	d9002b17 	ldw	r4,172(sp)
 50834d4:	1d87883a 	add	r3,r3,r22
 50834d8:	10800044 	addi	r2,r2,1
 50834dc:	41000015 	stw	r4,0(r8)
 50834e0:	45800115 	stw	r22,4(r8)
 50834e4:	d8c02015 	stw	r3,128(sp)
 50834e8:	d8801f15 	stw	r2,124(sp)
 50834ec:	010001c4 	movi	r4,7
 50834f0:	2081ec16 	blt	r4,r2,5083ca4 <___svfprintf_internal_r+0x10c8>
 50834f4:	42000204 	addi	r8,r8,8
 50834f8:	9080400c 	andi	r2,r18,256
 50834fc:	1001181e 	bne	r2,zero,5083960 <___svfprintf_internal_r+0xd84>
 5083500:	d9402e17 	ldw	r5,184(sp)
 5083504:	d8801f17 	ldw	r2,124(sp)
 5083508:	44000015 	stw	r16,0(r8)
 508350c:	1947883a 	add	r3,r3,r5
 5083510:	10800044 	addi	r2,r2,1
 5083514:	41400115 	stw	r5,4(r8)
 5083518:	d8c02015 	stw	r3,128(sp)
 508351c:	d8801f15 	stw	r2,124(sp)
 5083520:	010001c4 	movi	r4,7
 5083524:	2081d116 	blt	r4,r2,5083c6c <___svfprintf_internal_r+0x1090>
 5083528:	42000204 	addi	r8,r8,8
 508352c:	9480010c 	andi	r18,r18,4
 5083530:	90003226 	beq	r18,zero,50835fc <___svfprintf_internal_r+0xa20>
 5083534:	d9403117 	ldw	r5,196(sp)
 5083538:	d8802a17 	ldw	r2,168(sp)
 508353c:	28a1c83a 	sub	r16,r5,r2
 5083540:	04002e0e 	bge	zero,r16,50835fc <___svfprintf_internal_r+0xa20>
 5083544:	04400404 	movi	r17,16
 5083548:	d8801f17 	ldw	r2,124(sp)
 508354c:	8c04b90e 	bge	r17,r16,5084834 <___svfprintf_internal_r+0x1c58>
 5083550:	01414274 	movhi	r5,1289
 5083554:	29578784 	addi	r5,r5,24094
 5083558:	d9403515 	stw	r5,212(sp)
 508355c:	048001c4 	movi	r18,7
 5083560:	dd002c17 	ldw	r20,176(sp)
 5083564:	00000306 	br	5083574 <___svfprintf_internal_r+0x998>
 5083568:	843ffc04 	addi	r16,r16,-16
 508356c:	42000204 	addi	r8,r8,8
 5083570:	8c00130e 	bge	r17,r16,50835c0 <___svfprintf_internal_r+0x9e4>
 5083574:	01014274 	movhi	r4,1289
 5083578:	18c00404 	addi	r3,r3,16
 508357c:	10800044 	addi	r2,r2,1
 5083580:	21178784 	addi	r4,r4,24094
 5083584:	41000015 	stw	r4,0(r8)
 5083588:	44400115 	stw	r17,4(r8)
 508358c:	d8c02015 	stw	r3,128(sp)
 5083590:	d8801f15 	stw	r2,124(sp)
 5083594:	90bff40e 	bge	r18,r2,5083568 <__alt_data_end+0xfffb5368>
 5083598:	d9801e04 	addi	r6,sp,120
 508359c:	a00b883a 	mov	r5,r20
 50835a0:	9809883a 	mov	r4,r19
 50835a4:	508c3d80 	call	508c3d8 <__ssprint_r>
 50835a8:	103e711e 	bne	r2,zero,5082f70 <__alt_data_end+0xfffb4d70>
 50835ac:	843ffc04 	addi	r16,r16,-16
 50835b0:	d8c02017 	ldw	r3,128(sp)
 50835b4:	d8801f17 	ldw	r2,124(sp)
 50835b8:	da000404 	addi	r8,sp,16
 50835bc:	8c3fed16 	blt	r17,r16,5083574 <__alt_data_end+0xfffb5374>
 50835c0:	d9403517 	ldw	r5,212(sp)
 50835c4:	1c07883a 	add	r3,r3,r16
 50835c8:	10800044 	addi	r2,r2,1
 50835cc:	41400015 	stw	r5,0(r8)
 50835d0:	44000115 	stw	r16,4(r8)
 50835d4:	d8c02015 	stw	r3,128(sp)
 50835d8:	d8801f15 	stw	r2,124(sp)
 50835dc:	010001c4 	movi	r4,7
 50835e0:	2080060e 	bge	r4,r2,50835fc <___svfprintf_internal_r+0xa20>
 50835e4:	d9402c17 	ldw	r5,176(sp)
 50835e8:	d9801e04 	addi	r6,sp,120
 50835ec:	9809883a 	mov	r4,r19
 50835f0:	508c3d80 	call	508c3d8 <__ssprint_r>
 50835f4:	103e5e1e 	bne	r2,zero,5082f70 <__alt_data_end+0xfffb4d70>
 50835f8:	d8c02017 	ldw	r3,128(sp)
 50835fc:	d8803117 	ldw	r2,196(sp)
 5083600:	d9002a17 	ldw	r4,168(sp)
 5083604:	1100010e 	bge	r2,r4,508360c <___svfprintf_internal_r+0xa30>
 5083608:	2005883a 	mov	r2,r4
 508360c:	d9402f17 	ldw	r5,188(sp)
 5083610:	288b883a 	add	r5,r5,r2
 5083614:	d9402f15 	stw	r5,188(sp)
 5083618:	18019c1e 	bne	r3,zero,5083c8c <___svfprintf_internal_r+0x10b0>
 508361c:	b8800007 	ldb	r2,0(r23)
 5083620:	d8001f15 	stw	zero,124(sp)
 5083624:	da000404 	addi	r8,sp,16
 5083628:	103d991e 	bne	r2,zero,5082c90 <__alt_data_end+0xfffb4a90>
 508362c:	b821883a 	mov	r16,r23
 5083630:	003daf06 	br	5082cf0 <__alt_data_end+0xfffb4af0>
 5083634:	18c03fcc 	andi	r3,r3,255
 5083638:	1805c71e 	bne	r3,zero,5084d58 <___svfprintf_internal_r+0x217c>
 508363c:	94800414 	ori	r18,r18,16
 5083640:	9080080c 	andi	r2,r18,32
 5083644:	10020126 	beq	r2,zero,5083e4c <___svfprintf_internal_r+0x1270>
 5083648:	d8802d17 	ldw	r2,180(sp)
 508364c:	d9002917 	ldw	r4,164(sp)
 5083650:	d8002785 	stb	zero,158(sp)
 5083654:	10c00204 	addi	r3,r2,8
 5083658:	15000017 	ldw	r20,0(r2)
 508365c:	15800117 	ldw	r22,4(r2)
 5083660:	20038e16 	blt	r4,zero,508449c <___svfprintf_internal_r+0x18c0>
 5083664:	013fdfc4 	movi	r4,-129
 5083668:	a584b03a 	or	r2,r20,r22
 508366c:	d8c02d15 	stw	r3,180(sp)
 5083670:	9124703a 	and	r18,r18,r4
 5083674:	0039883a 	mov	fp,zero
 5083678:	103eb61e 	bne	r2,zero,5083154 <__alt_data_end+0xfffb4f54>
 508367c:	d8802917 	ldw	r2,164(sp)
 5083680:	1002c81e 	bne	r2,zero,50841a4 <___svfprintf_internal_r+0x15c8>
 5083684:	d8002915 	stw	zero,164(sp)
 5083688:	d8002e15 	stw	zero,184(sp)
 508368c:	dc001e04 	addi	r16,sp,120
 5083690:	003efa06 	br	508327c <__alt_data_end+0xfffb507c>
 5083694:	18c03fcc 	andi	r3,r3,255
 5083698:	1805ad1e 	bne	r3,zero,5084d50 <___svfprintf_internal_r+0x2174>
 508369c:	01414274 	movhi	r5,1289
 50836a0:	29577704 	addi	r5,r5,24028
 50836a4:	d9403a15 	stw	r5,232(sp)
 50836a8:	9080080c 	andi	r2,r18,32
 50836ac:	10006126 	beq	r2,zero,5083834 <___svfprintf_internal_r+0xc58>
 50836b0:	d8802d17 	ldw	r2,180(sp)
 50836b4:	15000017 	ldw	r20,0(r2)
 50836b8:	15800117 	ldw	r22,4(r2)
 50836bc:	10800204 	addi	r2,r2,8
 50836c0:	d8802d15 	stw	r2,180(sp)
 50836c4:	9080004c 	andi	r2,r18,1
 50836c8:	10018e26 	beq	r2,zero,5083d04 <___svfprintf_internal_r+0x1128>
 50836cc:	a584b03a 	or	r2,r20,r22
 50836d0:	10030926 	beq	r2,zero,50842f8 <___svfprintf_internal_r+0x171c>
 50836d4:	d8c02917 	ldw	r3,164(sp)
 50836d8:	00800c04 	movi	r2,48
 50836dc:	d8802705 	stb	r2,156(sp)
 50836e0:	dc402745 	stb	r17,157(sp)
 50836e4:	d8002785 	stb	zero,158(sp)
 50836e8:	90800094 	ori	r2,r18,2
 50836ec:	18048716 	blt	r3,zero,508490c <___svfprintf_internal_r+0x1d30>
 50836f0:	00bfdfc4 	movi	r2,-129
 50836f4:	90a4703a 	and	r18,r18,r2
 50836f8:	94800094 	ori	r18,r18,2
 50836fc:	0039883a 	mov	fp,zero
 5083700:	d9003a17 	ldw	r4,232(sp)
 5083704:	dc001e04 	addi	r16,sp,120
 5083708:	a08003cc 	andi	r2,r20,15
 508370c:	b006973a 	slli	r3,r22,28
 5083710:	2085883a 	add	r2,r4,r2
 5083714:	a028d13a 	srli	r20,r20,4
 5083718:	10800003 	ldbu	r2,0(r2)
 508371c:	b02cd13a 	srli	r22,r22,4
 5083720:	843fffc4 	addi	r16,r16,-1
 5083724:	1d28b03a 	or	r20,r3,r20
 5083728:	80800005 	stb	r2,0(r16)
 508372c:	a584b03a 	or	r2,r20,r22
 5083730:	103ff51e 	bne	r2,zero,5083708 <__alt_data_end+0xfffb5508>
 5083734:	d8c02817 	ldw	r3,160(sp)
 5083738:	1c07c83a 	sub	r3,r3,r16
 508373c:	d8c02e15 	stw	r3,184(sp)
 5083740:	003ece06 	br	508327c <__alt_data_end+0xfffb507c>
 5083744:	d8c02d17 	ldw	r3,180(sp)
 5083748:	d9002d17 	ldw	r4,180(sp)
 508374c:	d8002785 	stb	zero,158(sp)
 5083750:	18800017 	ldw	r2,0(r3)
 5083754:	21000104 	addi	r4,r4,4
 5083758:	00c00044 	movi	r3,1
 508375c:	d8c02a15 	stw	r3,168(sp)
 5083760:	d8801405 	stb	r2,80(sp)
 5083764:	d9002d15 	stw	r4,180(sp)
 5083768:	d8c02e15 	stw	r3,184(sp)
 508376c:	d8002915 	stw	zero,164(sp)
 5083770:	d8003215 	stw	zero,200(sp)
 5083774:	dc001404 	addi	r16,sp,80
 5083778:	0039883a 	mov	fp,zero
 508377c:	003ecc06 	br	50832b0 <__alt_data_end+0xfffb50b0>
 5083780:	18c03fcc 	andi	r3,r3,255
 5083784:	183e9226 	beq	r3,zero,50831d0 <__alt_data_end+0xfffb4fd0>
 5083788:	d9c02785 	stb	r7,158(sp)
 508378c:	003e9006 	br	50831d0 <__alt_data_end+0xfffb4fd0>
 5083790:	00c00044 	movi	r3,1
 5083794:	01c00ac4 	movi	r7,43
 5083798:	bc400007 	ldb	r17,0(r23)
 508379c:	003d6306 	br	5082d2c <__alt_data_end+0xfffb4b2c>
 50837a0:	94800814 	ori	r18,r18,32
 50837a4:	bc400007 	ldb	r17,0(r23)
 50837a8:	003d6006 	br	5082d2c <__alt_data_end+0xfffb4b2c>
 50837ac:	d8c02d17 	ldw	r3,180(sp)
 50837b0:	d8002785 	stb	zero,158(sp)
 50837b4:	1c000017 	ldw	r16,0(r3)
 50837b8:	1d000104 	addi	r20,r3,4
 50837bc:	80040f26 	beq	r16,zero,50847fc <___svfprintf_internal_r+0x1c20>
 50837c0:	d9002917 	ldw	r4,164(sp)
 50837c4:	2003dc16 	blt	r4,zero,5084738 <___svfprintf_internal_r+0x1b5c>
 50837c8:	200d883a 	mov	r6,r4
 50837cc:	000b883a 	mov	r5,zero
 50837d0:	8009883a 	mov	r4,r16
 50837d4:	da003e15 	stw	r8,248(sp)
 50837d8:	508a6e80 	call	508a6e8 <memchr>
 50837dc:	da003e17 	ldw	r8,248(sp)
 50837e0:	10045826 	beq	r2,zero,5084944 <___svfprintf_internal_r+0x1d68>
 50837e4:	1405c83a 	sub	r2,r2,r16
 50837e8:	d8802e15 	stw	r2,184(sp)
 50837ec:	1003d816 	blt	r2,zero,5084750 <___svfprintf_internal_r+0x1b74>
 50837f0:	df002783 	ldbu	fp,158(sp)
 50837f4:	d8802a15 	stw	r2,168(sp)
 50837f8:	dd002d15 	stw	r20,180(sp)
 50837fc:	d8002915 	stw	zero,164(sp)
 5083800:	d8003215 	stw	zero,200(sp)
 5083804:	003ea306 	br	5083294 <__alt_data_end+0xfffb5094>
 5083808:	18c03fcc 	andi	r3,r3,255
 508380c:	183f8c26 	beq	r3,zero,5083640 <__alt_data_end+0xfffb5440>
 5083810:	d9c02785 	stb	r7,158(sp)
 5083814:	003f8a06 	br	5083640 <__alt_data_end+0xfffb5440>
 5083818:	18c03fcc 	andi	r3,r3,255
 508381c:	1805631e 	bne	r3,zero,5084dac <___svfprintf_internal_r+0x21d0>
 5083820:	01414274 	movhi	r5,1289
 5083824:	29577c04 	addi	r5,r5,24048
 5083828:	d9403a15 	stw	r5,232(sp)
 508382c:	9080080c 	andi	r2,r18,32
 5083830:	103f9f1e 	bne	r2,zero,50836b0 <__alt_data_end+0xfffb54b0>
 5083834:	9080040c 	andi	r2,r18,16
 5083838:	10029c26 	beq	r2,zero,50842ac <___svfprintf_internal_r+0x16d0>
 508383c:	d8c02d17 	ldw	r3,180(sp)
 5083840:	002d883a 	mov	r22,zero
 5083844:	1d000017 	ldw	r20,0(r3)
 5083848:	18c00104 	addi	r3,r3,4
 508384c:	d8c02d15 	stw	r3,180(sp)
 5083850:	003f9c06 	br	50836c4 <__alt_data_end+0xfffb54c4>
 5083854:	94800054 	ori	r18,r18,1
 5083858:	bc400007 	ldb	r17,0(r23)
 508385c:	003d3306 	br	5082d2c <__alt_data_end+0xfffb4b2c>
 5083860:	38803fcc 	andi	r2,r7,255
 5083864:	1080201c 	xori	r2,r2,128
 5083868:	10bfe004 	addi	r2,r2,-128
 508386c:	1002971e 	bne	r2,zero,50842cc <___svfprintf_internal_r+0x16f0>
 5083870:	00c00044 	movi	r3,1
 5083874:	01c00804 	movi	r7,32
 5083878:	bc400007 	ldb	r17,0(r23)
 508387c:	003d2b06 	br	5082d2c <__alt_data_end+0xfffb4b2c>
 5083880:	18c03fcc 	andi	r3,r3,255
 5083884:	183e2326 	beq	r3,zero,5083114 <__alt_data_end+0xfffb4f14>
 5083888:	d9c02785 	stb	r7,158(sp)
 508388c:	003e2106 	br	5083114 <__alt_data_end+0xfffb4f14>
 5083890:	bc400007 	ldb	r17,0(r23)
 5083894:	8a430426 	beq	r17,r9,50844a8 <___svfprintf_internal_r+0x18cc>
 5083898:	94800414 	ori	r18,r18,16
 508389c:	003d2306 	br	5082d2c <__alt_data_end+0xfffb4b2c>
 50838a0:	18c03fcc 	andi	r3,r3,255
 50838a4:	18053f1e 	bne	r3,zero,5084da4 <___svfprintf_internal_r+0x21c8>
 50838a8:	9080080c 	andi	r2,r18,32
 50838ac:	10028926 	beq	r2,zero,50842d4 <___svfprintf_internal_r+0x16f8>
 50838b0:	d9402d17 	ldw	r5,180(sp)
 50838b4:	d9002f17 	ldw	r4,188(sp)
 50838b8:	28800017 	ldw	r2,0(r5)
 50838bc:	2007d7fa 	srai	r3,r4,31
 50838c0:	29400104 	addi	r5,r5,4
 50838c4:	d9402d15 	stw	r5,180(sp)
 50838c8:	11000015 	stw	r4,0(r2)
 50838cc:	10c00115 	stw	r3,4(r2)
 50838d0:	003ced06 	br	5082c88 <__alt_data_end+0xfffb4a88>
 50838d4:	94801014 	ori	r18,r18,64
 50838d8:	bc400007 	ldb	r17,0(r23)
 50838dc:	003d1306 	br	5082d2c <__alt_data_end+0xfffb4b2c>
 50838e0:	01014274 	movhi	r4,1289
 50838e4:	21177c04 	addi	r4,r4,24048
 50838e8:	0039883a 	mov	fp,zero
 50838ec:	d9003a15 	stw	r4,232(sp)
 50838f0:	04401e04 	movi	r17,120
 50838f4:	003f8206 	br	5083700 <__alt_data_end+0xfffb5500>
 50838f8:	18c03fcc 	andi	r3,r3,255
 50838fc:	1805221e 	bne	r3,zero,5084d88 <___svfprintf_internal_r+0x21ac>
 5083900:	883d9526 	beq	r17,zero,5082f58 <__alt_data_end+0xfffb4d58>
 5083904:	00c00044 	movi	r3,1
 5083908:	d8c02a15 	stw	r3,168(sp)
 508390c:	dc401405 	stb	r17,80(sp)
 5083910:	d8002785 	stb	zero,158(sp)
 5083914:	003f9406 	br	5083768 <__alt_data_end+0xfffb5568>
 5083918:	01014274 	movhi	r4,1289
 508391c:	21177c04 	addi	r4,r4,24048
 5083920:	d9003a15 	stw	r4,232(sp)
 5083924:	d8c02d15 	stw	r3,180(sp)
 5083928:	1025883a 	mov	r18,r2
 508392c:	04401e04 	movi	r17,120
 5083930:	a584b03a 	or	r2,r20,r22
 5083934:	1000fa1e 	bne	r2,zero,5083d20 <___svfprintf_internal_r+0x1144>
 5083938:	0039883a 	mov	fp,zero
 508393c:	00800084 	movi	r2,2
 5083940:	10803fcc 	andi	r2,r2,255
 5083944:	00c00044 	movi	r3,1
 5083948:	10c21626 	beq	r2,r3,50841a4 <___svfprintf_internal_r+0x15c8>
 508394c:	00c00084 	movi	r3,2
 5083950:	10fe301e 	bne	r2,r3,5083214 <__alt_data_end+0xfffb5014>
 5083954:	003d7606 	br	5082f30 <__alt_data_end+0xfffb4d30>
 5083958:	d8c02017 	ldw	r3,128(sp)
 508395c:	003e9506 	br	50833b4 <__alt_data_end+0xfffb51b4>
 5083960:	00801944 	movi	r2,101
 5083964:	14407c0e 	bge	r2,r17,5083b58 <___svfprintf_internal_r+0xf7c>
 5083968:	d9003617 	ldw	r4,216(sp)
 508396c:	d9403717 	ldw	r5,220(sp)
 5083970:	000d883a 	mov	r6,zero
 5083974:	000f883a 	mov	r7,zero
 5083978:	d8c03d15 	stw	r3,244(sp)
 508397c:	da003e15 	stw	r8,248(sp)
 5083980:	50913a40 	call	50913a4 <__eqdf2>
 5083984:	d8c03d17 	ldw	r3,244(sp)
 5083988:	da003e17 	ldw	r8,248(sp)
 508398c:	1000f51e 	bne	r2,zero,5083d64 <___svfprintf_internal_r+0x1188>
 5083990:	d8801f17 	ldw	r2,124(sp)
 5083994:	01014274 	movhi	r4,1289
 5083998:	21178304 	addi	r4,r4,24076
 508399c:	18c00044 	addi	r3,r3,1
 50839a0:	10800044 	addi	r2,r2,1
 50839a4:	41000015 	stw	r4,0(r8)
 50839a8:	01000044 	movi	r4,1
 50839ac:	41000115 	stw	r4,4(r8)
 50839b0:	d8c02015 	stw	r3,128(sp)
 50839b4:	d8801f15 	stw	r2,124(sp)
 50839b8:	010001c4 	movi	r4,7
 50839bc:	20826616 	blt	r4,r2,5084358 <___svfprintf_internal_r+0x177c>
 50839c0:	42000204 	addi	r8,r8,8
 50839c4:	d8802617 	ldw	r2,152(sp)
 50839c8:	d9403317 	ldw	r5,204(sp)
 50839cc:	11400216 	blt	r2,r5,50839d8 <___svfprintf_internal_r+0xdfc>
 50839d0:	9080004c 	andi	r2,r18,1
 50839d4:	103ed526 	beq	r2,zero,508352c <__alt_data_end+0xfffb532c>
 50839d8:	d8803817 	ldw	r2,224(sp)
 50839dc:	d9003417 	ldw	r4,208(sp)
 50839e0:	d9403817 	ldw	r5,224(sp)
 50839e4:	1887883a 	add	r3,r3,r2
 50839e8:	d8801f17 	ldw	r2,124(sp)
 50839ec:	41000015 	stw	r4,0(r8)
 50839f0:	41400115 	stw	r5,4(r8)
 50839f4:	10800044 	addi	r2,r2,1
 50839f8:	d8c02015 	stw	r3,128(sp)
 50839fc:	d8801f15 	stw	r2,124(sp)
 5083a00:	010001c4 	movi	r4,7
 5083a04:	2082af16 	blt	r4,r2,50844c4 <___svfprintf_internal_r+0x18e8>
 5083a08:	42000204 	addi	r8,r8,8
 5083a0c:	d8803317 	ldw	r2,204(sp)
 5083a10:	143fffc4 	addi	r16,r2,-1
 5083a14:	043ec50e 	bge	zero,r16,508352c <__alt_data_end+0xfffb532c>
 5083a18:	04400404 	movi	r17,16
 5083a1c:	d8801f17 	ldw	r2,124(sp)
 5083a20:	8c00860e 	bge	r17,r16,5083c3c <___svfprintf_internal_r+0x1060>
 5083a24:	01414274 	movhi	r5,1289
 5083a28:	29578384 	addi	r5,r5,24078
 5083a2c:	d9402b15 	stw	r5,172(sp)
 5083a30:	058001c4 	movi	r22,7
 5083a34:	dd002c17 	ldw	r20,176(sp)
 5083a38:	00000306 	br	5083a48 <___svfprintf_internal_r+0xe6c>
 5083a3c:	42000204 	addi	r8,r8,8
 5083a40:	843ffc04 	addi	r16,r16,-16
 5083a44:	8c00800e 	bge	r17,r16,5083c48 <___svfprintf_internal_r+0x106c>
 5083a48:	18c00404 	addi	r3,r3,16
 5083a4c:	10800044 	addi	r2,r2,1
 5083a50:	45400015 	stw	r21,0(r8)
 5083a54:	44400115 	stw	r17,4(r8)
 5083a58:	d8c02015 	stw	r3,128(sp)
 5083a5c:	d8801f15 	stw	r2,124(sp)
 5083a60:	b0bff60e 	bge	r22,r2,5083a3c <__alt_data_end+0xfffb583c>
 5083a64:	d9801e04 	addi	r6,sp,120
 5083a68:	a00b883a 	mov	r5,r20
 5083a6c:	9809883a 	mov	r4,r19
 5083a70:	508c3d80 	call	508c3d8 <__ssprint_r>
 5083a74:	103d3e1e 	bne	r2,zero,5082f70 <__alt_data_end+0xfffb4d70>
 5083a78:	d8c02017 	ldw	r3,128(sp)
 5083a7c:	d8801f17 	ldw	r2,124(sp)
 5083a80:	da000404 	addi	r8,sp,16
 5083a84:	003fee06 	br	5083a40 <__alt_data_end+0xfffb5840>
 5083a88:	d9403117 	ldw	r5,196(sp)
 5083a8c:	d8802a17 	ldw	r2,168(sp)
 5083a90:	28adc83a 	sub	r22,r5,r2
 5083a94:	05be650e 	bge	zero,r22,508342c <__alt_data_end+0xfffb522c>
 5083a98:	07000404 	movi	fp,16
 5083a9c:	d8801f17 	ldw	r2,124(sp)
 5083aa0:	e583a20e 	bge	fp,r22,508492c <___svfprintf_internal_r+0x1d50>
 5083aa4:	01414274 	movhi	r5,1289
 5083aa8:	29578384 	addi	r5,r5,24078
 5083aac:	dc403015 	stw	r17,192(sp)
 5083ab0:	d9402b15 	stw	r5,172(sp)
 5083ab4:	b023883a 	mov	r17,r22
 5083ab8:	050001c4 	movi	r20,7
 5083abc:	902d883a 	mov	r22,r18
 5083ac0:	8025883a 	mov	r18,r16
 5083ac4:	dc002c17 	ldw	r16,176(sp)
 5083ac8:	00000306 	br	5083ad8 <___svfprintf_internal_r+0xefc>
 5083acc:	8c7ffc04 	addi	r17,r17,-16
 5083ad0:	42000204 	addi	r8,r8,8
 5083ad4:	e440110e 	bge	fp,r17,5083b1c <___svfprintf_internal_r+0xf40>
 5083ad8:	18c00404 	addi	r3,r3,16
 5083adc:	10800044 	addi	r2,r2,1
 5083ae0:	45400015 	stw	r21,0(r8)
 5083ae4:	47000115 	stw	fp,4(r8)
 5083ae8:	d8c02015 	stw	r3,128(sp)
 5083aec:	d8801f15 	stw	r2,124(sp)
 5083af0:	a0bff60e 	bge	r20,r2,5083acc <__alt_data_end+0xfffb58cc>
 5083af4:	d9801e04 	addi	r6,sp,120
 5083af8:	800b883a 	mov	r5,r16
 5083afc:	9809883a 	mov	r4,r19
 5083b00:	508c3d80 	call	508c3d8 <__ssprint_r>
 5083b04:	103d1a1e 	bne	r2,zero,5082f70 <__alt_data_end+0xfffb4d70>
 5083b08:	8c7ffc04 	addi	r17,r17,-16
 5083b0c:	d8c02017 	ldw	r3,128(sp)
 5083b10:	d8801f17 	ldw	r2,124(sp)
 5083b14:	da000404 	addi	r8,sp,16
 5083b18:	e47fef16 	blt	fp,r17,5083ad8 <__alt_data_end+0xfffb58d8>
 5083b1c:	9021883a 	mov	r16,r18
 5083b20:	b025883a 	mov	r18,r22
 5083b24:	882d883a 	mov	r22,r17
 5083b28:	dc403017 	ldw	r17,192(sp)
 5083b2c:	d9002b17 	ldw	r4,172(sp)
 5083b30:	1d87883a 	add	r3,r3,r22
 5083b34:	10800044 	addi	r2,r2,1
 5083b38:	41000015 	stw	r4,0(r8)
 5083b3c:	45800115 	stw	r22,4(r8)
 5083b40:	d8c02015 	stw	r3,128(sp)
 5083b44:	d8801f15 	stw	r2,124(sp)
 5083b48:	010001c4 	movi	r4,7
 5083b4c:	20819a16 	blt	r4,r2,50841b8 <___svfprintf_internal_r+0x15dc>
 5083b50:	42000204 	addi	r8,r8,8
 5083b54:	003e3506 	br	508342c <__alt_data_end+0xfffb522c>
 5083b58:	d9403317 	ldw	r5,204(sp)
 5083b5c:	00800044 	movi	r2,1
 5083b60:	18c00044 	addi	r3,r3,1
 5083b64:	1141710e 	bge	r2,r5,508412c <___svfprintf_internal_r+0x1550>
 5083b68:	dc401f17 	ldw	r17,124(sp)
 5083b6c:	00800044 	movi	r2,1
 5083b70:	40800115 	stw	r2,4(r8)
 5083b74:	8c400044 	addi	r17,r17,1
 5083b78:	44000015 	stw	r16,0(r8)
 5083b7c:	d8c02015 	stw	r3,128(sp)
 5083b80:	dc401f15 	stw	r17,124(sp)
 5083b84:	008001c4 	movi	r2,7
 5083b88:	14417416 	blt	r2,r17,508415c <___svfprintf_internal_r+0x1580>
 5083b8c:	42000204 	addi	r8,r8,8
 5083b90:	d8803817 	ldw	r2,224(sp)
 5083b94:	d9003417 	ldw	r4,208(sp)
 5083b98:	8c400044 	addi	r17,r17,1
 5083b9c:	10c7883a 	add	r3,r2,r3
 5083ba0:	40800115 	stw	r2,4(r8)
 5083ba4:	41000015 	stw	r4,0(r8)
 5083ba8:	d8c02015 	stw	r3,128(sp)
 5083bac:	dc401f15 	stw	r17,124(sp)
 5083bb0:	008001c4 	movi	r2,7
 5083bb4:	14417216 	blt	r2,r17,5084180 <___svfprintf_internal_r+0x15a4>
 5083bb8:	45800204 	addi	r22,r8,8
 5083bbc:	d9003617 	ldw	r4,216(sp)
 5083bc0:	d9403717 	ldw	r5,220(sp)
 5083bc4:	000d883a 	mov	r6,zero
 5083bc8:	000f883a 	mov	r7,zero
 5083bcc:	d8c03d15 	stw	r3,244(sp)
 5083bd0:	50913a40 	call	50913a4 <__eqdf2>
 5083bd4:	d8c03d17 	ldw	r3,244(sp)
 5083bd8:	1000b326 	beq	r2,zero,5083ea8 <___svfprintf_internal_r+0x12cc>
 5083bdc:	d9403317 	ldw	r5,204(sp)
 5083be0:	84000044 	addi	r16,r16,1
 5083be4:	8c400044 	addi	r17,r17,1
 5083be8:	28bfffc4 	addi	r2,r5,-1
 5083bec:	1887883a 	add	r3,r3,r2
 5083bf0:	b0800115 	stw	r2,4(r22)
 5083bf4:	b4000015 	stw	r16,0(r22)
 5083bf8:	d8c02015 	stw	r3,128(sp)
 5083bfc:	dc401f15 	stw	r17,124(sp)
 5083c00:	008001c4 	movi	r2,7
 5083c04:	1440d216 	blt	r2,r17,5083f50 <___svfprintf_internal_r+0x1374>
 5083c08:	b5800204 	addi	r22,r22,8
 5083c0c:	d9003b17 	ldw	r4,236(sp)
 5083c10:	df0022c4 	addi	fp,sp,139
 5083c14:	8c400044 	addi	r17,r17,1
 5083c18:	20c7883a 	add	r3,r4,r3
 5083c1c:	b7000015 	stw	fp,0(r22)
 5083c20:	b1000115 	stw	r4,4(r22)
 5083c24:	d8c02015 	stw	r3,128(sp)
 5083c28:	dc401f15 	stw	r17,124(sp)
 5083c2c:	008001c4 	movi	r2,7
 5083c30:	14400e16 	blt	r2,r17,5083c6c <___svfprintf_internal_r+0x1090>
 5083c34:	b2000204 	addi	r8,r22,8
 5083c38:	003e3c06 	br	508352c <__alt_data_end+0xfffb532c>
 5083c3c:	01014274 	movhi	r4,1289
 5083c40:	21178384 	addi	r4,r4,24078
 5083c44:	d9002b15 	stw	r4,172(sp)
 5083c48:	d9002b17 	ldw	r4,172(sp)
 5083c4c:	1c07883a 	add	r3,r3,r16
 5083c50:	44000115 	stw	r16,4(r8)
 5083c54:	41000015 	stw	r4,0(r8)
 5083c58:	10800044 	addi	r2,r2,1
 5083c5c:	d8c02015 	stw	r3,128(sp)
 5083c60:	d8801f15 	stw	r2,124(sp)
 5083c64:	010001c4 	movi	r4,7
 5083c68:	20be2f0e 	bge	r4,r2,5083528 <__alt_data_end+0xfffb5328>
 5083c6c:	d9402c17 	ldw	r5,176(sp)
 5083c70:	d9801e04 	addi	r6,sp,120
 5083c74:	9809883a 	mov	r4,r19
 5083c78:	508c3d80 	call	508c3d8 <__ssprint_r>
 5083c7c:	103cbc1e 	bne	r2,zero,5082f70 <__alt_data_end+0xfffb4d70>
 5083c80:	d8c02017 	ldw	r3,128(sp)
 5083c84:	da000404 	addi	r8,sp,16
 5083c88:	003e2806 	br	508352c <__alt_data_end+0xfffb532c>
 5083c8c:	d9402c17 	ldw	r5,176(sp)
 5083c90:	d9801e04 	addi	r6,sp,120
 5083c94:	9809883a 	mov	r4,r19
 5083c98:	508c3d80 	call	508c3d8 <__ssprint_r>
 5083c9c:	103e5f26 	beq	r2,zero,508361c <__alt_data_end+0xfffb541c>
 5083ca0:	003cb306 	br	5082f70 <__alt_data_end+0xfffb4d70>
 5083ca4:	d9402c17 	ldw	r5,176(sp)
 5083ca8:	d9801e04 	addi	r6,sp,120
 5083cac:	9809883a 	mov	r4,r19
 5083cb0:	508c3d80 	call	508c3d8 <__ssprint_r>
 5083cb4:	103cae1e 	bne	r2,zero,5082f70 <__alt_data_end+0xfffb4d70>
 5083cb8:	d8c02017 	ldw	r3,128(sp)
 5083cbc:	da000404 	addi	r8,sp,16
 5083cc0:	003e0d06 	br	50834f8 <__alt_data_end+0xfffb52f8>
 5083cc4:	d9402c17 	ldw	r5,176(sp)
 5083cc8:	d9801e04 	addi	r6,sp,120
 5083ccc:	9809883a 	mov	r4,r19
 5083cd0:	508c3d80 	call	508c3d8 <__ssprint_r>
 5083cd4:	103ca61e 	bne	r2,zero,5082f70 <__alt_data_end+0xfffb4d70>
 5083cd8:	d8c02017 	ldw	r3,128(sp)
 5083cdc:	da000404 	addi	r8,sp,16
 5083ce0:	003dc106 	br	50833e8 <__alt_data_end+0xfffb51e8>
 5083ce4:	d9402c17 	ldw	r5,176(sp)
 5083ce8:	d9801e04 	addi	r6,sp,120
 5083cec:	9809883a 	mov	r4,r19
 5083cf0:	508c3d80 	call	508c3d8 <__ssprint_r>
 5083cf4:	103c9e1e 	bne	r2,zero,5082f70 <__alt_data_end+0xfffb4d70>
 5083cf8:	d8c02017 	ldw	r3,128(sp)
 5083cfc:	da000404 	addi	r8,sp,16
 5083d00:	003dc706 	br	5083420 <__alt_data_end+0xfffb5220>
 5083d04:	d8802917 	ldw	r2,164(sp)
 5083d08:	d8002785 	stb	zero,158(sp)
 5083d0c:	103f0816 	blt	r2,zero,5083930 <__alt_data_end+0xfffb5730>
 5083d10:	00ffdfc4 	movi	r3,-129
 5083d14:	a584b03a 	or	r2,r20,r22
 5083d18:	90e4703a 	and	r18,r18,r3
 5083d1c:	103c8126 	beq	r2,zero,5082f24 <__alt_data_end+0xfffb4d24>
 5083d20:	0039883a 	mov	fp,zero
 5083d24:	003e7606 	br	5083700 <__alt_data_end+0xfffb5500>
 5083d28:	9080040c 	andi	r2,r18,16
 5083d2c:	10013d26 	beq	r2,zero,5084224 <___svfprintf_internal_r+0x1648>
 5083d30:	d9002d17 	ldw	r4,180(sp)
 5083d34:	d9402917 	ldw	r5,164(sp)
 5083d38:	d8002785 	stb	zero,158(sp)
 5083d3c:	20800104 	addi	r2,r4,4
 5083d40:	25000017 	ldw	r20,0(r4)
 5083d44:	002d883a 	mov	r22,zero
 5083d48:	28013f16 	blt	r5,zero,5084248 <___svfprintf_internal_r+0x166c>
 5083d4c:	00ffdfc4 	movi	r3,-129
 5083d50:	d8802d15 	stw	r2,180(sp)
 5083d54:	90e4703a 	and	r18,r18,r3
 5083d58:	a03d2b26 	beq	r20,zero,5083208 <__alt_data_end+0xfffb5008>
 5083d5c:	0039883a 	mov	fp,zero
 5083d60:	003d2e06 	br	508321c <__alt_data_end+0xfffb501c>
 5083d64:	dc402617 	ldw	r17,152(sp)
 5083d68:	0441830e 	bge	zero,r17,5084378 <___svfprintf_internal_r+0x179c>
 5083d6c:	dc403217 	ldw	r17,200(sp)
 5083d70:	d8803317 	ldw	r2,204(sp)
 5083d74:	1440010e 	bge	r2,r17,5083d7c <___svfprintf_internal_r+0x11a0>
 5083d78:	1023883a 	mov	r17,r2
 5083d7c:	04400a0e 	bge	zero,r17,5083da8 <___svfprintf_internal_r+0x11cc>
 5083d80:	d8801f17 	ldw	r2,124(sp)
 5083d84:	1c47883a 	add	r3,r3,r17
 5083d88:	44000015 	stw	r16,0(r8)
 5083d8c:	10800044 	addi	r2,r2,1
 5083d90:	44400115 	stw	r17,4(r8)
 5083d94:	d8c02015 	stw	r3,128(sp)
 5083d98:	d8801f15 	stw	r2,124(sp)
 5083d9c:	010001c4 	movi	r4,7
 5083da0:	20827516 	blt	r4,r2,5084778 <___svfprintf_internal_r+0x1b9c>
 5083da4:	42000204 	addi	r8,r8,8
 5083da8:	88027b16 	blt	r17,zero,5084798 <___svfprintf_internal_r+0x1bbc>
 5083dac:	d9003217 	ldw	r4,200(sp)
 5083db0:	2463c83a 	sub	r17,r4,r17
 5083db4:	0440990e 	bge	zero,r17,508401c <___svfprintf_internal_r+0x1440>
 5083db8:	05800404 	movi	r22,16
 5083dbc:	d8801f17 	ldw	r2,124(sp)
 5083dc0:	b441530e 	bge	r22,r17,5084310 <___svfprintf_internal_r+0x1734>
 5083dc4:	01014274 	movhi	r4,1289
 5083dc8:	21178384 	addi	r4,r4,24078
 5083dcc:	d9002b15 	stw	r4,172(sp)
 5083dd0:	070001c4 	movi	fp,7
 5083dd4:	dd002c17 	ldw	r20,176(sp)
 5083dd8:	00000306 	br	5083de8 <___svfprintf_internal_r+0x120c>
 5083ddc:	42000204 	addi	r8,r8,8
 5083de0:	8c7ffc04 	addi	r17,r17,-16
 5083de4:	b4414d0e 	bge	r22,r17,508431c <___svfprintf_internal_r+0x1740>
 5083de8:	18c00404 	addi	r3,r3,16
 5083dec:	10800044 	addi	r2,r2,1
 5083df0:	45400015 	stw	r21,0(r8)
 5083df4:	45800115 	stw	r22,4(r8)
 5083df8:	d8c02015 	stw	r3,128(sp)
 5083dfc:	d8801f15 	stw	r2,124(sp)
 5083e00:	e0bff60e 	bge	fp,r2,5083ddc <__alt_data_end+0xfffb5bdc>
 5083e04:	d9801e04 	addi	r6,sp,120
 5083e08:	a00b883a 	mov	r5,r20
 5083e0c:	9809883a 	mov	r4,r19
 5083e10:	508c3d80 	call	508c3d8 <__ssprint_r>
 5083e14:	103c561e 	bne	r2,zero,5082f70 <__alt_data_end+0xfffb4d70>
 5083e18:	d8c02017 	ldw	r3,128(sp)
 5083e1c:	d8801f17 	ldw	r2,124(sp)
 5083e20:	da000404 	addi	r8,sp,16
 5083e24:	003fee06 	br	5083de0 <__alt_data_end+0xfffb5be0>
 5083e28:	d9402c17 	ldw	r5,176(sp)
 5083e2c:	d9801e04 	addi	r6,sp,120
 5083e30:	9809883a 	mov	r4,r19
 5083e34:	508c3d80 	call	508c3d8 <__ssprint_r>
 5083e38:	103c4d1e 	bne	r2,zero,5082f70 <__alt_data_end+0xfffb4d70>
 5083e3c:	d8c02017 	ldw	r3,128(sp)
 5083e40:	df002787 	ldb	fp,158(sp)
 5083e44:	da000404 	addi	r8,sp,16
 5083e48:	003d5a06 	br	50833b4 <__alt_data_end+0xfffb51b4>
 5083e4c:	9080040c 	andi	r2,r18,16
 5083e50:	10005c26 	beq	r2,zero,5083fc4 <___svfprintf_internal_r+0x13e8>
 5083e54:	d9402d17 	ldw	r5,180(sp)
 5083e58:	d8c02917 	ldw	r3,164(sp)
 5083e5c:	d8002785 	stb	zero,158(sp)
 5083e60:	28800104 	addi	r2,r5,4
 5083e64:	2d000017 	ldw	r20,0(r5)
 5083e68:	002d883a 	mov	r22,zero
 5083e6c:	18005e16 	blt	r3,zero,5083fe8 <___svfprintf_internal_r+0x140c>
 5083e70:	00ffdfc4 	movi	r3,-129
 5083e74:	d8802d15 	stw	r2,180(sp)
 5083e78:	90e4703a 	and	r18,r18,r3
 5083e7c:	0039883a 	mov	fp,zero
 5083e80:	a03dfe26 	beq	r20,zero,508367c <__alt_data_end+0xfffb547c>
 5083e84:	00800244 	movi	r2,9
 5083e88:	153cb336 	bltu	r2,r20,5083158 <__alt_data_end+0xfffb4f58>
 5083e8c:	a5000c04 	addi	r20,r20,48
 5083e90:	dc001dc4 	addi	r16,sp,119
 5083e94:	dd001dc5 	stb	r20,119(sp)
 5083e98:	d8c02817 	ldw	r3,160(sp)
 5083e9c:	1c07c83a 	sub	r3,r3,r16
 5083ea0:	d8c02e15 	stw	r3,184(sp)
 5083ea4:	003cf506 	br	508327c <__alt_data_end+0xfffb507c>
 5083ea8:	d8803317 	ldw	r2,204(sp)
 5083eac:	143fffc4 	addi	r16,r2,-1
 5083eb0:	043f560e 	bge	zero,r16,5083c0c <__alt_data_end+0xfffb5a0c>
 5083eb4:	07000404 	movi	fp,16
 5083eb8:	e403530e 	bge	fp,r16,5084c08 <___svfprintf_internal_r+0x202c>
 5083ebc:	01414274 	movhi	r5,1289
 5083ec0:	29578384 	addi	r5,r5,24078
 5083ec4:	d9402b15 	stw	r5,172(sp)
 5083ec8:	01c001c4 	movi	r7,7
 5083ecc:	dd002c17 	ldw	r20,176(sp)
 5083ed0:	00000306 	br	5083ee0 <___svfprintf_internal_r+0x1304>
 5083ed4:	843ffc04 	addi	r16,r16,-16
 5083ed8:	b5800204 	addi	r22,r22,8
 5083edc:	e400130e 	bge	fp,r16,5083f2c <___svfprintf_internal_r+0x1350>
 5083ee0:	18c00404 	addi	r3,r3,16
 5083ee4:	8c400044 	addi	r17,r17,1
 5083ee8:	b5400015 	stw	r21,0(r22)
 5083eec:	b7000115 	stw	fp,4(r22)
 5083ef0:	d8c02015 	stw	r3,128(sp)
 5083ef4:	dc401f15 	stw	r17,124(sp)
 5083ef8:	3c7ff60e 	bge	r7,r17,5083ed4 <__alt_data_end+0xfffb5cd4>
 5083efc:	d9801e04 	addi	r6,sp,120
 5083f00:	a00b883a 	mov	r5,r20
 5083f04:	9809883a 	mov	r4,r19
 5083f08:	d9c03d15 	stw	r7,244(sp)
 5083f0c:	508c3d80 	call	508c3d8 <__ssprint_r>
 5083f10:	d9c03d17 	ldw	r7,244(sp)
 5083f14:	103c161e 	bne	r2,zero,5082f70 <__alt_data_end+0xfffb4d70>
 5083f18:	843ffc04 	addi	r16,r16,-16
 5083f1c:	d8c02017 	ldw	r3,128(sp)
 5083f20:	dc401f17 	ldw	r17,124(sp)
 5083f24:	dd800404 	addi	r22,sp,16
 5083f28:	e43fed16 	blt	fp,r16,5083ee0 <__alt_data_end+0xfffb5ce0>
 5083f2c:	d8802b17 	ldw	r2,172(sp)
 5083f30:	1c07883a 	add	r3,r3,r16
 5083f34:	8c400044 	addi	r17,r17,1
 5083f38:	b0800015 	stw	r2,0(r22)
 5083f3c:	b4000115 	stw	r16,4(r22)
 5083f40:	d8c02015 	stw	r3,128(sp)
 5083f44:	dc401f15 	stw	r17,124(sp)
 5083f48:	008001c4 	movi	r2,7
 5083f4c:	147f2e0e 	bge	r2,r17,5083c08 <__alt_data_end+0xfffb5a08>
 5083f50:	d9402c17 	ldw	r5,176(sp)
 5083f54:	d9801e04 	addi	r6,sp,120
 5083f58:	9809883a 	mov	r4,r19
 5083f5c:	508c3d80 	call	508c3d8 <__ssprint_r>
 5083f60:	103c031e 	bne	r2,zero,5082f70 <__alt_data_end+0xfffb4d70>
 5083f64:	d8c02017 	ldw	r3,128(sp)
 5083f68:	dc401f17 	ldw	r17,124(sp)
 5083f6c:	dd800404 	addi	r22,sp,16
 5083f70:	003f2606 	br	5083c0c <__alt_data_end+0xfffb5a0c>
 5083f74:	9080040c 	andi	r2,r18,16
 5083f78:	1000c326 	beq	r2,zero,5084288 <___svfprintf_internal_r+0x16ac>
 5083f7c:	d8802d17 	ldw	r2,180(sp)
 5083f80:	15000017 	ldw	r20,0(r2)
 5083f84:	10800104 	addi	r2,r2,4
 5083f88:	d8802d15 	stw	r2,180(sp)
 5083f8c:	a02dd7fa 	srai	r22,r20,31
 5083f90:	b005883a 	mov	r2,r22
 5083f94:	103c680e 	bge	r2,zero,5083138 <__alt_data_end+0xfffb4f38>
 5083f98:	0529c83a 	sub	r20,zero,r20
 5083f9c:	a004c03a 	cmpne	r2,r20,zero
 5083fa0:	05adc83a 	sub	r22,zero,r22
 5083fa4:	b0adc83a 	sub	r22,r22,r2
 5083fa8:	d8802917 	ldw	r2,164(sp)
 5083fac:	07000b44 	movi	fp,45
 5083fb0:	df002785 	stb	fp,158(sp)
 5083fb4:	10022e16 	blt	r2,zero,5084870 <___svfprintf_internal_r+0x1c94>
 5083fb8:	00bfdfc4 	movi	r2,-129
 5083fbc:	90a4703a 	and	r18,r18,r2
 5083fc0:	003c6406 	br	5083154 <__alt_data_end+0xfffb4f54>
 5083fc4:	9080100c 	andi	r2,r18,64
 5083fc8:	d8002785 	stb	zero,158(sp)
 5083fcc:	10012526 	beq	r2,zero,5084464 <___svfprintf_internal_r+0x1888>
 5083fd0:	d9002d17 	ldw	r4,180(sp)
 5083fd4:	d9402917 	ldw	r5,164(sp)
 5083fd8:	002d883a 	mov	r22,zero
 5083fdc:	20800104 	addi	r2,r4,4
 5083fe0:	2500000b 	ldhu	r20,0(r4)
 5083fe4:	283fa20e 	bge	r5,zero,5083e70 <__alt_data_end+0xfffb5c70>
 5083fe8:	d8802d15 	stw	r2,180(sp)
 5083fec:	0039883a 	mov	fp,zero
 5083ff0:	a584b03a 	or	r2,r20,r22
 5083ff4:	103c571e 	bne	r2,zero,5083154 <__alt_data_end+0xfffb4f54>
 5083ff8:	00800044 	movi	r2,1
 5083ffc:	003e5006 	br	5083940 <__alt_data_end+0xfffb5740>
 5084000:	d9402c17 	ldw	r5,176(sp)
 5084004:	d9801e04 	addi	r6,sp,120
 5084008:	9809883a 	mov	r4,r19
 508400c:	508c3d80 	call	508c3d8 <__ssprint_r>
 5084010:	103bd71e 	bne	r2,zero,5082f70 <__alt_data_end+0xfffb4d70>
 5084014:	d8c02017 	ldw	r3,128(sp)
 5084018:	da000404 	addi	r8,sp,16
 508401c:	d9003217 	ldw	r4,200(sp)
 5084020:	d8802617 	ldw	r2,152(sp)
 5084024:	d9403317 	ldw	r5,204(sp)
 5084028:	8123883a 	add	r17,r16,r4
 508402c:	11400216 	blt	r2,r5,5084038 <___svfprintf_internal_r+0x145c>
 5084030:	9100004c 	andi	r4,r18,1
 5084034:	20000d26 	beq	r4,zero,508406c <___svfprintf_internal_r+0x1490>
 5084038:	d9003817 	ldw	r4,224(sp)
 508403c:	d9403417 	ldw	r5,208(sp)
 5084040:	1907883a 	add	r3,r3,r4
 5084044:	d9001f17 	ldw	r4,124(sp)
 5084048:	41400015 	stw	r5,0(r8)
 508404c:	d9403817 	ldw	r5,224(sp)
 5084050:	21000044 	addi	r4,r4,1
 5084054:	d8c02015 	stw	r3,128(sp)
 5084058:	41400115 	stw	r5,4(r8)
 508405c:	d9001f15 	stw	r4,124(sp)
 5084060:	014001c4 	movi	r5,7
 5084064:	2901dc16 	blt	r5,r4,50847d8 <___svfprintf_internal_r+0x1bfc>
 5084068:	42000204 	addi	r8,r8,8
 508406c:	d9003317 	ldw	r4,204(sp)
 5084070:	8121883a 	add	r16,r16,r4
 5084074:	2085c83a 	sub	r2,r4,r2
 5084078:	8461c83a 	sub	r16,r16,r17
 508407c:	1400010e 	bge	r2,r16,5084084 <___svfprintf_internal_r+0x14a8>
 5084080:	1021883a 	mov	r16,r2
 5084084:	04000a0e 	bge	zero,r16,50840b0 <___svfprintf_internal_r+0x14d4>
 5084088:	d9001f17 	ldw	r4,124(sp)
 508408c:	1c07883a 	add	r3,r3,r16
 5084090:	44400015 	stw	r17,0(r8)
 5084094:	21000044 	addi	r4,r4,1
 5084098:	44000115 	stw	r16,4(r8)
 508409c:	d8c02015 	stw	r3,128(sp)
 50840a0:	d9001f15 	stw	r4,124(sp)
 50840a4:	014001c4 	movi	r5,7
 50840a8:	2901e616 	blt	r5,r4,5084844 <___svfprintf_internal_r+0x1c68>
 50840ac:	42000204 	addi	r8,r8,8
 50840b0:	8001f616 	blt	r16,zero,508488c <___svfprintf_internal_r+0x1cb0>
 50840b4:	1421c83a 	sub	r16,r2,r16
 50840b8:	043d1c0e 	bge	zero,r16,508352c <__alt_data_end+0xfffb532c>
 50840bc:	04400404 	movi	r17,16
 50840c0:	d8801f17 	ldw	r2,124(sp)
 50840c4:	8c3edd0e 	bge	r17,r16,5083c3c <__alt_data_end+0xfffb5a3c>
 50840c8:	01414274 	movhi	r5,1289
 50840cc:	29578384 	addi	r5,r5,24078
 50840d0:	d9402b15 	stw	r5,172(sp)
 50840d4:	058001c4 	movi	r22,7
 50840d8:	dd002c17 	ldw	r20,176(sp)
 50840dc:	00000306 	br	50840ec <___svfprintf_internal_r+0x1510>
 50840e0:	42000204 	addi	r8,r8,8
 50840e4:	843ffc04 	addi	r16,r16,-16
 50840e8:	8c3ed70e 	bge	r17,r16,5083c48 <__alt_data_end+0xfffb5a48>
 50840ec:	18c00404 	addi	r3,r3,16
 50840f0:	10800044 	addi	r2,r2,1
 50840f4:	45400015 	stw	r21,0(r8)
 50840f8:	44400115 	stw	r17,4(r8)
 50840fc:	d8c02015 	stw	r3,128(sp)
 5084100:	d8801f15 	stw	r2,124(sp)
 5084104:	b0bff60e 	bge	r22,r2,50840e0 <__alt_data_end+0xfffb5ee0>
 5084108:	d9801e04 	addi	r6,sp,120
 508410c:	a00b883a 	mov	r5,r20
 5084110:	9809883a 	mov	r4,r19
 5084114:	508c3d80 	call	508c3d8 <__ssprint_r>
 5084118:	103b951e 	bne	r2,zero,5082f70 <__alt_data_end+0xfffb4d70>
 508411c:	d8c02017 	ldw	r3,128(sp)
 5084120:	d8801f17 	ldw	r2,124(sp)
 5084124:	da000404 	addi	r8,sp,16
 5084128:	003fee06 	br	50840e4 <__alt_data_end+0xfffb5ee4>
 508412c:	9088703a 	and	r4,r18,r2
 5084130:	203e8d1e 	bne	r4,zero,5083b68 <__alt_data_end+0xfffb5968>
 5084134:	dc401f17 	ldw	r17,124(sp)
 5084138:	40800115 	stw	r2,4(r8)
 508413c:	44000015 	stw	r16,0(r8)
 5084140:	8c400044 	addi	r17,r17,1
 5084144:	d8c02015 	stw	r3,128(sp)
 5084148:	dc401f15 	stw	r17,124(sp)
 508414c:	008001c4 	movi	r2,7
 5084150:	147f7f16 	blt	r2,r17,5083f50 <__alt_data_end+0xfffb5d50>
 5084154:	45800204 	addi	r22,r8,8
 5084158:	003eac06 	br	5083c0c <__alt_data_end+0xfffb5a0c>
 508415c:	d9402c17 	ldw	r5,176(sp)
 5084160:	d9801e04 	addi	r6,sp,120
 5084164:	9809883a 	mov	r4,r19
 5084168:	508c3d80 	call	508c3d8 <__ssprint_r>
 508416c:	103b801e 	bne	r2,zero,5082f70 <__alt_data_end+0xfffb4d70>
 5084170:	d8c02017 	ldw	r3,128(sp)
 5084174:	dc401f17 	ldw	r17,124(sp)
 5084178:	da000404 	addi	r8,sp,16
 508417c:	003e8406 	br	5083b90 <__alt_data_end+0xfffb5990>
 5084180:	d9402c17 	ldw	r5,176(sp)
 5084184:	d9801e04 	addi	r6,sp,120
 5084188:	9809883a 	mov	r4,r19
 508418c:	508c3d80 	call	508c3d8 <__ssprint_r>
 5084190:	103b771e 	bne	r2,zero,5082f70 <__alt_data_end+0xfffb4d70>
 5084194:	d8c02017 	ldw	r3,128(sp)
 5084198:	dc401f17 	ldw	r17,124(sp)
 508419c:	dd800404 	addi	r22,sp,16
 50841a0:	003e8606 	br	5083bbc <__alt_data_end+0xfffb59bc>
 50841a4:	0029883a 	mov	r20,zero
 50841a8:	a5000c04 	addi	r20,r20,48
 50841ac:	dc001dc4 	addi	r16,sp,119
 50841b0:	dd001dc5 	stb	r20,119(sp)
 50841b4:	003f3806 	br	5083e98 <__alt_data_end+0xfffb5c98>
 50841b8:	d9402c17 	ldw	r5,176(sp)
 50841bc:	d9801e04 	addi	r6,sp,120
 50841c0:	9809883a 	mov	r4,r19
 50841c4:	508c3d80 	call	508c3d8 <__ssprint_r>
 50841c8:	103b691e 	bne	r2,zero,5082f70 <__alt_data_end+0xfffb4d70>
 50841cc:	d8c02017 	ldw	r3,128(sp)
 50841d0:	da000404 	addi	r8,sp,16
 50841d4:	003c9506 	br	508342c <__alt_data_end+0xfffb522c>
 50841d8:	d9003617 	ldw	r4,216(sp)
 50841dc:	d9403717 	ldw	r5,220(sp)
 50841e0:	da003e15 	stw	r8,248(sp)
 50841e4:	508c0f80 	call	508c0f8 <__fpclassifyd>
 50841e8:	da003e17 	ldw	r8,248(sp)
 50841ec:	1000bd1e 	bne	r2,zero,50844e4 <___svfprintf_internal_r+0x1908>
 50841f0:	008011c4 	movi	r2,71
 50841f4:	14411e0e 	bge	r2,r17,5084670 <___svfprintf_internal_r+0x1a94>
 50841f8:	04014274 	movhi	r16,1289
 50841fc:	84177604 	addi	r16,r16,24024
 5084200:	00c000c4 	movi	r3,3
 5084204:	00bfdfc4 	movi	r2,-129
 5084208:	d8c02a15 	stw	r3,168(sp)
 508420c:	90a4703a 	and	r18,r18,r2
 5084210:	df002783 	ldbu	fp,158(sp)
 5084214:	d8c02e15 	stw	r3,184(sp)
 5084218:	d8002915 	stw	zero,164(sp)
 508421c:	d8003215 	stw	zero,200(sp)
 5084220:	003c1c06 	br	5083294 <__alt_data_end+0xfffb5094>
 5084224:	9080100c 	andi	r2,r18,64
 5084228:	d8002785 	stb	zero,158(sp)
 508422c:	10009426 	beq	r2,zero,5084480 <___svfprintf_internal_r+0x18a4>
 5084230:	d8c02d17 	ldw	r3,180(sp)
 5084234:	d9002917 	ldw	r4,164(sp)
 5084238:	002d883a 	mov	r22,zero
 508423c:	18800104 	addi	r2,r3,4
 5084240:	1d00000b 	ldhu	r20,0(r3)
 5084244:	203ec10e 	bge	r4,zero,5083d4c <__alt_data_end+0xfffb5b4c>
 5084248:	a586b03a 	or	r3,r20,r22
 508424c:	d8802d15 	stw	r2,180(sp)
 5084250:	183ec21e 	bne	r3,zero,5083d5c <__alt_data_end+0xfffb5b5c>
 5084254:	0039883a 	mov	fp,zero
 5084258:	0005883a 	mov	r2,zero
 508425c:	003db806 	br	5083940 <__alt_data_end+0xfffb5740>
 5084260:	d8802d17 	ldw	r2,180(sp)
 5084264:	d8c02d17 	ldw	r3,180(sp)
 5084268:	d9002d17 	ldw	r4,180(sp)
 508426c:	10800017 	ldw	r2,0(r2)
 5084270:	18c00117 	ldw	r3,4(r3)
 5084274:	21000204 	addi	r4,r4,8
 5084278:	d8803615 	stw	r2,216(sp)
 508427c:	d8c03715 	stw	r3,220(sp)
 5084280:	d9002d15 	stw	r4,180(sp)
 5084284:	003b8206 	br	5083090 <__alt_data_end+0xfffb4e90>
 5084288:	9080100c 	andi	r2,r18,64
 508428c:	10010726 	beq	r2,zero,50846ac <___svfprintf_internal_r+0x1ad0>
 5084290:	d8c02d17 	ldw	r3,180(sp)
 5084294:	1d00000f 	ldh	r20,0(r3)
 5084298:	18c00104 	addi	r3,r3,4
 508429c:	d8c02d15 	stw	r3,180(sp)
 50842a0:	a02dd7fa 	srai	r22,r20,31
 50842a4:	b005883a 	mov	r2,r22
 50842a8:	003ba206 	br	5083134 <__alt_data_end+0xfffb4f34>
 50842ac:	9080100c 	andi	r2,r18,64
 50842b0:	10010526 	beq	r2,zero,50846c8 <___svfprintf_internal_r+0x1aec>
 50842b4:	d9002d17 	ldw	r4,180(sp)
 50842b8:	002d883a 	mov	r22,zero
 50842bc:	2500000b 	ldhu	r20,0(r4)
 50842c0:	21000104 	addi	r4,r4,4
 50842c4:	d9002d15 	stw	r4,180(sp)
 50842c8:	003cfe06 	br	50836c4 <__alt_data_end+0xfffb54c4>
 50842cc:	bc400007 	ldb	r17,0(r23)
 50842d0:	003a9606 	br	5082d2c <__alt_data_end+0xfffb4b2c>
 50842d4:	9080040c 	andi	r2,r18,16
 50842d8:	10010126 	beq	r2,zero,50846e0 <___svfprintf_internal_r+0x1b04>
 50842dc:	d9402d17 	ldw	r5,180(sp)
 50842e0:	d8c02f17 	ldw	r3,188(sp)
 50842e4:	28800017 	ldw	r2,0(r5)
 50842e8:	29400104 	addi	r5,r5,4
 50842ec:	d9402d15 	stw	r5,180(sp)
 50842f0:	10c00015 	stw	r3,0(r2)
 50842f4:	003a6406 	br	5082c88 <__alt_data_end+0xfffb4a88>
 50842f8:	d9002917 	ldw	r4,164(sp)
 50842fc:	d8002785 	stb	zero,158(sp)
 5084300:	203d8d16 	blt	r4,zero,5083938 <__alt_data_end+0xfffb5738>
 5084304:	00bfdfc4 	movi	r2,-129
 5084308:	90a4703a 	and	r18,r18,r2
 508430c:	003b0506 	br	5082f24 <__alt_data_end+0xfffb4d24>
 5084310:	01414274 	movhi	r5,1289
 5084314:	29578384 	addi	r5,r5,24078
 5084318:	d9402b15 	stw	r5,172(sp)
 508431c:	d9402b17 	ldw	r5,172(sp)
 5084320:	1c47883a 	add	r3,r3,r17
 5084324:	10800044 	addi	r2,r2,1
 5084328:	41400015 	stw	r5,0(r8)
 508432c:	44400115 	stw	r17,4(r8)
 5084330:	d8c02015 	stw	r3,128(sp)
 5084334:	d8801f15 	stw	r2,124(sp)
 5084338:	010001c4 	movi	r4,7
 508433c:	20bf3016 	blt	r4,r2,5084000 <__alt_data_end+0xfffb5e00>
 5084340:	42000204 	addi	r8,r8,8
 5084344:	003f3506 	br	508401c <__alt_data_end+0xfffb5e1c>
 5084348:	01014274 	movhi	r4,1289
 508434c:	21178384 	addi	r4,r4,24078
 5084350:	d9002b15 	stw	r4,172(sp)
 5084354:	003c5e06 	br	50834d0 <__alt_data_end+0xfffb52d0>
 5084358:	d9402c17 	ldw	r5,176(sp)
 508435c:	d9801e04 	addi	r6,sp,120
 5084360:	9809883a 	mov	r4,r19
 5084364:	508c3d80 	call	508c3d8 <__ssprint_r>
 5084368:	103b011e 	bne	r2,zero,5082f70 <__alt_data_end+0xfffb4d70>
 508436c:	d8c02017 	ldw	r3,128(sp)
 5084370:	da000404 	addi	r8,sp,16
 5084374:	003d9306 	br	50839c4 <__alt_data_end+0xfffb57c4>
 5084378:	d8801f17 	ldw	r2,124(sp)
 508437c:	01414274 	movhi	r5,1289
 5084380:	01000044 	movi	r4,1
 5084384:	18c00044 	addi	r3,r3,1
 5084388:	10800044 	addi	r2,r2,1
 508438c:	29578304 	addi	r5,r5,24076
 5084390:	41000115 	stw	r4,4(r8)
 5084394:	41400015 	stw	r5,0(r8)
 5084398:	d8c02015 	stw	r3,128(sp)
 508439c:	d8801f15 	stw	r2,124(sp)
 50843a0:	010001c4 	movi	r4,7
 50843a4:	2080b516 	blt	r4,r2,508467c <___svfprintf_internal_r+0x1aa0>
 50843a8:	42000204 	addi	r8,r8,8
 50843ac:	8800041e 	bne	r17,zero,50843c0 <___svfprintf_internal_r+0x17e4>
 50843b0:	d8803317 	ldw	r2,204(sp)
 50843b4:	1000021e 	bne	r2,zero,50843c0 <___svfprintf_internal_r+0x17e4>
 50843b8:	9080004c 	andi	r2,r18,1
 50843bc:	103c5b26 	beq	r2,zero,508352c <__alt_data_end+0xfffb532c>
 50843c0:	d9003817 	ldw	r4,224(sp)
 50843c4:	d8801f17 	ldw	r2,124(sp)
 50843c8:	d9403417 	ldw	r5,208(sp)
 50843cc:	20c7883a 	add	r3,r4,r3
 50843d0:	10800044 	addi	r2,r2,1
 50843d4:	41000115 	stw	r4,4(r8)
 50843d8:	41400015 	stw	r5,0(r8)
 50843dc:	d8c02015 	stw	r3,128(sp)
 50843e0:	d8801f15 	stw	r2,124(sp)
 50843e4:	010001c4 	movi	r4,7
 50843e8:	20818016 	blt	r4,r2,50849ec <___svfprintf_internal_r+0x1e10>
 50843ec:	42000204 	addi	r8,r8,8
 50843f0:	0463c83a 	sub	r17,zero,r17
 50843f4:	0440cb0e 	bge	zero,r17,5084724 <___svfprintf_internal_r+0x1b48>
 50843f8:	05800404 	movi	r22,16
 50843fc:	b440e80e 	bge	r22,r17,50847a0 <___svfprintf_internal_r+0x1bc4>
 5084400:	01414274 	movhi	r5,1289
 5084404:	29578384 	addi	r5,r5,24078
 5084408:	d9402b15 	stw	r5,172(sp)
 508440c:	070001c4 	movi	fp,7
 5084410:	dd002c17 	ldw	r20,176(sp)
 5084414:	00000306 	br	5084424 <___svfprintf_internal_r+0x1848>
 5084418:	42000204 	addi	r8,r8,8
 508441c:	8c7ffc04 	addi	r17,r17,-16
 5084420:	b440e20e 	bge	r22,r17,50847ac <___svfprintf_internal_r+0x1bd0>
 5084424:	18c00404 	addi	r3,r3,16
 5084428:	10800044 	addi	r2,r2,1
 508442c:	45400015 	stw	r21,0(r8)
 5084430:	45800115 	stw	r22,4(r8)
 5084434:	d8c02015 	stw	r3,128(sp)
 5084438:	d8801f15 	stw	r2,124(sp)
 508443c:	e0bff60e 	bge	fp,r2,5084418 <__alt_data_end+0xfffb6218>
 5084440:	d9801e04 	addi	r6,sp,120
 5084444:	a00b883a 	mov	r5,r20
 5084448:	9809883a 	mov	r4,r19
 508444c:	508c3d80 	call	508c3d8 <__ssprint_r>
 5084450:	103ac71e 	bne	r2,zero,5082f70 <__alt_data_end+0xfffb4d70>
 5084454:	d8c02017 	ldw	r3,128(sp)
 5084458:	d8801f17 	ldw	r2,124(sp)
 508445c:	da000404 	addi	r8,sp,16
 5084460:	003fee06 	br	508441c <__alt_data_end+0xfffb621c>
 5084464:	d8c02d17 	ldw	r3,180(sp)
 5084468:	d9002917 	ldw	r4,164(sp)
 508446c:	002d883a 	mov	r22,zero
 5084470:	18800104 	addi	r2,r3,4
 5084474:	1d000017 	ldw	r20,0(r3)
 5084478:	203e7d0e 	bge	r4,zero,5083e70 <__alt_data_end+0xfffb5c70>
 508447c:	003eda06 	br	5083fe8 <__alt_data_end+0xfffb5de8>
 5084480:	d9402d17 	ldw	r5,180(sp)
 5084484:	d8c02917 	ldw	r3,164(sp)
 5084488:	002d883a 	mov	r22,zero
 508448c:	28800104 	addi	r2,r5,4
 5084490:	2d000017 	ldw	r20,0(r5)
 5084494:	183e2d0e 	bge	r3,zero,5083d4c <__alt_data_end+0xfffb5b4c>
 5084498:	003f6b06 	br	5084248 <__alt_data_end+0xfffb6048>
 508449c:	d8c02d15 	stw	r3,180(sp)
 50844a0:	0039883a 	mov	fp,zero
 50844a4:	003ed206 	br	5083ff0 <__alt_data_end+0xfffb5df0>
 50844a8:	bc400043 	ldbu	r17,1(r23)
 50844ac:	94800814 	ori	r18,r18,32
 50844b0:	bdc00044 	addi	r23,r23,1
 50844b4:	8c403fcc 	andi	r17,r17,255
 50844b8:	8c40201c 	xori	r17,r17,128
 50844bc:	8c7fe004 	addi	r17,r17,-128
 50844c0:	003a1a06 	br	5082d2c <__alt_data_end+0xfffb4b2c>
 50844c4:	d9402c17 	ldw	r5,176(sp)
 50844c8:	d9801e04 	addi	r6,sp,120
 50844cc:	9809883a 	mov	r4,r19
 50844d0:	508c3d80 	call	508c3d8 <__ssprint_r>
 50844d4:	103aa61e 	bne	r2,zero,5082f70 <__alt_data_end+0xfffb4d70>
 50844d8:	d8c02017 	ldw	r3,128(sp)
 50844dc:	da000404 	addi	r8,sp,16
 50844e0:	003d4a06 	br	5083a0c <__alt_data_end+0xfffb580c>
 50844e4:	d9002917 	ldw	r4,164(sp)
 50844e8:	05bff7c4 	movi	r22,-33
 50844ec:	00bfffc4 	movi	r2,-1
 50844f0:	8dac703a 	and	r22,r17,r22
 50844f4:	20806a26 	beq	r4,r2,50846a0 <___svfprintf_internal_r+0x1ac4>
 50844f8:	008011c4 	movi	r2,71
 50844fc:	b0813726 	beq	r22,r2,50849dc <___svfprintf_internal_r+0x1e00>
 5084500:	d9003717 	ldw	r4,220(sp)
 5084504:	90c04014 	ori	r3,r18,256
 5084508:	d8c02b15 	stw	r3,172(sp)
 508450c:	20015d16 	blt	r4,zero,5084a84 <___svfprintf_internal_r+0x1ea8>
 5084510:	dd003717 	ldw	r20,220(sp)
 5084514:	d8002a05 	stb	zero,168(sp)
 5084518:	00801984 	movi	r2,102
 508451c:	88814026 	beq	r17,r2,5084a20 <___svfprintf_internal_r+0x1e44>
 5084520:	00801184 	movi	r2,70
 5084524:	88817126 	beq	r17,r2,5084aec <___svfprintf_internal_r+0x1f10>
 5084528:	00801144 	movi	r2,69
 508452c:	b0816226 	beq	r22,r2,5084ab8 <___svfprintf_internal_r+0x1edc>
 5084530:	d8c02917 	ldw	r3,164(sp)
 5084534:	d8802104 	addi	r2,sp,132
 5084538:	d8800315 	stw	r2,12(sp)
 508453c:	d9403617 	ldw	r5,216(sp)
 5084540:	d8802504 	addi	r2,sp,148
 5084544:	d8800215 	stw	r2,8(sp)
 5084548:	d8802604 	addi	r2,sp,152
 508454c:	d8c00015 	stw	r3,0(sp)
 5084550:	d8800115 	stw	r2,4(sp)
 5084554:	01c00084 	movi	r7,2
 5084558:	a00d883a 	mov	r6,r20
 508455c:	9809883a 	mov	r4,r19
 5084560:	d8c03d15 	stw	r3,244(sp)
 5084564:	da003e15 	stw	r8,248(sp)
 5084568:	50874fc0 	call	50874fc <_dtoa_r>
 508456c:	1021883a 	mov	r16,r2
 5084570:	008019c4 	movi	r2,103
 5084574:	d8c03d17 	ldw	r3,244(sp)
 5084578:	da003e17 	ldw	r8,248(sp)
 508457c:	8880e726 	beq	r17,r2,508491c <___svfprintf_internal_r+0x1d40>
 5084580:	008011c4 	movi	r2,71
 5084584:	8880d426 	beq	r17,r2,50848d8 <___svfprintf_internal_r+0x1cfc>
 5084588:	80f9883a 	add	fp,r16,r3
 508458c:	d9003617 	ldw	r4,216(sp)
 5084590:	000d883a 	mov	r6,zero
 5084594:	000f883a 	mov	r7,zero
 5084598:	a00b883a 	mov	r5,r20
 508459c:	da003e15 	stw	r8,248(sp)
 50845a0:	50913a40 	call	50913a4 <__eqdf2>
 50845a4:	da003e17 	ldw	r8,248(sp)
 50845a8:	1000e426 	beq	r2,zero,508493c <___svfprintf_internal_r+0x1d60>
 50845ac:	d8802117 	ldw	r2,132(sp)
 50845b0:	1700062e 	bgeu	r2,fp,50845cc <___svfprintf_internal_r+0x19f0>
 50845b4:	01000c04 	movi	r4,48
 50845b8:	10c00044 	addi	r3,r2,1
 50845bc:	d8c02115 	stw	r3,132(sp)
 50845c0:	11000005 	stb	r4,0(r2)
 50845c4:	d8802117 	ldw	r2,132(sp)
 50845c8:	173ffb36 	bltu	r2,fp,50845b8 <__alt_data_end+0xfffb63b8>
 50845cc:	1405c83a 	sub	r2,r2,r16
 50845d0:	d8803315 	stw	r2,204(sp)
 50845d4:	008011c4 	movi	r2,71
 50845d8:	b080c526 	beq	r22,r2,50848f0 <___svfprintf_internal_r+0x1d14>
 50845dc:	00801944 	movi	r2,101
 50845e0:	1441d90e 	bge	r2,r17,5084d48 <___svfprintf_internal_r+0x216c>
 50845e4:	d8c02617 	ldw	r3,152(sp)
 50845e8:	00801984 	movi	r2,102
 50845ec:	d8c03215 	stw	r3,200(sp)
 50845f0:	88813426 	beq	r17,r2,5084ac4 <___svfprintf_internal_r+0x1ee8>
 50845f4:	d8c03217 	ldw	r3,200(sp)
 50845f8:	d9003317 	ldw	r4,204(sp)
 50845fc:	19012516 	blt	r3,r4,5084a94 <___svfprintf_internal_r+0x1eb8>
 5084600:	9480004c 	andi	r18,r18,1
 5084604:	9001841e 	bne	r18,zero,5084c18 <___svfprintf_internal_r+0x203c>
 5084608:	1805883a 	mov	r2,r3
 508460c:	1801cc16 	blt	r3,zero,5084d40 <___svfprintf_internal_r+0x2164>
 5084610:	d8c03217 	ldw	r3,200(sp)
 5084614:	044019c4 	movi	r17,103
 5084618:	d8c02e15 	stw	r3,184(sp)
 508461c:	df002a07 	ldb	fp,168(sp)
 5084620:	e000a61e 	bne	fp,zero,50848bc <___svfprintf_internal_r+0x1ce0>
 5084624:	df002783 	ldbu	fp,158(sp)
 5084628:	d8802a15 	stw	r2,168(sp)
 508462c:	dc802b17 	ldw	r18,172(sp)
 5084630:	d8002915 	stw	zero,164(sp)
 5084634:	003b1706 	br	5083294 <__alt_data_end+0xfffb5094>
 5084638:	04014274 	movhi	r16,1289
 508463c:	84177304 	addi	r16,r16,24012
 5084640:	003aa606 	br	50830dc <__alt_data_end+0xfffb4edc>
 5084644:	d9003917 	ldw	r4,228(sp)
 5084648:	04001004 	movi	r16,64
 508464c:	800b883a 	mov	r5,r16
 5084650:	5089edc0 	call	5089edc <_malloc_r>
 5084654:	d9002c17 	ldw	r4,176(sp)
 5084658:	20800015 	stw	r2,0(r4)
 508465c:	20800415 	stw	r2,16(r4)
 5084660:	1001cb26 	beq	r2,zero,5084d90 <___svfprintf_internal_r+0x21b4>
 5084664:	d8802c17 	ldw	r2,176(sp)
 5084668:	14000515 	stw	r16,20(r2)
 508466c:	00397606 	br	5082c48 <__alt_data_end+0xfffb4a48>
 5084670:	04014274 	movhi	r16,1289
 5084674:	84177504 	addi	r16,r16,24020
 5084678:	003ee106 	br	5084200 <__alt_data_end+0xfffb6000>
 508467c:	d9402c17 	ldw	r5,176(sp)
 5084680:	d9801e04 	addi	r6,sp,120
 5084684:	9809883a 	mov	r4,r19
 5084688:	508c3d80 	call	508c3d8 <__ssprint_r>
 508468c:	103a381e 	bne	r2,zero,5082f70 <__alt_data_end+0xfffb4d70>
 5084690:	dc402617 	ldw	r17,152(sp)
 5084694:	d8c02017 	ldw	r3,128(sp)
 5084698:	da000404 	addi	r8,sp,16
 508469c:	003f4306 	br	50843ac <__alt_data_end+0xfffb61ac>
 50846a0:	01400184 	movi	r5,6
 50846a4:	d9402915 	stw	r5,164(sp)
 50846a8:	003f9506 	br	5084500 <__alt_data_end+0xfffb6300>
 50846ac:	d9002d17 	ldw	r4,180(sp)
 50846b0:	25000017 	ldw	r20,0(r4)
 50846b4:	21000104 	addi	r4,r4,4
 50846b8:	d9002d15 	stw	r4,180(sp)
 50846bc:	a02dd7fa 	srai	r22,r20,31
 50846c0:	b005883a 	mov	r2,r22
 50846c4:	003a9b06 	br	5083134 <__alt_data_end+0xfffb4f34>
 50846c8:	d9402d17 	ldw	r5,180(sp)
 50846cc:	002d883a 	mov	r22,zero
 50846d0:	2d000017 	ldw	r20,0(r5)
 50846d4:	29400104 	addi	r5,r5,4
 50846d8:	d9402d15 	stw	r5,180(sp)
 50846dc:	003bf906 	br	50836c4 <__alt_data_end+0xfffb54c4>
 50846e0:	9480100c 	andi	r18,r18,64
 50846e4:	90006e26 	beq	r18,zero,50848a0 <___svfprintf_internal_r+0x1cc4>
 50846e8:	d9002d17 	ldw	r4,180(sp)
 50846ec:	d9402f17 	ldw	r5,188(sp)
 50846f0:	20800017 	ldw	r2,0(r4)
 50846f4:	21000104 	addi	r4,r4,4
 50846f8:	d9002d15 	stw	r4,180(sp)
 50846fc:	1140000d 	sth	r5,0(r2)
 5084700:	00396106 	br	5082c88 <__alt_data_end+0xfffb4a88>
 5084704:	d9402c17 	ldw	r5,176(sp)
 5084708:	d9801e04 	addi	r6,sp,120
 508470c:	9809883a 	mov	r4,r19
 5084710:	508c3d80 	call	508c3d8 <__ssprint_r>
 5084714:	103a161e 	bne	r2,zero,5082f70 <__alt_data_end+0xfffb4d70>
 5084718:	d8c02017 	ldw	r3,128(sp)
 508471c:	d8801f17 	ldw	r2,124(sp)
 5084720:	da000404 	addi	r8,sp,16
 5084724:	d9403317 	ldw	r5,204(sp)
 5084728:	10800044 	addi	r2,r2,1
 508472c:	44000015 	stw	r16,0(r8)
 5084730:	28c7883a 	add	r3,r5,r3
 5084734:	003b7706 	br	5083514 <__alt_data_end+0xfffb5314>
 5084738:	8009883a 	mov	r4,r16
 508473c:	da003e15 	stw	r8,248(sp)
 5084740:	5082b440 	call	5082b44 <strlen>
 5084744:	d8802e15 	stw	r2,184(sp)
 5084748:	da003e17 	ldw	r8,248(sp)
 508474c:	103c280e 	bge	r2,zero,50837f0 <__alt_data_end+0xfffb55f0>
 5084750:	0005883a 	mov	r2,zero
 5084754:	003c2606 	br	50837f0 <__alt_data_end+0xfffb55f0>
 5084758:	00bfffc4 	movi	r2,-1
 508475c:	003a0906 	br	5082f84 <__alt_data_end+0xfffb4d84>
 5084760:	01014274 	movhi	r4,1289
 5084764:	21178784 	addi	r4,r4,24094
 5084768:	d9003515 	stw	r4,212(sp)
 508476c:	003b0606 	br	5083388 <__alt_data_end+0xfffb5188>
 5084770:	013fffc4 	movi	r4,-1
 5084774:	003a2706 	br	5083014 <__alt_data_end+0xfffb4e14>
 5084778:	d9402c17 	ldw	r5,176(sp)
 508477c:	d9801e04 	addi	r6,sp,120
 5084780:	9809883a 	mov	r4,r19
 5084784:	508c3d80 	call	508c3d8 <__ssprint_r>
 5084788:	1039f91e 	bne	r2,zero,5082f70 <__alt_data_end+0xfffb4d70>
 508478c:	d8c02017 	ldw	r3,128(sp)
 5084790:	da000404 	addi	r8,sp,16
 5084794:	003d8406 	br	5083da8 <__alt_data_end+0xfffb5ba8>
 5084798:	0023883a 	mov	r17,zero
 508479c:	003d8306 	br	5083dac <__alt_data_end+0xfffb5bac>
 50847a0:	01014274 	movhi	r4,1289
 50847a4:	21178384 	addi	r4,r4,24078
 50847a8:	d9002b15 	stw	r4,172(sp)
 50847ac:	d9002b17 	ldw	r4,172(sp)
 50847b0:	1c47883a 	add	r3,r3,r17
 50847b4:	10800044 	addi	r2,r2,1
 50847b8:	41000015 	stw	r4,0(r8)
 50847bc:	44400115 	stw	r17,4(r8)
 50847c0:	d8c02015 	stw	r3,128(sp)
 50847c4:	d8801f15 	stw	r2,124(sp)
 50847c8:	010001c4 	movi	r4,7
 50847cc:	20bfcd16 	blt	r4,r2,5084704 <__alt_data_end+0xfffb6504>
 50847d0:	42000204 	addi	r8,r8,8
 50847d4:	003fd306 	br	5084724 <__alt_data_end+0xfffb6524>
 50847d8:	d9402c17 	ldw	r5,176(sp)
 50847dc:	d9801e04 	addi	r6,sp,120
 50847e0:	9809883a 	mov	r4,r19
 50847e4:	508c3d80 	call	508c3d8 <__ssprint_r>
 50847e8:	1039e11e 	bne	r2,zero,5082f70 <__alt_data_end+0xfffb4d70>
 50847ec:	d8802617 	ldw	r2,152(sp)
 50847f0:	d8c02017 	ldw	r3,128(sp)
 50847f4:	da000404 	addi	r8,sp,16
 50847f8:	003e1c06 	br	508406c <__alt_data_end+0xfffb5e6c>
 50847fc:	d8802917 	ldw	r2,164(sp)
 5084800:	00c00184 	movi	r3,6
 5084804:	1880012e 	bgeu	r3,r2,508480c <___svfprintf_internal_r+0x1c30>
 5084808:	1805883a 	mov	r2,r3
 508480c:	d8802e15 	stw	r2,184(sp)
 5084810:	1000f316 	blt	r2,zero,5084be0 <___svfprintf_internal_r+0x2004>
 5084814:	04014274 	movhi	r16,1289
 5084818:	d8802a15 	stw	r2,168(sp)
 508481c:	dd002d15 	stw	r20,180(sp)
 5084820:	d8002915 	stw	zero,164(sp)
 5084824:	d8003215 	stw	zero,200(sp)
 5084828:	84178104 	addi	r16,r16,24068
 508482c:	0039883a 	mov	fp,zero
 5084830:	003a9f06 	br	50832b0 <__alt_data_end+0xfffb50b0>
 5084834:	01014274 	movhi	r4,1289
 5084838:	21178784 	addi	r4,r4,24094
 508483c:	d9003515 	stw	r4,212(sp)
 5084840:	003b5f06 	br	50835c0 <__alt_data_end+0xfffb53c0>
 5084844:	d9402c17 	ldw	r5,176(sp)
 5084848:	d9801e04 	addi	r6,sp,120
 508484c:	9809883a 	mov	r4,r19
 5084850:	508c3d80 	call	508c3d8 <__ssprint_r>
 5084854:	1039c61e 	bne	r2,zero,5082f70 <__alt_data_end+0xfffb4d70>
 5084858:	d8802617 	ldw	r2,152(sp)
 508485c:	d9403317 	ldw	r5,204(sp)
 5084860:	d8c02017 	ldw	r3,128(sp)
 5084864:	da000404 	addi	r8,sp,16
 5084868:	2885c83a 	sub	r2,r5,r2
 508486c:	003e1006 	br	50840b0 <__alt_data_end+0xfffb5eb0>
 5084870:	00800044 	movi	r2,1
 5084874:	10803fcc 	andi	r2,r2,255
 5084878:	00c00044 	movi	r3,1
 508487c:	10fa3526 	beq	r2,r3,5083154 <__alt_data_end+0xfffb4f54>
 5084880:	00c00084 	movi	r3,2
 5084884:	10fb9e26 	beq	r2,r3,5083700 <__alt_data_end+0xfffb5500>
 5084888:	003a6406 	br	508321c <__alt_data_end+0xfffb501c>
 508488c:	0021883a 	mov	r16,zero
 5084890:	003e0806 	br	50840b4 <__alt_data_end+0xfffb5eb4>
 5084894:	07000b44 	movi	fp,45
 5084898:	df002785 	stb	fp,158(sp)
 508489c:	003a0b06 	br	50830cc <__alt_data_end+0xfffb4ecc>
 50848a0:	d8c02d17 	ldw	r3,180(sp)
 50848a4:	d9002f17 	ldw	r4,188(sp)
 50848a8:	18800017 	ldw	r2,0(r3)
 50848ac:	18c00104 	addi	r3,r3,4
 50848b0:	d8c02d15 	stw	r3,180(sp)
 50848b4:	11000015 	stw	r4,0(r2)
 50848b8:	0038f306 	br	5082c88 <__alt_data_end+0xfffb4a88>
 50848bc:	00c00b44 	movi	r3,45
 50848c0:	d8c02785 	stb	r3,158(sp)
 50848c4:	d8802a15 	stw	r2,168(sp)
 50848c8:	dc802b17 	ldw	r18,172(sp)
 50848cc:	d8002915 	stw	zero,164(sp)
 50848d0:	07000b44 	movi	fp,45
 50848d4:	003a7306 	br	50832a4 <__alt_data_end+0xfffb50a4>
 50848d8:	9080004c 	andi	r2,r18,1
 50848dc:	1000941e 	bne	r2,zero,5084b30 <___svfprintf_internal_r+0x1f54>
 50848e0:	d8802117 	ldw	r2,132(sp)
 50848e4:	1405c83a 	sub	r2,r2,r16
 50848e8:	d8803315 	stw	r2,204(sp)
 50848ec:	b441161e 	bne	r22,r17,5084d48 <___svfprintf_internal_r+0x216c>
 50848f0:	dd802617 	ldw	r22,152(sp)
 50848f4:	00bfff44 	movi	r2,-3
 50848f8:	b0801a16 	blt	r22,r2,5084964 <___svfprintf_internal_r+0x1d88>
 50848fc:	d9402917 	ldw	r5,164(sp)
 5084900:	2d801816 	blt	r5,r22,5084964 <___svfprintf_internal_r+0x1d88>
 5084904:	dd803215 	stw	r22,200(sp)
 5084908:	003f3a06 	br	50845f4 <__alt_data_end+0xfffb63f4>
 508490c:	1025883a 	mov	r18,r2
 5084910:	0039883a 	mov	fp,zero
 5084914:	00800084 	movi	r2,2
 5084918:	003fd606 	br	5084874 <__alt_data_end+0xfffb6674>
 508491c:	9080004c 	andi	r2,r18,1
 5084920:	103f191e 	bne	r2,zero,5084588 <__alt_data_end+0xfffb6388>
 5084924:	d8802117 	ldw	r2,132(sp)
 5084928:	003f2806 	br	50845cc <__alt_data_end+0xfffb63cc>
 508492c:	01014274 	movhi	r4,1289
 5084930:	21178384 	addi	r4,r4,24078
 5084934:	d9002b15 	stw	r4,172(sp)
 5084938:	003c7c06 	br	5083b2c <__alt_data_end+0xfffb592c>
 508493c:	e005883a 	mov	r2,fp
 5084940:	003f2206 	br	50845cc <__alt_data_end+0xfffb63cc>
 5084944:	d9402917 	ldw	r5,164(sp)
 5084948:	df002783 	ldbu	fp,158(sp)
 508494c:	dd002d15 	stw	r20,180(sp)
 5084950:	d9402a15 	stw	r5,168(sp)
 5084954:	d9402e15 	stw	r5,184(sp)
 5084958:	d8002915 	stw	zero,164(sp)
 508495c:	d8003215 	stw	zero,200(sp)
 5084960:	003a4c06 	br	5083294 <__alt_data_end+0xfffb5094>
 5084964:	8c7fff84 	addi	r17,r17,-2
 5084968:	b5bfffc4 	addi	r22,r22,-1
 508496c:	dd802615 	stw	r22,152(sp)
 5084970:	dc4022c5 	stb	r17,139(sp)
 5084974:	b000c316 	blt	r22,zero,5084c84 <___svfprintf_internal_r+0x20a8>
 5084978:	00800ac4 	movi	r2,43
 508497c:	d8802305 	stb	r2,140(sp)
 5084980:	00800244 	movi	r2,9
 5084984:	15806e16 	blt	r2,r22,5084b40 <___svfprintf_internal_r+0x1f64>
 5084988:	00800c04 	movi	r2,48
 508498c:	b5800c04 	addi	r22,r22,48
 5084990:	d8802345 	stb	r2,141(sp)
 5084994:	dd802385 	stb	r22,142(sp)
 5084998:	d88023c4 	addi	r2,sp,143
 508499c:	df0022c4 	addi	fp,sp,139
 50849a0:	d8c03317 	ldw	r3,204(sp)
 50849a4:	1739c83a 	sub	fp,r2,fp
 50849a8:	d9003317 	ldw	r4,204(sp)
 50849ac:	e0c7883a 	add	r3,fp,r3
 50849b0:	df003b15 	stw	fp,236(sp)
 50849b4:	d8c02e15 	stw	r3,184(sp)
 50849b8:	00800044 	movi	r2,1
 50849bc:	1100b70e 	bge	r2,r4,5084c9c <___svfprintf_internal_r+0x20c0>
 50849c0:	d8c02e17 	ldw	r3,184(sp)
 50849c4:	18c00044 	addi	r3,r3,1
 50849c8:	d8c02e15 	stw	r3,184(sp)
 50849cc:	1805883a 	mov	r2,r3
 50849d0:	1800b016 	blt	r3,zero,5084c94 <___svfprintf_internal_r+0x20b8>
 50849d4:	d8003215 	stw	zero,200(sp)
 50849d8:	003f1006 	br	508461c <__alt_data_end+0xfffb641c>
 50849dc:	d8802917 	ldw	r2,164(sp)
 50849e0:	103ec71e 	bne	r2,zero,5084500 <__alt_data_end+0xfffb6300>
 50849e4:	dc002915 	stw	r16,164(sp)
 50849e8:	003ec506 	br	5084500 <__alt_data_end+0xfffb6300>
 50849ec:	d9402c17 	ldw	r5,176(sp)
 50849f0:	d9801e04 	addi	r6,sp,120
 50849f4:	9809883a 	mov	r4,r19
 50849f8:	508c3d80 	call	508c3d8 <__ssprint_r>
 50849fc:	10395c1e 	bne	r2,zero,5082f70 <__alt_data_end+0xfffb4d70>
 5084a00:	dc402617 	ldw	r17,152(sp)
 5084a04:	d8c02017 	ldw	r3,128(sp)
 5084a08:	d8801f17 	ldw	r2,124(sp)
 5084a0c:	da000404 	addi	r8,sp,16
 5084a10:	003e7706 	br	50843f0 <__alt_data_end+0xfffb61f0>
 5084a14:	582f883a 	mov	r23,r11
 5084a18:	d8002915 	stw	zero,164(sp)
 5084a1c:	0038c406 	br	5082d30 <__alt_data_end+0xfffb4b30>
 5084a20:	d8c02917 	ldw	r3,164(sp)
 5084a24:	d8802104 	addi	r2,sp,132
 5084a28:	d8800315 	stw	r2,12(sp)
 5084a2c:	d9403617 	ldw	r5,216(sp)
 5084a30:	d8802504 	addi	r2,sp,148
 5084a34:	d8800215 	stw	r2,8(sp)
 5084a38:	d8802604 	addi	r2,sp,152
 5084a3c:	d8c00015 	stw	r3,0(sp)
 5084a40:	9809883a 	mov	r4,r19
 5084a44:	d8800115 	stw	r2,4(sp)
 5084a48:	01c000c4 	movi	r7,3
 5084a4c:	a00d883a 	mov	r6,r20
 5084a50:	da003e15 	stw	r8,248(sp)
 5084a54:	50874fc0 	call	50874fc <_dtoa_r>
 5084a58:	d9002917 	ldw	r4,164(sp)
 5084a5c:	da003e17 	ldw	r8,248(sp)
 5084a60:	1021883a 	mov	r16,r2
 5084a64:	1139883a 	add	fp,r2,r4
 5084a68:	2007883a 	mov	r3,r4
 5084a6c:	81000007 	ldb	r4,0(r16)
 5084a70:	00800c04 	movi	r2,48
 5084a74:	20806f26 	beq	r4,r2,5084c34 <___svfprintf_internal_r+0x2058>
 5084a78:	d8c02617 	ldw	r3,152(sp)
 5084a7c:	e0f9883a 	add	fp,fp,r3
 5084a80:	003ec206 	br	508458c <__alt_data_end+0xfffb638c>
 5084a84:	00c00b44 	movi	r3,45
 5084a88:	2520003c 	xorhi	r20,r4,32768
 5084a8c:	d8c02a05 	stb	r3,168(sp)
 5084a90:	003ea106 	br	5084518 <__alt_data_end+0xfffb6318>
 5084a94:	d8c03217 	ldw	r3,200(sp)
 5084a98:	00c0890e 	bge	zero,r3,5084cc0 <___svfprintf_internal_r+0x20e4>
 5084a9c:	00800044 	movi	r2,1
 5084aa0:	d9003317 	ldw	r4,204(sp)
 5084aa4:	1105883a 	add	r2,r2,r4
 5084aa8:	d8802e15 	stw	r2,184(sp)
 5084aac:	10005f16 	blt	r2,zero,5084c2c <___svfprintf_internal_r+0x2050>
 5084ab0:	044019c4 	movi	r17,103
 5084ab4:	003ed906 	br	508461c <__alt_data_end+0xfffb641c>
 5084ab8:	d9002917 	ldw	r4,164(sp)
 5084abc:	20c00044 	addi	r3,r4,1
 5084ac0:	003e9c06 	br	5084534 <__alt_data_end+0xfffb6334>
 5084ac4:	d9002917 	ldw	r4,164(sp)
 5084ac8:	00c0680e 	bge	zero,r3,5084c6c <___svfprintf_internal_r+0x2090>
 5084acc:	2000461e 	bne	r4,zero,5084be8 <___svfprintf_internal_r+0x200c>
 5084ad0:	9480004c 	andi	r18,r18,1
 5084ad4:	9000441e 	bne	r18,zero,5084be8 <___svfprintf_internal_r+0x200c>
 5084ad8:	1805883a 	mov	r2,r3
 5084adc:	1800a016 	blt	r3,zero,5084d60 <___svfprintf_internal_r+0x2184>
 5084ae0:	d8c03217 	ldw	r3,200(sp)
 5084ae4:	d8c02e15 	stw	r3,184(sp)
 5084ae8:	003ecc06 	br	508461c <__alt_data_end+0xfffb641c>
 5084aec:	d9402917 	ldw	r5,164(sp)
 5084af0:	d8802104 	addi	r2,sp,132
 5084af4:	d8800315 	stw	r2,12(sp)
 5084af8:	d9400015 	stw	r5,0(sp)
 5084afc:	d8802504 	addi	r2,sp,148
 5084b00:	d9403617 	ldw	r5,216(sp)
 5084b04:	d8800215 	stw	r2,8(sp)
 5084b08:	d8802604 	addi	r2,sp,152
 5084b0c:	d8800115 	stw	r2,4(sp)
 5084b10:	01c000c4 	movi	r7,3
 5084b14:	a00d883a 	mov	r6,r20
 5084b18:	9809883a 	mov	r4,r19
 5084b1c:	da003e15 	stw	r8,248(sp)
 5084b20:	50874fc0 	call	50874fc <_dtoa_r>
 5084b24:	d8c02917 	ldw	r3,164(sp)
 5084b28:	da003e17 	ldw	r8,248(sp)
 5084b2c:	1021883a 	mov	r16,r2
 5084b30:	00801184 	movi	r2,70
 5084b34:	80f9883a 	add	fp,r16,r3
 5084b38:	88bfcc26 	beq	r17,r2,5084a6c <__alt_data_end+0xfffb686c>
 5084b3c:	003e9306 	br	508458c <__alt_data_end+0xfffb638c>
 5084b40:	df0022c4 	addi	fp,sp,139
 5084b44:	dc002915 	stw	r16,164(sp)
 5084b48:	9829883a 	mov	r20,r19
 5084b4c:	e021883a 	mov	r16,fp
 5084b50:	4027883a 	mov	r19,r8
 5084b54:	b009883a 	mov	r4,r22
 5084b58:	01400284 	movi	r5,10
 5084b5c:	50828100 	call	5082810 <__modsi3>
 5084b60:	10800c04 	addi	r2,r2,48
 5084b64:	843fffc4 	addi	r16,r16,-1
 5084b68:	b009883a 	mov	r4,r22
 5084b6c:	01400284 	movi	r5,10
 5084b70:	80800005 	stb	r2,0(r16)
 5084b74:	508278c0 	call	508278c <__divsi3>
 5084b78:	102d883a 	mov	r22,r2
 5084b7c:	00800244 	movi	r2,9
 5084b80:	15bff416 	blt	r2,r22,5084b54 <__alt_data_end+0xfffb6954>
 5084b84:	9811883a 	mov	r8,r19
 5084b88:	b0800c04 	addi	r2,r22,48
 5084b8c:	a027883a 	mov	r19,r20
 5084b90:	8029883a 	mov	r20,r16
 5084b94:	a17fffc4 	addi	r5,r20,-1
 5084b98:	a0bfffc5 	stb	r2,-1(r20)
 5084b9c:	dc002917 	ldw	r16,164(sp)
 5084ba0:	2f00752e 	bgeu	r5,fp,5084d78 <___svfprintf_internal_r+0x219c>
 5084ba4:	d9c02384 	addi	r7,sp,142
 5084ba8:	3d0fc83a 	sub	r7,r7,r20
 5084bac:	d9002344 	addi	r4,sp,141
 5084bb0:	e1cf883a 	add	r7,fp,r7
 5084bb4:	00000106 	br	5084bbc <___svfprintf_internal_r+0x1fe0>
 5084bb8:	28800003 	ldbu	r2,0(r5)
 5084bbc:	20800005 	stb	r2,0(r4)
 5084bc0:	21000044 	addi	r4,r4,1
 5084bc4:	29400044 	addi	r5,r5,1
 5084bc8:	21fffb1e 	bne	r4,r7,5084bb8 <__alt_data_end+0xfffb69b8>
 5084bcc:	d8802304 	addi	r2,sp,140
 5084bd0:	1505c83a 	sub	r2,r2,r20
 5084bd4:	d8c02344 	addi	r3,sp,141
 5084bd8:	1885883a 	add	r2,r3,r2
 5084bdc:	003f7006 	br	50849a0 <__alt_data_end+0xfffb67a0>
 5084be0:	0005883a 	mov	r2,zero
 5084be4:	003f0b06 	br	5084814 <__alt_data_end+0xfffb6614>
 5084be8:	d9002917 	ldw	r4,164(sp)
 5084bec:	d8c03217 	ldw	r3,200(sp)
 5084bf0:	20800044 	addi	r2,r4,1
 5084bf4:	1885883a 	add	r2,r3,r2
 5084bf8:	d8802e15 	stw	r2,184(sp)
 5084bfc:	103e870e 	bge	r2,zero,508461c <__alt_data_end+0xfffb641c>
 5084c00:	0005883a 	mov	r2,zero
 5084c04:	003e8506 	br	508461c <__alt_data_end+0xfffb641c>
 5084c08:	01014274 	movhi	r4,1289
 5084c0c:	21178384 	addi	r4,r4,24078
 5084c10:	d9002b15 	stw	r4,172(sp)
 5084c14:	003cc506 	br	5083f2c <__alt_data_end+0xfffb5d2c>
 5084c18:	d8c03217 	ldw	r3,200(sp)
 5084c1c:	18c00044 	addi	r3,r3,1
 5084c20:	d8c02e15 	stw	r3,184(sp)
 5084c24:	1805883a 	mov	r2,r3
 5084c28:	183fa10e 	bge	r3,zero,5084ab0 <__alt_data_end+0xfffb68b0>
 5084c2c:	0005883a 	mov	r2,zero
 5084c30:	003f9f06 	br	5084ab0 <__alt_data_end+0xfffb68b0>
 5084c34:	d9003617 	ldw	r4,216(sp)
 5084c38:	000d883a 	mov	r6,zero
 5084c3c:	000f883a 	mov	r7,zero
 5084c40:	a00b883a 	mov	r5,r20
 5084c44:	d8c03d15 	stw	r3,244(sp)
 5084c48:	da003e15 	stw	r8,248(sp)
 5084c4c:	50913a40 	call	50913a4 <__eqdf2>
 5084c50:	d8c03d17 	ldw	r3,244(sp)
 5084c54:	da003e17 	ldw	r8,248(sp)
 5084c58:	103f8726 	beq	r2,zero,5084a78 <__alt_data_end+0xfffb6878>
 5084c5c:	00800044 	movi	r2,1
 5084c60:	10c7c83a 	sub	r3,r2,r3
 5084c64:	d8c02615 	stw	r3,152(sp)
 5084c68:	003f8406 	br	5084a7c <__alt_data_end+0xfffb687c>
 5084c6c:	20000e1e 	bne	r4,zero,5084ca8 <___svfprintf_internal_r+0x20cc>
 5084c70:	9480004c 	andi	r18,r18,1
 5084c74:	90000c1e 	bne	r18,zero,5084ca8 <___svfprintf_internal_r+0x20cc>
 5084c78:	00800044 	movi	r2,1
 5084c7c:	d8802e15 	stw	r2,184(sp)
 5084c80:	003e6606 	br	508461c <__alt_data_end+0xfffb641c>
 5084c84:	00800b44 	movi	r2,45
 5084c88:	05adc83a 	sub	r22,zero,r22
 5084c8c:	d8802305 	stb	r2,140(sp)
 5084c90:	003f3b06 	br	5084980 <__alt_data_end+0xfffb6780>
 5084c94:	0005883a 	mov	r2,zero
 5084c98:	003f4e06 	br	50849d4 <__alt_data_end+0xfffb67d4>
 5084c9c:	90a4703a 	and	r18,r18,r2
 5084ca0:	903f4a26 	beq	r18,zero,50849cc <__alt_data_end+0xfffb67cc>
 5084ca4:	003f4606 	br	50849c0 <__alt_data_end+0xfffb67c0>
 5084ca8:	d8c02917 	ldw	r3,164(sp)
 5084cac:	18c00084 	addi	r3,r3,2
 5084cb0:	d8c02e15 	stw	r3,184(sp)
 5084cb4:	1805883a 	mov	r2,r3
 5084cb8:	183e580e 	bge	r3,zero,508461c <__alt_data_end+0xfffb641c>
 5084cbc:	003fd006 	br	5084c00 <__alt_data_end+0xfffb6a00>
 5084cc0:	00800084 	movi	r2,2
 5084cc4:	10c5c83a 	sub	r2,r2,r3
 5084cc8:	003f7506 	br	5084aa0 <__alt_data_end+0xfffb68a0>
 5084ccc:	d8802d17 	ldw	r2,180(sp)
 5084cd0:	d9002d17 	ldw	r4,180(sp)
 5084cd4:	bc400043 	ldbu	r17,1(r23)
 5084cd8:	10800017 	ldw	r2,0(r2)
 5084cdc:	582f883a 	mov	r23,r11
 5084ce0:	d8802915 	stw	r2,164(sp)
 5084ce4:	20800104 	addi	r2,r4,4
 5084ce8:	d9002917 	ldw	r4,164(sp)
 5084cec:	d8802d15 	stw	r2,180(sp)
 5084cf0:	203df00e 	bge	r4,zero,50844b4 <__alt_data_end+0xfffb62b4>
 5084cf4:	8c403fcc 	andi	r17,r17,255
 5084cf8:	00bfffc4 	movi	r2,-1
 5084cfc:	8c40201c 	xori	r17,r17,128
 5084d00:	d8802915 	stw	r2,164(sp)
 5084d04:	8c7fe004 	addi	r17,r17,-128
 5084d08:	00380806 	br	5082d2c <__alt_data_end+0xfffb4b2c>
 5084d0c:	9080004c 	andi	r2,r18,1
 5084d10:	0039883a 	mov	fp,zero
 5084d14:	10000726 	beq	r2,zero,5084d34 <___svfprintf_internal_r+0x2158>
 5084d18:	d8c02817 	ldw	r3,160(sp)
 5084d1c:	dc001dc4 	addi	r16,sp,119
 5084d20:	00800c04 	movi	r2,48
 5084d24:	1c07c83a 	sub	r3,r3,r16
 5084d28:	d8801dc5 	stb	r2,119(sp)
 5084d2c:	d8c02e15 	stw	r3,184(sp)
 5084d30:	00395206 	br	508327c <__alt_data_end+0xfffb507c>
 5084d34:	d8002e15 	stw	zero,184(sp)
 5084d38:	dc001e04 	addi	r16,sp,120
 5084d3c:	00394f06 	br	508327c <__alt_data_end+0xfffb507c>
 5084d40:	0005883a 	mov	r2,zero
 5084d44:	003e3206 	br	5084610 <__alt_data_end+0xfffb6410>
 5084d48:	dd802617 	ldw	r22,152(sp)
 5084d4c:	003f0606 	br	5084968 <__alt_data_end+0xfffb6768>
 5084d50:	d9c02785 	stb	r7,158(sp)
 5084d54:	003a5106 	br	508369c <__alt_data_end+0xfffb549c>
 5084d58:	d9c02785 	stb	r7,158(sp)
 5084d5c:	003a3706 	br	508363c <__alt_data_end+0xfffb543c>
 5084d60:	0005883a 	mov	r2,zero
 5084d64:	003f5e06 	br	5084ae0 <__alt_data_end+0xfffb68e0>
 5084d68:	d9c02785 	stb	r7,158(sp)
 5084d6c:	00391706 	br	50831cc <__alt_data_end+0xfffb4fcc>
 5084d70:	d9c02785 	stb	r7,158(sp)
 5084d74:	0038e606 	br	5083110 <__alt_data_end+0xfffb4f10>
 5084d78:	d8802344 	addi	r2,sp,141
 5084d7c:	003f0806 	br	50849a0 <__alt_data_end+0xfffb67a0>
 5084d80:	d9c02785 	stb	r7,158(sp)
 5084d84:	0038b706 	br	5083064 <__alt_data_end+0xfffb4e64>
 5084d88:	d9c02785 	stb	r7,158(sp)
 5084d8c:	003adc06 	br	5083900 <__alt_data_end+0xfffb5700>
 5084d90:	d9403917 	ldw	r5,228(sp)
 5084d94:	00800304 	movi	r2,12
 5084d98:	28800015 	stw	r2,0(r5)
 5084d9c:	00bfffc4 	movi	r2,-1
 5084da0:	00387806 	br	5082f84 <__alt_data_end+0xfffb4d84>
 5084da4:	d9c02785 	stb	r7,158(sp)
 5084da8:	003abf06 	br	50838a8 <__alt_data_end+0xfffb56a8>
 5084dac:	d9c02785 	stb	r7,158(sp)
 5084db0:	003a9b06 	br	5083820 <__alt_data_end+0xfffb5620>

05084db4 <___vfprintf_internal_r>:
 5084db4:	deffb804 	addi	sp,sp,-288
 5084db8:	dfc04715 	stw	ra,284(sp)
 5084dbc:	ddc04515 	stw	r23,276(sp)
 5084dc0:	dd404315 	stw	r21,268(sp)
 5084dc4:	d9002c15 	stw	r4,176(sp)
 5084dc8:	282f883a 	mov	r23,r5
 5084dcc:	302b883a 	mov	r21,r6
 5084dd0:	d9c02d15 	stw	r7,180(sp)
 5084dd4:	df004615 	stw	fp,280(sp)
 5084dd8:	dd804415 	stw	r22,272(sp)
 5084ddc:	dd004215 	stw	r20,264(sp)
 5084de0:	dcc04115 	stw	r19,260(sp)
 5084de4:	dc804015 	stw	r18,256(sp)
 5084de8:	dc403f15 	stw	r17,252(sp)
 5084dec:	dc003e15 	stw	r16,248(sp)
 5084df0:	5089cf00 	call	5089cf0 <_localeconv_r>
 5084df4:	10800017 	ldw	r2,0(r2)
 5084df8:	1009883a 	mov	r4,r2
 5084dfc:	d8803415 	stw	r2,208(sp)
 5084e00:	5082b440 	call	5082b44 <strlen>
 5084e04:	d8803715 	stw	r2,220(sp)
 5084e08:	d8802c17 	ldw	r2,176(sp)
 5084e0c:	10000226 	beq	r2,zero,5084e18 <___vfprintf_internal_r+0x64>
 5084e10:	10800e17 	ldw	r2,56(r2)
 5084e14:	1000f926 	beq	r2,zero,50851fc <___vfprintf_internal_r+0x448>
 5084e18:	b880030b 	ldhu	r2,12(r23)
 5084e1c:	10c8000c 	andi	r3,r2,8192
 5084e20:	1800061e 	bne	r3,zero,5084e3c <___vfprintf_internal_r+0x88>
 5084e24:	b9001917 	ldw	r4,100(r23)
 5084e28:	00f7ffc4 	movi	r3,-8193
 5084e2c:	10880014 	ori	r2,r2,8192
 5084e30:	20c6703a 	and	r3,r4,r3
 5084e34:	b880030d 	sth	r2,12(r23)
 5084e38:	b8c01915 	stw	r3,100(r23)
 5084e3c:	10c0020c 	andi	r3,r2,8
 5084e40:	1800c126 	beq	r3,zero,5085148 <___vfprintf_internal_r+0x394>
 5084e44:	b8c00417 	ldw	r3,16(r23)
 5084e48:	1800bf26 	beq	r3,zero,5085148 <___vfprintf_internal_r+0x394>
 5084e4c:	1080068c 	andi	r2,r2,26
 5084e50:	00c00284 	movi	r3,10
 5084e54:	10c0c426 	beq	r2,r3,5085168 <___vfprintf_internal_r+0x3b4>
 5084e58:	d8c00404 	addi	r3,sp,16
 5084e5c:	05014274 	movhi	r20,1289
 5084e60:	d9001e04 	addi	r4,sp,120
 5084e64:	a5178b84 	addi	r20,r20,24110
 5084e68:	d8c01e15 	stw	r3,120(sp)
 5084e6c:	d8002015 	stw	zero,128(sp)
 5084e70:	d8001f15 	stw	zero,124(sp)
 5084e74:	d8003315 	stw	zero,204(sp)
 5084e78:	d8003615 	stw	zero,216(sp)
 5084e7c:	d8003815 	stw	zero,224(sp)
 5084e80:	1811883a 	mov	r8,r3
 5084e84:	d8003915 	stw	zero,228(sp)
 5084e88:	d8003a15 	stw	zero,232(sp)
 5084e8c:	d8002f15 	stw	zero,188(sp)
 5084e90:	d9002815 	stw	r4,160(sp)
 5084e94:	a8800007 	ldb	r2,0(r21)
 5084e98:	10027b26 	beq	r2,zero,5085888 <___vfprintf_internal_r+0xad4>
 5084e9c:	00c00944 	movi	r3,37
 5084ea0:	a821883a 	mov	r16,r21
 5084ea4:	10c0021e 	bne	r2,r3,5084eb0 <___vfprintf_internal_r+0xfc>
 5084ea8:	00001406 	br	5084efc <___vfprintf_internal_r+0x148>
 5084eac:	10c00326 	beq	r2,r3,5084ebc <___vfprintf_internal_r+0x108>
 5084eb0:	84000044 	addi	r16,r16,1
 5084eb4:	80800007 	ldb	r2,0(r16)
 5084eb8:	103ffc1e 	bne	r2,zero,5084eac <__alt_data_end+0xfffb6cac>
 5084ebc:	8563c83a 	sub	r17,r16,r21
 5084ec0:	88000e26 	beq	r17,zero,5084efc <___vfprintf_internal_r+0x148>
 5084ec4:	d8c02017 	ldw	r3,128(sp)
 5084ec8:	d8801f17 	ldw	r2,124(sp)
 5084ecc:	45400015 	stw	r21,0(r8)
 5084ed0:	1c47883a 	add	r3,r3,r17
 5084ed4:	10800044 	addi	r2,r2,1
 5084ed8:	d8c02015 	stw	r3,128(sp)
 5084edc:	44400115 	stw	r17,4(r8)
 5084ee0:	d8801f15 	stw	r2,124(sp)
 5084ee4:	00c001c4 	movi	r3,7
 5084ee8:	1880a716 	blt	r3,r2,5085188 <___vfprintf_internal_r+0x3d4>
 5084eec:	42000204 	addi	r8,r8,8
 5084ef0:	d9402f17 	ldw	r5,188(sp)
 5084ef4:	2c4b883a 	add	r5,r5,r17
 5084ef8:	d9402f15 	stw	r5,188(sp)
 5084efc:	80800007 	ldb	r2,0(r16)
 5084f00:	1000a826 	beq	r2,zero,50851a4 <___vfprintf_internal_r+0x3f0>
 5084f04:	84400047 	ldb	r17,1(r16)
 5084f08:	00bfffc4 	movi	r2,-1
 5084f0c:	85400044 	addi	r21,r16,1
 5084f10:	d8002785 	stb	zero,158(sp)
 5084f14:	0007883a 	mov	r3,zero
 5084f18:	000f883a 	mov	r7,zero
 5084f1c:	d8802915 	stw	r2,164(sp)
 5084f20:	d8003115 	stw	zero,196(sp)
 5084f24:	0025883a 	mov	r18,zero
 5084f28:	01401604 	movi	r5,88
 5084f2c:	01800244 	movi	r6,9
 5084f30:	02800a84 	movi	r10,42
 5084f34:	02401b04 	movi	r9,108
 5084f38:	ad400044 	addi	r21,r21,1
 5084f3c:	88bff804 	addi	r2,r17,-32
 5084f40:	28830436 	bltu	r5,r2,5085b54 <___vfprintf_internal_r+0xda0>
 5084f44:	100490ba 	slli	r2,r2,2
 5084f48:	01014234 	movhi	r4,1288
 5084f4c:	2113d704 	addi	r4,r4,20316
 5084f50:	1105883a 	add	r2,r2,r4
 5084f54:	10800017 	ldw	r2,0(r2)
 5084f58:	1000683a 	jmp	r2
 5084f5c:	05085a74 	movhi	r20,8553
 5084f60:	05085b54 	movui	r20,8557
 5084f64:	05085b54 	movui	r20,8557
 5084f68:	05085a94 	movui	r20,8554
 5084f6c:	05085b54 	movui	r20,8557
 5084f70:	05085b54 	movui	r20,8557
 5084f74:	05085b54 	movui	r20,8557
 5084f78:	05085b54 	movui	r20,8557
 5084f7c:	05085b54 	movui	r20,8557
 5084f80:	05085b54 	movui	r20,8557
 5084f84:	05085208 	cmpgei	r20,zero,8520
 5084f88:	050859b0 	cmpltui	r20,zero,8550
 5084f8c:	05085b54 	movui	r20,8557
 5084f90:	050850d0 	cmplti	r20,zero,8515
 5084f94:	05085230 	cmpltui	r20,zero,8520
 5084f98:	05085b54 	movui	r20,8557
 5084f9c:	05085270 	cmpltui	r20,zero,8521
 5084fa0:	0508527c 	xorhi	r20,zero,8521
 5084fa4:	0508527c 	xorhi	r20,zero,8521
 5084fa8:	0508527c 	xorhi	r20,zero,8521
 5084fac:	0508527c 	xorhi	r20,zero,8521
 5084fb0:	0508527c 	xorhi	r20,zero,8521
 5084fb4:	0508527c 	xorhi	r20,zero,8521
 5084fb8:	0508527c 	xorhi	r20,zero,8521
 5084fbc:	0508527c 	xorhi	r20,zero,8521
 5084fc0:	0508527c 	xorhi	r20,zero,8521
 5084fc4:	05085b54 	movui	r20,8557
 5084fc8:	05085b54 	movui	r20,8557
 5084fcc:	05085b54 	movui	r20,8557
 5084fd0:	05085b54 	movui	r20,8557
 5084fd4:	05085b54 	movui	r20,8557
 5084fd8:	05085b54 	movui	r20,8557
 5084fdc:	05085b54 	movui	r20,8557
 5084fe0:	05085b54 	movui	r20,8557
 5084fe4:	05085b54 	movui	r20,8557
 5084fe8:	05085b54 	movui	r20,8557
 5084fec:	050852b0 	cmpltui	r20,zero,8522
 5084ff0:	0508536c 	andhi	r20,zero,8525
 5084ff4:	05085b54 	movui	r20,8557
 5084ff8:	0508536c 	andhi	r20,zero,8525
 5084ffc:	05085b54 	movui	r20,8557
 5085000:	05085b54 	movui	r20,8557
 5085004:	05085b54 	movui	r20,8557
 5085008:	05085b54 	movui	r20,8557
 508500c:	0508540c 	andi	r20,zero,8528
 5085010:	05085b54 	movui	r20,8557
 5085014:	05085b54 	movui	r20,8557
 5085018:	05085418 	cmpnei	r20,zero,8528
 508501c:	05085b54 	movui	r20,8557
 5085020:	05085b54 	movui	r20,8557
 5085024:	05085b54 	movui	r20,8557
 5085028:	05085b54 	movui	r20,8557
 508502c:	05085b54 	movui	r20,8557
 5085030:	05085890 	cmplti	r20,zero,8546
 5085034:	05085b54 	movui	r20,8557
 5085038:	05085b54 	movui	r20,8557
 508503c:	050858f0 	cmpltui	r20,zero,8547
 5085040:	05085b54 	movui	r20,8557
 5085044:	05085b54 	movui	r20,8557
 5085048:	05085b54 	movui	r20,8557
 508504c:	05085b54 	movui	r20,8557
 5085050:	05085b54 	movui	r20,8557
 5085054:	05085b54 	movui	r20,8557
 5085058:	05085b54 	movui	r20,8557
 508505c:	05085b54 	movui	r20,8557
 5085060:	05085b54 	movui	r20,8557
 5085064:	05085b54 	movui	r20,8557
 5085068:	05085b00 	call	5085b0 <__alt_mem_sdram+0x5085b0>
 508506c:	05085aa0 	cmpeqi	r20,zero,8554
 5085070:	0508536c 	andhi	r20,zero,8525
 5085074:	0508536c 	andhi	r20,zero,8525
 5085078:	0508536c 	andhi	r20,zero,8525
 508507c:	05085ab0 	cmpltui	r20,zero,8554
 5085080:	05085aa0 	cmpeqi	r20,zero,8554
 5085084:	05085b54 	movui	r20,8557
 5085088:	05085b54 	movui	r20,8557
 508508c:	05085abc 	xorhi	r20,zero,8554
 5085090:	05085b54 	movui	r20,8557
 5085094:	05085acc 	andi	r20,zero,8555
 5085098:	050859a0 	cmpeqi	r20,zero,8550
 508509c:	050850dc 	xori	r20,zero,8515
 50850a0:	050859c0 	call	50859c <__alt_mem_sdram+0x50859c>
 50850a4:	05085b54 	movui	r20,8557
 50850a8:	050859cc 	andi	r20,zero,8551
 50850ac:	05085b54 	movui	r20,8557
 50850b0:	05085a28 	cmpgeui	r20,zero,8552
 50850b4:	05085b54 	movui	r20,8557
 50850b8:	05085b54 	movui	r20,8557
 50850bc:	05085a38 	rdprs	r20,zero,8552
 50850c0:	d9003117 	ldw	r4,196(sp)
 50850c4:	d8802d15 	stw	r2,180(sp)
 50850c8:	0109c83a 	sub	r4,zero,r4
 50850cc:	d9003115 	stw	r4,196(sp)
 50850d0:	94800114 	ori	r18,r18,4
 50850d4:	ac400007 	ldb	r17,0(r21)
 50850d8:	003f9706 	br	5084f38 <__alt_data_end+0xfffb6d38>
 50850dc:	00800c04 	movi	r2,48
 50850e0:	d9002d17 	ldw	r4,180(sp)
 50850e4:	d9402917 	ldw	r5,164(sp)
 50850e8:	d8802705 	stb	r2,156(sp)
 50850ec:	00801e04 	movi	r2,120
 50850f0:	d8802745 	stb	r2,157(sp)
 50850f4:	d8002785 	stb	zero,158(sp)
 50850f8:	20c00104 	addi	r3,r4,4
 50850fc:	24c00017 	ldw	r19,0(r4)
 5085100:	002d883a 	mov	r22,zero
 5085104:	90800094 	ori	r2,r18,2
 5085108:	28029a16 	blt	r5,zero,5085b74 <___vfprintf_internal_r+0xdc0>
 508510c:	00bfdfc4 	movi	r2,-129
 5085110:	90a4703a 	and	r18,r18,r2
 5085114:	d8c02d15 	stw	r3,180(sp)
 5085118:	94800094 	ori	r18,r18,2
 508511c:	9802871e 	bne	r19,zero,5085b3c <___vfprintf_internal_r+0xd88>
 5085120:	00814274 	movhi	r2,1289
 5085124:	10977c04 	addi	r2,r2,24048
 5085128:	d8803915 	stw	r2,228(sp)
 508512c:	04401e04 	movi	r17,120
 5085130:	d8802917 	ldw	r2,164(sp)
 5085134:	0039883a 	mov	fp,zero
 5085138:	1001e926 	beq	r2,zero,50858e0 <___vfprintf_internal_r+0xb2c>
 508513c:	0027883a 	mov	r19,zero
 5085140:	002d883a 	mov	r22,zero
 5085144:	00020506 	br	508595c <___vfprintf_internal_r+0xba8>
 5085148:	d9002c17 	ldw	r4,176(sp)
 508514c:	b80b883a 	mov	r5,r23
 5085150:	50871a80 	call	50871a8 <__swsetup_r>
 5085154:	1005ac1e 	bne	r2,zero,5086808 <___vfprintf_internal_r+0x1a54>
 5085158:	b880030b 	ldhu	r2,12(r23)
 508515c:	00c00284 	movi	r3,10
 5085160:	1080068c 	andi	r2,r2,26
 5085164:	10ff3c1e 	bne	r2,r3,5084e58 <__alt_data_end+0xfffb6c58>
 5085168:	b880038f 	ldh	r2,14(r23)
 508516c:	103f3a16 	blt	r2,zero,5084e58 <__alt_data_end+0xfffb6c58>
 5085170:	d9c02d17 	ldw	r7,180(sp)
 5085174:	d9002c17 	ldw	r4,176(sp)
 5085178:	a80d883a 	mov	r6,r21
 508517c:	b80b883a 	mov	r5,r23
 5085180:	5086fc80 	call	5086fc8 <__sbprintf>
 5085184:	00001106 	br	50851cc <___vfprintf_internal_r+0x418>
 5085188:	d9002c17 	ldw	r4,176(sp)
 508518c:	d9801e04 	addi	r6,sp,120
 5085190:	b80b883a 	mov	r5,r23
 5085194:	508d8e00 	call	508d8e0 <__sprint_r>
 5085198:	1000081e 	bne	r2,zero,50851bc <___vfprintf_internal_r+0x408>
 508519c:	da000404 	addi	r8,sp,16
 50851a0:	003f5306 	br	5084ef0 <__alt_data_end+0xfffb6cf0>
 50851a4:	d8802017 	ldw	r2,128(sp)
 50851a8:	10000426 	beq	r2,zero,50851bc <___vfprintf_internal_r+0x408>
 50851ac:	d9002c17 	ldw	r4,176(sp)
 50851b0:	d9801e04 	addi	r6,sp,120
 50851b4:	b80b883a 	mov	r5,r23
 50851b8:	508d8e00 	call	508d8e0 <__sprint_r>
 50851bc:	b880030b 	ldhu	r2,12(r23)
 50851c0:	1080100c 	andi	r2,r2,64
 50851c4:	1005901e 	bne	r2,zero,5086808 <___vfprintf_internal_r+0x1a54>
 50851c8:	d8802f17 	ldw	r2,188(sp)
 50851cc:	dfc04717 	ldw	ra,284(sp)
 50851d0:	df004617 	ldw	fp,280(sp)
 50851d4:	ddc04517 	ldw	r23,276(sp)
 50851d8:	dd804417 	ldw	r22,272(sp)
 50851dc:	dd404317 	ldw	r21,268(sp)
 50851e0:	dd004217 	ldw	r20,264(sp)
 50851e4:	dcc04117 	ldw	r19,260(sp)
 50851e8:	dc804017 	ldw	r18,256(sp)
 50851ec:	dc403f17 	ldw	r17,252(sp)
 50851f0:	dc003e17 	ldw	r16,248(sp)
 50851f4:	dec04804 	addi	sp,sp,288
 50851f8:	f800283a 	ret
 50851fc:	d9002c17 	ldw	r4,176(sp)
 5085200:	508917c0 	call	508917c <__sinit>
 5085204:	003f0406 	br	5084e18 <__alt_data_end+0xfffb6c18>
 5085208:	d8802d17 	ldw	r2,180(sp)
 508520c:	d9002d17 	ldw	r4,180(sp)
 5085210:	10800017 	ldw	r2,0(r2)
 5085214:	d8803115 	stw	r2,196(sp)
 5085218:	20800104 	addi	r2,r4,4
 508521c:	d9003117 	ldw	r4,196(sp)
 5085220:	203fa716 	blt	r4,zero,50850c0 <__alt_data_end+0xfffb6ec0>
 5085224:	d8802d15 	stw	r2,180(sp)
 5085228:	ac400007 	ldb	r17,0(r21)
 508522c:	003f4206 	br	5084f38 <__alt_data_end+0xfffb6d38>
 5085230:	ac400007 	ldb	r17,0(r21)
 5085234:	aac00044 	addi	r11,r21,1
 5085238:	8a872826 	beq	r17,r10,5086edc <___vfprintf_internal_r+0x2128>
 508523c:	88bff404 	addi	r2,r17,-48
 5085240:	0009883a 	mov	r4,zero
 5085244:	30867d36 	bltu	r6,r2,5086c3c <___vfprintf_internal_r+0x1e88>
 5085248:	5c400007 	ldb	r17,0(r11)
 508524c:	210002a4 	muli	r4,r4,10
 5085250:	5d400044 	addi	r21,r11,1
 5085254:	a817883a 	mov	r11,r21
 5085258:	2089883a 	add	r4,r4,r2
 508525c:	88bff404 	addi	r2,r17,-48
 5085260:	30bff92e 	bgeu	r6,r2,5085248 <__alt_data_end+0xfffb7048>
 5085264:	2005c916 	blt	r4,zero,508698c <___vfprintf_internal_r+0x1bd8>
 5085268:	d9002915 	stw	r4,164(sp)
 508526c:	003f3306 	br	5084f3c <__alt_data_end+0xfffb6d3c>
 5085270:	94802014 	ori	r18,r18,128
 5085274:	ac400007 	ldb	r17,0(r21)
 5085278:	003f2f06 	br	5084f38 <__alt_data_end+0xfffb6d38>
 508527c:	a809883a 	mov	r4,r21
 5085280:	d8003115 	stw	zero,196(sp)
 5085284:	88bff404 	addi	r2,r17,-48
 5085288:	0017883a 	mov	r11,zero
 508528c:	24400007 	ldb	r17,0(r4)
 5085290:	5ac002a4 	muli	r11,r11,10
 5085294:	ad400044 	addi	r21,r21,1
 5085298:	a809883a 	mov	r4,r21
 508529c:	12d7883a 	add	r11,r2,r11
 50852a0:	88bff404 	addi	r2,r17,-48
 50852a4:	30bff92e 	bgeu	r6,r2,508528c <__alt_data_end+0xfffb708c>
 50852a8:	dac03115 	stw	r11,196(sp)
 50852ac:	003f2306 	br	5084f3c <__alt_data_end+0xfffb6d3c>
 50852b0:	18c03fcc 	andi	r3,r3,255
 50852b4:	18072b1e 	bne	r3,zero,5086f64 <___vfprintf_internal_r+0x21b0>
 50852b8:	94800414 	ori	r18,r18,16
 50852bc:	9080080c 	andi	r2,r18,32
 50852c0:	10037b26 	beq	r2,zero,50860b0 <___vfprintf_internal_r+0x12fc>
 50852c4:	d9402d17 	ldw	r5,180(sp)
 50852c8:	28800117 	ldw	r2,4(r5)
 50852cc:	2cc00017 	ldw	r19,0(r5)
 50852d0:	29400204 	addi	r5,r5,8
 50852d4:	d9402d15 	stw	r5,180(sp)
 50852d8:	102d883a 	mov	r22,r2
 50852dc:	10044b16 	blt	r2,zero,508640c <___vfprintf_internal_r+0x1658>
 50852e0:	d9402917 	ldw	r5,164(sp)
 50852e4:	df002783 	ldbu	fp,158(sp)
 50852e8:	2803bc16 	blt	r5,zero,50861dc <___vfprintf_internal_r+0x1428>
 50852ec:	00ffdfc4 	movi	r3,-129
 50852f0:	9d84b03a 	or	r2,r19,r22
 50852f4:	90e4703a 	and	r18,r18,r3
 50852f8:	10017726 	beq	r2,zero,50858d8 <___vfprintf_internal_r+0xb24>
 50852fc:	b0038326 	beq	r22,zero,508610c <___vfprintf_internal_r+0x1358>
 5085300:	dc402a15 	stw	r17,168(sp)
 5085304:	dc001e04 	addi	r16,sp,120
 5085308:	b023883a 	mov	r17,r22
 508530c:	402d883a 	mov	r22,r8
 5085310:	9809883a 	mov	r4,r19
 5085314:	880b883a 	mov	r5,r17
 5085318:	01800284 	movi	r6,10
 508531c:	000f883a 	mov	r7,zero
 5085320:	508fcd80 	call	508fcd8 <__umoddi3>
 5085324:	10800c04 	addi	r2,r2,48
 5085328:	843fffc4 	addi	r16,r16,-1
 508532c:	9809883a 	mov	r4,r19
 5085330:	880b883a 	mov	r5,r17
 5085334:	80800005 	stb	r2,0(r16)
 5085338:	01800284 	movi	r6,10
 508533c:	000f883a 	mov	r7,zero
 5085340:	508f7600 	call	508f760 <__udivdi3>
 5085344:	1027883a 	mov	r19,r2
 5085348:	10c4b03a 	or	r2,r2,r3
 508534c:	1823883a 	mov	r17,r3
 5085350:	103fef1e 	bne	r2,zero,5085310 <__alt_data_end+0xfffb7110>
 5085354:	d8c02817 	ldw	r3,160(sp)
 5085358:	dc402a17 	ldw	r17,168(sp)
 508535c:	b011883a 	mov	r8,r22
 5085360:	1c07c83a 	sub	r3,r3,r16
 5085364:	d8c02e15 	stw	r3,184(sp)
 5085368:	00005906 	br	50854d0 <___vfprintf_internal_r+0x71c>
 508536c:	18c03fcc 	andi	r3,r3,255
 5085370:	1806fa1e 	bne	r3,zero,5086f5c <___vfprintf_internal_r+0x21a8>
 5085374:	9080020c 	andi	r2,r18,8
 5085378:	10048a26 	beq	r2,zero,50865a4 <___vfprintf_internal_r+0x17f0>
 508537c:	d8c02d17 	ldw	r3,180(sp)
 5085380:	d9002d17 	ldw	r4,180(sp)
 5085384:	d9402d17 	ldw	r5,180(sp)
 5085388:	18c00017 	ldw	r3,0(r3)
 508538c:	21000117 	ldw	r4,4(r4)
 5085390:	29400204 	addi	r5,r5,8
 5085394:	d8c03615 	stw	r3,216(sp)
 5085398:	d9003815 	stw	r4,224(sp)
 508539c:	d9402d15 	stw	r5,180(sp)
 50853a0:	d9003617 	ldw	r4,216(sp)
 50853a4:	d9403817 	ldw	r5,224(sp)
 50853a8:	da003d15 	stw	r8,244(sp)
 50853ac:	04000044 	movi	r16,1
 50853b0:	508c0f80 	call	508c0f8 <__fpclassifyd>
 50853b4:	da003d17 	ldw	r8,244(sp)
 50853b8:	14041f1e 	bne	r2,r16,5086438 <___vfprintf_internal_r+0x1684>
 50853bc:	d9003617 	ldw	r4,216(sp)
 50853c0:	d9403817 	ldw	r5,224(sp)
 50853c4:	000d883a 	mov	r6,zero
 50853c8:	000f883a 	mov	r7,zero
 50853cc:	50915080 	call	5091508 <__ledf2>
 50853d0:	da003d17 	ldw	r8,244(sp)
 50853d4:	1005be16 	blt	r2,zero,5086ad0 <___vfprintf_internal_r+0x1d1c>
 50853d8:	df002783 	ldbu	fp,158(sp)
 50853dc:	008011c4 	movi	r2,71
 50853e0:	1445330e 	bge	r2,r17,50868b0 <___vfprintf_internal_r+0x1afc>
 50853e4:	04014274 	movhi	r16,1289
 50853e8:	84177404 	addi	r16,r16,24016
 50853ec:	00c000c4 	movi	r3,3
 50853f0:	00bfdfc4 	movi	r2,-129
 50853f4:	d8c02a15 	stw	r3,168(sp)
 50853f8:	90a4703a 	and	r18,r18,r2
 50853fc:	d8c02e15 	stw	r3,184(sp)
 5085400:	d8002915 	stw	zero,164(sp)
 5085404:	d8003215 	stw	zero,200(sp)
 5085408:	00003706 	br	50854e8 <___vfprintf_internal_r+0x734>
 508540c:	94800214 	ori	r18,r18,8
 5085410:	ac400007 	ldb	r17,0(r21)
 5085414:	003ec806 	br	5084f38 <__alt_data_end+0xfffb6d38>
 5085418:	18c03fcc 	andi	r3,r3,255
 508541c:	1806db1e 	bne	r3,zero,5086f8c <___vfprintf_internal_r+0x21d8>
 5085420:	94800414 	ori	r18,r18,16
 5085424:	9080080c 	andi	r2,r18,32
 5085428:	1002d826 	beq	r2,zero,5085f8c <___vfprintf_internal_r+0x11d8>
 508542c:	d9402d17 	ldw	r5,180(sp)
 5085430:	d8c02917 	ldw	r3,164(sp)
 5085434:	d8002785 	stb	zero,158(sp)
 5085438:	28800204 	addi	r2,r5,8
 508543c:	2cc00017 	ldw	r19,0(r5)
 5085440:	2d800117 	ldw	r22,4(r5)
 5085444:	18048f16 	blt	r3,zero,5086684 <___vfprintf_internal_r+0x18d0>
 5085448:	013fdfc4 	movi	r4,-129
 508544c:	9d86b03a 	or	r3,r19,r22
 5085450:	d8802d15 	stw	r2,180(sp)
 5085454:	9124703a 	and	r18,r18,r4
 5085458:	1802d91e 	bne	r3,zero,5085fc0 <___vfprintf_internal_r+0x120c>
 508545c:	d8c02917 	ldw	r3,164(sp)
 5085460:	0039883a 	mov	fp,zero
 5085464:	1805c326 	beq	r3,zero,5086b74 <___vfprintf_internal_r+0x1dc0>
 5085468:	0027883a 	mov	r19,zero
 508546c:	002d883a 	mov	r22,zero
 5085470:	dc001e04 	addi	r16,sp,120
 5085474:	9806d0fa 	srli	r3,r19,3
 5085478:	b008977a 	slli	r4,r22,29
 508547c:	b02cd0fa 	srli	r22,r22,3
 5085480:	9cc001cc 	andi	r19,r19,7
 5085484:	98800c04 	addi	r2,r19,48
 5085488:	843fffc4 	addi	r16,r16,-1
 508548c:	20e6b03a 	or	r19,r4,r3
 5085490:	80800005 	stb	r2,0(r16)
 5085494:	9d86b03a 	or	r3,r19,r22
 5085498:	183ff61e 	bne	r3,zero,5085474 <__alt_data_end+0xfffb7274>
 508549c:	90c0004c 	andi	r3,r18,1
 50854a0:	18013b26 	beq	r3,zero,5085990 <___vfprintf_internal_r+0xbdc>
 50854a4:	10803fcc 	andi	r2,r2,255
 50854a8:	1080201c 	xori	r2,r2,128
 50854ac:	10bfe004 	addi	r2,r2,-128
 50854b0:	00c00c04 	movi	r3,48
 50854b4:	10c13626 	beq	r2,r3,5085990 <___vfprintf_internal_r+0xbdc>
 50854b8:	80ffffc5 	stb	r3,-1(r16)
 50854bc:	d8c02817 	ldw	r3,160(sp)
 50854c0:	80bfffc4 	addi	r2,r16,-1
 50854c4:	1021883a 	mov	r16,r2
 50854c8:	1887c83a 	sub	r3,r3,r2
 50854cc:	d8c02e15 	stw	r3,184(sp)
 50854d0:	d8802e17 	ldw	r2,184(sp)
 50854d4:	d9002917 	ldw	r4,164(sp)
 50854d8:	1100010e 	bge	r2,r4,50854e0 <___vfprintf_internal_r+0x72c>
 50854dc:	2005883a 	mov	r2,r4
 50854e0:	d8802a15 	stw	r2,168(sp)
 50854e4:	d8003215 	stw	zero,200(sp)
 50854e8:	e7003fcc 	andi	fp,fp,255
 50854ec:	e700201c 	xori	fp,fp,128
 50854f0:	e73fe004 	addi	fp,fp,-128
 50854f4:	e0000326 	beq	fp,zero,5085504 <___vfprintf_internal_r+0x750>
 50854f8:	d8c02a17 	ldw	r3,168(sp)
 50854fc:	18c00044 	addi	r3,r3,1
 5085500:	d8c02a15 	stw	r3,168(sp)
 5085504:	90c0008c 	andi	r3,r18,2
 5085508:	d8c02b15 	stw	r3,172(sp)
 508550c:	18000326 	beq	r3,zero,508551c <___vfprintf_internal_r+0x768>
 5085510:	d8c02a17 	ldw	r3,168(sp)
 5085514:	18c00084 	addi	r3,r3,2
 5085518:	d8c02a15 	stw	r3,168(sp)
 508551c:	90c0210c 	andi	r3,r18,132
 5085520:	d8c03015 	stw	r3,192(sp)
 5085524:	1801a31e 	bne	r3,zero,5085bb4 <___vfprintf_internal_r+0xe00>
 5085528:	d9003117 	ldw	r4,196(sp)
 508552c:	d8c02a17 	ldw	r3,168(sp)
 5085530:	20e7c83a 	sub	r19,r4,r3
 5085534:	04c19f0e 	bge	zero,r19,5085bb4 <___vfprintf_internal_r+0xe00>
 5085538:	02400404 	movi	r9,16
 508553c:	d8c02017 	ldw	r3,128(sp)
 5085540:	d8801f17 	ldw	r2,124(sp)
 5085544:	4cc50d0e 	bge	r9,r19,508697c <___vfprintf_internal_r+0x1bc8>
 5085548:	01414274 	movhi	r5,1289
 508554c:	29578f84 	addi	r5,r5,24126
 5085550:	dc403b15 	stw	r17,236(sp)
 5085554:	d9403515 	stw	r5,212(sp)
 5085558:	9823883a 	mov	r17,r19
 508555c:	482d883a 	mov	r22,r9
 5085560:	9027883a 	mov	r19,r18
 5085564:	070001c4 	movi	fp,7
 5085568:	8025883a 	mov	r18,r16
 508556c:	dc002c17 	ldw	r16,176(sp)
 5085570:	00000306 	br	5085580 <___vfprintf_internal_r+0x7cc>
 5085574:	8c7ffc04 	addi	r17,r17,-16
 5085578:	42000204 	addi	r8,r8,8
 508557c:	b440130e 	bge	r22,r17,50855cc <___vfprintf_internal_r+0x818>
 5085580:	01014274 	movhi	r4,1289
 5085584:	18c00404 	addi	r3,r3,16
 5085588:	10800044 	addi	r2,r2,1
 508558c:	21178f84 	addi	r4,r4,24126
 5085590:	41000015 	stw	r4,0(r8)
 5085594:	45800115 	stw	r22,4(r8)
 5085598:	d8c02015 	stw	r3,128(sp)
 508559c:	d8801f15 	stw	r2,124(sp)
 50855a0:	e0bff40e 	bge	fp,r2,5085574 <__alt_data_end+0xfffb7374>
 50855a4:	d9801e04 	addi	r6,sp,120
 50855a8:	b80b883a 	mov	r5,r23
 50855ac:	8009883a 	mov	r4,r16
 50855b0:	508d8e00 	call	508d8e0 <__sprint_r>
 50855b4:	103f011e 	bne	r2,zero,50851bc <__alt_data_end+0xfffb6fbc>
 50855b8:	8c7ffc04 	addi	r17,r17,-16
 50855bc:	d8c02017 	ldw	r3,128(sp)
 50855c0:	d8801f17 	ldw	r2,124(sp)
 50855c4:	da000404 	addi	r8,sp,16
 50855c8:	b47fed16 	blt	r22,r17,5085580 <__alt_data_end+0xfffb7380>
 50855cc:	9021883a 	mov	r16,r18
 50855d0:	9825883a 	mov	r18,r19
 50855d4:	8827883a 	mov	r19,r17
 50855d8:	dc403b17 	ldw	r17,236(sp)
 50855dc:	d9403517 	ldw	r5,212(sp)
 50855e0:	98c7883a 	add	r3,r19,r3
 50855e4:	10800044 	addi	r2,r2,1
 50855e8:	41400015 	stw	r5,0(r8)
 50855ec:	44c00115 	stw	r19,4(r8)
 50855f0:	d8c02015 	stw	r3,128(sp)
 50855f4:	d8801f15 	stw	r2,124(sp)
 50855f8:	010001c4 	movi	r4,7
 50855fc:	2082a316 	blt	r4,r2,508608c <___vfprintf_internal_r+0x12d8>
 5085600:	df002787 	ldb	fp,158(sp)
 5085604:	42000204 	addi	r8,r8,8
 5085608:	e0000c26 	beq	fp,zero,508563c <___vfprintf_internal_r+0x888>
 508560c:	d8801f17 	ldw	r2,124(sp)
 5085610:	d9002784 	addi	r4,sp,158
 5085614:	18c00044 	addi	r3,r3,1
 5085618:	10800044 	addi	r2,r2,1
 508561c:	41000015 	stw	r4,0(r8)
 5085620:	01000044 	movi	r4,1
 5085624:	41000115 	stw	r4,4(r8)
 5085628:	d8c02015 	stw	r3,128(sp)
 508562c:	d8801f15 	stw	r2,124(sp)
 5085630:	010001c4 	movi	r4,7
 5085634:	20823c16 	blt	r4,r2,5085f28 <___vfprintf_internal_r+0x1174>
 5085638:	42000204 	addi	r8,r8,8
 508563c:	d8802b17 	ldw	r2,172(sp)
 5085640:	10000c26 	beq	r2,zero,5085674 <___vfprintf_internal_r+0x8c0>
 5085644:	d8801f17 	ldw	r2,124(sp)
 5085648:	d9002704 	addi	r4,sp,156
 508564c:	18c00084 	addi	r3,r3,2
 5085650:	10800044 	addi	r2,r2,1
 5085654:	41000015 	stw	r4,0(r8)
 5085658:	01000084 	movi	r4,2
 508565c:	41000115 	stw	r4,4(r8)
 5085660:	d8c02015 	stw	r3,128(sp)
 5085664:	d8801f15 	stw	r2,124(sp)
 5085668:	010001c4 	movi	r4,7
 508566c:	20823616 	blt	r4,r2,5085f48 <___vfprintf_internal_r+0x1194>
 5085670:	42000204 	addi	r8,r8,8
 5085674:	d9003017 	ldw	r4,192(sp)
 5085678:	00802004 	movi	r2,128
 508567c:	20819926 	beq	r4,r2,5085ce4 <___vfprintf_internal_r+0xf30>
 5085680:	d9402917 	ldw	r5,164(sp)
 5085684:	d8802e17 	ldw	r2,184(sp)
 5085688:	28adc83a 	sub	r22,r5,r2
 508568c:	0580310e 	bge	zero,r22,5085754 <___vfprintf_internal_r+0x9a0>
 5085690:	07000404 	movi	fp,16
 5085694:	d8801f17 	ldw	r2,124(sp)
 5085698:	e584140e 	bge	fp,r22,50866ec <___vfprintf_internal_r+0x1938>
 508569c:	01414274 	movhi	r5,1289
 50856a0:	29578b84 	addi	r5,r5,24110
 50856a4:	dc402915 	stw	r17,164(sp)
 50856a8:	d9402b15 	stw	r5,172(sp)
 50856ac:	b023883a 	mov	r17,r22
 50856b0:	04c001c4 	movi	r19,7
 50856b4:	a82d883a 	mov	r22,r21
 50856b8:	902b883a 	mov	r21,r18
 50856bc:	8025883a 	mov	r18,r16
 50856c0:	dc002c17 	ldw	r16,176(sp)
 50856c4:	00000306 	br	50856d4 <___vfprintf_internal_r+0x920>
 50856c8:	8c7ffc04 	addi	r17,r17,-16
 50856cc:	42000204 	addi	r8,r8,8
 50856d0:	e440110e 	bge	fp,r17,5085718 <___vfprintf_internal_r+0x964>
 50856d4:	18c00404 	addi	r3,r3,16
 50856d8:	10800044 	addi	r2,r2,1
 50856dc:	45000015 	stw	r20,0(r8)
 50856e0:	47000115 	stw	fp,4(r8)
 50856e4:	d8c02015 	stw	r3,128(sp)
 50856e8:	d8801f15 	stw	r2,124(sp)
 50856ec:	98bff60e 	bge	r19,r2,50856c8 <__alt_data_end+0xfffb74c8>
 50856f0:	d9801e04 	addi	r6,sp,120
 50856f4:	b80b883a 	mov	r5,r23
 50856f8:	8009883a 	mov	r4,r16
 50856fc:	508d8e00 	call	508d8e0 <__sprint_r>
 5085700:	103eae1e 	bne	r2,zero,50851bc <__alt_data_end+0xfffb6fbc>
 5085704:	8c7ffc04 	addi	r17,r17,-16
 5085708:	d8c02017 	ldw	r3,128(sp)
 508570c:	d8801f17 	ldw	r2,124(sp)
 5085710:	da000404 	addi	r8,sp,16
 5085714:	e47fef16 	blt	fp,r17,50856d4 <__alt_data_end+0xfffb74d4>
 5085718:	9021883a 	mov	r16,r18
 508571c:	a825883a 	mov	r18,r21
 5085720:	b02b883a 	mov	r21,r22
 5085724:	882d883a 	mov	r22,r17
 5085728:	dc402917 	ldw	r17,164(sp)
 508572c:	d9002b17 	ldw	r4,172(sp)
 5085730:	1d87883a 	add	r3,r3,r22
 5085734:	10800044 	addi	r2,r2,1
 5085738:	41000015 	stw	r4,0(r8)
 508573c:	45800115 	stw	r22,4(r8)
 5085740:	d8c02015 	stw	r3,128(sp)
 5085744:	d8801f15 	stw	r2,124(sp)
 5085748:	010001c4 	movi	r4,7
 508574c:	2081ee16 	blt	r4,r2,5085f08 <___vfprintf_internal_r+0x1154>
 5085750:	42000204 	addi	r8,r8,8
 5085754:	9080400c 	andi	r2,r18,256
 5085758:	1001181e 	bne	r2,zero,5085bbc <___vfprintf_internal_r+0xe08>
 508575c:	d9402e17 	ldw	r5,184(sp)
 5085760:	d8801f17 	ldw	r2,124(sp)
 5085764:	44000015 	stw	r16,0(r8)
 5085768:	1947883a 	add	r3,r3,r5
 508576c:	10800044 	addi	r2,r2,1
 5085770:	41400115 	stw	r5,4(r8)
 5085774:	d8c02015 	stw	r3,128(sp)
 5085778:	d8801f15 	stw	r2,124(sp)
 508577c:	010001c4 	movi	r4,7
 5085780:	2081d316 	blt	r4,r2,5085ed0 <___vfprintf_internal_r+0x111c>
 5085784:	42000204 	addi	r8,r8,8
 5085788:	9480010c 	andi	r18,r18,4
 508578c:	90003226 	beq	r18,zero,5085858 <___vfprintf_internal_r+0xaa4>
 5085790:	d9403117 	ldw	r5,196(sp)
 5085794:	d8802a17 	ldw	r2,168(sp)
 5085798:	28a1c83a 	sub	r16,r5,r2
 508579c:	04002e0e 	bge	zero,r16,5085858 <___vfprintf_internal_r+0xaa4>
 50857a0:	04400404 	movi	r17,16
 50857a4:	d8801f17 	ldw	r2,124(sp)
 50857a8:	8c04a20e 	bge	r17,r16,5086a34 <___vfprintf_internal_r+0x1c80>
 50857ac:	01414274 	movhi	r5,1289
 50857b0:	29578f84 	addi	r5,r5,24126
 50857b4:	d9403515 	stw	r5,212(sp)
 50857b8:	048001c4 	movi	r18,7
 50857bc:	dcc02c17 	ldw	r19,176(sp)
 50857c0:	00000306 	br	50857d0 <___vfprintf_internal_r+0xa1c>
 50857c4:	843ffc04 	addi	r16,r16,-16
 50857c8:	42000204 	addi	r8,r8,8
 50857cc:	8c00130e 	bge	r17,r16,508581c <___vfprintf_internal_r+0xa68>
 50857d0:	01014274 	movhi	r4,1289
 50857d4:	18c00404 	addi	r3,r3,16
 50857d8:	10800044 	addi	r2,r2,1
 50857dc:	21178f84 	addi	r4,r4,24126
 50857e0:	41000015 	stw	r4,0(r8)
 50857e4:	44400115 	stw	r17,4(r8)
 50857e8:	d8c02015 	stw	r3,128(sp)
 50857ec:	d8801f15 	stw	r2,124(sp)
 50857f0:	90bff40e 	bge	r18,r2,50857c4 <__alt_data_end+0xfffb75c4>
 50857f4:	d9801e04 	addi	r6,sp,120
 50857f8:	b80b883a 	mov	r5,r23
 50857fc:	9809883a 	mov	r4,r19
 5085800:	508d8e00 	call	508d8e0 <__sprint_r>
 5085804:	103e6d1e 	bne	r2,zero,50851bc <__alt_data_end+0xfffb6fbc>
 5085808:	843ffc04 	addi	r16,r16,-16
 508580c:	d8c02017 	ldw	r3,128(sp)
 5085810:	d8801f17 	ldw	r2,124(sp)
 5085814:	da000404 	addi	r8,sp,16
 5085818:	8c3fed16 	blt	r17,r16,50857d0 <__alt_data_end+0xfffb75d0>
 508581c:	d9403517 	ldw	r5,212(sp)
 5085820:	1c07883a 	add	r3,r3,r16
 5085824:	10800044 	addi	r2,r2,1
 5085828:	41400015 	stw	r5,0(r8)
 508582c:	44000115 	stw	r16,4(r8)
 5085830:	d8c02015 	stw	r3,128(sp)
 5085834:	d8801f15 	stw	r2,124(sp)
 5085838:	010001c4 	movi	r4,7
 508583c:	2080060e 	bge	r4,r2,5085858 <___vfprintf_internal_r+0xaa4>
 5085840:	d9002c17 	ldw	r4,176(sp)
 5085844:	d9801e04 	addi	r6,sp,120
 5085848:	b80b883a 	mov	r5,r23
 508584c:	508d8e00 	call	508d8e0 <__sprint_r>
 5085850:	103e5a1e 	bne	r2,zero,50851bc <__alt_data_end+0xfffb6fbc>
 5085854:	d8c02017 	ldw	r3,128(sp)
 5085858:	d8803117 	ldw	r2,196(sp)
 508585c:	d9002a17 	ldw	r4,168(sp)
 5085860:	1100010e 	bge	r2,r4,5085868 <___vfprintf_internal_r+0xab4>
 5085864:	2005883a 	mov	r2,r4
 5085868:	d9402f17 	ldw	r5,188(sp)
 508586c:	288b883a 	add	r5,r5,r2
 5085870:	d9402f15 	stw	r5,188(sp)
 5085874:	18019e1e 	bne	r3,zero,5085ef0 <___vfprintf_internal_r+0x113c>
 5085878:	a8800007 	ldb	r2,0(r21)
 508587c:	d8001f15 	stw	zero,124(sp)
 5085880:	da000404 	addi	r8,sp,16
 5085884:	103d851e 	bne	r2,zero,5084e9c <__alt_data_end+0xfffb6c9c>
 5085888:	a821883a 	mov	r16,r21
 508588c:	003d9b06 	br	5084efc <__alt_data_end+0xfffb6cfc>
 5085890:	18c03fcc 	andi	r3,r3,255
 5085894:	1805c11e 	bne	r3,zero,5086f9c <___vfprintf_internal_r+0x21e8>
 5085898:	94800414 	ori	r18,r18,16
 508589c:	9080080c 	andi	r2,r18,32
 50858a0:	10020c26 	beq	r2,zero,50860d4 <___vfprintf_internal_r+0x1320>
 50858a4:	d8802d17 	ldw	r2,180(sp)
 50858a8:	d9002917 	ldw	r4,164(sp)
 50858ac:	d8002785 	stb	zero,158(sp)
 50858b0:	10c00204 	addi	r3,r2,8
 50858b4:	14c00017 	ldw	r19,0(r2)
 50858b8:	15800117 	ldw	r22,4(r2)
 50858bc:	20040f16 	blt	r4,zero,50868fc <___vfprintf_internal_r+0x1b48>
 50858c0:	013fdfc4 	movi	r4,-129
 50858c4:	9d84b03a 	or	r2,r19,r22
 50858c8:	d8c02d15 	stw	r3,180(sp)
 50858cc:	9124703a 	and	r18,r18,r4
 50858d0:	0039883a 	mov	fp,zero
 50858d4:	103e891e 	bne	r2,zero,50852fc <__alt_data_end+0xfffb70fc>
 50858d8:	d9002917 	ldw	r4,164(sp)
 50858dc:	2002c11e 	bne	r4,zero,50863e4 <___vfprintf_internal_r+0x1630>
 50858e0:	d8002915 	stw	zero,164(sp)
 50858e4:	d8002e15 	stw	zero,184(sp)
 50858e8:	dc001e04 	addi	r16,sp,120
 50858ec:	003ef806 	br	50854d0 <__alt_data_end+0xfffb72d0>
 50858f0:	18c03fcc 	andi	r3,r3,255
 50858f4:	18059d1e 	bne	r3,zero,5086f6c <___vfprintf_internal_r+0x21b8>
 50858f8:	01414274 	movhi	r5,1289
 50858fc:	29577704 	addi	r5,r5,24028
 5085900:	d9403915 	stw	r5,228(sp)
 5085904:	9080080c 	andi	r2,r18,32
 5085908:	10005226 	beq	r2,zero,5085a54 <___vfprintf_internal_r+0xca0>
 508590c:	d8802d17 	ldw	r2,180(sp)
 5085910:	14c00017 	ldw	r19,0(r2)
 5085914:	15800117 	ldw	r22,4(r2)
 5085918:	10800204 	addi	r2,r2,8
 508591c:	d8802d15 	stw	r2,180(sp)
 5085920:	9080004c 	andi	r2,r18,1
 5085924:	10019026 	beq	r2,zero,5085f68 <___vfprintf_internal_r+0x11b4>
 5085928:	9d84b03a 	or	r2,r19,r22
 508592c:	10036926 	beq	r2,zero,50866d4 <___vfprintf_internal_r+0x1920>
 5085930:	d8c02917 	ldw	r3,164(sp)
 5085934:	00800c04 	movi	r2,48
 5085938:	d8802705 	stb	r2,156(sp)
 508593c:	dc402745 	stb	r17,157(sp)
 5085940:	d8002785 	stb	zero,158(sp)
 5085944:	90800094 	ori	r2,r18,2
 5085948:	18045d16 	blt	r3,zero,5086ac0 <___vfprintf_internal_r+0x1d0c>
 508594c:	00bfdfc4 	movi	r2,-129
 5085950:	90a4703a 	and	r18,r18,r2
 5085954:	94800094 	ori	r18,r18,2
 5085958:	0039883a 	mov	fp,zero
 508595c:	d9003917 	ldw	r4,228(sp)
 5085960:	dc001e04 	addi	r16,sp,120
 5085964:	988003cc 	andi	r2,r19,15
 5085968:	b006973a 	slli	r3,r22,28
 508596c:	2085883a 	add	r2,r4,r2
 5085970:	9826d13a 	srli	r19,r19,4
 5085974:	10800003 	ldbu	r2,0(r2)
 5085978:	b02cd13a 	srli	r22,r22,4
 508597c:	843fffc4 	addi	r16,r16,-1
 5085980:	1ce6b03a 	or	r19,r3,r19
 5085984:	80800005 	stb	r2,0(r16)
 5085988:	9d84b03a 	or	r2,r19,r22
 508598c:	103ff51e 	bne	r2,zero,5085964 <__alt_data_end+0xfffb7764>
 5085990:	d8c02817 	ldw	r3,160(sp)
 5085994:	1c07c83a 	sub	r3,r3,r16
 5085998:	d8c02e15 	stw	r3,184(sp)
 508599c:	003ecc06 	br	50854d0 <__alt_data_end+0xfffb72d0>
 50859a0:	18c03fcc 	andi	r3,r3,255
 50859a4:	183e9f26 	beq	r3,zero,5085424 <__alt_data_end+0xfffb7224>
 50859a8:	d9c02785 	stb	r7,158(sp)
 50859ac:	003e9d06 	br	5085424 <__alt_data_end+0xfffb7224>
 50859b0:	00c00044 	movi	r3,1
 50859b4:	01c00ac4 	movi	r7,43
 50859b8:	ac400007 	ldb	r17,0(r21)
 50859bc:	003d5e06 	br	5084f38 <__alt_data_end+0xfffb6d38>
 50859c0:	94800814 	ori	r18,r18,32
 50859c4:	ac400007 	ldb	r17,0(r21)
 50859c8:	003d5b06 	br	5084f38 <__alt_data_end+0xfffb6d38>
 50859cc:	d8c02d17 	ldw	r3,180(sp)
 50859d0:	d8002785 	stb	zero,158(sp)
 50859d4:	1c000017 	ldw	r16,0(r3)
 50859d8:	1cc00104 	addi	r19,r3,4
 50859dc:	80041926 	beq	r16,zero,5086a44 <___vfprintf_internal_r+0x1c90>
 50859e0:	d9002917 	ldw	r4,164(sp)
 50859e4:	2003d016 	blt	r4,zero,5086928 <___vfprintf_internal_r+0x1b74>
 50859e8:	200d883a 	mov	r6,r4
 50859ec:	000b883a 	mov	r5,zero
 50859f0:	8009883a 	mov	r4,r16
 50859f4:	da003d15 	stw	r8,244(sp)
 50859f8:	508a6e80 	call	508a6e8 <memchr>
 50859fc:	da003d17 	ldw	r8,244(sp)
 5085a00:	10045426 	beq	r2,zero,5086b54 <___vfprintf_internal_r+0x1da0>
 5085a04:	1405c83a 	sub	r2,r2,r16
 5085a08:	d8802e15 	stw	r2,184(sp)
 5085a0c:	1003cc16 	blt	r2,zero,5086940 <___vfprintf_internal_r+0x1b8c>
 5085a10:	df002783 	ldbu	fp,158(sp)
 5085a14:	d8802a15 	stw	r2,168(sp)
 5085a18:	dcc02d15 	stw	r19,180(sp)
 5085a1c:	d8002915 	stw	zero,164(sp)
 5085a20:	d8003215 	stw	zero,200(sp)
 5085a24:	003eb006 	br	50854e8 <__alt_data_end+0xfffb72e8>
 5085a28:	18c03fcc 	andi	r3,r3,255
 5085a2c:	183f9b26 	beq	r3,zero,508589c <__alt_data_end+0xfffb769c>
 5085a30:	d9c02785 	stb	r7,158(sp)
 5085a34:	003f9906 	br	508589c <__alt_data_end+0xfffb769c>
 5085a38:	18c03fcc 	andi	r3,r3,255
 5085a3c:	1805551e 	bne	r3,zero,5086f94 <___vfprintf_internal_r+0x21e0>
 5085a40:	01414274 	movhi	r5,1289
 5085a44:	29577c04 	addi	r5,r5,24048
 5085a48:	d9403915 	stw	r5,228(sp)
 5085a4c:	9080080c 	andi	r2,r18,32
 5085a50:	103fae1e 	bne	r2,zero,508590c <__alt_data_end+0xfffb770c>
 5085a54:	9080040c 	andi	r2,r18,16
 5085a58:	1002de26 	beq	r2,zero,50865d4 <___vfprintf_internal_r+0x1820>
 5085a5c:	d8c02d17 	ldw	r3,180(sp)
 5085a60:	002d883a 	mov	r22,zero
 5085a64:	1cc00017 	ldw	r19,0(r3)
 5085a68:	18c00104 	addi	r3,r3,4
 5085a6c:	d8c02d15 	stw	r3,180(sp)
 5085a70:	003fab06 	br	5085920 <__alt_data_end+0xfffb7720>
 5085a74:	38803fcc 	andi	r2,r7,255
 5085a78:	1080201c 	xori	r2,r2,128
 5085a7c:	10bfe004 	addi	r2,r2,-128
 5085a80:	1002d21e 	bne	r2,zero,50865cc <___vfprintf_internal_r+0x1818>
 5085a84:	00c00044 	movi	r3,1
 5085a88:	01c00804 	movi	r7,32
 5085a8c:	ac400007 	ldb	r17,0(r21)
 5085a90:	003d2906 	br	5084f38 <__alt_data_end+0xfffb6d38>
 5085a94:	94800054 	ori	r18,r18,1
 5085a98:	ac400007 	ldb	r17,0(r21)
 5085a9c:	003d2606 	br	5084f38 <__alt_data_end+0xfffb6d38>
 5085aa0:	18c03fcc 	andi	r3,r3,255
 5085aa4:	183e0526 	beq	r3,zero,50852bc <__alt_data_end+0xfffb70bc>
 5085aa8:	d9c02785 	stb	r7,158(sp)
 5085aac:	003e0306 	br	50852bc <__alt_data_end+0xfffb70bc>
 5085ab0:	94801014 	ori	r18,r18,64
 5085ab4:	ac400007 	ldb	r17,0(r21)
 5085ab8:	003d1f06 	br	5084f38 <__alt_data_end+0xfffb6d38>
 5085abc:	ac400007 	ldb	r17,0(r21)
 5085ac0:	8a438726 	beq	r17,r9,50868e0 <___vfprintf_internal_r+0x1b2c>
 5085ac4:	94800414 	ori	r18,r18,16
 5085ac8:	003d1b06 	br	5084f38 <__alt_data_end+0xfffb6d38>
 5085acc:	18c03fcc 	andi	r3,r3,255
 5085ad0:	1805341e 	bne	r3,zero,5086fa4 <___vfprintf_internal_r+0x21f0>
 5085ad4:	9080080c 	andi	r2,r18,32
 5085ad8:	1002cd26 	beq	r2,zero,5086610 <___vfprintf_internal_r+0x185c>
 5085adc:	d9402d17 	ldw	r5,180(sp)
 5085ae0:	d9002f17 	ldw	r4,188(sp)
 5085ae4:	28800017 	ldw	r2,0(r5)
 5085ae8:	2007d7fa 	srai	r3,r4,31
 5085aec:	29400104 	addi	r5,r5,4
 5085af0:	d9402d15 	stw	r5,180(sp)
 5085af4:	11000015 	stw	r4,0(r2)
 5085af8:	10c00115 	stw	r3,4(r2)
 5085afc:	003ce506 	br	5084e94 <__alt_data_end+0xfffb6c94>
 5085b00:	d8c02d17 	ldw	r3,180(sp)
 5085b04:	d9002d17 	ldw	r4,180(sp)
 5085b08:	d8002785 	stb	zero,158(sp)
 5085b0c:	18800017 	ldw	r2,0(r3)
 5085b10:	21000104 	addi	r4,r4,4
 5085b14:	00c00044 	movi	r3,1
 5085b18:	d8c02a15 	stw	r3,168(sp)
 5085b1c:	d8801405 	stb	r2,80(sp)
 5085b20:	d9002d15 	stw	r4,180(sp)
 5085b24:	d8c02e15 	stw	r3,184(sp)
 5085b28:	d8002915 	stw	zero,164(sp)
 5085b2c:	d8003215 	stw	zero,200(sp)
 5085b30:	dc001404 	addi	r16,sp,80
 5085b34:	0039883a 	mov	fp,zero
 5085b38:	003e7206 	br	5085504 <__alt_data_end+0xfffb7304>
 5085b3c:	01014274 	movhi	r4,1289
 5085b40:	21177c04 	addi	r4,r4,24048
 5085b44:	0039883a 	mov	fp,zero
 5085b48:	d9003915 	stw	r4,228(sp)
 5085b4c:	04401e04 	movi	r17,120
 5085b50:	003f8206 	br	508595c <__alt_data_end+0xfffb775c>
 5085b54:	18c03fcc 	andi	r3,r3,255
 5085b58:	1805061e 	bne	r3,zero,5086f74 <___vfprintf_internal_r+0x21c0>
 5085b5c:	883d9126 	beq	r17,zero,50851a4 <__alt_data_end+0xfffb6fa4>
 5085b60:	00c00044 	movi	r3,1
 5085b64:	d8c02a15 	stw	r3,168(sp)
 5085b68:	dc401405 	stb	r17,80(sp)
 5085b6c:	d8002785 	stb	zero,158(sp)
 5085b70:	003fec06 	br	5085b24 <__alt_data_end+0xfffb7924>
 5085b74:	01414274 	movhi	r5,1289
 5085b78:	29577c04 	addi	r5,r5,24048
 5085b7c:	d9403915 	stw	r5,228(sp)
 5085b80:	d8c02d15 	stw	r3,180(sp)
 5085b84:	1025883a 	mov	r18,r2
 5085b88:	04401e04 	movi	r17,120
 5085b8c:	9d84b03a 	or	r2,r19,r22
 5085b90:	1000fc1e 	bne	r2,zero,5085f84 <___vfprintf_internal_r+0x11d0>
 5085b94:	0039883a 	mov	fp,zero
 5085b98:	00800084 	movi	r2,2
 5085b9c:	10803fcc 	andi	r2,r2,255
 5085ba0:	00c00044 	movi	r3,1
 5085ba4:	10c20f26 	beq	r2,r3,50863e4 <___vfprintf_internal_r+0x1630>
 5085ba8:	00c00084 	movi	r3,2
 5085bac:	10fd6326 	beq	r2,r3,508513c <__alt_data_end+0xfffb6f3c>
 5085bb0:	003e2d06 	br	5085468 <__alt_data_end+0xfffb7268>
 5085bb4:	d8c02017 	ldw	r3,128(sp)
 5085bb8:	003e9306 	br	5085608 <__alt_data_end+0xfffb7408>
 5085bbc:	00801944 	movi	r2,101
 5085bc0:	14407e0e 	bge	r2,r17,5085dbc <___vfprintf_internal_r+0x1008>
 5085bc4:	d9003617 	ldw	r4,216(sp)
 5085bc8:	d9403817 	ldw	r5,224(sp)
 5085bcc:	000d883a 	mov	r6,zero
 5085bd0:	000f883a 	mov	r7,zero
 5085bd4:	d8c03c15 	stw	r3,240(sp)
 5085bd8:	da003d15 	stw	r8,244(sp)
 5085bdc:	50913a40 	call	50913a4 <__eqdf2>
 5085be0:	d8c03c17 	ldw	r3,240(sp)
 5085be4:	da003d17 	ldw	r8,244(sp)
 5085be8:	1000f71e 	bne	r2,zero,5085fc8 <___vfprintf_internal_r+0x1214>
 5085bec:	d8801f17 	ldw	r2,124(sp)
 5085bf0:	01014274 	movhi	r4,1289
 5085bf4:	21178304 	addi	r4,r4,24076
 5085bf8:	18c00044 	addi	r3,r3,1
 5085bfc:	10800044 	addi	r2,r2,1
 5085c00:	41000015 	stw	r4,0(r8)
 5085c04:	01000044 	movi	r4,1
 5085c08:	41000115 	stw	r4,4(r8)
 5085c0c:	d8c02015 	stw	r3,128(sp)
 5085c10:	d8801f15 	stw	r2,124(sp)
 5085c14:	010001c4 	movi	r4,7
 5085c18:	2082b816 	blt	r4,r2,50866fc <___vfprintf_internal_r+0x1948>
 5085c1c:	42000204 	addi	r8,r8,8
 5085c20:	d8802617 	ldw	r2,152(sp)
 5085c24:	d9403317 	ldw	r5,204(sp)
 5085c28:	11400216 	blt	r2,r5,5085c34 <___vfprintf_internal_r+0xe80>
 5085c2c:	9080004c 	andi	r2,r18,1
 5085c30:	103ed526 	beq	r2,zero,5085788 <__alt_data_end+0xfffb7588>
 5085c34:	d8803717 	ldw	r2,220(sp)
 5085c38:	d9003417 	ldw	r4,208(sp)
 5085c3c:	d9403717 	ldw	r5,220(sp)
 5085c40:	1887883a 	add	r3,r3,r2
 5085c44:	d8801f17 	ldw	r2,124(sp)
 5085c48:	41000015 	stw	r4,0(r8)
 5085c4c:	41400115 	stw	r5,4(r8)
 5085c50:	10800044 	addi	r2,r2,1
 5085c54:	d8c02015 	stw	r3,128(sp)
 5085c58:	d8801f15 	stw	r2,124(sp)
 5085c5c:	010001c4 	movi	r4,7
 5085c60:	20832916 	blt	r4,r2,5086908 <___vfprintf_internal_r+0x1b54>
 5085c64:	42000204 	addi	r8,r8,8
 5085c68:	d8803317 	ldw	r2,204(sp)
 5085c6c:	143fffc4 	addi	r16,r2,-1
 5085c70:	043ec50e 	bge	zero,r16,5085788 <__alt_data_end+0xfffb7588>
 5085c74:	04400404 	movi	r17,16
 5085c78:	d8801f17 	ldw	r2,124(sp)
 5085c7c:	8c00880e 	bge	r17,r16,5085ea0 <___vfprintf_internal_r+0x10ec>
 5085c80:	01414274 	movhi	r5,1289
 5085c84:	29578b84 	addi	r5,r5,24110
 5085c88:	d9402b15 	stw	r5,172(sp)
 5085c8c:	058001c4 	movi	r22,7
 5085c90:	dcc02c17 	ldw	r19,176(sp)
 5085c94:	00000306 	br	5085ca4 <___vfprintf_internal_r+0xef0>
 5085c98:	42000204 	addi	r8,r8,8
 5085c9c:	843ffc04 	addi	r16,r16,-16
 5085ca0:	8c00820e 	bge	r17,r16,5085eac <___vfprintf_internal_r+0x10f8>
 5085ca4:	18c00404 	addi	r3,r3,16
 5085ca8:	10800044 	addi	r2,r2,1
 5085cac:	45000015 	stw	r20,0(r8)
 5085cb0:	44400115 	stw	r17,4(r8)
 5085cb4:	d8c02015 	stw	r3,128(sp)
 5085cb8:	d8801f15 	stw	r2,124(sp)
 5085cbc:	b0bff60e 	bge	r22,r2,5085c98 <__alt_data_end+0xfffb7a98>
 5085cc0:	d9801e04 	addi	r6,sp,120
 5085cc4:	b80b883a 	mov	r5,r23
 5085cc8:	9809883a 	mov	r4,r19
 5085ccc:	508d8e00 	call	508d8e0 <__sprint_r>
 5085cd0:	103d3a1e 	bne	r2,zero,50851bc <__alt_data_end+0xfffb6fbc>
 5085cd4:	d8c02017 	ldw	r3,128(sp)
 5085cd8:	d8801f17 	ldw	r2,124(sp)
 5085cdc:	da000404 	addi	r8,sp,16
 5085ce0:	003fee06 	br	5085c9c <__alt_data_end+0xfffb7a9c>
 5085ce4:	d9403117 	ldw	r5,196(sp)
 5085ce8:	d8802a17 	ldw	r2,168(sp)
 5085cec:	28adc83a 	sub	r22,r5,r2
 5085cf0:	05be630e 	bge	zero,r22,5085680 <__alt_data_end+0xfffb7480>
 5085cf4:	07000404 	movi	fp,16
 5085cf8:	d8801f17 	ldw	r2,124(sp)
 5085cfc:	e5838f0e 	bge	fp,r22,5086b3c <___vfprintf_internal_r+0x1d88>
 5085d00:	01414274 	movhi	r5,1289
 5085d04:	29578b84 	addi	r5,r5,24110
 5085d08:	dc403015 	stw	r17,192(sp)
 5085d0c:	d9402b15 	stw	r5,172(sp)
 5085d10:	b023883a 	mov	r17,r22
 5085d14:	04c001c4 	movi	r19,7
 5085d18:	a82d883a 	mov	r22,r21
 5085d1c:	902b883a 	mov	r21,r18
 5085d20:	8025883a 	mov	r18,r16
 5085d24:	dc002c17 	ldw	r16,176(sp)
 5085d28:	00000306 	br	5085d38 <___vfprintf_internal_r+0xf84>
 5085d2c:	8c7ffc04 	addi	r17,r17,-16
 5085d30:	42000204 	addi	r8,r8,8
 5085d34:	e440110e 	bge	fp,r17,5085d7c <___vfprintf_internal_r+0xfc8>
 5085d38:	18c00404 	addi	r3,r3,16
 5085d3c:	10800044 	addi	r2,r2,1
 5085d40:	45000015 	stw	r20,0(r8)
 5085d44:	47000115 	stw	fp,4(r8)
 5085d48:	d8c02015 	stw	r3,128(sp)
 5085d4c:	d8801f15 	stw	r2,124(sp)
 5085d50:	98bff60e 	bge	r19,r2,5085d2c <__alt_data_end+0xfffb7b2c>
 5085d54:	d9801e04 	addi	r6,sp,120
 5085d58:	b80b883a 	mov	r5,r23
 5085d5c:	8009883a 	mov	r4,r16
 5085d60:	508d8e00 	call	508d8e0 <__sprint_r>
 5085d64:	103d151e 	bne	r2,zero,50851bc <__alt_data_end+0xfffb6fbc>
 5085d68:	8c7ffc04 	addi	r17,r17,-16
 5085d6c:	d8c02017 	ldw	r3,128(sp)
 5085d70:	d8801f17 	ldw	r2,124(sp)
 5085d74:	da000404 	addi	r8,sp,16
 5085d78:	e47fef16 	blt	fp,r17,5085d38 <__alt_data_end+0xfffb7b38>
 5085d7c:	9021883a 	mov	r16,r18
 5085d80:	a825883a 	mov	r18,r21
 5085d84:	b02b883a 	mov	r21,r22
 5085d88:	882d883a 	mov	r22,r17
 5085d8c:	dc403017 	ldw	r17,192(sp)
 5085d90:	d9002b17 	ldw	r4,172(sp)
 5085d94:	1d87883a 	add	r3,r3,r22
 5085d98:	10800044 	addi	r2,r2,1
 5085d9c:	41000015 	stw	r4,0(r8)
 5085da0:	45800115 	stw	r22,4(r8)
 5085da4:	d8c02015 	stw	r3,128(sp)
 5085da8:	d8801f15 	stw	r2,124(sp)
 5085dac:	010001c4 	movi	r4,7
 5085db0:	20818e16 	blt	r4,r2,50863ec <___vfprintf_internal_r+0x1638>
 5085db4:	42000204 	addi	r8,r8,8
 5085db8:	003e3106 	br	5085680 <__alt_data_end+0xfffb7480>
 5085dbc:	d9403317 	ldw	r5,204(sp)
 5085dc0:	00800044 	movi	r2,1
 5085dc4:	18c00044 	addi	r3,r3,1
 5085dc8:	1141530e 	bge	r2,r5,5086318 <___vfprintf_internal_r+0x1564>
 5085dcc:	dc401f17 	ldw	r17,124(sp)
 5085dd0:	00800044 	movi	r2,1
 5085dd4:	40800115 	stw	r2,4(r8)
 5085dd8:	8c400044 	addi	r17,r17,1
 5085ddc:	44000015 	stw	r16,0(r8)
 5085de0:	d8c02015 	stw	r3,128(sp)
 5085de4:	dc401f15 	stw	r17,124(sp)
 5085de8:	008001c4 	movi	r2,7
 5085dec:	14416b16 	blt	r2,r17,508639c <___vfprintf_internal_r+0x15e8>
 5085df0:	42000204 	addi	r8,r8,8
 5085df4:	d8803717 	ldw	r2,220(sp)
 5085df8:	d9003417 	ldw	r4,208(sp)
 5085dfc:	8c400044 	addi	r17,r17,1
 5085e00:	10c7883a 	add	r3,r2,r3
 5085e04:	40800115 	stw	r2,4(r8)
 5085e08:	41000015 	stw	r4,0(r8)
 5085e0c:	d8c02015 	stw	r3,128(sp)
 5085e10:	dc401f15 	stw	r17,124(sp)
 5085e14:	008001c4 	movi	r2,7
 5085e18:	14416916 	blt	r2,r17,50863c0 <___vfprintf_internal_r+0x160c>
 5085e1c:	45800204 	addi	r22,r8,8
 5085e20:	d9003617 	ldw	r4,216(sp)
 5085e24:	d9403817 	ldw	r5,224(sp)
 5085e28:	000d883a 	mov	r6,zero
 5085e2c:	000f883a 	mov	r7,zero
 5085e30:	d8c03c15 	stw	r3,240(sp)
 5085e34:	50913a40 	call	50913a4 <__eqdf2>
 5085e38:	d8c03c17 	ldw	r3,240(sp)
 5085e3c:	1000bc26 	beq	r2,zero,5086130 <___vfprintf_internal_r+0x137c>
 5085e40:	d9403317 	ldw	r5,204(sp)
 5085e44:	84000044 	addi	r16,r16,1
 5085e48:	8c400044 	addi	r17,r17,1
 5085e4c:	28bfffc4 	addi	r2,r5,-1
 5085e50:	1887883a 	add	r3,r3,r2
 5085e54:	b0800115 	stw	r2,4(r22)
 5085e58:	b4000015 	stw	r16,0(r22)
 5085e5c:	d8c02015 	stw	r3,128(sp)
 5085e60:	dc401f15 	stw	r17,124(sp)
 5085e64:	008001c4 	movi	r2,7
 5085e68:	14414316 	blt	r2,r17,5086378 <___vfprintf_internal_r+0x15c4>
 5085e6c:	b5800204 	addi	r22,r22,8
 5085e70:	d9003a17 	ldw	r4,232(sp)
 5085e74:	df0022c4 	addi	fp,sp,139
 5085e78:	8c400044 	addi	r17,r17,1
 5085e7c:	20c7883a 	add	r3,r4,r3
 5085e80:	b7000015 	stw	fp,0(r22)
 5085e84:	b1000115 	stw	r4,4(r22)
 5085e88:	d8c02015 	stw	r3,128(sp)
 5085e8c:	dc401f15 	stw	r17,124(sp)
 5085e90:	008001c4 	movi	r2,7
 5085e94:	14400e16 	blt	r2,r17,5085ed0 <___vfprintf_internal_r+0x111c>
 5085e98:	b2000204 	addi	r8,r22,8
 5085e9c:	003e3a06 	br	5085788 <__alt_data_end+0xfffb7588>
 5085ea0:	01014274 	movhi	r4,1289
 5085ea4:	21178b84 	addi	r4,r4,24110
 5085ea8:	d9002b15 	stw	r4,172(sp)
 5085eac:	d9002b17 	ldw	r4,172(sp)
 5085eb0:	1c07883a 	add	r3,r3,r16
 5085eb4:	44000115 	stw	r16,4(r8)
 5085eb8:	41000015 	stw	r4,0(r8)
 5085ebc:	10800044 	addi	r2,r2,1
 5085ec0:	d8c02015 	stw	r3,128(sp)
 5085ec4:	d8801f15 	stw	r2,124(sp)
 5085ec8:	010001c4 	movi	r4,7
 5085ecc:	20be2d0e 	bge	r4,r2,5085784 <__alt_data_end+0xfffb7584>
 5085ed0:	d9002c17 	ldw	r4,176(sp)
 5085ed4:	d9801e04 	addi	r6,sp,120
 5085ed8:	b80b883a 	mov	r5,r23
 5085edc:	508d8e00 	call	508d8e0 <__sprint_r>
 5085ee0:	103cb61e 	bne	r2,zero,50851bc <__alt_data_end+0xfffb6fbc>
 5085ee4:	d8c02017 	ldw	r3,128(sp)
 5085ee8:	da000404 	addi	r8,sp,16
 5085eec:	003e2606 	br	5085788 <__alt_data_end+0xfffb7588>
 5085ef0:	d9002c17 	ldw	r4,176(sp)
 5085ef4:	d9801e04 	addi	r6,sp,120
 5085ef8:	b80b883a 	mov	r5,r23
 5085efc:	508d8e00 	call	508d8e0 <__sprint_r>
 5085f00:	103e5d26 	beq	r2,zero,5085878 <__alt_data_end+0xfffb7678>
 5085f04:	003cad06 	br	50851bc <__alt_data_end+0xfffb6fbc>
 5085f08:	d9002c17 	ldw	r4,176(sp)
 5085f0c:	d9801e04 	addi	r6,sp,120
 5085f10:	b80b883a 	mov	r5,r23
 5085f14:	508d8e00 	call	508d8e0 <__sprint_r>
 5085f18:	103ca81e 	bne	r2,zero,50851bc <__alt_data_end+0xfffb6fbc>
 5085f1c:	d8c02017 	ldw	r3,128(sp)
 5085f20:	da000404 	addi	r8,sp,16
 5085f24:	003e0b06 	br	5085754 <__alt_data_end+0xfffb7554>
 5085f28:	d9002c17 	ldw	r4,176(sp)
 5085f2c:	d9801e04 	addi	r6,sp,120
 5085f30:	b80b883a 	mov	r5,r23
 5085f34:	508d8e00 	call	508d8e0 <__sprint_r>
 5085f38:	103ca01e 	bne	r2,zero,50851bc <__alt_data_end+0xfffb6fbc>
 5085f3c:	d8c02017 	ldw	r3,128(sp)
 5085f40:	da000404 	addi	r8,sp,16
 5085f44:	003dbd06 	br	508563c <__alt_data_end+0xfffb743c>
 5085f48:	d9002c17 	ldw	r4,176(sp)
 5085f4c:	d9801e04 	addi	r6,sp,120
 5085f50:	b80b883a 	mov	r5,r23
 5085f54:	508d8e00 	call	508d8e0 <__sprint_r>
 5085f58:	103c981e 	bne	r2,zero,50851bc <__alt_data_end+0xfffb6fbc>
 5085f5c:	d8c02017 	ldw	r3,128(sp)
 5085f60:	da000404 	addi	r8,sp,16
 5085f64:	003dc306 	br	5085674 <__alt_data_end+0xfffb7474>
 5085f68:	d8802917 	ldw	r2,164(sp)
 5085f6c:	d8002785 	stb	zero,158(sp)
 5085f70:	103f0616 	blt	r2,zero,5085b8c <__alt_data_end+0xfffb798c>
 5085f74:	00ffdfc4 	movi	r3,-129
 5085f78:	9d84b03a 	or	r2,r19,r22
 5085f7c:	90e4703a 	and	r18,r18,r3
 5085f80:	103c6b26 	beq	r2,zero,5085130 <__alt_data_end+0xfffb6f30>
 5085f84:	0039883a 	mov	fp,zero
 5085f88:	003e7406 	br	508595c <__alt_data_end+0xfffb775c>
 5085f8c:	9080040c 	andi	r2,r18,16
 5085f90:	1001b326 	beq	r2,zero,5086660 <___vfprintf_internal_r+0x18ac>
 5085f94:	d9002d17 	ldw	r4,180(sp)
 5085f98:	d9402917 	ldw	r5,164(sp)
 5085f9c:	d8002785 	stb	zero,158(sp)
 5085fa0:	20800104 	addi	r2,r4,4
 5085fa4:	24c00017 	ldw	r19,0(r4)
 5085fa8:	002d883a 	mov	r22,zero
 5085fac:	2801b516 	blt	r5,zero,5086684 <___vfprintf_internal_r+0x18d0>
 5085fb0:	00ffdfc4 	movi	r3,-129
 5085fb4:	d8802d15 	stw	r2,180(sp)
 5085fb8:	90e4703a 	and	r18,r18,r3
 5085fbc:	983d2726 	beq	r19,zero,508545c <__alt_data_end+0xfffb725c>
 5085fc0:	0039883a 	mov	fp,zero
 5085fc4:	003d2a06 	br	5085470 <__alt_data_end+0xfffb7270>
 5085fc8:	dc402617 	ldw	r17,152(sp)
 5085fcc:	0441d30e 	bge	zero,r17,508671c <___vfprintf_internal_r+0x1968>
 5085fd0:	dc403217 	ldw	r17,200(sp)
 5085fd4:	d8803317 	ldw	r2,204(sp)
 5085fd8:	1440010e 	bge	r2,r17,5085fe0 <___vfprintf_internal_r+0x122c>
 5085fdc:	1023883a 	mov	r17,r2
 5085fe0:	04400a0e 	bge	zero,r17,508600c <___vfprintf_internal_r+0x1258>
 5085fe4:	d8801f17 	ldw	r2,124(sp)
 5085fe8:	1c47883a 	add	r3,r3,r17
 5085fec:	44000015 	stw	r16,0(r8)
 5085ff0:	10800044 	addi	r2,r2,1
 5085ff4:	44400115 	stw	r17,4(r8)
 5085ff8:	d8c02015 	stw	r3,128(sp)
 5085ffc:	d8801f15 	stw	r2,124(sp)
 5086000:	010001c4 	movi	r4,7
 5086004:	20826516 	blt	r4,r2,508699c <___vfprintf_internal_r+0x1be8>
 5086008:	42000204 	addi	r8,r8,8
 508600c:	88026116 	blt	r17,zero,5086994 <___vfprintf_internal_r+0x1be0>
 5086010:	d9003217 	ldw	r4,200(sp)
 5086014:	2463c83a 	sub	r17,r4,r17
 5086018:	04407b0e 	bge	zero,r17,5086208 <___vfprintf_internal_r+0x1454>
 508601c:	05800404 	movi	r22,16
 5086020:	d8801f17 	ldw	r2,124(sp)
 5086024:	b4419d0e 	bge	r22,r17,508669c <___vfprintf_internal_r+0x18e8>
 5086028:	01014274 	movhi	r4,1289
 508602c:	21178b84 	addi	r4,r4,24110
 5086030:	d9002b15 	stw	r4,172(sp)
 5086034:	070001c4 	movi	fp,7
 5086038:	dcc02c17 	ldw	r19,176(sp)
 508603c:	00000306 	br	508604c <___vfprintf_internal_r+0x1298>
 5086040:	42000204 	addi	r8,r8,8
 5086044:	8c7ffc04 	addi	r17,r17,-16
 5086048:	b441970e 	bge	r22,r17,50866a8 <___vfprintf_internal_r+0x18f4>
 508604c:	18c00404 	addi	r3,r3,16
 5086050:	10800044 	addi	r2,r2,1
 5086054:	45000015 	stw	r20,0(r8)
 5086058:	45800115 	stw	r22,4(r8)
 508605c:	d8c02015 	stw	r3,128(sp)
 5086060:	d8801f15 	stw	r2,124(sp)
 5086064:	e0bff60e 	bge	fp,r2,5086040 <__alt_data_end+0xfffb7e40>
 5086068:	d9801e04 	addi	r6,sp,120
 508606c:	b80b883a 	mov	r5,r23
 5086070:	9809883a 	mov	r4,r19
 5086074:	508d8e00 	call	508d8e0 <__sprint_r>
 5086078:	103c501e 	bne	r2,zero,50851bc <__alt_data_end+0xfffb6fbc>
 508607c:	d8c02017 	ldw	r3,128(sp)
 5086080:	d8801f17 	ldw	r2,124(sp)
 5086084:	da000404 	addi	r8,sp,16
 5086088:	003fee06 	br	5086044 <__alt_data_end+0xfffb7e44>
 508608c:	d9002c17 	ldw	r4,176(sp)
 5086090:	d9801e04 	addi	r6,sp,120
 5086094:	b80b883a 	mov	r5,r23
 5086098:	508d8e00 	call	508d8e0 <__sprint_r>
 508609c:	103c471e 	bne	r2,zero,50851bc <__alt_data_end+0xfffb6fbc>
 50860a0:	d8c02017 	ldw	r3,128(sp)
 50860a4:	df002787 	ldb	fp,158(sp)
 50860a8:	da000404 	addi	r8,sp,16
 50860ac:	003d5606 	br	5085608 <__alt_data_end+0xfffb7408>
 50860b0:	9080040c 	andi	r2,r18,16
 50860b4:	10016126 	beq	r2,zero,508663c <___vfprintf_internal_r+0x1888>
 50860b8:	d8802d17 	ldw	r2,180(sp)
 50860bc:	14c00017 	ldw	r19,0(r2)
 50860c0:	10800104 	addi	r2,r2,4
 50860c4:	d8802d15 	stw	r2,180(sp)
 50860c8:	982dd7fa 	srai	r22,r19,31
 50860cc:	b005883a 	mov	r2,r22
 50860d0:	003c8206 	br	50852dc <__alt_data_end+0xfffb70dc>
 50860d4:	9080040c 	andi	r2,r18,16
 50860d8:	10003526 	beq	r2,zero,50861b0 <___vfprintf_internal_r+0x13fc>
 50860dc:	d9402d17 	ldw	r5,180(sp)
 50860e0:	d8c02917 	ldw	r3,164(sp)
 50860e4:	d8002785 	stb	zero,158(sp)
 50860e8:	28800104 	addi	r2,r5,4
 50860ec:	2cc00017 	ldw	r19,0(r5)
 50860f0:	002d883a 	mov	r22,zero
 50860f4:	18003716 	blt	r3,zero,50861d4 <___vfprintf_internal_r+0x1420>
 50860f8:	00ffdfc4 	movi	r3,-129
 50860fc:	d8802d15 	stw	r2,180(sp)
 5086100:	90e4703a 	and	r18,r18,r3
 5086104:	0039883a 	mov	fp,zero
 5086108:	983df326 	beq	r19,zero,50858d8 <__alt_data_end+0xfffb76d8>
 508610c:	00800244 	movi	r2,9
 5086110:	14fc7b36 	bltu	r2,r19,5085300 <__alt_data_end+0xfffb7100>
 5086114:	d8c02817 	ldw	r3,160(sp)
 5086118:	dc001dc4 	addi	r16,sp,119
 508611c:	9cc00c04 	addi	r19,r19,48
 5086120:	1c07c83a 	sub	r3,r3,r16
 5086124:	dcc01dc5 	stb	r19,119(sp)
 5086128:	d8c02e15 	stw	r3,184(sp)
 508612c:	003ce806 	br	50854d0 <__alt_data_end+0xfffb72d0>
 5086130:	d8803317 	ldw	r2,204(sp)
 5086134:	143fffc4 	addi	r16,r2,-1
 5086138:	043f4d0e 	bge	zero,r16,5085e70 <__alt_data_end+0xfffb7c70>
 508613c:	07000404 	movi	fp,16
 5086140:	e400810e 	bge	fp,r16,5086348 <___vfprintf_internal_r+0x1594>
 5086144:	01414274 	movhi	r5,1289
 5086148:	29578b84 	addi	r5,r5,24110
 508614c:	d9402b15 	stw	r5,172(sp)
 5086150:	01c001c4 	movi	r7,7
 5086154:	dcc02c17 	ldw	r19,176(sp)
 5086158:	00000306 	br	5086168 <___vfprintf_internal_r+0x13b4>
 508615c:	b5800204 	addi	r22,r22,8
 5086160:	843ffc04 	addi	r16,r16,-16
 5086164:	e4007b0e 	bge	fp,r16,5086354 <___vfprintf_internal_r+0x15a0>
 5086168:	18c00404 	addi	r3,r3,16
 508616c:	8c400044 	addi	r17,r17,1
 5086170:	b5000015 	stw	r20,0(r22)
 5086174:	b7000115 	stw	fp,4(r22)
 5086178:	d8c02015 	stw	r3,128(sp)
 508617c:	dc401f15 	stw	r17,124(sp)
 5086180:	3c7ff60e 	bge	r7,r17,508615c <__alt_data_end+0xfffb7f5c>
 5086184:	d9801e04 	addi	r6,sp,120
 5086188:	b80b883a 	mov	r5,r23
 508618c:	9809883a 	mov	r4,r19
 5086190:	d9c03c15 	stw	r7,240(sp)
 5086194:	508d8e00 	call	508d8e0 <__sprint_r>
 5086198:	d9c03c17 	ldw	r7,240(sp)
 508619c:	103c071e 	bne	r2,zero,50851bc <__alt_data_end+0xfffb6fbc>
 50861a0:	d8c02017 	ldw	r3,128(sp)
 50861a4:	dc401f17 	ldw	r17,124(sp)
 50861a8:	dd800404 	addi	r22,sp,16
 50861ac:	003fec06 	br	5086160 <__alt_data_end+0xfffb7f60>
 50861b0:	9080100c 	andi	r2,r18,64
 50861b4:	d8002785 	stb	zero,158(sp)
 50861b8:	10010e26 	beq	r2,zero,50865f4 <___vfprintf_internal_r+0x1840>
 50861bc:	d9002d17 	ldw	r4,180(sp)
 50861c0:	d9402917 	ldw	r5,164(sp)
 50861c4:	002d883a 	mov	r22,zero
 50861c8:	20800104 	addi	r2,r4,4
 50861cc:	24c0000b 	ldhu	r19,0(r4)
 50861d0:	283fc90e 	bge	r5,zero,50860f8 <__alt_data_end+0xfffb7ef8>
 50861d4:	d8802d15 	stw	r2,180(sp)
 50861d8:	0039883a 	mov	fp,zero
 50861dc:	9d84b03a 	or	r2,r19,r22
 50861e0:	103c461e 	bne	r2,zero,50852fc <__alt_data_end+0xfffb70fc>
 50861e4:	00800044 	movi	r2,1
 50861e8:	003e6c06 	br	5085b9c <__alt_data_end+0xfffb799c>
 50861ec:	d9002c17 	ldw	r4,176(sp)
 50861f0:	d9801e04 	addi	r6,sp,120
 50861f4:	b80b883a 	mov	r5,r23
 50861f8:	508d8e00 	call	508d8e0 <__sprint_r>
 50861fc:	103bef1e 	bne	r2,zero,50851bc <__alt_data_end+0xfffb6fbc>
 5086200:	d8c02017 	ldw	r3,128(sp)
 5086204:	da000404 	addi	r8,sp,16
 5086208:	d9003217 	ldw	r4,200(sp)
 508620c:	d8802617 	ldw	r2,152(sp)
 5086210:	d9403317 	ldw	r5,204(sp)
 5086214:	8123883a 	add	r17,r16,r4
 5086218:	11400216 	blt	r2,r5,5086224 <___vfprintf_internal_r+0x1470>
 508621c:	9100004c 	andi	r4,r18,1
 5086220:	20000d26 	beq	r4,zero,5086258 <___vfprintf_internal_r+0x14a4>
 5086224:	d9003717 	ldw	r4,220(sp)
 5086228:	d9403417 	ldw	r5,208(sp)
 508622c:	1907883a 	add	r3,r3,r4
 5086230:	d9001f17 	ldw	r4,124(sp)
 5086234:	41400015 	stw	r5,0(r8)
 5086238:	d9403717 	ldw	r5,220(sp)
 508623c:	21000044 	addi	r4,r4,1
 5086240:	d8c02015 	stw	r3,128(sp)
 5086244:	41400115 	stw	r5,4(r8)
 5086248:	d9001f15 	stw	r4,124(sp)
 508624c:	014001c4 	movi	r5,7
 5086250:	2901e816 	blt	r5,r4,50869f4 <___vfprintf_internal_r+0x1c40>
 5086254:	42000204 	addi	r8,r8,8
 5086258:	d9003317 	ldw	r4,204(sp)
 508625c:	8121883a 	add	r16,r16,r4
 5086260:	2085c83a 	sub	r2,r4,r2
 5086264:	8461c83a 	sub	r16,r16,r17
 5086268:	1400010e 	bge	r2,r16,5086270 <___vfprintf_internal_r+0x14bc>
 508626c:	1021883a 	mov	r16,r2
 5086270:	04000a0e 	bge	zero,r16,508629c <___vfprintf_internal_r+0x14e8>
 5086274:	d9001f17 	ldw	r4,124(sp)
 5086278:	1c07883a 	add	r3,r3,r16
 508627c:	44400015 	stw	r17,0(r8)
 5086280:	21000044 	addi	r4,r4,1
 5086284:	44000115 	stw	r16,4(r8)
 5086288:	d8c02015 	stw	r3,128(sp)
 508628c:	d9001f15 	stw	r4,124(sp)
 5086290:	014001c4 	movi	r5,7
 5086294:	2901fb16 	blt	r5,r4,5086a84 <___vfprintf_internal_r+0x1cd0>
 5086298:	42000204 	addi	r8,r8,8
 508629c:	8001f716 	blt	r16,zero,5086a7c <___vfprintf_internal_r+0x1cc8>
 50862a0:	1421c83a 	sub	r16,r2,r16
 50862a4:	043d380e 	bge	zero,r16,5085788 <__alt_data_end+0xfffb7588>
 50862a8:	04400404 	movi	r17,16
 50862ac:	d8801f17 	ldw	r2,124(sp)
 50862b0:	8c3efb0e 	bge	r17,r16,5085ea0 <__alt_data_end+0xfffb7ca0>
 50862b4:	01414274 	movhi	r5,1289
 50862b8:	29578b84 	addi	r5,r5,24110
 50862bc:	d9402b15 	stw	r5,172(sp)
 50862c0:	058001c4 	movi	r22,7
 50862c4:	dcc02c17 	ldw	r19,176(sp)
 50862c8:	00000306 	br	50862d8 <___vfprintf_internal_r+0x1524>
 50862cc:	42000204 	addi	r8,r8,8
 50862d0:	843ffc04 	addi	r16,r16,-16
 50862d4:	8c3ef50e 	bge	r17,r16,5085eac <__alt_data_end+0xfffb7cac>
 50862d8:	18c00404 	addi	r3,r3,16
 50862dc:	10800044 	addi	r2,r2,1
 50862e0:	45000015 	stw	r20,0(r8)
 50862e4:	44400115 	stw	r17,4(r8)
 50862e8:	d8c02015 	stw	r3,128(sp)
 50862ec:	d8801f15 	stw	r2,124(sp)
 50862f0:	b0bff60e 	bge	r22,r2,50862cc <__alt_data_end+0xfffb80cc>
 50862f4:	d9801e04 	addi	r6,sp,120
 50862f8:	b80b883a 	mov	r5,r23
 50862fc:	9809883a 	mov	r4,r19
 5086300:	508d8e00 	call	508d8e0 <__sprint_r>
 5086304:	103bad1e 	bne	r2,zero,50851bc <__alt_data_end+0xfffb6fbc>
 5086308:	d8c02017 	ldw	r3,128(sp)
 508630c:	d8801f17 	ldw	r2,124(sp)
 5086310:	da000404 	addi	r8,sp,16
 5086314:	003fee06 	br	50862d0 <__alt_data_end+0xfffb80d0>
 5086318:	9088703a 	and	r4,r18,r2
 508631c:	203eab1e 	bne	r4,zero,5085dcc <__alt_data_end+0xfffb7bcc>
 5086320:	dc401f17 	ldw	r17,124(sp)
 5086324:	40800115 	stw	r2,4(r8)
 5086328:	44000015 	stw	r16,0(r8)
 508632c:	8c400044 	addi	r17,r17,1
 5086330:	d8c02015 	stw	r3,128(sp)
 5086334:	dc401f15 	stw	r17,124(sp)
 5086338:	008001c4 	movi	r2,7
 508633c:	14400e16 	blt	r2,r17,5086378 <___vfprintf_internal_r+0x15c4>
 5086340:	45800204 	addi	r22,r8,8
 5086344:	003eca06 	br	5085e70 <__alt_data_end+0xfffb7c70>
 5086348:	01014274 	movhi	r4,1289
 508634c:	21178b84 	addi	r4,r4,24110
 5086350:	d9002b15 	stw	r4,172(sp)
 5086354:	d8802b17 	ldw	r2,172(sp)
 5086358:	1c07883a 	add	r3,r3,r16
 508635c:	8c400044 	addi	r17,r17,1
 5086360:	b0800015 	stw	r2,0(r22)
 5086364:	b4000115 	stw	r16,4(r22)
 5086368:	d8c02015 	stw	r3,128(sp)
 508636c:	dc401f15 	stw	r17,124(sp)
 5086370:	008001c4 	movi	r2,7
 5086374:	147ebd0e 	bge	r2,r17,5085e6c <__alt_data_end+0xfffb7c6c>
 5086378:	d9002c17 	ldw	r4,176(sp)
 508637c:	d9801e04 	addi	r6,sp,120
 5086380:	b80b883a 	mov	r5,r23
 5086384:	508d8e00 	call	508d8e0 <__sprint_r>
 5086388:	103b8c1e 	bne	r2,zero,50851bc <__alt_data_end+0xfffb6fbc>
 508638c:	d8c02017 	ldw	r3,128(sp)
 5086390:	dc401f17 	ldw	r17,124(sp)
 5086394:	dd800404 	addi	r22,sp,16
 5086398:	003eb506 	br	5085e70 <__alt_data_end+0xfffb7c70>
 508639c:	d9002c17 	ldw	r4,176(sp)
 50863a0:	d9801e04 	addi	r6,sp,120
 50863a4:	b80b883a 	mov	r5,r23
 50863a8:	508d8e00 	call	508d8e0 <__sprint_r>
 50863ac:	103b831e 	bne	r2,zero,50851bc <__alt_data_end+0xfffb6fbc>
 50863b0:	d8c02017 	ldw	r3,128(sp)
 50863b4:	dc401f17 	ldw	r17,124(sp)
 50863b8:	da000404 	addi	r8,sp,16
 50863bc:	003e8d06 	br	5085df4 <__alt_data_end+0xfffb7bf4>
 50863c0:	d9002c17 	ldw	r4,176(sp)
 50863c4:	d9801e04 	addi	r6,sp,120
 50863c8:	b80b883a 	mov	r5,r23
 50863cc:	508d8e00 	call	508d8e0 <__sprint_r>
 50863d0:	103b7a1e 	bne	r2,zero,50851bc <__alt_data_end+0xfffb6fbc>
 50863d4:	d8c02017 	ldw	r3,128(sp)
 50863d8:	dc401f17 	ldw	r17,124(sp)
 50863dc:	dd800404 	addi	r22,sp,16
 50863e0:	003e8f06 	br	5085e20 <__alt_data_end+0xfffb7c20>
 50863e4:	0027883a 	mov	r19,zero
 50863e8:	003f4a06 	br	5086114 <__alt_data_end+0xfffb7f14>
 50863ec:	d9002c17 	ldw	r4,176(sp)
 50863f0:	d9801e04 	addi	r6,sp,120
 50863f4:	b80b883a 	mov	r5,r23
 50863f8:	508d8e00 	call	508d8e0 <__sprint_r>
 50863fc:	103b6f1e 	bne	r2,zero,50851bc <__alt_data_end+0xfffb6fbc>
 5086400:	d8c02017 	ldw	r3,128(sp)
 5086404:	da000404 	addi	r8,sp,16
 5086408:	003c9d06 	br	5085680 <__alt_data_end+0xfffb7480>
 508640c:	04e7c83a 	sub	r19,zero,r19
 5086410:	9804c03a 	cmpne	r2,r19,zero
 5086414:	05adc83a 	sub	r22,zero,r22
 5086418:	b0adc83a 	sub	r22,r22,r2
 508641c:	d8802917 	ldw	r2,164(sp)
 5086420:	07000b44 	movi	fp,45
 5086424:	df002785 	stb	fp,158(sp)
 5086428:	10017b16 	blt	r2,zero,5086a18 <___vfprintf_internal_r+0x1c64>
 508642c:	00bfdfc4 	movi	r2,-129
 5086430:	90a4703a 	and	r18,r18,r2
 5086434:	003bb106 	br	50852fc <__alt_data_end+0xfffb70fc>
 5086438:	d9003617 	ldw	r4,216(sp)
 508643c:	d9403817 	ldw	r5,224(sp)
 5086440:	da003d15 	stw	r8,244(sp)
 5086444:	508c0f80 	call	508c0f8 <__fpclassifyd>
 5086448:	da003d17 	ldw	r8,244(sp)
 508644c:	1000f026 	beq	r2,zero,5086810 <___vfprintf_internal_r+0x1a5c>
 5086450:	d9002917 	ldw	r4,164(sp)
 5086454:	05bff7c4 	movi	r22,-33
 5086458:	00bfffc4 	movi	r2,-1
 508645c:	8dac703a 	and	r22,r17,r22
 5086460:	20820026 	beq	r4,r2,5086c64 <___vfprintf_internal_r+0x1eb0>
 5086464:	008011c4 	movi	r2,71
 5086468:	b081f726 	beq	r22,r2,5086c48 <___vfprintf_internal_r+0x1e94>
 508646c:	d9003817 	ldw	r4,224(sp)
 5086470:	90c04014 	ori	r3,r18,256
 5086474:	d8c02b15 	stw	r3,172(sp)
 5086478:	20021516 	blt	r4,zero,5086cd0 <___vfprintf_internal_r+0x1f1c>
 508647c:	dcc03817 	ldw	r19,224(sp)
 5086480:	d8002a05 	stb	zero,168(sp)
 5086484:	00801984 	movi	r2,102
 5086488:	8881f926 	beq	r17,r2,5086c70 <___vfprintf_internal_r+0x1ebc>
 508648c:	00801184 	movi	r2,70
 5086490:	88821c26 	beq	r17,r2,5086d04 <___vfprintf_internal_r+0x1f50>
 5086494:	00801144 	movi	r2,69
 5086498:	b081ef26 	beq	r22,r2,5086c58 <___vfprintf_internal_r+0x1ea4>
 508649c:	d8c02917 	ldw	r3,164(sp)
 50864a0:	d8802104 	addi	r2,sp,132
 50864a4:	d8800315 	stw	r2,12(sp)
 50864a8:	d9403617 	ldw	r5,216(sp)
 50864ac:	d8802504 	addi	r2,sp,148
 50864b0:	d9002c17 	ldw	r4,176(sp)
 50864b4:	d8800215 	stw	r2,8(sp)
 50864b8:	d8802604 	addi	r2,sp,152
 50864bc:	d8c00015 	stw	r3,0(sp)
 50864c0:	d8800115 	stw	r2,4(sp)
 50864c4:	01c00084 	movi	r7,2
 50864c8:	980d883a 	mov	r6,r19
 50864cc:	d8c03c15 	stw	r3,240(sp)
 50864d0:	da003d15 	stw	r8,244(sp)
 50864d4:	50874fc0 	call	50874fc <_dtoa_r>
 50864d8:	1021883a 	mov	r16,r2
 50864dc:	008019c4 	movi	r2,103
 50864e0:	d8c03c17 	ldw	r3,240(sp)
 50864e4:	da003d17 	ldw	r8,244(sp)
 50864e8:	88817126 	beq	r17,r2,5086ab0 <___vfprintf_internal_r+0x1cfc>
 50864ec:	008011c4 	movi	r2,71
 50864f0:	88829226 	beq	r17,r2,5086f3c <___vfprintf_internal_r+0x2188>
 50864f4:	80f9883a 	add	fp,r16,r3
 50864f8:	d9003617 	ldw	r4,216(sp)
 50864fc:	000d883a 	mov	r6,zero
 5086500:	000f883a 	mov	r7,zero
 5086504:	980b883a 	mov	r5,r19
 5086508:	da003d15 	stw	r8,244(sp)
 508650c:	50913a40 	call	50913a4 <__eqdf2>
 5086510:	da003d17 	ldw	r8,244(sp)
 5086514:	10018d26 	beq	r2,zero,5086b4c <___vfprintf_internal_r+0x1d98>
 5086518:	d8802117 	ldw	r2,132(sp)
 508651c:	1700062e 	bgeu	r2,fp,5086538 <___vfprintf_internal_r+0x1784>
 5086520:	01000c04 	movi	r4,48
 5086524:	10c00044 	addi	r3,r2,1
 5086528:	d8c02115 	stw	r3,132(sp)
 508652c:	11000005 	stb	r4,0(r2)
 5086530:	d8802117 	ldw	r2,132(sp)
 5086534:	173ffb36 	bltu	r2,fp,5086524 <__alt_data_end+0xfffb8324>
 5086538:	1405c83a 	sub	r2,r2,r16
 508653c:	d8803315 	stw	r2,204(sp)
 5086540:	008011c4 	movi	r2,71
 5086544:	b0817626 	beq	r22,r2,5086b20 <___vfprintf_internal_r+0x1d6c>
 5086548:	00801944 	movi	r2,101
 508654c:	1442810e 	bge	r2,r17,5086f54 <___vfprintf_internal_r+0x21a0>
 5086550:	d8c02617 	ldw	r3,152(sp)
 5086554:	00801984 	movi	r2,102
 5086558:	d8c03215 	stw	r3,200(sp)
 508655c:	8881fe26 	beq	r17,r2,5086d58 <___vfprintf_internal_r+0x1fa4>
 5086560:	d8c03217 	ldw	r3,200(sp)
 5086564:	d9003317 	ldw	r4,204(sp)
 5086568:	1901dd16 	blt	r3,r4,5086ce0 <___vfprintf_internal_r+0x1f2c>
 508656c:	9480004c 	andi	r18,r18,1
 5086570:	90022b1e 	bne	r18,zero,5086e20 <___vfprintf_internal_r+0x206c>
 5086574:	1805883a 	mov	r2,r3
 5086578:	18028016 	blt	r3,zero,5086f7c <___vfprintf_internal_r+0x21c8>
 508657c:	d8c03217 	ldw	r3,200(sp)
 5086580:	044019c4 	movi	r17,103
 5086584:	d8c02e15 	stw	r3,184(sp)
 5086588:	df002a07 	ldb	fp,168(sp)
 508658c:	e001531e 	bne	fp,zero,5086adc <___vfprintf_internal_r+0x1d28>
 5086590:	df002783 	ldbu	fp,158(sp)
 5086594:	d8802a15 	stw	r2,168(sp)
 5086598:	dc802b17 	ldw	r18,172(sp)
 508659c:	d8002915 	stw	zero,164(sp)
 50865a0:	003bd106 	br	50854e8 <__alt_data_end+0xfffb72e8>
 50865a4:	d8802d17 	ldw	r2,180(sp)
 50865a8:	d8c02d17 	ldw	r3,180(sp)
 50865ac:	d9002d17 	ldw	r4,180(sp)
 50865b0:	10800017 	ldw	r2,0(r2)
 50865b4:	18c00117 	ldw	r3,4(r3)
 50865b8:	21000204 	addi	r4,r4,8
 50865bc:	d8803615 	stw	r2,216(sp)
 50865c0:	d8c03815 	stw	r3,224(sp)
 50865c4:	d9002d15 	stw	r4,180(sp)
 50865c8:	003b7506 	br	50853a0 <__alt_data_end+0xfffb71a0>
 50865cc:	ac400007 	ldb	r17,0(r21)
 50865d0:	003a5906 	br	5084f38 <__alt_data_end+0xfffb6d38>
 50865d4:	9080100c 	andi	r2,r18,64
 50865d8:	1000a826 	beq	r2,zero,508687c <___vfprintf_internal_r+0x1ac8>
 50865dc:	d9002d17 	ldw	r4,180(sp)
 50865e0:	002d883a 	mov	r22,zero
 50865e4:	24c0000b 	ldhu	r19,0(r4)
 50865e8:	21000104 	addi	r4,r4,4
 50865ec:	d9002d15 	stw	r4,180(sp)
 50865f0:	003ccb06 	br	5085920 <__alt_data_end+0xfffb7720>
 50865f4:	d8c02d17 	ldw	r3,180(sp)
 50865f8:	d9002917 	ldw	r4,164(sp)
 50865fc:	002d883a 	mov	r22,zero
 5086600:	18800104 	addi	r2,r3,4
 5086604:	1cc00017 	ldw	r19,0(r3)
 5086608:	203ebb0e 	bge	r4,zero,50860f8 <__alt_data_end+0xfffb7ef8>
 508660c:	003ef106 	br	50861d4 <__alt_data_end+0xfffb7fd4>
 5086610:	9080040c 	andi	r2,r18,16
 5086614:	1000921e 	bne	r2,zero,5086860 <___vfprintf_internal_r+0x1aac>
 5086618:	9480100c 	andi	r18,r18,64
 508661c:	90013926 	beq	r18,zero,5086b04 <___vfprintf_internal_r+0x1d50>
 5086620:	d9002d17 	ldw	r4,180(sp)
 5086624:	d9402f17 	ldw	r5,188(sp)
 5086628:	20800017 	ldw	r2,0(r4)
 508662c:	21000104 	addi	r4,r4,4
 5086630:	d9002d15 	stw	r4,180(sp)
 5086634:	1140000d 	sth	r5,0(r2)
 5086638:	003a1606 	br	5084e94 <__alt_data_end+0xfffb6c94>
 508663c:	9080100c 	andi	r2,r18,64
 5086640:	10008026 	beq	r2,zero,5086844 <___vfprintf_internal_r+0x1a90>
 5086644:	d8c02d17 	ldw	r3,180(sp)
 5086648:	1cc0000f 	ldh	r19,0(r3)
 508664c:	18c00104 	addi	r3,r3,4
 5086650:	d8c02d15 	stw	r3,180(sp)
 5086654:	982dd7fa 	srai	r22,r19,31
 5086658:	b005883a 	mov	r2,r22
 508665c:	003b1f06 	br	50852dc <__alt_data_end+0xfffb70dc>
 5086660:	9080100c 	andi	r2,r18,64
 5086664:	d8002785 	stb	zero,158(sp)
 5086668:	10008a1e 	bne	r2,zero,5086894 <___vfprintf_internal_r+0x1ae0>
 508666c:	d9402d17 	ldw	r5,180(sp)
 5086670:	d8c02917 	ldw	r3,164(sp)
 5086674:	002d883a 	mov	r22,zero
 5086678:	28800104 	addi	r2,r5,4
 508667c:	2cc00017 	ldw	r19,0(r5)
 5086680:	183e4b0e 	bge	r3,zero,5085fb0 <__alt_data_end+0xfffb7db0>
 5086684:	9d86b03a 	or	r3,r19,r22
 5086688:	d8802d15 	stw	r2,180(sp)
 508668c:	183e4c1e 	bne	r3,zero,5085fc0 <__alt_data_end+0xfffb7dc0>
 5086690:	0039883a 	mov	fp,zero
 5086694:	0005883a 	mov	r2,zero
 5086698:	003d4006 	br	5085b9c <__alt_data_end+0xfffb799c>
 508669c:	01414274 	movhi	r5,1289
 50866a0:	29578b84 	addi	r5,r5,24110
 50866a4:	d9402b15 	stw	r5,172(sp)
 50866a8:	d9402b17 	ldw	r5,172(sp)
 50866ac:	1c47883a 	add	r3,r3,r17
 50866b0:	10800044 	addi	r2,r2,1
 50866b4:	41400015 	stw	r5,0(r8)
 50866b8:	44400115 	stw	r17,4(r8)
 50866bc:	d8c02015 	stw	r3,128(sp)
 50866c0:	d8801f15 	stw	r2,124(sp)
 50866c4:	010001c4 	movi	r4,7
 50866c8:	20bec816 	blt	r4,r2,50861ec <__alt_data_end+0xfffb7fec>
 50866cc:	42000204 	addi	r8,r8,8
 50866d0:	003ecd06 	br	5086208 <__alt_data_end+0xfffb8008>
 50866d4:	d9002917 	ldw	r4,164(sp)
 50866d8:	d8002785 	stb	zero,158(sp)
 50866dc:	203d2d16 	blt	r4,zero,5085b94 <__alt_data_end+0xfffb7994>
 50866e0:	00bfdfc4 	movi	r2,-129
 50866e4:	90a4703a 	and	r18,r18,r2
 50866e8:	003a9106 	br	5085130 <__alt_data_end+0xfffb6f30>
 50866ec:	01014274 	movhi	r4,1289
 50866f0:	21178b84 	addi	r4,r4,24110
 50866f4:	d9002b15 	stw	r4,172(sp)
 50866f8:	003c0c06 	br	508572c <__alt_data_end+0xfffb752c>
 50866fc:	d9002c17 	ldw	r4,176(sp)
 5086700:	d9801e04 	addi	r6,sp,120
 5086704:	b80b883a 	mov	r5,r23
 5086708:	508d8e00 	call	508d8e0 <__sprint_r>
 508670c:	103aab1e 	bne	r2,zero,50851bc <__alt_data_end+0xfffb6fbc>
 5086710:	d8c02017 	ldw	r3,128(sp)
 5086714:	da000404 	addi	r8,sp,16
 5086718:	003d4106 	br	5085c20 <__alt_data_end+0xfffb7a20>
 508671c:	d8801f17 	ldw	r2,124(sp)
 5086720:	01414274 	movhi	r5,1289
 5086724:	01000044 	movi	r4,1
 5086728:	18c00044 	addi	r3,r3,1
 508672c:	10800044 	addi	r2,r2,1
 5086730:	29578304 	addi	r5,r5,24076
 5086734:	41000115 	stw	r4,4(r8)
 5086738:	41400015 	stw	r5,0(r8)
 508673c:	d8c02015 	stw	r3,128(sp)
 5086740:	d8801f15 	stw	r2,124(sp)
 5086744:	010001c4 	movi	r4,7
 5086748:	20805c16 	blt	r4,r2,50868bc <___vfprintf_internal_r+0x1b08>
 508674c:	42000204 	addi	r8,r8,8
 5086750:	8800041e 	bne	r17,zero,5086764 <___vfprintf_internal_r+0x19b0>
 5086754:	d8803317 	ldw	r2,204(sp)
 5086758:	1000021e 	bne	r2,zero,5086764 <___vfprintf_internal_r+0x19b0>
 508675c:	9080004c 	andi	r2,r18,1
 5086760:	103c0926 	beq	r2,zero,5085788 <__alt_data_end+0xfffb7588>
 5086764:	d9003717 	ldw	r4,220(sp)
 5086768:	d8801f17 	ldw	r2,124(sp)
 508676c:	d9403417 	ldw	r5,208(sp)
 5086770:	20c7883a 	add	r3,r4,r3
 5086774:	10800044 	addi	r2,r2,1
 5086778:	41000115 	stw	r4,4(r8)
 508677c:	41400015 	stw	r5,0(r8)
 5086780:	d8c02015 	stw	r3,128(sp)
 5086784:	d8801f15 	stw	r2,124(sp)
 5086788:	010001c4 	movi	r4,7
 508678c:	20812116 	blt	r4,r2,5086c14 <___vfprintf_internal_r+0x1e60>
 5086790:	42000204 	addi	r8,r8,8
 5086794:	0463c83a 	sub	r17,zero,r17
 5086798:	0440730e 	bge	zero,r17,5086968 <___vfprintf_internal_r+0x1bb4>
 508679c:	05800404 	movi	r22,16
 50867a0:	b440860e 	bge	r22,r17,50869bc <___vfprintf_internal_r+0x1c08>
 50867a4:	01414274 	movhi	r5,1289
 50867a8:	29578b84 	addi	r5,r5,24110
 50867ac:	d9402b15 	stw	r5,172(sp)
 50867b0:	070001c4 	movi	fp,7
 50867b4:	dcc02c17 	ldw	r19,176(sp)
 50867b8:	00000306 	br	50867c8 <___vfprintf_internal_r+0x1a14>
 50867bc:	42000204 	addi	r8,r8,8
 50867c0:	8c7ffc04 	addi	r17,r17,-16
 50867c4:	b440800e 	bge	r22,r17,50869c8 <___vfprintf_internal_r+0x1c14>
 50867c8:	18c00404 	addi	r3,r3,16
 50867cc:	10800044 	addi	r2,r2,1
 50867d0:	45000015 	stw	r20,0(r8)
 50867d4:	45800115 	stw	r22,4(r8)
 50867d8:	d8c02015 	stw	r3,128(sp)
 50867dc:	d8801f15 	stw	r2,124(sp)
 50867e0:	e0bff60e 	bge	fp,r2,50867bc <__alt_data_end+0xfffb85bc>
 50867e4:	d9801e04 	addi	r6,sp,120
 50867e8:	b80b883a 	mov	r5,r23
 50867ec:	9809883a 	mov	r4,r19
 50867f0:	508d8e00 	call	508d8e0 <__sprint_r>
 50867f4:	103a711e 	bne	r2,zero,50851bc <__alt_data_end+0xfffb6fbc>
 50867f8:	d8c02017 	ldw	r3,128(sp)
 50867fc:	d8801f17 	ldw	r2,124(sp)
 5086800:	da000404 	addi	r8,sp,16
 5086804:	003fee06 	br	50867c0 <__alt_data_end+0xfffb85c0>
 5086808:	00bfffc4 	movi	r2,-1
 508680c:	003a6f06 	br	50851cc <__alt_data_end+0xfffb6fcc>
 5086810:	008011c4 	movi	r2,71
 5086814:	1440b816 	blt	r2,r17,5086af8 <___vfprintf_internal_r+0x1d44>
 5086818:	04014274 	movhi	r16,1289
 508681c:	84177504 	addi	r16,r16,24020
 5086820:	00c000c4 	movi	r3,3
 5086824:	00bfdfc4 	movi	r2,-129
 5086828:	d8c02a15 	stw	r3,168(sp)
 508682c:	90a4703a 	and	r18,r18,r2
 5086830:	df002783 	ldbu	fp,158(sp)
 5086834:	d8c02e15 	stw	r3,184(sp)
 5086838:	d8002915 	stw	zero,164(sp)
 508683c:	d8003215 	stw	zero,200(sp)
 5086840:	003b2906 	br	50854e8 <__alt_data_end+0xfffb72e8>
 5086844:	d9002d17 	ldw	r4,180(sp)
 5086848:	24c00017 	ldw	r19,0(r4)
 508684c:	21000104 	addi	r4,r4,4
 5086850:	d9002d15 	stw	r4,180(sp)
 5086854:	982dd7fa 	srai	r22,r19,31
 5086858:	b005883a 	mov	r2,r22
 508685c:	003a9f06 	br	50852dc <__alt_data_end+0xfffb70dc>
 5086860:	d9402d17 	ldw	r5,180(sp)
 5086864:	d8c02f17 	ldw	r3,188(sp)
 5086868:	28800017 	ldw	r2,0(r5)
 508686c:	29400104 	addi	r5,r5,4
 5086870:	d9402d15 	stw	r5,180(sp)
 5086874:	10c00015 	stw	r3,0(r2)
 5086878:	00398606 	br	5084e94 <__alt_data_end+0xfffb6c94>
 508687c:	d9402d17 	ldw	r5,180(sp)
 5086880:	002d883a 	mov	r22,zero
 5086884:	2cc00017 	ldw	r19,0(r5)
 5086888:	29400104 	addi	r5,r5,4
 508688c:	d9402d15 	stw	r5,180(sp)
 5086890:	003c2306 	br	5085920 <__alt_data_end+0xfffb7720>
 5086894:	d8c02d17 	ldw	r3,180(sp)
 5086898:	d9002917 	ldw	r4,164(sp)
 508689c:	002d883a 	mov	r22,zero
 50868a0:	18800104 	addi	r2,r3,4
 50868a4:	1cc0000b 	ldhu	r19,0(r3)
 50868a8:	203dc10e 	bge	r4,zero,5085fb0 <__alt_data_end+0xfffb7db0>
 50868ac:	003f7506 	br	5086684 <__alt_data_end+0xfffb8484>
 50868b0:	04014274 	movhi	r16,1289
 50868b4:	84177304 	addi	r16,r16,24012
 50868b8:	003acc06 	br	50853ec <__alt_data_end+0xfffb71ec>
 50868bc:	d9002c17 	ldw	r4,176(sp)
 50868c0:	d9801e04 	addi	r6,sp,120
 50868c4:	b80b883a 	mov	r5,r23
 50868c8:	508d8e00 	call	508d8e0 <__sprint_r>
 50868cc:	103a3b1e 	bne	r2,zero,50851bc <__alt_data_end+0xfffb6fbc>
 50868d0:	dc402617 	ldw	r17,152(sp)
 50868d4:	d8c02017 	ldw	r3,128(sp)
 50868d8:	da000404 	addi	r8,sp,16
 50868dc:	003f9c06 	br	5086750 <__alt_data_end+0xfffb8550>
 50868e0:	ac400043 	ldbu	r17,1(r21)
 50868e4:	94800814 	ori	r18,r18,32
 50868e8:	ad400044 	addi	r21,r21,1
 50868ec:	8c403fcc 	andi	r17,r17,255
 50868f0:	8c40201c 	xori	r17,r17,128
 50868f4:	8c7fe004 	addi	r17,r17,-128
 50868f8:	00398f06 	br	5084f38 <__alt_data_end+0xfffb6d38>
 50868fc:	d8c02d15 	stw	r3,180(sp)
 5086900:	0039883a 	mov	fp,zero
 5086904:	003e3506 	br	50861dc <__alt_data_end+0xfffb7fdc>
 5086908:	d9002c17 	ldw	r4,176(sp)
 508690c:	d9801e04 	addi	r6,sp,120
 5086910:	b80b883a 	mov	r5,r23
 5086914:	508d8e00 	call	508d8e0 <__sprint_r>
 5086918:	103a281e 	bne	r2,zero,50851bc <__alt_data_end+0xfffb6fbc>
 508691c:	d8c02017 	ldw	r3,128(sp)
 5086920:	da000404 	addi	r8,sp,16
 5086924:	003cd006 	br	5085c68 <__alt_data_end+0xfffb7a68>
 5086928:	8009883a 	mov	r4,r16
 508692c:	da003d15 	stw	r8,244(sp)
 5086930:	5082b440 	call	5082b44 <strlen>
 5086934:	d8802e15 	stw	r2,184(sp)
 5086938:	da003d17 	ldw	r8,244(sp)
 508693c:	103c340e 	bge	r2,zero,5085a10 <__alt_data_end+0xfffb7810>
 5086940:	0005883a 	mov	r2,zero
 5086944:	003c3206 	br	5085a10 <__alt_data_end+0xfffb7810>
 5086948:	d9002c17 	ldw	r4,176(sp)
 508694c:	d9801e04 	addi	r6,sp,120
 5086950:	b80b883a 	mov	r5,r23
 5086954:	508d8e00 	call	508d8e0 <__sprint_r>
 5086958:	103a181e 	bne	r2,zero,50851bc <__alt_data_end+0xfffb6fbc>
 508695c:	d8c02017 	ldw	r3,128(sp)
 5086960:	d8801f17 	ldw	r2,124(sp)
 5086964:	da000404 	addi	r8,sp,16
 5086968:	d9403317 	ldw	r5,204(sp)
 508696c:	10800044 	addi	r2,r2,1
 5086970:	44000015 	stw	r16,0(r8)
 5086974:	28c7883a 	add	r3,r5,r3
 5086978:	003b7d06 	br	5085770 <__alt_data_end+0xfffb7570>
 508697c:	01014274 	movhi	r4,1289
 5086980:	21178f84 	addi	r4,r4,24126
 5086984:	d9003515 	stw	r4,212(sp)
 5086988:	003b1406 	br	50855dc <__alt_data_end+0xfffb73dc>
 508698c:	013fffc4 	movi	r4,-1
 5086990:	003a3506 	br	5085268 <__alt_data_end+0xfffb7068>
 5086994:	0023883a 	mov	r17,zero
 5086998:	003d9d06 	br	5086010 <__alt_data_end+0xfffb7e10>
 508699c:	d9002c17 	ldw	r4,176(sp)
 50869a0:	d9801e04 	addi	r6,sp,120
 50869a4:	b80b883a 	mov	r5,r23
 50869a8:	508d8e00 	call	508d8e0 <__sprint_r>
 50869ac:	103a031e 	bne	r2,zero,50851bc <__alt_data_end+0xfffb6fbc>
 50869b0:	d8c02017 	ldw	r3,128(sp)
 50869b4:	da000404 	addi	r8,sp,16
 50869b8:	003d9406 	br	508600c <__alt_data_end+0xfffb7e0c>
 50869bc:	01014274 	movhi	r4,1289
 50869c0:	21178b84 	addi	r4,r4,24110
 50869c4:	d9002b15 	stw	r4,172(sp)
 50869c8:	d9002b17 	ldw	r4,172(sp)
 50869cc:	1c47883a 	add	r3,r3,r17
 50869d0:	10800044 	addi	r2,r2,1
 50869d4:	41000015 	stw	r4,0(r8)
 50869d8:	44400115 	stw	r17,4(r8)
 50869dc:	d8c02015 	stw	r3,128(sp)
 50869e0:	d8801f15 	stw	r2,124(sp)
 50869e4:	010001c4 	movi	r4,7
 50869e8:	20bfd716 	blt	r4,r2,5086948 <__alt_data_end+0xfffb8748>
 50869ec:	42000204 	addi	r8,r8,8
 50869f0:	003fdd06 	br	5086968 <__alt_data_end+0xfffb8768>
 50869f4:	d9002c17 	ldw	r4,176(sp)
 50869f8:	d9801e04 	addi	r6,sp,120
 50869fc:	b80b883a 	mov	r5,r23
 5086a00:	508d8e00 	call	508d8e0 <__sprint_r>
 5086a04:	1039ed1e 	bne	r2,zero,50851bc <__alt_data_end+0xfffb6fbc>
 5086a08:	d8802617 	ldw	r2,152(sp)
 5086a0c:	d8c02017 	ldw	r3,128(sp)
 5086a10:	da000404 	addi	r8,sp,16
 5086a14:	003e1006 	br	5086258 <__alt_data_end+0xfffb8058>
 5086a18:	00800044 	movi	r2,1
 5086a1c:	10803fcc 	andi	r2,r2,255
 5086a20:	00c00044 	movi	r3,1
 5086a24:	10fa3526 	beq	r2,r3,50852fc <__alt_data_end+0xfffb70fc>
 5086a28:	00c00084 	movi	r3,2
 5086a2c:	10fbcb26 	beq	r2,r3,508595c <__alt_data_end+0xfffb775c>
 5086a30:	003a8f06 	br	5085470 <__alt_data_end+0xfffb7270>
 5086a34:	01014274 	movhi	r4,1289
 5086a38:	21178f84 	addi	r4,r4,24126
 5086a3c:	d9003515 	stw	r4,212(sp)
 5086a40:	003b7606 	br	508581c <__alt_data_end+0xfffb761c>
 5086a44:	d8802917 	ldw	r2,164(sp)
 5086a48:	00c00184 	movi	r3,6
 5086a4c:	1880012e 	bgeu	r3,r2,5086a54 <___vfprintf_internal_r+0x1ca0>
 5086a50:	1805883a 	mov	r2,r3
 5086a54:	d8802e15 	stw	r2,184(sp)
 5086a58:	1000ef16 	blt	r2,zero,5086e18 <___vfprintf_internal_r+0x2064>
 5086a5c:	04014274 	movhi	r16,1289
 5086a60:	d8802a15 	stw	r2,168(sp)
 5086a64:	dcc02d15 	stw	r19,180(sp)
 5086a68:	d8002915 	stw	zero,164(sp)
 5086a6c:	d8003215 	stw	zero,200(sp)
 5086a70:	84178104 	addi	r16,r16,24068
 5086a74:	0039883a 	mov	fp,zero
 5086a78:	003aa206 	br	5085504 <__alt_data_end+0xfffb7304>
 5086a7c:	0021883a 	mov	r16,zero
 5086a80:	003e0706 	br	50862a0 <__alt_data_end+0xfffb80a0>
 5086a84:	d9002c17 	ldw	r4,176(sp)
 5086a88:	d9801e04 	addi	r6,sp,120
 5086a8c:	b80b883a 	mov	r5,r23
 5086a90:	508d8e00 	call	508d8e0 <__sprint_r>
 5086a94:	1039c91e 	bne	r2,zero,50851bc <__alt_data_end+0xfffb6fbc>
 5086a98:	d8802617 	ldw	r2,152(sp)
 5086a9c:	d9403317 	ldw	r5,204(sp)
 5086aa0:	d8c02017 	ldw	r3,128(sp)
 5086aa4:	da000404 	addi	r8,sp,16
 5086aa8:	2885c83a 	sub	r2,r5,r2
 5086aac:	003dfb06 	br	508629c <__alt_data_end+0xfffb809c>
 5086ab0:	9080004c 	andi	r2,r18,1
 5086ab4:	103e8f1e 	bne	r2,zero,50864f4 <__alt_data_end+0xfffb82f4>
 5086ab8:	d8802117 	ldw	r2,132(sp)
 5086abc:	003e9e06 	br	5086538 <__alt_data_end+0xfffb8338>
 5086ac0:	1025883a 	mov	r18,r2
 5086ac4:	0039883a 	mov	fp,zero
 5086ac8:	00800084 	movi	r2,2
 5086acc:	003fd306 	br	5086a1c <__alt_data_end+0xfffb881c>
 5086ad0:	07000b44 	movi	fp,45
 5086ad4:	df002785 	stb	fp,158(sp)
 5086ad8:	003a4006 	br	50853dc <__alt_data_end+0xfffb71dc>
 5086adc:	00c00b44 	movi	r3,45
 5086ae0:	d8c02785 	stb	r3,158(sp)
 5086ae4:	d8802a15 	stw	r2,168(sp)
 5086ae8:	dc802b17 	ldw	r18,172(sp)
 5086aec:	d8002915 	stw	zero,164(sp)
 5086af0:	07000b44 	movi	fp,45
 5086af4:	003a8006 	br	50854f8 <__alt_data_end+0xfffb72f8>
 5086af8:	04014274 	movhi	r16,1289
 5086afc:	84177604 	addi	r16,r16,24024
 5086b00:	003f4706 	br	5086820 <__alt_data_end+0xfffb8620>
 5086b04:	d8c02d17 	ldw	r3,180(sp)
 5086b08:	d9002f17 	ldw	r4,188(sp)
 5086b0c:	18800017 	ldw	r2,0(r3)
 5086b10:	18c00104 	addi	r3,r3,4
 5086b14:	d8c02d15 	stw	r3,180(sp)
 5086b18:	11000015 	stw	r4,0(r2)
 5086b1c:	0038dd06 	br	5084e94 <__alt_data_end+0xfffb6c94>
 5086b20:	dd802617 	ldw	r22,152(sp)
 5086b24:	00bfff44 	movi	r2,-3
 5086b28:	b0801c16 	blt	r22,r2,5086b9c <___vfprintf_internal_r+0x1de8>
 5086b2c:	d9402917 	ldw	r5,164(sp)
 5086b30:	2d801a16 	blt	r5,r22,5086b9c <___vfprintf_internal_r+0x1de8>
 5086b34:	dd803215 	stw	r22,200(sp)
 5086b38:	003e8906 	br	5086560 <__alt_data_end+0xfffb8360>
 5086b3c:	01014274 	movhi	r4,1289
 5086b40:	21178b84 	addi	r4,r4,24110
 5086b44:	d9002b15 	stw	r4,172(sp)
 5086b48:	003c9106 	br	5085d90 <__alt_data_end+0xfffb7b90>
 5086b4c:	e005883a 	mov	r2,fp
 5086b50:	003e7906 	br	5086538 <__alt_data_end+0xfffb8338>
 5086b54:	d9402917 	ldw	r5,164(sp)
 5086b58:	df002783 	ldbu	fp,158(sp)
 5086b5c:	dcc02d15 	stw	r19,180(sp)
 5086b60:	d9402a15 	stw	r5,168(sp)
 5086b64:	d9402e15 	stw	r5,184(sp)
 5086b68:	d8002915 	stw	zero,164(sp)
 5086b6c:	d8003215 	stw	zero,200(sp)
 5086b70:	003a5d06 	br	50854e8 <__alt_data_end+0xfffb72e8>
 5086b74:	9080004c 	andi	r2,r18,1
 5086b78:	0039883a 	mov	fp,zero
 5086b7c:	10000426 	beq	r2,zero,5086b90 <___vfprintf_internal_r+0x1ddc>
 5086b80:	00800c04 	movi	r2,48
 5086b84:	dc001dc4 	addi	r16,sp,119
 5086b88:	d8801dc5 	stb	r2,119(sp)
 5086b8c:	003b8006 	br	5085990 <__alt_data_end+0xfffb7790>
 5086b90:	d8002e15 	stw	zero,184(sp)
 5086b94:	dc001e04 	addi	r16,sp,120
 5086b98:	003a4d06 	br	50854d0 <__alt_data_end+0xfffb72d0>
 5086b9c:	8c7fff84 	addi	r17,r17,-2
 5086ba0:	b5bfffc4 	addi	r22,r22,-1
 5086ba4:	dd802615 	stw	r22,152(sp)
 5086ba8:	dc4022c5 	stb	r17,139(sp)
 5086bac:	b000bf16 	blt	r22,zero,5086eac <___vfprintf_internal_r+0x20f8>
 5086bb0:	00800ac4 	movi	r2,43
 5086bb4:	d8802305 	stb	r2,140(sp)
 5086bb8:	00800244 	movi	r2,9
 5086bbc:	15807016 	blt	r2,r22,5086d80 <___vfprintf_internal_r+0x1fcc>
 5086bc0:	00800c04 	movi	r2,48
 5086bc4:	b5800c04 	addi	r22,r22,48
 5086bc8:	d8802345 	stb	r2,141(sp)
 5086bcc:	dd802385 	stb	r22,142(sp)
 5086bd0:	d88023c4 	addi	r2,sp,143
 5086bd4:	df0022c4 	addi	fp,sp,139
 5086bd8:	d8c03317 	ldw	r3,204(sp)
 5086bdc:	1739c83a 	sub	fp,r2,fp
 5086be0:	d9003317 	ldw	r4,204(sp)
 5086be4:	e0c7883a 	add	r3,fp,r3
 5086be8:	df003a15 	stw	fp,232(sp)
 5086bec:	d8c02e15 	stw	r3,184(sp)
 5086bf0:	00800044 	movi	r2,1
 5086bf4:	1100b30e 	bge	r2,r4,5086ec4 <___vfprintf_internal_r+0x2110>
 5086bf8:	d8c02e17 	ldw	r3,184(sp)
 5086bfc:	18c00044 	addi	r3,r3,1
 5086c00:	d8c02e15 	stw	r3,184(sp)
 5086c04:	1805883a 	mov	r2,r3
 5086c08:	1800ac16 	blt	r3,zero,5086ebc <___vfprintf_internal_r+0x2108>
 5086c0c:	d8003215 	stw	zero,200(sp)
 5086c10:	003e5d06 	br	5086588 <__alt_data_end+0xfffb8388>
 5086c14:	d9002c17 	ldw	r4,176(sp)
 5086c18:	d9801e04 	addi	r6,sp,120
 5086c1c:	b80b883a 	mov	r5,r23
 5086c20:	508d8e00 	call	508d8e0 <__sprint_r>
 5086c24:	1039651e 	bne	r2,zero,50851bc <__alt_data_end+0xfffb6fbc>
 5086c28:	dc402617 	ldw	r17,152(sp)
 5086c2c:	d8c02017 	ldw	r3,128(sp)
 5086c30:	d8801f17 	ldw	r2,124(sp)
 5086c34:	da000404 	addi	r8,sp,16
 5086c38:	003ed606 	br	5086794 <__alt_data_end+0xfffb8594>
 5086c3c:	582b883a 	mov	r21,r11
 5086c40:	d8002915 	stw	zero,164(sp)
 5086c44:	0038bd06 	br	5084f3c <__alt_data_end+0xfffb6d3c>
 5086c48:	d8802917 	ldw	r2,164(sp)
 5086c4c:	103e071e 	bne	r2,zero,508646c <__alt_data_end+0xfffb826c>
 5086c50:	dc002915 	stw	r16,164(sp)
 5086c54:	003e0506 	br	508646c <__alt_data_end+0xfffb826c>
 5086c58:	d9002917 	ldw	r4,164(sp)
 5086c5c:	20c00044 	addi	r3,r4,1
 5086c60:	003e0f06 	br	50864a0 <__alt_data_end+0xfffb82a0>
 5086c64:	01400184 	movi	r5,6
 5086c68:	d9402915 	stw	r5,164(sp)
 5086c6c:	003dff06 	br	508646c <__alt_data_end+0xfffb826c>
 5086c70:	d8802104 	addi	r2,sp,132
 5086c74:	d8800315 	stw	r2,12(sp)
 5086c78:	d8802504 	addi	r2,sp,148
 5086c7c:	d8800215 	stw	r2,8(sp)
 5086c80:	d8802604 	addi	r2,sp,152
 5086c84:	d8800115 	stw	r2,4(sp)
 5086c88:	d8802917 	ldw	r2,164(sp)
 5086c8c:	d9403617 	ldw	r5,216(sp)
 5086c90:	d9002c17 	ldw	r4,176(sp)
 5086c94:	d8800015 	stw	r2,0(sp)
 5086c98:	01c000c4 	movi	r7,3
 5086c9c:	980d883a 	mov	r6,r19
 5086ca0:	da003d15 	stw	r8,244(sp)
 5086ca4:	50874fc0 	call	50874fc <_dtoa_r>
 5086ca8:	d8c02917 	ldw	r3,164(sp)
 5086cac:	da003d17 	ldw	r8,244(sp)
 5086cb0:	1021883a 	mov	r16,r2
 5086cb4:	10f9883a 	add	fp,r2,r3
 5086cb8:	81000007 	ldb	r4,0(r16)
 5086cbc:	00800c04 	movi	r2,48
 5086cc0:	20805e26 	beq	r4,r2,5086e3c <___vfprintf_internal_r+0x2088>
 5086cc4:	d8c02617 	ldw	r3,152(sp)
 5086cc8:	e0f9883a 	add	fp,fp,r3
 5086ccc:	003e0a06 	br	50864f8 <__alt_data_end+0xfffb82f8>
 5086cd0:	00c00b44 	movi	r3,45
 5086cd4:	24e0003c 	xorhi	r19,r4,32768
 5086cd8:	d8c02a05 	stb	r3,168(sp)
 5086cdc:	003de906 	br	5086484 <__alt_data_end+0xfffb8284>
 5086ce0:	d8c03217 	ldw	r3,200(sp)
 5086ce4:	00c07a0e 	bge	zero,r3,5086ed0 <___vfprintf_internal_r+0x211c>
 5086ce8:	00800044 	movi	r2,1
 5086cec:	d9003317 	ldw	r4,204(sp)
 5086cf0:	1105883a 	add	r2,r2,r4
 5086cf4:	d8802e15 	stw	r2,184(sp)
 5086cf8:	10004e16 	blt	r2,zero,5086e34 <___vfprintf_internal_r+0x2080>
 5086cfc:	044019c4 	movi	r17,103
 5086d00:	003e2106 	br	5086588 <__alt_data_end+0xfffb8388>
 5086d04:	d9002917 	ldw	r4,164(sp)
 5086d08:	d8802104 	addi	r2,sp,132
 5086d0c:	d8800315 	stw	r2,12(sp)
 5086d10:	d9000015 	stw	r4,0(sp)
 5086d14:	d8802504 	addi	r2,sp,148
 5086d18:	d9403617 	ldw	r5,216(sp)
 5086d1c:	d9002c17 	ldw	r4,176(sp)
 5086d20:	d8800215 	stw	r2,8(sp)
 5086d24:	d8802604 	addi	r2,sp,152
 5086d28:	d8800115 	stw	r2,4(sp)
 5086d2c:	01c000c4 	movi	r7,3
 5086d30:	980d883a 	mov	r6,r19
 5086d34:	da003d15 	stw	r8,244(sp)
 5086d38:	50874fc0 	call	50874fc <_dtoa_r>
 5086d3c:	d8c02917 	ldw	r3,164(sp)
 5086d40:	da003d17 	ldw	r8,244(sp)
 5086d44:	1021883a 	mov	r16,r2
 5086d48:	00801184 	movi	r2,70
 5086d4c:	80f9883a 	add	fp,r16,r3
 5086d50:	88bfd926 	beq	r17,r2,5086cb8 <__alt_data_end+0xfffb8ab8>
 5086d54:	003de806 	br	50864f8 <__alt_data_end+0xfffb82f8>
 5086d58:	d9002917 	ldw	r4,164(sp)
 5086d5c:	00c04d0e 	bge	zero,r3,5086e94 <___vfprintf_internal_r+0x20e0>
 5086d60:	2000441e 	bne	r4,zero,5086e74 <___vfprintf_internal_r+0x20c0>
 5086d64:	9480004c 	andi	r18,r18,1
 5086d68:	9000421e 	bne	r18,zero,5086e74 <___vfprintf_internal_r+0x20c0>
 5086d6c:	1805883a 	mov	r2,r3
 5086d70:	18007016 	blt	r3,zero,5086f34 <___vfprintf_internal_r+0x2180>
 5086d74:	d8c03217 	ldw	r3,200(sp)
 5086d78:	d8c02e15 	stw	r3,184(sp)
 5086d7c:	003e0206 	br	5086588 <__alt_data_end+0xfffb8388>
 5086d80:	df0022c4 	addi	fp,sp,139
 5086d84:	dc002915 	stw	r16,164(sp)
 5086d88:	4027883a 	mov	r19,r8
 5086d8c:	e021883a 	mov	r16,fp
 5086d90:	b009883a 	mov	r4,r22
 5086d94:	01400284 	movi	r5,10
 5086d98:	50828100 	call	5082810 <__modsi3>
 5086d9c:	10800c04 	addi	r2,r2,48
 5086da0:	843fffc4 	addi	r16,r16,-1
 5086da4:	b009883a 	mov	r4,r22
 5086da8:	01400284 	movi	r5,10
 5086dac:	80800005 	stb	r2,0(r16)
 5086db0:	508278c0 	call	508278c <__divsi3>
 5086db4:	102d883a 	mov	r22,r2
 5086db8:	00800244 	movi	r2,9
 5086dbc:	15bff416 	blt	r2,r22,5086d90 <__alt_data_end+0xfffb8b90>
 5086dc0:	9811883a 	mov	r8,r19
 5086dc4:	b0800c04 	addi	r2,r22,48
 5086dc8:	8027883a 	mov	r19,r16
 5086dcc:	997fffc4 	addi	r5,r19,-1
 5086dd0:	98bfffc5 	stb	r2,-1(r19)
 5086dd4:	dc002917 	ldw	r16,164(sp)
 5086dd8:	2f006a2e 	bgeu	r5,fp,5086f84 <___vfprintf_internal_r+0x21d0>
 5086ddc:	d9c02384 	addi	r7,sp,142
 5086de0:	3ccfc83a 	sub	r7,r7,r19
 5086de4:	d9002344 	addi	r4,sp,141
 5086de8:	e1cf883a 	add	r7,fp,r7
 5086dec:	00000106 	br	5086df4 <___vfprintf_internal_r+0x2040>
 5086df0:	28800003 	ldbu	r2,0(r5)
 5086df4:	20800005 	stb	r2,0(r4)
 5086df8:	21000044 	addi	r4,r4,1
 5086dfc:	29400044 	addi	r5,r5,1
 5086e00:	393ffb1e 	bne	r7,r4,5086df0 <__alt_data_end+0xfffb8bf0>
 5086e04:	d8802304 	addi	r2,sp,140
 5086e08:	14c5c83a 	sub	r2,r2,r19
 5086e0c:	d8c02344 	addi	r3,sp,141
 5086e10:	1885883a 	add	r2,r3,r2
 5086e14:	003f7006 	br	5086bd8 <__alt_data_end+0xfffb89d8>
 5086e18:	0005883a 	mov	r2,zero
 5086e1c:	003f0f06 	br	5086a5c <__alt_data_end+0xfffb885c>
 5086e20:	d8c03217 	ldw	r3,200(sp)
 5086e24:	18c00044 	addi	r3,r3,1
 5086e28:	d8c02e15 	stw	r3,184(sp)
 5086e2c:	1805883a 	mov	r2,r3
 5086e30:	183fb20e 	bge	r3,zero,5086cfc <__alt_data_end+0xfffb8afc>
 5086e34:	0005883a 	mov	r2,zero
 5086e38:	003fb006 	br	5086cfc <__alt_data_end+0xfffb8afc>
 5086e3c:	d9003617 	ldw	r4,216(sp)
 5086e40:	000d883a 	mov	r6,zero
 5086e44:	000f883a 	mov	r7,zero
 5086e48:	980b883a 	mov	r5,r19
 5086e4c:	d8c03c15 	stw	r3,240(sp)
 5086e50:	da003d15 	stw	r8,244(sp)
 5086e54:	50913a40 	call	50913a4 <__eqdf2>
 5086e58:	d8c03c17 	ldw	r3,240(sp)
 5086e5c:	da003d17 	ldw	r8,244(sp)
 5086e60:	103f9826 	beq	r2,zero,5086cc4 <__alt_data_end+0xfffb8ac4>
 5086e64:	00800044 	movi	r2,1
 5086e68:	10c7c83a 	sub	r3,r2,r3
 5086e6c:	d8c02615 	stw	r3,152(sp)
 5086e70:	003f9506 	br	5086cc8 <__alt_data_end+0xfffb8ac8>
 5086e74:	d9002917 	ldw	r4,164(sp)
 5086e78:	d8c03217 	ldw	r3,200(sp)
 5086e7c:	20800044 	addi	r2,r4,1
 5086e80:	1885883a 	add	r2,r3,r2
 5086e84:	d8802e15 	stw	r2,184(sp)
 5086e88:	103dbf0e 	bge	r2,zero,5086588 <__alt_data_end+0xfffb8388>
 5086e8c:	0005883a 	mov	r2,zero
 5086e90:	003dbd06 	br	5086588 <__alt_data_end+0xfffb8388>
 5086e94:	2000211e 	bne	r4,zero,5086f1c <___vfprintf_internal_r+0x2168>
 5086e98:	9480004c 	andi	r18,r18,1
 5086e9c:	90001f1e 	bne	r18,zero,5086f1c <___vfprintf_internal_r+0x2168>
 5086ea0:	00800044 	movi	r2,1
 5086ea4:	d8802e15 	stw	r2,184(sp)
 5086ea8:	003db706 	br	5086588 <__alt_data_end+0xfffb8388>
 5086eac:	00800b44 	movi	r2,45
 5086eb0:	05adc83a 	sub	r22,zero,r22
 5086eb4:	d8802305 	stb	r2,140(sp)
 5086eb8:	003f3f06 	br	5086bb8 <__alt_data_end+0xfffb89b8>
 5086ebc:	0005883a 	mov	r2,zero
 5086ec0:	003f5206 	br	5086c0c <__alt_data_end+0xfffb8a0c>
 5086ec4:	90a4703a 	and	r18,r18,r2
 5086ec8:	903f4e26 	beq	r18,zero,5086c04 <__alt_data_end+0xfffb8a04>
 5086ecc:	003f4a06 	br	5086bf8 <__alt_data_end+0xfffb89f8>
 5086ed0:	00800084 	movi	r2,2
 5086ed4:	10c5c83a 	sub	r2,r2,r3
 5086ed8:	003f8406 	br	5086cec <__alt_data_end+0xfffb8aec>
 5086edc:	d8802d17 	ldw	r2,180(sp)
 5086ee0:	d9002d17 	ldw	r4,180(sp)
 5086ee4:	ac400043 	ldbu	r17,1(r21)
 5086ee8:	10800017 	ldw	r2,0(r2)
 5086eec:	582b883a 	mov	r21,r11
 5086ef0:	d8802915 	stw	r2,164(sp)
 5086ef4:	20800104 	addi	r2,r4,4
 5086ef8:	d9002917 	ldw	r4,164(sp)
 5086efc:	d8802d15 	stw	r2,180(sp)
 5086f00:	203e7a0e 	bge	r4,zero,50868ec <__alt_data_end+0xfffb86ec>
 5086f04:	8c403fcc 	andi	r17,r17,255
 5086f08:	00bfffc4 	movi	r2,-1
 5086f0c:	8c40201c 	xori	r17,r17,128
 5086f10:	d8802915 	stw	r2,164(sp)
 5086f14:	8c7fe004 	addi	r17,r17,-128
 5086f18:	00380706 	br	5084f38 <__alt_data_end+0xfffb6d38>
 5086f1c:	d8c02917 	ldw	r3,164(sp)
 5086f20:	18c00084 	addi	r3,r3,2
 5086f24:	d8c02e15 	stw	r3,184(sp)
 5086f28:	1805883a 	mov	r2,r3
 5086f2c:	183d960e 	bge	r3,zero,5086588 <__alt_data_end+0xfffb8388>
 5086f30:	003fd606 	br	5086e8c <__alt_data_end+0xfffb8c8c>
 5086f34:	0005883a 	mov	r2,zero
 5086f38:	003f8e06 	br	5086d74 <__alt_data_end+0xfffb8b74>
 5086f3c:	9080004c 	andi	r2,r18,1
 5086f40:	103f811e 	bne	r2,zero,5086d48 <__alt_data_end+0xfffb8b48>
 5086f44:	d8802117 	ldw	r2,132(sp)
 5086f48:	1405c83a 	sub	r2,r2,r16
 5086f4c:	d8803315 	stw	r2,204(sp)
 5086f50:	b47ef326 	beq	r22,r17,5086b20 <__alt_data_end+0xfffb8920>
 5086f54:	dd802617 	ldw	r22,152(sp)
 5086f58:	003f1106 	br	5086ba0 <__alt_data_end+0xfffb89a0>
 5086f5c:	d9c02785 	stb	r7,158(sp)
 5086f60:	00390406 	br	5085374 <__alt_data_end+0xfffb7174>
 5086f64:	d9c02785 	stb	r7,158(sp)
 5086f68:	0038d306 	br	50852b8 <__alt_data_end+0xfffb70b8>
 5086f6c:	d9c02785 	stb	r7,158(sp)
 5086f70:	003a6106 	br	50858f8 <__alt_data_end+0xfffb76f8>
 5086f74:	d9c02785 	stb	r7,158(sp)
 5086f78:	003af806 	br	5085b5c <__alt_data_end+0xfffb795c>
 5086f7c:	0005883a 	mov	r2,zero
 5086f80:	003d7e06 	br	508657c <__alt_data_end+0xfffb837c>
 5086f84:	d8802344 	addi	r2,sp,141
 5086f88:	003f1306 	br	5086bd8 <__alt_data_end+0xfffb89d8>
 5086f8c:	d9c02785 	stb	r7,158(sp)
 5086f90:	00392306 	br	5085420 <__alt_data_end+0xfffb7220>
 5086f94:	d9c02785 	stb	r7,158(sp)
 5086f98:	003aa906 	br	5085a40 <__alt_data_end+0xfffb7840>
 5086f9c:	d9c02785 	stb	r7,158(sp)
 5086fa0:	003a3d06 	br	5085898 <__alt_data_end+0xfffb7698>
 5086fa4:	d9c02785 	stb	r7,158(sp)
 5086fa8:	003aca06 	br	5085ad4 <__alt_data_end+0xfffb78d4>

05086fac <__vfprintf_internal>:
 5086fac:	00814274 	movhi	r2,1289
 5086fb0:	109ef004 	addi	r2,r2,31680
 5086fb4:	300f883a 	mov	r7,r6
 5086fb8:	280d883a 	mov	r6,r5
 5086fbc:	200b883a 	mov	r5,r4
 5086fc0:	11000017 	ldw	r4,0(r2)
 5086fc4:	5084db41 	jmpi	5084db4 <___vfprintf_internal_r>

05086fc8 <__sbprintf>:
 5086fc8:	2880030b 	ldhu	r2,12(r5)
 5086fcc:	2ac01917 	ldw	r11,100(r5)
 5086fd0:	2a80038b 	ldhu	r10,14(r5)
 5086fd4:	2a400717 	ldw	r9,28(r5)
 5086fd8:	2a000917 	ldw	r8,36(r5)
 5086fdc:	defee204 	addi	sp,sp,-1144
 5086fe0:	00c10004 	movi	r3,1024
 5086fe4:	dc011a15 	stw	r16,1128(sp)
 5086fe8:	10bfff4c 	andi	r2,r2,65533
 5086fec:	2821883a 	mov	r16,r5
 5086ff0:	d8cb883a 	add	r5,sp,r3
 5086ff4:	dc811c15 	stw	r18,1136(sp)
 5086ff8:	dc411b15 	stw	r17,1132(sp)
 5086ffc:	dfc11d15 	stw	ra,1140(sp)
 5087000:	2025883a 	mov	r18,r4
 5087004:	d881030d 	sth	r2,1036(sp)
 5087008:	dac11915 	stw	r11,1124(sp)
 508700c:	da81038d 	sth	r10,1038(sp)
 5087010:	da410715 	stw	r9,1052(sp)
 5087014:	da010915 	stw	r8,1060(sp)
 5087018:	dec10015 	stw	sp,1024(sp)
 508701c:	dec10415 	stw	sp,1040(sp)
 5087020:	d8c10215 	stw	r3,1032(sp)
 5087024:	d8c10515 	stw	r3,1044(sp)
 5087028:	d8010615 	stw	zero,1048(sp)
 508702c:	5084db40 	call	5084db4 <___vfprintf_internal_r>
 5087030:	1023883a 	mov	r17,r2
 5087034:	10000416 	blt	r2,zero,5087048 <__sbprintf+0x80>
 5087038:	d9410004 	addi	r5,sp,1024
 508703c:	9009883a 	mov	r4,r18
 5087040:	5088da00 	call	5088da0 <_fflush_r>
 5087044:	10000d1e 	bne	r2,zero,508707c <__sbprintf+0xb4>
 5087048:	d881030b 	ldhu	r2,1036(sp)
 508704c:	1080100c 	andi	r2,r2,64
 5087050:	10000326 	beq	r2,zero,5087060 <__sbprintf+0x98>
 5087054:	8080030b 	ldhu	r2,12(r16)
 5087058:	10801014 	ori	r2,r2,64
 508705c:	8080030d 	sth	r2,12(r16)
 5087060:	8805883a 	mov	r2,r17
 5087064:	dfc11d17 	ldw	ra,1140(sp)
 5087068:	dc811c17 	ldw	r18,1136(sp)
 508706c:	dc411b17 	ldw	r17,1132(sp)
 5087070:	dc011a17 	ldw	r16,1128(sp)
 5087074:	dec11e04 	addi	sp,sp,1144
 5087078:	f800283a 	ret
 508707c:	047fffc4 	movi	r17,-1
 5087080:	003ff106 	br	5087048 <__alt_data_end+0xfffb8e48>

05087084 <_vsnprintf_r>:
 5087084:	30003716 	blt	r6,zero,5087164 <_vsnprintf_r+0xe0>
 5087088:	deffe404 	addi	sp,sp,-112
 508708c:	00c08204 	movi	r3,520
 5087090:	dc001a15 	stw	r16,104(sp)
 5087094:	3005883a 	mov	r2,r6
 5087098:	dfc01b15 	stw	ra,108(sp)
 508709c:	d8c0030d 	sth	r3,12(sp)
 50870a0:	d9400015 	stw	r5,0(sp)
 50870a4:	d9400415 	stw	r5,16(sp)
 50870a8:	380d883a 	mov	r6,r7
 50870ac:	2021883a 	mov	r16,r4
 50870b0:	10001326 	beq	r2,zero,5087100 <_vsnprintf_r+0x7c>
 50870b4:	00c14274 	movhi	r3,1289
 50870b8:	18def004 	addi	r3,r3,31680
 50870bc:	19000017 	ldw	r4,0(r3)
 50870c0:	d9c01c17 	ldw	r7,112(sp)
 50870c4:	10bfffc4 	addi	r2,r2,-1
 50870c8:	d8800215 	stw	r2,8(sp)
 50870cc:	d8800515 	stw	r2,20(sp)
 50870d0:	d80b883a 	mov	r5,sp
 50870d4:	00bfffc4 	movi	r2,-1
 50870d8:	d880038d 	sth	r2,14(sp)
 50870dc:	5082bdc0 	call	5082bdc <___svfprintf_internal_r>
 50870e0:	00ffffc4 	movi	r3,-1
 50870e4:	10c01616 	blt	r2,r3,5087140 <_vsnprintf_r+0xbc>
 50870e8:	d8c00017 	ldw	r3,0(sp)
 50870ec:	18000005 	stb	zero,0(r3)
 50870f0:	dfc01b17 	ldw	ra,108(sp)
 50870f4:	dc001a17 	ldw	r16,104(sp)
 50870f8:	dec01c04 	addi	sp,sp,112
 50870fc:	f800283a 	ret
 5087100:	00814274 	movhi	r2,1289
 5087104:	109ef004 	addi	r2,r2,31680
 5087108:	11000017 	ldw	r4,0(r2)
 508710c:	d9c01c17 	ldw	r7,112(sp)
 5087110:	00bfffc4 	movi	r2,-1
 5087114:	d80b883a 	mov	r5,sp
 5087118:	d8000215 	stw	zero,8(sp)
 508711c:	d8000515 	stw	zero,20(sp)
 5087120:	d880038d 	sth	r2,14(sp)
 5087124:	5082bdc0 	call	5082bdc <___svfprintf_internal_r>
 5087128:	00ffffc4 	movi	r3,-1
 508712c:	10c00716 	blt	r2,r3,508714c <_vsnprintf_r+0xc8>
 5087130:	dfc01b17 	ldw	ra,108(sp)
 5087134:	dc001a17 	ldw	r16,104(sp)
 5087138:	dec01c04 	addi	sp,sp,112
 508713c:	f800283a 	ret
 5087140:	00c022c4 	movi	r3,139
 5087144:	80c00015 	stw	r3,0(r16)
 5087148:	003fe706 	br	50870e8 <__alt_data_end+0xfffb8ee8>
 508714c:	00c022c4 	movi	r3,139
 5087150:	80c00015 	stw	r3,0(r16)
 5087154:	dfc01b17 	ldw	ra,108(sp)
 5087158:	dc001a17 	ldw	r16,104(sp)
 508715c:	dec01c04 	addi	sp,sp,112
 5087160:	f800283a 	ret
 5087164:	008022c4 	movi	r2,139
 5087168:	20800015 	stw	r2,0(r4)
 508716c:	00bfffc4 	movi	r2,-1
 5087170:	f800283a 	ret

05087174 <vsnprintf>:
 5087174:	defffe04 	addi	sp,sp,-8
 5087178:	00814274 	movhi	r2,1289
 508717c:	d9c00015 	stw	r7,0(sp)
 5087180:	109ef004 	addi	r2,r2,31680
 5087184:	300f883a 	mov	r7,r6
 5087188:	280d883a 	mov	r6,r5
 508718c:	200b883a 	mov	r5,r4
 5087190:	11000017 	ldw	r4,0(r2)
 5087194:	dfc00115 	stw	ra,4(sp)
 5087198:	50870840 	call	5087084 <_vsnprintf_r>
 508719c:	dfc00117 	ldw	ra,4(sp)
 50871a0:	dec00204 	addi	sp,sp,8
 50871a4:	f800283a 	ret

050871a8 <__swsetup_r>:
 50871a8:	00814274 	movhi	r2,1289
 50871ac:	defffd04 	addi	sp,sp,-12
 50871b0:	109ef004 	addi	r2,r2,31680
 50871b4:	dc400115 	stw	r17,4(sp)
 50871b8:	2023883a 	mov	r17,r4
 50871bc:	11000017 	ldw	r4,0(r2)
 50871c0:	dc000015 	stw	r16,0(sp)
 50871c4:	dfc00215 	stw	ra,8(sp)
 50871c8:	2821883a 	mov	r16,r5
 50871cc:	20000226 	beq	r4,zero,50871d8 <__swsetup_r+0x30>
 50871d0:	20800e17 	ldw	r2,56(r4)
 50871d4:	10003126 	beq	r2,zero,508729c <__swsetup_r+0xf4>
 50871d8:	8080030b 	ldhu	r2,12(r16)
 50871dc:	10c0020c 	andi	r3,r2,8
 50871e0:	1009883a 	mov	r4,r2
 50871e4:	18000f26 	beq	r3,zero,5087224 <__swsetup_r+0x7c>
 50871e8:	80c00417 	ldw	r3,16(r16)
 50871ec:	18001526 	beq	r3,zero,5087244 <__swsetup_r+0x9c>
 50871f0:	1100004c 	andi	r4,r2,1
 50871f4:	20001c1e 	bne	r4,zero,5087268 <__swsetup_r+0xc0>
 50871f8:	1080008c 	andi	r2,r2,2
 50871fc:	1000291e 	bne	r2,zero,50872a4 <__swsetup_r+0xfc>
 5087200:	80800517 	ldw	r2,20(r16)
 5087204:	80800215 	stw	r2,8(r16)
 5087208:	18001c26 	beq	r3,zero,508727c <__swsetup_r+0xd4>
 508720c:	0005883a 	mov	r2,zero
 5087210:	dfc00217 	ldw	ra,8(sp)
 5087214:	dc400117 	ldw	r17,4(sp)
 5087218:	dc000017 	ldw	r16,0(sp)
 508721c:	dec00304 	addi	sp,sp,12
 5087220:	f800283a 	ret
 5087224:	2080040c 	andi	r2,r4,16
 5087228:	10002e26 	beq	r2,zero,50872e4 <__swsetup_r+0x13c>
 508722c:	2080010c 	andi	r2,r4,4
 5087230:	10001e1e 	bne	r2,zero,50872ac <__swsetup_r+0x104>
 5087234:	80c00417 	ldw	r3,16(r16)
 5087238:	20800214 	ori	r2,r4,8
 508723c:	8080030d 	sth	r2,12(r16)
 5087240:	183feb1e 	bne	r3,zero,50871f0 <__alt_data_end+0xfffb8ff0>
 5087244:	1100a00c 	andi	r4,r2,640
 5087248:	01408004 	movi	r5,512
 508724c:	217fe826 	beq	r4,r5,50871f0 <__alt_data_end+0xfffb8ff0>
 5087250:	800b883a 	mov	r5,r16
 5087254:	8809883a 	mov	r4,r17
 5087258:	5089d200 	call	5089d20 <__smakebuf_r>
 508725c:	8080030b 	ldhu	r2,12(r16)
 5087260:	80c00417 	ldw	r3,16(r16)
 5087264:	003fe206 	br	50871f0 <__alt_data_end+0xfffb8ff0>
 5087268:	80800517 	ldw	r2,20(r16)
 508726c:	80000215 	stw	zero,8(r16)
 5087270:	0085c83a 	sub	r2,zero,r2
 5087274:	80800615 	stw	r2,24(r16)
 5087278:	183fe41e 	bne	r3,zero,508720c <__alt_data_end+0xfffb900c>
 508727c:	80c0030b 	ldhu	r3,12(r16)
 5087280:	0005883a 	mov	r2,zero
 5087284:	1900200c 	andi	r4,r3,128
 5087288:	203fe126 	beq	r4,zero,5087210 <__alt_data_end+0xfffb9010>
 508728c:	18c01014 	ori	r3,r3,64
 5087290:	80c0030d 	sth	r3,12(r16)
 5087294:	00bfffc4 	movi	r2,-1
 5087298:	003fdd06 	br	5087210 <__alt_data_end+0xfffb9010>
 508729c:	508917c0 	call	508917c <__sinit>
 50872a0:	003fcd06 	br	50871d8 <__alt_data_end+0xfffb8fd8>
 50872a4:	0005883a 	mov	r2,zero
 50872a8:	003fd606 	br	5087204 <__alt_data_end+0xfffb9004>
 50872ac:	81400c17 	ldw	r5,48(r16)
 50872b0:	28000626 	beq	r5,zero,50872cc <__swsetup_r+0x124>
 50872b4:	80801004 	addi	r2,r16,64
 50872b8:	28800326 	beq	r5,r2,50872c8 <__swsetup_r+0x120>
 50872bc:	8809883a 	mov	r4,r17
 50872c0:	50892f00 	call	50892f0 <_free_r>
 50872c4:	8100030b 	ldhu	r4,12(r16)
 50872c8:	80000c15 	stw	zero,48(r16)
 50872cc:	80c00417 	ldw	r3,16(r16)
 50872d0:	00bff6c4 	movi	r2,-37
 50872d4:	1108703a 	and	r4,r2,r4
 50872d8:	80000115 	stw	zero,4(r16)
 50872dc:	80c00015 	stw	r3,0(r16)
 50872e0:	003fd506 	br	5087238 <__alt_data_end+0xfffb9038>
 50872e4:	00800244 	movi	r2,9
 50872e8:	88800015 	stw	r2,0(r17)
 50872ec:	20801014 	ori	r2,r4,64
 50872f0:	8080030d 	sth	r2,12(r16)
 50872f4:	00bfffc4 	movi	r2,-1
 50872f8:	003fc506 	br	5087210 <__alt_data_end+0xfffb9010>

050872fc <quorem>:
 50872fc:	defff704 	addi	sp,sp,-36
 5087300:	dc800215 	stw	r18,8(sp)
 5087304:	20800417 	ldw	r2,16(r4)
 5087308:	2c800417 	ldw	r18,16(r5)
 508730c:	dfc00815 	stw	ra,32(sp)
 5087310:	ddc00715 	stw	r23,28(sp)
 5087314:	dd800615 	stw	r22,24(sp)
 5087318:	dd400515 	stw	r21,20(sp)
 508731c:	dd000415 	stw	r20,16(sp)
 5087320:	dcc00315 	stw	r19,12(sp)
 5087324:	dc400115 	stw	r17,4(sp)
 5087328:	dc000015 	stw	r16,0(sp)
 508732c:	14807116 	blt	r2,r18,50874f4 <quorem+0x1f8>
 5087330:	94bfffc4 	addi	r18,r18,-1
 5087334:	94ad883a 	add	r22,r18,r18
 5087338:	b5ad883a 	add	r22,r22,r22
 508733c:	2c400504 	addi	r17,r5,20
 5087340:	8da9883a 	add	r20,r17,r22
 5087344:	25400504 	addi	r21,r4,20
 5087348:	282f883a 	mov	r23,r5
 508734c:	adad883a 	add	r22,r21,r22
 5087350:	a1400017 	ldw	r5,0(r20)
 5087354:	2021883a 	mov	r16,r4
 5087358:	b1000017 	ldw	r4,0(r22)
 508735c:	29400044 	addi	r5,r5,1
 5087360:	50828840 	call	5082884 <__udivsi3>
 5087364:	1027883a 	mov	r19,r2
 5087368:	10002c26 	beq	r2,zero,508741c <quorem+0x120>
 508736c:	a813883a 	mov	r9,r21
 5087370:	880b883a 	mov	r5,r17
 5087374:	0009883a 	mov	r4,zero
 5087378:	000d883a 	mov	r6,zero
 508737c:	2a000017 	ldw	r8,0(r5)
 5087380:	49c00017 	ldw	r7,0(r9)
 5087384:	29400104 	addi	r5,r5,4
 5087388:	40bfffcc 	andi	r2,r8,65535
 508738c:	14c5383a 	mul	r2,r2,r19
 5087390:	4010d43a 	srli	r8,r8,16
 5087394:	38ffffcc 	andi	r3,r7,65535
 5087398:	1105883a 	add	r2,r2,r4
 508739c:	1008d43a 	srli	r4,r2,16
 50873a0:	44d1383a 	mul	r8,r8,r19
 50873a4:	198d883a 	add	r6,r3,r6
 50873a8:	10ffffcc 	andi	r3,r2,65535
 50873ac:	30c7c83a 	sub	r3,r6,r3
 50873b0:	380ed43a 	srli	r7,r7,16
 50873b4:	4105883a 	add	r2,r8,r4
 50873b8:	180dd43a 	srai	r6,r3,16
 50873bc:	113fffcc 	andi	r4,r2,65535
 50873c0:	390fc83a 	sub	r7,r7,r4
 50873c4:	398d883a 	add	r6,r7,r6
 50873c8:	300e943a 	slli	r7,r6,16
 50873cc:	18ffffcc 	andi	r3,r3,65535
 50873d0:	1008d43a 	srli	r4,r2,16
 50873d4:	38ceb03a 	or	r7,r7,r3
 50873d8:	49c00015 	stw	r7,0(r9)
 50873dc:	300dd43a 	srai	r6,r6,16
 50873e0:	4a400104 	addi	r9,r9,4
 50873e4:	a17fe52e 	bgeu	r20,r5,508737c <__alt_data_end+0xfffb917c>
 50873e8:	b0800017 	ldw	r2,0(r22)
 50873ec:	10000b1e 	bne	r2,zero,508741c <quorem+0x120>
 50873f0:	b0bfff04 	addi	r2,r22,-4
 50873f4:	a880082e 	bgeu	r21,r2,5087418 <quorem+0x11c>
 50873f8:	b0ffff17 	ldw	r3,-4(r22)
 50873fc:	18000326 	beq	r3,zero,508740c <quorem+0x110>
 5087400:	00000506 	br	5087418 <quorem+0x11c>
 5087404:	10c00017 	ldw	r3,0(r2)
 5087408:	1800031e 	bne	r3,zero,5087418 <quorem+0x11c>
 508740c:	10bfff04 	addi	r2,r2,-4
 5087410:	94bfffc4 	addi	r18,r18,-1
 5087414:	a8bffb36 	bltu	r21,r2,5087404 <__alt_data_end+0xfffb9204>
 5087418:	84800415 	stw	r18,16(r16)
 508741c:	b80b883a 	mov	r5,r23
 5087420:	8009883a 	mov	r4,r16
 5087424:	508b4600 	call	508b460 <__mcmp>
 5087428:	10002616 	blt	r2,zero,50874c4 <quorem+0x1c8>
 508742c:	9cc00044 	addi	r19,r19,1
 5087430:	a805883a 	mov	r2,r21
 5087434:	000b883a 	mov	r5,zero
 5087438:	11000017 	ldw	r4,0(r2)
 508743c:	89800017 	ldw	r6,0(r17)
 5087440:	10800104 	addi	r2,r2,4
 5087444:	20ffffcc 	andi	r3,r4,65535
 5087448:	194b883a 	add	r5,r3,r5
 508744c:	30ffffcc 	andi	r3,r6,65535
 5087450:	28c7c83a 	sub	r3,r5,r3
 5087454:	300cd43a 	srli	r6,r6,16
 5087458:	2008d43a 	srli	r4,r4,16
 508745c:	180bd43a 	srai	r5,r3,16
 5087460:	18ffffcc 	andi	r3,r3,65535
 5087464:	2189c83a 	sub	r4,r4,r6
 5087468:	2149883a 	add	r4,r4,r5
 508746c:	200c943a 	slli	r6,r4,16
 5087470:	8c400104 	addi	r17,r17,4
 5087474:	200bd43a 	srai	r5,r4,16
 5087478:	30c6b03a 	or	r3,r6,r3
 508747c:	10ffff15 	stw	r3,-4(r2)
 5087480:	a47fed2e 	bgeu	r20,r17,5087438 <__alt_data_end+0xfffb9238>
 5087484:	9485883a 	add	r2,r18,r18
 5087488:	1085883a 	add	r2,r2,r2
 508748c:	a887883a 	add	r3,r21,r2
 5087490:	18800017 	ldw	r2,0(r3)
 5087494:	10000b1e 	bne	r2,zero,50874c4 <quorem+0x1c8>
 5087498:	18bfff04 	addi	r2,r3,-4
 508749c:	a880082e 	bgeu	r21,r2,50874c0 <quorem+0x1c4>
 50874a0:	18ffff17 	ldw	r3,-4(r3)
 50874a4:	18000326 	beq	r3,zero,50874b4 <quorem+0x1b8>
 50874a8:	00000506 	br	50874c0 <quorem+0x1c4>
 50874ac:	10c00017 	ldw	r3,0(r2)
 50874b0:	1800031e 	bne	r3,zero,50874c0 <quorem+0x1c4>
 50874b4:	10bfff04 	addi	r2,r2,-4
 50874b8:	94bfffc4 	addi	r18,r18,-1
 50874bc:	a8bffb36 	bltu	r21,r2,50874ac <__alt_data_end+0xfffb92ac>
 50874c0:	84800415 	stw	r18,16(r16)
 50874c4:	9805883a 	mov	r2,r19
 50874c8:	dfc00817 	ldw	ra,32(sp)
 50874cc:	ddc00717 	ldw	r23,28(sp)
 50874d0:	dd800617 	ldw	r22,24(sp)
 50874d4:	dd400517 	ldw	r21,20(sp)
 50874d8:	dd000417 	ldw	r20,16(sp)
 50874dc:	dcc00317 	ldw	r19,12(sp)
 50874e0:	dc800217 	ldw	r18,8(sp)
 50874e4:	dc400117 	ldw	r17,4(sp)
 50874e8:	dc000017 	ldw	r16,0(sp)
 50874ec:	dec00904 	addi	sp,sp,36
 50874f0:	f800283a 	ret
 50874f4:	0005883a 	mov	r2,zero
 50874f8:	003ff306 	br	50874c8 <__alt_data_end+0xfffb92c8>

050874fc <_dtoa_r>:
 50874fc:	20801017 	ldw	r2,64(r4)
 5087500:	deffde04 	addi	sp,sp,-136
 5087504:	df002015 	stw	fp,128(sp)
 5087508:	dcc01b15 	stw	r19,108(sp)
 508750c:	dc801a15 	stw	r18,104(sp)
 5087510:	dc401915 	stw	r17,100(sp)
 5087514:	dc001815 	stw	r16,96(sp)
 5087518:	dfc02115 	stw	ra,132(sp)
 508751c:	ddc01f15 	stw	r23,124(sp)
 5087520:	dd801e15 	stw	r22,120(sp)
 5087524:	dd401d15 	stw	r21,116(sp)
 5087528:	dd001c15 	stw	r20,112(sp)
 508752c:	d9c00315 	stw	r7,12(sp)
 5087530:	2039883a 	mov	fp,r4
 5087534:	3023883a 	mov	r17,r6
 5087538:	2825883a 	mov	r18,r5
 508753c:	dc002417 	ldw	r16,144(sp)
 5087540:	3027883a 	mov	r19,r6
 5087544:	10000826 	beq	r2,zero,5087568 <_dtoa_r+0x6c>
 5087548:	21801117 	ldw	r6,68(r4)
 508754c:	00c00044 	movi	r3,1
 5087550:	100b883a 	mov	r5,r2
 5087554:	1986983a 	sll	r3,r3,r6
 5087558:	11800115 	stw	r6,4(r2)
 508755c:	10c00215 	stw	r3,8(r2)
 5087560:	508ac400 	call	508ac40 <_Bfree>
 5087564:	e0001015 	stw	zero,64(fp)
 5087568:	88002e16 	blt	r17,zero,5087624 <_dtoa_r+0x128>
 508756c:	80000015 	stw	zero,0(r16)
 5087570:	889ffc2c 	andhi	r2,r17,32752
 5087574:	00dffc34 	movhi	r3,32752
 5087578:	10c01c26 	beq	r2,r3,50875ec <_dtoa_r+0xf0>
 508757c:	000d883a 	mov	r6,zero
 5087580:	000f883a 	mov	r7,zero
 5087584:	9009883a 	mov	r4,r18
 5087588:	980b883a 	mov	r5,r19
 508758c:	50913a40 	call	50913a4 <__eqdf2>
 5087590:	10002b1e 	bne	r2,zero,5087640 <_dtoa_r+0x144>
 5087594:	d9c02317 	ldw	r7,140(sp)
 5087598:	00800044 	movi	r2,1
 508759c:	38800015 	stw	r2,0(r7)
 50875a0:	d8802517 	ldw	r2,148(sp)
 50875a4:	10019e26 	beq	r2,zero,5087c20 <_dtoa_r+0x724>
 50875a8:	d8c02517 	ldw	r3,148(sp)
 50875ac:	00814274 	movhi	r2,1289
 50875b0:	10978344 	addi	r2,r2,24077
 50875b4:	18800015 	stw	r2,0(r3)
 50875b8:	10bfffc4 	addi	r2,r2,-1
 50875bc:	dfc02117 	ldw	ra,132(sp)
 50875c0:	df002017 	ldw	fp,128(sp)
 50875c4:	ddc01f17 	ldw	r23,124(sp)
 50875c8:	dd801e17 	ldw	r22,120(sp)
 50875cc:	dd401d17 	ldw	r21,116(sp)
 50875d0:	dd001c17 	ldw	r20,112(sp)
 50875d4:	dcc01b17 	ldw	r19,108(sp)
 50875d8:	dc801a17 	ldw	r18,104(sp)
 50875dc:	dc401917 	ldw	r17,100(sp)
 50875e0:	dc001817 	ldw	r16,96(sp)
 50875e4:	dec02204 	addi	sp,sp,136
 50875e8:	f800283a 	ret
 50875ec:	d8c02317 	ldw	r3,140(sp)
 50875f0:	0089c3c4 	movi	r2,9999
 50875f4:	18800015 	stw	r2,0(r3)
 50875f8:	90017726 	beq	r18,zero,5087bd8 <_dtoa_r+0x6dc>
 50875fc:	00814274 	movhi	r2,1289
 5087600:	10979704 	addi	r2,r2,24156
 5087604:	d9002517 	ldw	r4,148(sp)
 5087608:	203fec26 	beq	r4,zero,50875bc <__alt_data_end+0xfffb93bc>
 508760c:	10c000c7 	ldb	r3,3(r2)
 5087610:	1801781e 	bne	r3,zero,5087bf4 <_dtoa_r+0x6f8>
 5087614:	10c000c4 	addi	r3,r2,3
 5087618:	d9802517 	ldw	r6,148(sp)
 508761c:	30c00015 	stw	r3,0(r6)
 5087620:	003fe606 	br	50875bc <__alt_data_end+0xfffb93bc>
 5087624:	04e00034 	movhi	r19,32768
 5087628:	9cffffc4 	addi	r19,r19,-1
 508762c:	00800044 	movi	r2,1
 5087630:	8ce6703a 	and	r19,r17,r19
 5087634:	80800015 	stw	r2,0(r16)
 5087638:	9823883a 	mov	r17,r19
 508763c:	003fcc06 	br	5087570 <__alt_data_end+0xfffb9370>
 5087640:	d8800204 	addi	r2,sp,8
 5087644:	d8800015 	stw	r2,0(sp)
 5087648:	d9c00104 	addi	r7,sp,4
 508764c:	900b883a 	mov	r5,r18
 5087650:	980d883a 	mov	r6,r19
 5087654:	e009883a 	mov	r4,fp
 5087658:	8820d53a 	srli	r16,r17,20
 508765c:	508b82c0 	call	508b82c <__d2b>
 5087660:	d8800915 	stw	r2,36(sp)
 5087664:	8001651e 	bne	r16,zero,5087bfc <_dtoa_r+0x700>
 5087668:	dd800217 	ldw	r22,8(sp)
 508766c:	dc000117 	ldw	r16,4(sp)
 5087670:	00800804 	movi	r2,32
 5087674:	b421883a 	add	r16,r22,r16
 5087678:	80c10c84 	addi	r3,r16,1074
 508767c:	10c2d10e 	bge	r2,r3,50881c4 <_dtoa_r+0xcc8>
 5087680:	00801004 	movi	r2,64
 5087684:	81010484 	addi	r4,r16,1042
 5087688:	10c7c83a 	sub	r3,r2,r3
 508768c:	9108d83a 	srl	r4,r18,r4
 5087690:	88e2983a 	sll	r17,r17,r3
 5087694:	2448b03a 	or	r4,r4,r17
 5087698:	509276c0 	call	509276c <__floatunsidf>
 508769c:	017f8434 	movhi	r5,65040
 50876a0:	01800044 	movi	r6,1
 50876a4:	1009883a 	mov	r4,r2
 50876a8:	194b883a 	add	r5,r3,r5
 50876ac:	843fffc4 	addi	r16,r16,-1
 50876b0:	d9801115 	stw	r6,68(sp)
 50876b4:	000d883a 	mov	r6,zero
 50876b8:	01cffe34 	movhi	r7,16376
 50876bc:	5091d140 	call	5091d14 <__subdf3>
 50876c0:	0198dbf4 	movhi	r6,25455
 50876c4:	01cff4f4 	movhi	r7,16339
 50876c8:	3190d844 	addi	r6,r6,17249
 50876cc:	39e1e9c4 	addi	r7,r7,-30809
 50876d0:	1009883a 	mov	r4,r2
 50876d4:	180b883a 	mov	r5,r3
 50876d8:	50915fc0 	call	50915fc <__muldf3>
 50876dc:	01a2d874 	movhi	r6,35681
 50876e0:	01cff1f4 	movhi	r7,16327
 50876e4:	31b22cc4 	addi	r6,r6,-14157
 50876e8:	39e28a04 	addi	r7,r7,-30168
 50876ec:	180b883a 	mov	r5,r3
 50876f0:	1009883a 	mov	r4,r2
 50876f4:	50902100 	call	5090210 <__adddf3>
 50876f8:	8009883a 	mov	r4,r16
 50876fc:	1029883a 	mov	r20,r2
 5087700:	1823883a 	mov	r17,r3
 5087704:	50926900 	call	5092690 <__floatsidf>
 5087708:	019427f4 	movhi	r6,20639
 508770c:	01cff4f4 	movhi	r7,16339
 5087710:	319e7ec4 	addi	r6,r6,31227
 5087714:	39d104c4 	addi	r7,r7,17427
 5087718:	1009883a 	mov	r4,r2
 508771c:	180b883a 	mov	r5,r3
 5087720:	50915fc0 	call	50915fc <__muldf3>
 5087724:	100d883a 	mov	r6,r2
 5087728:	180f883a 	mov	r7,r3
 508772c:	a009883a 	mov	r4,r20
 5087730:	880b883a 	mov	r5,r17
 5087734:	50902100 	call	5090210 <__adddf3>
 5087738:	1009883a 	mov	r4,r2
 508773c:	180b883a 	mov	r5,r3
 5087740:	1029883a 	mov	r20,r2
 5087744:	1823883a 	mov	r17,r3
 5087748:	50926100 	call	5092610 <__fixdfsi>
 508774c:	000d883a 	mov	r6,zero
 5087750:	000f883a 	mov	r7,zero
 5087754:	a009883a 	mov	r4,r20
 5087758:	880b883a 	mov	r5,r17
 508775c:	d8800515 	stw	r2,20(sp)
 5087760:	50915080 	call	5091508 <__ledf2>
 5087764:	10028716 	blt	r2,zero,5088184 <_dtoa_r+0xc88>
 5087768:	d8c00517 	ldw	r3,20(sp)
 508776c:	00800584 	movi	r2,22
 5087770:	10c27536 	bltu	r2,r3,5088148 <_dtoa_r+0xc4c>
 5087774:	180490fa 	slli	r2,r3,3
 5087778:	00c14274 	movhi	r3,1289
 508777c:	18d7b304 	addi	r3,r3,24268
 5087780:	1885883a 	add	r2,r3,r2
 5087784:	11000017 	ldw	r4,0(r2)
 5087788:	11400117 	ldw	r5,4(r2)
 508778c:	900d883a 	mov	r6,r18
 5087790:	980f883a 	mov	r7,r19
 5087794:	509142c0 	call	509142c <__gedf2>
 5087798:	00828d0e 	bge	zero,r2,50881d0 <_dtoa_r+0xcd4>
 508779c:	d9000517 	ldw	r4,20(sp)
 50877a0:	d8000e15 	stw	zero,56(sp)
 50877a4:	213fffc4 	addi	r4,r4,-1
 50877a8:	d9000515 	stw	r4,20(sp)
 50877ac:	b42dc83a 	sub	r22,r22,r16
 50877b0:	b5bfffc4 	addi	r22,r22,-1
 50877b4:	b0026f16 	blt	r22,zero,5088174 <_dtoa_r+0xc78>
 50877b8:	d8000815 	stw	zero,32(sp)
 50877bc:	d9c00517 	ldw	r7,20(sp)
 50877c0:	38026416 	blt	r7,zero,5088154 <_dtoa_r+0xc58>
 50877c4:	b1ed883a 	add	r22,r22,r7
 50877c8:	d9c00d15 	stw	r7,52(sp)
 50877cc:	d8000a15 	stw	zero,40(sp)
 50877d0:	d9800317 	ldw	r6,12(sp)
 50877d4:	00800244 	movi	r2,9
 50877d8:	11811436 	bltu	r2,r6,5087c2c <_dtoa_r+0x730>
 50877dc:	00800144 	movi	r2,5
 50877e0:	1184e10e 	bge	r2,r6,5088b68 <_dtoa_r+0x166c>
 50877e4:	31bfff04 	addi	r6,r6,-4
 50877e8:	d9800315 	stw	r6,12(sp)
 50877ec:	0023883a 	mov	r17,zero
 50877f0:	d9800317 	ldw	r6,12(sp)
 50877f4:	008000c4 	movi	r2,3
 50877f8:	30836726 	beq	r6,r2,5088598 <_dtoa_r+0x109c>
 50877fc:	1183410e 	bge	r2,r6,5088504 <_dtoa_r+0x1008>
 5087800:	d9c00317 	ldw	r7,12(sp)
 5087804:	00800104 	movi	r2,4
 5087808:	38827c26 	beq	r7,r2,50881fc <_dtoa_r+0xd00>
 508780c:	00800144 	movi	r2,5
 5087810:	3884c41e 	bne	r7,r2,5088b24 <_dtoa_r+0x1628>
 5087814:	00800044 	movi	r2,1
 5087818:	d8800b15 	stw	r2,44(sp)
 508781c:	d8c00517 	ldw	r3,20(sp)
 5087820:	d9002217 	ldw	r4,136(sp)
 5087824:	1907883a 	add	r3,r3,r4
 5087828:	19800044 	addi	r6,r3,1
 508782c:	d8c00c15 	stw	r3,48(sp)
 5087830:	d9800615 	stw	r6,24(sp)
 5087834:	0183a40e 	bge	zero,r6,50886c8 <_dtoa_r+0x11cc>
 5087838:	d9800617 	ldw	r6,24(sp)
 508783c:	3021883a 	mov	r16,r6
 5087840:	e0001115 	stw	zero,68(fp)
 5087844:	008005c4 	movi	r2,23
 5087848:	1184c92e 	bgeu	r2,r6,5088b70 <_dtoa_r+0x1674>
 508784c:	00c00044 	movi	r3,1
 5087850:	00800104 	movi	r2,4
 5087854:	1085883a 	add	r2,r2,r2
 5087858:	11000504 	addi	r4,r2,20
 508785c:	180b883a 	mov	r5,r3
 5087860:	18c00044 	addi	r3,r3,1
 5087864:	313ffb2e 	bgeu	r6,r4,5087854 <__alt_data_end+0xfffb9654>
 5087868:	e1401115 	stw	r5,68(fp)
 508786c:	e009883a 	mov	r4,fp
 5087870:	508ab980 	call	508ab98 <_Balloc>
 5087874:	d8800715 	stw	r2,28(sp)
 5087878:	e0801015 	stw	r2,64(fp)
 508787c:	00800384 	movi	r2,14
 5087880:	1400f736 	bltu	r2,r16,5087c60 <_dtoa_r+0x764>
 5087884:	8800f626 	beq	r17,zero,5087c60 <_dtoa_r+0x764>
 5087888:	d9c00517 	ldw	r7,20(sp)
 508788c:	01c39a0e 	bge	zero,r7,50886f8 <_dtoa_r+0x11fc>
 5087890:	388003cc 	andi	r2,r7,15
 5087894:	100490fa 	slli	r2,r2,3
 5087898:	382bd13a 	srai	r21,r7,4
 508789c:	00c14274 	movhi	r3,1289
 50878a0:	18d7b304 	addi	r3,r3,24268
 50878a4:	1885883a 	add	r2,r3,r2
 50878a8:	a8c0040c 	andi	r3,r21,16
 50878ac:	12400017 	ldw	r9,0(r2)
 50878b0:	12000117 	ldw	r8,4(r2)
 50878b4:	18037926 	beq	r3,zero,508869c <_dtoa_r+0x11a0>
 50878b8:	00814274 	movhi	r2,1289
 50878bc:	1097a904 	addi	r2,r2,24228
 50878c0:	11800817 	ldw	r6,32(r2)
 50878c4:	11c00917 	ldw	r7,36(r2)
 50878c8:	9009883a 	mov	r4,r18
 50878cc:	980b883a 	mov	r5,r19
 50878d0:	da001715 	stw	r8,92(sp)
 50878d4:	da401615 	stw	r9,88(sp)
 50878d8:	5090abc0 	call	5090abc <__divdf3>
 50878dc:	da001717 	ldw	r8,92(sp)
 50878e0:	da401617 	ldw	r9,88(sp)
 50878e4:	ad4003cc 	andi	r21,r21,15
 50878e8:	040000c4 	movi	r16,3
 50878ec:	1023883a 	mov	r17,r2
 50878f0:	1829883a 	mov	r20,r3
 50878f4:	a8001126 	beq	r21,zero,508793c <_dtoa_r+0x440>
 50878f8:	05c14274 	movhi	r23,1289
 50878fc:	bdd7a904 	addi	r23,r23,24228
 5087900:	4805883a 	mov	r2,r9
 5087904:	4007883a 	mov	r3,r8
 5087908:	a980004c 	andi	r6,r21,1
 508790c:	1009883a 	mov	r4,r2
 5087910:	a82bd07a 	srai	r21,r21,1
 5087914:	180b883a 	mov	r5,r3
 5087918:	30000426 	beq	r6,zero,508792c <_dtoa_r+0x430>
 508791c:	b9800017 	ldw	r6,0(r23)
 5087920:	b9c00117 	ldw	r7,4(r23)
 5087924:	84000044 	addi	r16,r16,1
 5087928:	50915fc0 	call	50915fc <__muldf3>
 508792c:	bdc00204 	addi	r23,r23,8
 5087930:	a83ff51e 	bne	r21,zero,5087908 <__alt_data_end+0xfffb9708>
 5087934:	1013883a 	mov	r9,r2
 5087938:	1811883a 	mov	r8,r3
 508793c:	480d883a 	mov	r6,r9
 5087940:	400f883a 	mov	r7,r8
 5087944:	8809883a 	mov	r4,r17
 5087948:	a00b883a 	mov	r5,r20
 508794c:	5090abc0 	call	5090abc <__divdf3>
 5087950:	d8800f15 	stw	r2,60(sp)
 5087954:	d8c01015 	stw	r3,64(sp)
 5087958:	d8c00e17 	ldw	r3,56(sp)
 508795c:	18000626 	beq	r3,zero,5087978 <_dtoa_r+0x47c>
 5087960:	d9000f17 	ldw	r4,60(sp)
 5087964:	d9401017 	ldw	r5,64(sp)
 5087968:	000d883a 	mov	r6,zero
 508796c:	01cffc34 	movhi	r7,16368
 5087970:	50915080 	call	5091508 <__ledf2>
 5087974:	10040b16 	blt	r2,zero,50889a4 <_dtoa_r+0x14a8>
 5087978:	8009883a 	mov	r4,r16
 508797c:	50926900 	call	5092690 <__floatsidf>
 5087980:	d9800f17 	ldw	r6,60(sp)
 5087984:	d9c01017 	ldw	r7,64(sp)
 5087988:	1009883a 	mov	r4,r2
 508798c:	180b883a 	mov	r5,r3
 5087990:	50915fc0 	call	50915fc <__muldf3>
 5087994:	000d883a 	mov	r6,zero
 5087998:	01d00734 	movhi	r7,16412
 508799c:	1009883a 	mov	r4,r2
 50879a0:	180b883a 	mov	r5,r3
 50879a4:	50902100 	call	5090210 <__adddf3>
 50879a8:	1021883a 	mov	r16,r2
 50879ac:	d8800617 	ldw	r2,24(sp)
 50879b0:	047f3034 	movhi	r17,64704
 50879b4:	1c63883a 	add	r17,r3,r17
 50879b8:	10031826 	beq	r2,zero,508861c <_dtoa_r+0x1120>
 50879bc:	d8c00517 	ldw	r3,20(sp)
 50879c0:	db000617 	ldw	r12,24(sp)
 50879c4:	d8c01315 	stw	r3,76(sp)
 50879c8:	d9000b17 	ldw	r4,44(sp)
 50879cc:	20038f26 	beq	r4,zero,508880c <_dtoa_r+0x1310>
 50879d0:	60bfffc4 	addi	r2,r12,-1
 50879d4:	100490fa 	slli	r2,r2,3
 50879d8:	00c14274 	movhi	r3,1289
 50879dc:	18d7b304 	addi	r3,r3,24268
 50879e0:	1885883a 	add	r2,r3,r2
 50879e4:	11800017 	ldw	r6,0(r2)
 50879e8:	11c00117 	ldw	r7,4(r2)
 50879ec:	d8800717 	ldw	r2,28(sp)
 50879f0:	0009883a 	mov	r4,zero
 50879f4:	014ff834 	movhi	r5,16352
 50879f8:	db001615 	stw	r12,88(sp)
 50879fc:	15c00044 	addi	r23,r2,1
 5087a00:	5090abc0 	call	5090abc <__divdf3>
 5087a04:	800d883a 	mov	r6,r16
 5087a08:	880f883a 	mov	r7,r17
 5087a0c:	1009883a 	mov	r4,r2
 5087a10:	180b883a 	mov	r5,r3
 5087a14:	5091d140 	call	5091d14 <__subdf3>
 5087a18:	d9401017 	ldw	r5,64(sp)
 5087a1c:	d9000f17 	ldw	r4,60(sp)
 5087a20:	102b883a 	mov	r21,r2
 5087a24:	d8c01215 	stw	r3,72(sp)
 5087a28:	50926100 	call	5092610 <__fixdfsi>
 5087a2c:	1009883a 	mov	r4,r2
 5087a30:	1029883a 	mov	r20,r2
 5087a34:	50926900 	call	5092690 <__floatsidf>
 5087a38:	d9000f17 	ldw	r4,60(sp)
 5087a3c:	d9401017 	ldw	r5,64(sp)
 5087a40:	100d883a 	mov	r6,r2
 5087a44:	180f883a 	mov	r7,r3
 5087a48:	5091d140 	call	5091d14 <__subdf3>
 5087a4c:	1823883a 	mov	r17,r3
 5087a50:	d8c00717 	ldw	r3,28(sp)
 5087a54:	d9401217 	ldw	r5,72(sp)
 5087a58:	a2000c04 	addi	r8,r20,48
 5087a5c:	1021883a 	mov	r16,r2
 5087a60:	1a000005 	stb	r8,0(r3)
 5087a64:	800d883a 	mov	r6,r16
 5087a68:	880f883a 	mov	r7,r17
 5087a6c:	a809883a 	mov	r4,r21
 5087a70:	4029883a 	mov	r20,r8
 5087a74:	509142c0 	call	509142c <__gedf2>
 5087a78:	00841d16 	blt	zero,r2,5088af0 <_dtoa_r+0x15f4>
 5087a7c:	800d883a 	mov	r6,r16
 5087a80:	880f883a 	mov	r7,r17
 5087a84:	0009883a 	mov	r4,zero
 5087a88:	014ffc34 	movhi	r5,16368
 5087a8c:	5091d140 	call	5091d14 <__subdf3>
 5087a90:	d9401217 	ldw	r5,72(sp)
 5087a94:	100d883a 	mov	r6,r2
 5087a98:	180f883a 	mov	r7,r3
 5087a9c:	a809883a 	mov	r4,r21
 5087aa0:	509142c0 	call	509142c <__gedf2>
 5087aa4:	db001617 	ldw	r12,88(sp)
 5087aa8:	00840e16 	blt	zero,r2,5088ae4 <_dtoa_r+0x15e8>
 5087aac:	00800044 	movi	r2,1
 5087ab0:	13006b0e 	bge	r2,r12,5087c60 <_dtoa_r+0x764>
 5087ab4:	d9000717 	ldw	r4,28(sp)
 5087ab8:	dd800f15 	stw	r22,60(sp)
 5087abc:	dcc01015 	stw	r19,64(sp)
 5087ac0:	2319883a 	add	r12,r4,r12
 5087ac4:	dcc01217 	ldw	r19,72(sp)
 5087ac8:	602d883a 	mov	r22,r12
 5087acc:	dc801215 	stw	r18,72(sp)
 5087ad0:	b825883a 	mov	r18,r23
 5087ad4:	00000906 	br	5087afc <_dtoa_r+0x600>
 5087ad8:	5091d140 	call	5091d14 <__subdf3>
 5087adc:	a80d883a 	mov	r6,r21
 5087ae0:	980f883a 	mov	r7,r19
 5087ae4:	1009883a 	mov	r4,r2
 5087ae8:	180b883a 	mov	r5,r3
 5087aec:	50915080 	call	5091508 <__ledf2>
 5087af0:	1003e816 	blt	r2,zero,5088a94 <_dtoa_r+0x1598>
 5087af4:	b825883a 	mov	r18,r23
 5087af8:	bd83e926 	beq	r23,r22,5088aa0 <_dtoa_r+0x15a4>
 5087afc:	a809883a 	mov	r4,r21
 5087b00:	980b883a 	mov	r5,r19
 5087b04:	000d883a 	mov	r6,zero
 5087b08:	01d00934 	movhi	r7,16420
 5087b0c:	50915fc0 	call	50915fc <__muldf3>
 5087b10:	000d883a 	mov	r6,zero
 5087b14:	01d00934 	movhi	r7,16420
 5087b18:	8009883a 	mov	r4,r16
 5087b1c:	880b883a 	mov	r5,r17
 5087b20:	102b883a 	mov	r21,r2
 5087b24:	1827883a 	mov	r19,r3
 5087b28:	50915fc0 	call	50915fc <__muldf3>
 5087b2c:	180b883a 	mov	r5,r3
 5087b30:	1009883a 	mov	r4,r2
 5087b34:	1821883a 	mov	r16,r3
 5087b38:	1023883a 	mov	r17,r2
 5087b3c:	50926100 	call	5092610 <__fixdfsi>
 5087b40:	1009883a 	mov	r4,r2
 5087b44:	1029883a 	mov	r20,r2
 5087b48:	50926900 	call	5092690 <__floatsidf>
 5087b4c:	8809883a 	mov	r4,r17
 5087b50:	800b883a 	mov	r5,r16
 5087b54:	100d883a 	mov	r6,r2
 5087b58:	180f883a 	mov	r7,r3
 5087b5c:	5091d140 	call	5091d14 <__subdf3>
 5087b60:	a5000c04 	addi	r20,r20,48
 5087b64:	a80d883a 	mov	r6,r21
 5087b68:	980f883a 	mov	r7,r19
 5087b6c:	1009883a 	mov	r4,r2
 5087b70:	180b883a 	mov	r5,r3
 5087b74:	95000005 	stb	r20,0(r18)
 5087b78:	1021883a 	mov	r16,r2
 5087b7c:	1823883a 	mov	r17,r3
 5087b80:	50915080 	call	5091508 <__ledf2>
 5087b84:	bdc00044 	addi	r23,r23,1
 5087b88:	800d883a 	mov	r6,r16
 5087b8c:	880f883a 	mov	r7,r17
 5087b90:	0009883a 	mov	r4,zero
 5087b94:	014ffc34 	movhi	r5,16368
 5087b98:	103fcf0e 	bge	r2,zero,5087ad8 <__alt_data_end+0xfffb98d8>
 5087b9c:	d8c01317 	ldw	r3,76(sp)
 5087ba0:	d8c00515 	stw	r3,20(sp)
 5087ba4:	d9400917 	ldw	r5,36(sp)
 5087ba8:	e009883a 	mov	r4,fp
 5087bac:	508ac400 	call	508ac40 <_Bfree>
 5087bb0:	d9000517 	ldw	r4,20(sp)
 5087bb4:	d9802317 	ldw	r6,140(sp)
 5087bb8:	d9c02517 	ldw	r7,148(sp)
 5087bbc:	b8000005 	stb	zero,0(r23)
 5087bc0:	20800044 	addi	r2,r4,1
 5087bc4:	30800015 	stw	r2,0(r6)
 5087bc8:	3802aa26 	beq	r7,zero,5088674 <_dtoa_r+0x1178>
 5087bcc:	3dc00015 	stw	r23,0(r7)
 5087bd0:	d8800717 	ldw	r2,28(sp)
 5087bd4:	003e7906 	br	50875bc <__alt_data_end+0xfffb93bc>
 5087bd8:	00800434 	movhi	r2,16
 5087bdc:	10bfffc4 	addi	r2,r2,-1
 5087be0:	88a2703a 	and	r17,r17,r2
 5087be4:	883e851e 	bne	r17,zero,50875fc <__alt_data_end+0xfffb93fc>
 5087be8:	00814274 	movhi	r2,1289
 5087bec:	10979404 	addi	r2,r2,24144
 5087bf0:	003e8406 	br	5087604 <__alt_data_end+0xfffb9404>
 5087bf4:	10c00204 	addi	r3,r2,8
 5087bf8:	003e8706 	br	5087618 <__alt_data_end+0xfffb9418>
 5087bfc:	01400434 	movhi	r5,16
 5087c00:	297fffc4 	addi	r5,r5,-1
 5087c04:	994a703a 	and	r5,r19,r5
 5087c08:	9009883a 	mov	r4,r18
 5087c0c:	843f0044 	addi	r16,r16,-1023
 5087c10:	294ffc34 	orhi	r5,r5,16368
 5087c14:	dd800217 	ldw	r22,8(sp)
 5087c18:	d8001115 	stw	zero,68(sp)
 5087c1c:	003ea506 	br	50876b4 <__alt_data_end+0xfffb94b4>
 5087c20:	00814274 	movhi	r2,1289
 5087c24:	10978304 	addi	r2,r2,24076
 5087c28:	003e6406 	br	50875bc <__alt_data_end+0xfffb93bc>
 5087c2c:	e0001115 	stw	zero,68(fp)
 5087c30:	000b883a 	mov	r5,zero
 5087c34:	e009883a 	mov	r4,fp
 5087c38:	508ab980 	call	508ab98 <_Balloc>
 5087c3c:	01bfffc4 	movi	r6,-1
 5087c40:	01c00044 	movi	r7,1
 5087c44:	d8800715 	stw	r2,28(sp)
 5087c48:	d9800c15 	stw	r6,48(sp)
 5087c4c:	e0801015 	stw	r2,64(fp)
 5087c50:	d8000315 	stw	zero,12(sp)
 5087c54:	d9c00b15 	stw	r7,44(sp)
 5087c58:	d9800615 	stw	r6,24(sp)
 5087c5c:	d8002215 	stw	zero,136(sp)
 5087c60:	d8800117 	ldw	r2,4(sp)
 5087c64:	10008916 	blt	r2,zero,5087e8c <_dtoa_r+0x990>
 5087c68:	d9000517 	ldw	r4,20(sp)
 5087c6c:	00c00384 	movi	r3,14
 5087c70:	19008616 	blt	r3,r4,5087e8c <_dtoa_r+0x990>
 5087c74:	200490fa 	slli	r2,r4,3
 5087c78:	00c14274 	movhi	r3,1289
 5087c7c:	d9802217 	ldw	r6,136(sp)
 5087c80:	18d7b304 	addi	r3,r3,24268
 5087c84:	1885883a 	add	r2,r3,r2
 5087c88:	14000017 	ldw	r16,0(r2)
 5087c8c:	14400117 	ldw	r17,4(r2)
 5087c90:	30016316 	blt	r6,zero,5088220 <_dtoa_r+0xd24>
 5087c94:	800d883a 	mov	r6,r16
 5087c98:	880f883a 	mov	r7,r17
 5087c9c:	9009883a 	mov	r4,r18
 5087ca0:	980b883a 	mov	r5,r19
 5087ca4:	5090abc0 	call	5090abc <__divdf3>
 5087ca8:	180b883a 	mov	r5,r3
 5087cac:	1009883a 	mov	r4,r2
 5087cb0:	50926100 	call	5092610 <__fixdfsi>
 5087cb4:	1009883a 	mov	r4,r2
 5087cb8:	102b883a 	mov	r21,r2
 5087cbc:	50926900 	call	5092690 <__floatsidf>
 5087cc0:	800d883a 	mov	r6,r16
 5087cc4:	880f883a 	mov	r7,r17
 5087cc8:	1009883a 	mov	r4,r2
 5087ccc:	180b883a 	mov	r5,r3
 5087cd0:	50915fc0 	call	50915fc <__muldf3>
 5087cd4:	100d883a 	mov	r6,r2
 5087cd8:	180f883a 	mov	r7,r3
 5087cdc:	9009883a 	mov	r4,r18
 5087ce0:	980b883a 	mov	r5,r19
 5087ce4:	5091d140 	call	5091d14 <__subdf3>
 5087ce8:	d9c00717 	ldw	r7,28(sp)
 5087cec:	1009883a 	mov	r4,r2
 5087cf0:	a8800c04 	addi	r2,r21,48
 5087cf4:	38800005 	stb	r2,0(r7)
 5087cf8:	3dc00044 	addi	r23,r7,1
 5087cfc:	d9c00617 	ldw	r7,24(sp)
 5087d00:	01800044 	movi	r6,1
 5087d04:	180b883a 	mov	r5,r3
 5087d08:	2005883a 	mov	r2,r4
 5087d0c:	39803826 	beq	r7,r6,5087df0 <_dtoa_r+0x8f4>
 5087d10:	000d883a 	mov	r6,zero
 5087d14:	01d00934 	movhi	r7,16420
 5087d18:	50915fc0 	call	50915fc <__muldf3>
 5087d1c:	000d883a 	mov	r6,zero
 5087d20:	000f883a 	mov	r7,zero
 5087d24:	1009883a 	mov	r4,r2
 5087d28:	180b883a 	mov	r5,r3
 5087d2c:	1025883a 	mov	r18,r2
 5087d30:	1827883a 	mov	r19,r3
 5087d34:	50913a40 	call	50913a4 <__eqdf2>
 5087d38:	103f9a26 	beq	r2,zero,5087ba4 <__alt_data_end+0xfffb99a4>
 5087d3c:	d9c00617 	ldw	r7,24(sp)
 5087d40:	d8c00717 	ldw	r3,28(sp)
 5087d44:	b829883a 	mov	r20,r23
 5087d48:	38bfffc4 	addi	r2,r7,-1
 5087d4c:	18ad883a 	add	r22,r3,r2
 5087d50:	00000a06 	br	5087d7c <_dtoa_r+0x880>
 5087d54:	50915fc0 	call	50915fc <__muldf3>
 5087d58:	000d883a 	mov	r6,zero
 5087d5c:	000f883a 	mov	r7,zero
 5087d60:	1009883a 	mov	r4,r2
 5087d64:	180b883a 	mov	r5,r3
 5087d68:	1025883a 	mov	r18,r2
 5087d6c:	1827883a 	mov	r19,r3
 5087d70:	b829883a 	mov	r20,r23
 5087d74:	50913a40 	call	50913a4 <__eqdf2>
 5087d78:	103f8a26 	beq	r2,zero,5087ba4 <__alt_data_end+0xfffb99a4>
 5087d7c:	800d883a 	mov	r6,r16
 5087d80:	880f883a 	mov	r7,r17
 5087d84:	9009883a 	mov	r4,r18
 5087d88:	980b883a 	mov	r5,r19
 5087d8c:	5090abc0 	call	5090abc <__divdf3>
 5087d90:	180b883a 	mov	r5,r3
 5087d94:	1009883a 	mov	r4,r2
 5087d98:	50926100 	call	5092610 <__fixdfsi>
 5087d9c:	1009883a 	mov	r4,r2
 5087da0:	102b883a 	mov	r21,r2
 5087da4:	50926900 	call	5092690 <__floatsidf>
 5087da8:	800d883a 	mov	r6,r16
 5087dac:	880f883a 	mov	r7,r17
 5087db0:	1009883a 	mov	r4,r2
 5087db4:	180b883a 	mov	r5,r3
 5087db8:	50915fc0 	call	50915fc <__muldf3>
 5087dbc:	100d883a 	mov	r6,r2
 5087dc0:	180f883a 	mov	r7,r3
 5087dc4:	9009883a 	mov	r4,r18
 5087dc8:	980b883a 	mov	r5,r19
 5087dcc:	5091d140 	call	5091d14 <__subdf3>
 5087dd0:	aa000c04 	addi	r8,r21,48
 5087dd4:	a2000005 	stb	r8,0(r20)
 5087dd8:	000d883a 	mov	r6,zero
 5087ddc:	01d00934 	movhi	r7,16420
 5087de0:	1009883a 	mov	r4,r2
 5087de4:	180b883a 	mov	r5,r3
 5087de8:	a5c00044 	addi	r23,r20,1
 5087dec:	b53fd91e 	bne	r22,r20,5087d54 <__alt_data_end+0xfffb9b54>
 5087df0:	100d883a 	mov	r6,r2
 5087df4:	180f883a 	mov	r7,r3
 5087df8:	1009883a 	mov	r4,r2
 5087dfc:	180b883a 	mov	r5,r3
 5087e00:	50902100 	call	5090210 <__adddf3>
 5087e04:	100d883a 	mov	r6,r2
 5087e08:	180f883a 	mov	r7,r3
 5087e0c:	8009883a 	mov	r4,r16
 5087e10:	880b883a 	mov	r5,r17
 5087e14:	1027883a 	mov	r19,r2
 5087e18:	1825883a 	mov	r18,r3
 5087e1c:	50915080 	call	5091508 <__ledf2>
 5087e20:	10000816 	blt	r2,zero,5087e44 <_dtoa_r+0x948>
 5087e24:	980d883a 	mov	r6,r19
 5087e28:	900f883a 	mov	r7,r18
 5087e2c:	8009883a 	mov	r4,r16
 5087e30:	880b883a 	mov	r5,r17
 5087e34:	50913a40 	call	50913a4 <__eqdf2>
 5087e38:	103f5a1e 	bne	r2,zero,5087ba4 <__alt_data_end+0xfffb99a4>
 5087e3c:	ad40004c 	andi	r21,r21,1
 5087e40:	a83f5826 	beq	r21,zero,5087ba4 <__alt_data_end+0xfffb99a4>
 5087e44:	bd3fffc3 	ldbu	r20,-1(r23)
 5087e48:	b8bfffc4 	addi	r2,r23,-1
 5087e4c:	1007883a 	mov	r3,r2
 5087e50:	01400e44 	movi	r5,57
 5087e54:	d9800717 	ldw	r6,28(sp)
 5087e58:	00000506 	br	5087e70 <_dtoa_r+0x974>
 5087e5c:	18ffffc4 	addi	r3,r3,-1
 5087e60:	11824726 	beq	r2,r6,5088780 <_dtoa_r+0x1284>
 5087e64:	1d000003 	ldbu	r20,0(r3)
 5087e68:	102f883a 	mov	r23,r2
 5087e6c:	10bfffc4 	addi	r2,r2,-1
 5087e70:	a1003fcc 	andi	r4,r20,255
 5087e74:	2100201c 	xori	r4,r4,128
 5087e78:	213fe004 	addi	r4,r4,-128
 5087e7c:	217ff726 	beq	r4,r5,5087e5c <__alt_data_end+0xfffb9c5c>
 5087e80:	a2000044 	addi	r8,r20,1
 5087e84:	12000005 	stb	r8,0(r2)
 5087e88:	003f4606 	br	5087ba4 <__alt_data_end+0xfffb99a4>
 5087e8c:	d9000b17 	ldw	r4,44(sp)
 5087e90:	2000c826 	beq	r4,zero,50881b4 <_dtoa_r+0xcb8>
 5087e94:	d9800317 	ldw	r6,12(sp)
 5087e98:	00c00044 	movi	r3,1
 5087e9c:	1980f90e 	bge	r3,r6,5088284 <_dtoa_r+0xd88>
 5087ea0:	d8800617 	ldw	r2,24(sp)
 5087ea4:	d8c00a17 	ldw	r3,40(sp)
 5087ea8:	157fffc4 	addi	r21,r2,-1
 5087eac:	1d41f316 	blt	r3,r21,508867c <_dtoa_r+0x1180>
 5087eb0:	1d6bc83a 	sub	r21,r3,r21
 5087eb4:	d9c00617 	ldw	r7,24(sp)
 5087eb8:	3802aa16 	blt	r7,zero,5088964 <_dtoa_r+0x1468>
 5087ebc:	dd000817 	ldw	r20,32(sp)
 5087ec0:	d8800617 	ldw	r2,24(sp)
 5087ec4:	d8c00817 	ldw	r3,32(sp)
 5087ec8:	01400044 	movi	r5,1
 5087ecc:	e009883a 	mov	r4,fp
 5087ed0:	1887883a 	add	r3,r3,r2
 5087ed4:	d8c00815 	stw	r3,32(sp)
 5087ed8:	b0ad883a 	add	r22,r22,r2
 5087edc:	508afa40 	call	508afa4 <__i2b>
 5087ee0:	1023883a 	mov	r17,r2
 5087ee4:	a0000826 	beq	r20,zero,5087f08 <_dtoa_r+0xa0c>
 5087ee8:	0580070e 	bge	zero,r22,5087f08 <_dtoa_r+0xa0c>
 5087eec:	a005883a 	mov	r2,r20
 5087ef0:	b500b916 	blt	r22,r20,50881d8 <_dtoa_r+0xcdc>
 5087ef4:	d9000817 	ldw	r4,32(sp)
 5087ef8:	a0a9c83a 	sub	r20,r20,r2
 5087efc:	b0adc83a 	sub	r22,r22,r2
 5087f00:	2089c83a 	sub	r4,r4,r2
 5087f04:	d9000815 	stw	r4,32(sp)
 5087f08:	d9800a17 	ldw	r6,40(sp)
 5087f0c:	0181810e 	bge	zero,r6,5088514 <_dtoa_r+0x1018>
 5087f10:	d9c00b17 	ldw	r7,44(sp)
 5087f14:	3800b326 	beq	r7,zero,50881e4 <_dtoa_r+0xce8>
 5087f18:	a800b226 	beq	r21,zero,50881e4 <_dtoa_r+0xce8>
 5087f1c:	880b883a 	mov	r5,r17
 5087f20:	a80d883a 	mov	r6,r21
 5087f24:	e009883a 	mov	r4,fp
 5087f28:	508b1d80 	call	508b1d8 <__pow5mult>
 5087f2c:	d9800917 	ldw	r6,36(sp)
 5087f30:	100b883a 	mov	r5,r2
 5087f34:	e009883a 	mov	r4,fp
 5087f38:	1023883a 	mov	r17,r2
 5087f3c:	508afe00 	call	508afe0 <__multiply>
 5087f40:	1021883a 	mov	r16,r2
 5087f44:	d8800a17 	ldw	r2,40(sp)
 5087f48:	d9400917 	ldw	r5,36(sp)
 5087f4c:	e009883a 	mov	r4,fp
 5087f50:	1545c83a 	sub	r2,r2,r21
 5087f54:	d8800a15 	stw	r2,40(sp)
 5087f58:	508ac400 	call	508ac40 <_Bfree>
 5087f5c:	d8c00a17 	ldw	r3,40(sp)
 5087f60:	18009f1e 	bne	r3,zero,50881e0 <_dtoa_r+0xce4>
 5087f64:	05c00044 	movi	r23,1
 5087f68:	e009883a 	mov	r4,fp
 5087f6c:	b80b883a 	mov	r5,r23
 5087f70:	508afa40 	call	508afa4 <__i2b>
 5087f74:	d9000d17 	ldw	r4,52(sp)
 5087f78:	102b883a 	mov	r21,r2
 5087f7c:	2000ce26 	beq	r4,zero,50882b8 <_dtoa_r+0xdbc>
 5087f80:	200d883a 	mov	r6,r4
 5087f84:	100b883a 	mov	r5,r2
 5087f88:	e009883a 	mov	r4,fp
 5087f8c:	508b1d80 	call	508b1d8 <__pow5mult>
 5087f90:	d9800317 	ldw	r6,12(sp)
 5087f94:	102b883a 	mov	r21,r2
 5087f98:	b981810e 	bge	r23,r6,50885a0 <_dtoa_r+0x10a4>
 5087f9c:	0027883a 	mov	r19,zero
 5087fa0:	a8800417 	ldw	r2,16(r21)
 5087fa4:	05c00804 	movi	r23,32
 5087fa8:	10800104 	addi	r2,r2,4
 5087fac:	1085883a 	add	r2,r2,r2
 5087fb0:	1085883a 	add	r2,r2,r2
 5087fb4:	a885883a 	add	r2,r21,r2
 5087fb8:	11000017 	ldw	r4,0(r2)
 5087fbc:	508ae8c0 	call	508ae8c <__hi0bits>
 5087fc0:	b885c83a 	sub	r2,r23,r2
 5087fc4:	1585883a 	add	r2,r2,r22
 5087fc8:	108007cc 	andi	r2,r2,31
 5087fcc:	1000b326 	beq	r2,zero,508829c <_dtoa_r+0xda0>
 5087fd0:	00c00804 	movi	r3,32
 5087fd4:	1887c83a 	sub	r3,r3,r2
 5087fd8:	01000104 	movi	r4,4
 5087fdc:	20c2cd0e 	bge	r4,r3,5088b14 <_dtoa_r+0x1618>
 5087fe0:	00c00704 	movi	r3,28
 5087fe4:	1885c83a 	sub	r2,r3,r2
 5087fe8:	d8c00817 	ldw	r3,32(sp)
 5087fec:	a0a9883a 	add	r20,r20,r2
 5087ff0:	b0ad883a 	add	r22,r22,r2
 5087ff4:	1887883a 	add	r3,r3,r2
 5087ff8:	d8c00815 	stw	r3,32(sp)
 5087ffc:	d9800817 	ldw	r6,32(sp)
 5088000:	0180040e 	bge	zero,r6,5088014 <_dtoa_r+0xb18>
 5088004:	800b883a 	mov	r5,r16
 5088008:	e009883a 	mov	r4,fp
 508800c:	508b3180 	call	508b318 <__lshift>
 5088010:	1021883a 	mov	r16,r2
 5088014:	0580050e 	bge	zero,r22,508802c <_dtoa_r+0xb30>
 5088018:	a80b883a 	mov	r5,r21
 508801c:	b00d883a 	mov	r6,r22
 5088020:	e009883a 	mov	r4,fp
 5088024:	508b3180 	call	508b318 <__lshift>
 5088028:	102b883a 	mov	r21,r2
 508802c:	d9c00e17 	ldw	r7,56(sp)
 5088030:	3801211e 	bne	r7,zero,50884b8 <_dtoa_r+0xfbc>
 5088034:	d9800617 	ldw	r6,24(sp)
 5088038:	0181380e 	bge	zero,r6,508851c <_dtoa_r+0x1020>
 508803c:	d8c00b17 	ldw	r3,44(sp)
 5088040:	1800ab1e 	bne	r3,zero,50882f0 <_dtoa_r+0xdf4>
 5088044:	dc800717 	ldw	r18,28(sp)
 5088048:	dcc00617 	ldw	r19,24(sp)
 508804c:	9029883a 	mov	r20,r18
 5088050:	00000206 	br	508805c <_dtoa_r+0xb60>
 5088054:	508ac680 	call	508ac68 <__multadd>
 5088058:	1021883a 	mov	r16,r2
 508805c:	a80b883a 	mov	r5,r21
 5088060:	8009883a 	mov	r4,r16
 5088064:	50872fc0 	call	50872fc <quorem>
 5088068:	10800c04 	addi	r2,r2,48
 508806c:	90800005 	stb	r2,0(r18)
 5088070:	94800044 	addi	r18,r18,1
 5088074:	9507c83a 	sub	r3,r18,r20
 5088078:	000f883a 	mov	r7,zero
 508807c:	01800284 	movi	r6,10
 5088080:	800b883a 	mov	r5,r16
 5088084:	e009883a 	mov	r4,fp
 5088088:	1cfff216 	blt	r3,r19,5088054 <__alt_data_end+0xfffb9e54>
 508808c:	1011883a 	mov	r8,r2
 5088090:	d8800617 	ldw	r2,24(sp)
 5088094:	0082370e 	bge	zero,r2,5088974 <_dtoa_r+0x1478>
 5088098:	d9000717 	ldw	r4,28(sp)
 508809c:	0025883a 	mov	r18,zero
 50880a0:	20af883a 	add	r23,r4,r2
 50880a4:	01800044 	movi	r6,1
 50880a8:	800b883a 	mov	r5,r16
 50880ac:	e009883a 	mov	r4,fp
 50880b0:	da001715 	stw	r8,92(sp)
 50880b4:	508b3180 	call	508b318 <__lshift>
 50880b8:	a80b883a 	mov	r5,r21
 50880bc:	1009883a 	mov	r4,r2
 50880c0:	d8800915 	stw	r2,36(sp)
 50880c4:	508b4600 	call	508b460 <__mcmp>
 50880c8:	da001717 	ldw	r8,92(sp)
 50880cc:	0081800e 	bge	zero,r2,50886d0 <_dtoa_r+0x11d4>
 50880d0:	b93fffc3 	ldbu	r4,-1(r23)
 50880d4:	b8bfffc4 	addi	r2,r23,-1
 50880d8:	1007883a 	mov	r3,r2
 50880dc:	01800e44 	movi	r6,57
 50880e0:	d9c00717 	ldw	r7,28(sp)
 50880e4:	00000506 	br	50880fc <_dtoa_r+0xc00>
 50880e8:	18ffffc4 	addi	r3,r3,-1
 50880ec:	11c12326 	beq	r2,r7,508857c <_dtoa_r+0x1080>
 50880f0:	19000003 	ldbu	r4,0(r3)
 50880f4:	102f883a 	mov	r23,r2
 50880f8:	10bfffc4 	addi	r2,r2,-1
 50880fc:	21403fcc 	andi	r5,r4,255
 5088100:	2940201c 	xori	r5,r5,128
 5088104:	297fe004 	addi	r5,r5,-128
 5088108:	29bff726 	beq	r5,r6,50880e8 <__alt_data_end+0xfffb9ee8>
 508810c:	21000044 	addi	r4,r4,1
 5088110:	11000005 	stb	r4,0(r2)
 5088114:	a80b883a 	mov	r5,r21
 5088118:	e009883a 	mov	r4,fp
 508811c:	508ac400 	call	508ac40 <_Bfree>
 5088120:	883ea026 	beq	r17,zero,5087ba4 <__alt_data_end+0xfffb99a4>
 5088124:	90000426 	beq	r18,zero,5088138 <_dtoa_r+0xc3c>
 5088128:	94400326 	beq	r18,r17,5088138 <_dtoa_r+0xc3c>
 508812c:	900b883a 	mov	r5,r18
 5088130:	e009883a 	mov	r4,fp
 5088134:	508ac400 	call	508ac40 <_Bfree>
 5088138:	880b883a 	mov	r5,r17
 508813c:	e009883a 	mov	r4,fp
 5088140:	508ac400 	call	508ac40 <_Bfree>
 5088144:	003e9706 	br	5087ba4 <__alt_data_end+0xfffb99a4>
 5088148:	01800044 	movi	r6,1
 508814c:	d9800e15 	stw	r6,56(sp)
 5088150:	003d9606 	br	50877ac <__alt_data_end+0xfffb95ac>
 5088154:	d8800817 	ldw	r2,32(sp)
 5088158:	d8c00517 	ldw	r3,20(sp)
 508815c:	d8000d15 	stw	zero,52(sp)
 5088160:	10c5c83a 	sub	r2,r2,r3
 5088164:	00c9c83a 	sub	r4,zero,r3
 5088168:	d8800815 	stw	r2,32(sp)
 508816c:	d9000a15 	stw	r4,40(sp)
 5088170:	003d9706 	br	50877d0 <__alt_data_end+0xfffb95d0>
 5088174:	05adc83a 	sub	r22,zero,r22
 5088178:	dd800815 	stw	r22,32(sp)
 508817c:	002d883a 	mov	r22,zero
 5088180:	003d8e06 	br	50877bc <__alt_data_end+0xfffb95bc>
 5088184:	d9000517 	ldw	r4,20(sp)
 5088188:	50926900 	call	5092690 <__floatsidf>
 508818c:	100d883a 	mov	r6,r2
 5088190:	180f883a 	mov	r7,r3
 5088194:	a009883a 	mov	r4,r20
 5088198:	880b883a 	mov	r5,r17
 508819c:	50913a40 	call	50913a4 <__eqdf2>
 50881a0:	103d7126 	beq	r2,zero,5087768 <__alt_data_end+0xfffb9568>
 50881a4:	d9c00517 	ldw	r7,20(sp)
 50881a8:	39ffffc4 	addi	r7,r7,-1
 50881ac:	d9c00515 	stw	r7,20(sp)
 50881b0:	003d6d06 	br	5087768 <__alt_data_end+0xfffb9568>
 50881b4:	dd400a17 	ldw	r21,40(sp)
 50881b8:	dd000817 	ldw	r20,32(sp)
 50881bc:	0023883a 	mov	r17,zero
 50881c0:	003f4806 	br	5087ee4 <__alt_data_end+0xfffb9ce4>
 50881c4:	10e3c83a 	sub	r17,r2,r3
 50881c8:	9448983a 	sll	r4,r18,r17
 50881cc:	003d3206 	br	5087698 <__alt_data_end+0xfffb9498>
 50881d0:	d8000e15 	stw	zero,56(sp)
 50881d4:	003d7506 	br	50877ac <__alt_data_end+0xfffb95ac>
 50881d8:	b005883a 	mov	r2,r22
 50881dc:	003f4506 	br	5087ef4 <__alt_data_end+0xfffb9cf4>
 50881e0:	dc000915 	stw	r16,36(sp)
 50881e4:	d9800a17 	ldw	r6,40(sp)
 50881e8:	d9400917 	ldw	r5,36(sp)
 50881ec:	e009883a 	mov	r4,fp
 50881f0:	508b1d80 	call	508b1d8 <__pow5mult>
 50881f4:	1021883a 	mov	r16,r2
 50881f8:	003f5a06 	br	5087f64 <__alt_data_end+0xfffb9d64>
 50881fc:	01c00044 	movi	r7,1
 5088200:	d9c00b15 	stw	r7,44(sp)
 5088204:	d8802217 	ldw	r2,136(sp)
 5088208:	0081280e 	bge	zero,r2,50886ac <_dtoa_r+0x11b0>
 508820c:	100d883a 	mov	r6,r2
 5088210:	1021883a 	mov	r16,r2
 5088214:	d8800c15 	stw	r2,48(sp)
 5088218:	d8800615 	stw	r2,24(sp)
 508821c:	003d8806 	br	5087840 <__alt_data_end+0xfffb9640>
 5088220:	d8800617 	ldw	r2,24(sp)
 5088224:	00be9b16 	blt	zero,r2,5087c94 <__alt_data_end+0xfffb9a94>
 5088228:	10010f1e 	bne	r2,zero,5088668 <_dtoa_r+0x116c>
 508822c:	880b883a 	mov	r5,r17
 5088230:	000d883a 	mov	r6,zero
 5088234:	01d00534 	movhi	r7,16404
 5088238:	8009883a 	mov	r4,r16
 508823c:	50915fc0 	call	50915fc <__muldf3>
 5088240:	900d883a 	mov	r6,r18
 5088244:	980f883a 	mov	r7,r19
 5088248:	1009883a 	mov	r4,r2
 508824c:	180b883a 	mov	r5,r3
 5088250:	509142c0 	call	509142c <__gedf2>
 5088254:	002b883a 	mov	r21,zero
 5088258:	0023883a 	mov	r17,zero
 508825c:	1000bf16 	blt	r2,zero,508855c <_dtoa_r+0x1060>
 5088260:	d9802217 	ldw	r6,136(sp)
 5088264:	ddc00717 	ldw	r23,28(sp)
 5088268:	018c303a 	nor	r6,zero,r6
 508826c:	d9800515 	stw	r6,20(sp)
 5088270:	a80b883a 	mov	r5,r21
 5088274:	e009883a 	mov	r4,fp
 5088278:	508ac400 	call	508ac40 <_Bfree>
 508827c:	883e4926 	beq	r17,zero,5087ba4 <__alt_data_end+0xfffb99a4>
 5088280:	003fad06 	br	5088138 <__alt_data_end+0xfffb9f38>
 5088284:	d9c01117 	ldw	r7,68(sp)
 5088288:	3801bc26 	beq	r7,zero,508897c <_dtoa_r+0x1480>
 508828c:	10810cc4 	addi	r2,r2,1075
 5088290:	dd400a17 	ldw	r21,40(sp)
 5088294:	dd000817 	ldw	r20,32(sp)
 5088298:	003f0a06 	br	5087ec4 <__alt_data_end+0xfffb9cc4>
 508829c:	00800704 	movi	r2,28
 50882a0:	d9000817 	ldw	r4,32(sp)
 50882a4:	a0a9883a 	add	r20,r20,r2
 50882a8:	b0ad883a 	add	r22,r22,r2
 50882ac:	2089883a 	add	r4,r4,r2
 50882b0:	d9000815 	stw	r4,32(sp)
 50882b4:	003f5106 	br	5087ffc <__alt_data_end+0xfffb9dfc>
 50882b8:	d8c00317 	ldw	r3,12(sp)
 50882bc:	b8c1fc0e 	bge	r23,r3,5088ab0 <_dtoa_r+0x15b4>
 50882c0:	0027883a 	mov	r19,zero
 50882c4:	b805883a 	mov	r2,r23
 50882c8:	003f3e06 	br	5087fc4 <__alt_data_end+0xfffb9dc4>
 50882cc:	880b883a 	mov	r5,r17
 50882d0:	e009883a 	mov	r4,fp
 50882d4:	000f883a 	mov	r7,zero
 50882d8:	01800284 	movi	r6,10
 50882dc:	508ac680 	call	508ac68 <__multadd>
 50882e0:	d9000c17 	ldw	r4,48(sp)
 50882e4:	1023883a 	mov	r17,r2
 50882e8:	0102040e 	bge	zero,r4,5088afc <_dtoa_r+0x1600>
 50882ec:	d9000615 	stw	r4,24(sp)
 50882f0:	0500050e 	bge	zero,r20,5088308 <_dtoa_r+0xe0c>
 50882f4:	880b883a 	mov	r5,r17
 50882f8:	a00d883a 	mov	r6,r20
 50882fc:	e009883a 	mov	r4,fp
 5088300:	508b3180 	call	508b318 <__lshift>
 5088304:	1023883a 	mov	r17,r2
 5088308:	9801241e 	bne	r19,zero,508879c <_dtoa_r+0x12a0>
 508830c:	8829883a 	mov	r20,r17
 5088310:	d9000617 	ldw	r4,24(sp)
 5088314:	dcc00717 	ldw	r19,28(sp)
 5088318:	9480004c 	andi	r18,r18,1
 508831c:	20bfffc4 	addi	r2,r4,-1
 5088320:	9885883a 	add	r2,r19,r2
 5088324:	d8800415 	stw	r2,16(sp)
 5088328:	dc800615 	stw	r18,24(sp)
 508832c:	a80b883a 	mov	r5,r21
 5088330:	8009883a 	mov	r4,r16
 5088334:	50872fc0 	call	50872fc <quorem>
 5088338:	880b883a 	mov	r5,r17
 508833c:	8009883a 	mov	r4,r16
 5088340:	102f883a 	mov	r23,r2
 5088344:	508b4600 	call	508b460 <__mcmp>
 5088348:	a80b883a 	mov	r5,r21
 508834c:	a00d883a 	mov	r6,r20
 5088350:	e009883a 	mov	r4,fp
 5088354:	102d883a 	mov	r22,r2
 5088358:	508b4c00 	call	508b4c0 <__mdiff>
 508835c:	1007883a 	mov	r3,r2
 5088360:	10800317 	ldw	r2,12(r2)
 5088364:	bc800c04 	addi	r18,r23,48
 5088368:	180b883a 	mov	r5,r3
 508836c:	10004e1e 	bne	r2,zero,50884a8 <_dtoa_r+0xfac>
 5088370:	8009883a 	mov	r4,r16
 5088374:	d8c01615 	stw	r3,88(sp)
 5088378:	508b4600 	call	508b460 <__mcmp>
 508837c:	d8c01617 	ldw	r3,88(sp)
 5088380:	e009883a 	mov	r4,fp
 5088384:	d8801615 	stw	r2,88(sp)
 5088388:	180b883a 	mov	r5,r3
 508838c:	508ac400 	call	508ac40 <_Bfree>
 5088390:	d8801617 	ldw	r2,88(sp)
 5088394:	1000041e 	bne	r2,zero,50883a8 <_dtoa_r+0xeac>
 5088398:	d9800317 	ldw	r6,12(sp)
 508839c:	3000021e 	bne	r6,zero,50883a8 <_dtoa_r+0xeac>
 50883a0:	d8c00617 	ldw	r3,24(sp)
 50883a4:	18003726 	beq	r3,zero,5088484 <_dtoa_r+0xf88>
 50883a8:	b0002016 	blt	r22,zero,508842c <_dtoa_r+0xf30>
 50883ac:	b000041e 	bne	r22,zero,50883c0 <_dtoa_r+0xec4>
 50883b0:	d9000317 	ldw	r4,12(sp)
 50883b4:	2000021e 	bne	r4,zero,50883c0 <_dtoa_r+0xec4>
 50883b8:	d8c00617 	ldw	r3,24(sp)
 50883bc:	18001b26 	beq	r3,zero,508842c <_dtoa_r+0xf30>
 50883c0:	00810716 	blt	zero,r2,50887e0 <_dtoa_r+0x12e4>
 50883c4:	d8c00417 	ldw	r3,16(sp)
 50883c8:	9d800044 	addi	r22,r19,1
 50883cc:	9c800005 	stb	r18,0(r19)
 50883d0:	b02f883a 	mov	r23,r22
 50883d4:	98c10626 	beq	r19,r3,50887f0 <_dtoa_r+0x12f4>
 50883d8:	800b883a 	mov	r5,r16
 50883dc:	000f883a 	mov	r7,zero
 50883e0:	01800284 	movi	r6,10
 50883e4:	e009883a 	mov	r4,fp
 50883e8:	508ac680 	call	508ac68 <__multadd>
 50883ec:	1021883a 	mov	r16,r2
 50883f0:	000f883a 	mov	r7,zero
 50883f4:	01800284 	movi	r6,10
 50883f8:	880b883a 	mov	r5,r17
 50883fc:	e009883a 	mov	r4,fp
 5088400:	8d002526 	beq	r17,r20,5088498 <_dtoa_r+0xf9c>
 5088404:	508ac680 	call	508ac68 <__multadd>
 5088408:	a00b883a 	mov	r5,r20
 508840c:	000f883a 	mov	r7,zero
 5088410:	01800284 	movi	r6,10
 5088414:	e009883a 	mov	r4,fp
 5088418:	1023883a 	mov	r17,r2
 508841c:	508ac680 	call	508ac68 <__multadd>
 5088420:	1029883a 	mov	r20,r2
 5088424:	b027883a 	mov	r19,r22
 5088428:	003fc006 	br	508832c <__alt_data_end+0xfffba12c>
 508842c:	9011883a 	mov	r8,r18
 5088430:	00800e0e 	bge	zero,r2,508846c <_dtoa_r+0xf70>
 5088434:	800b883a 	mov	r5,r16
 5088438:	01800044 	movi	r6,1
 508843c:	e009883a 	mov	r4,fp
 5088440:	da001715 	stw	r8,92(sp)
 5088444:	508b3180 	call	508b318 <__lshift>
 5088448:	a80b883a 	mov	r5,r21
 508844c:	1009883a 	mov	r4,r2
 5088450:	1021883a 	mov	r16,r2
 5088454:	508b4600 	call	508b460 <__mcmp>
 5088458:	da001717 	ldw	r8,92(sp)
 508845c:	0081960e 	bge	zero,r2,5088ab8 <_dtoa_r+0x15bc>
 5088460:	00800e44 	movi	r2,57
 5088464:	40817026 	beq	r8,r2,5088a28 <_dtoa_r+0x152c>
 5088468:	ba000c44 	addi	r8,r23,49
 508846c:	8825883a 	mov	r18,r17
 5088470:	9dc00044 	addi	r23,r19,1
 5088474:	9a000005 	stb	r8,0(r19)
 5088478:	a023883a 	mov	r17,r20
 508847c:	dc000915 	stw	r16,36(sp)
 5088480:	003f2406 	br	5088114 <__alt_data_end+0xfffb9f14>
 5088484:	00800e44 	movi	r2,57
 5088488:	9011883a 	mov	r8,r18
 508848c:	90816626 	beq	r18,r2,5088a28 <_dtoa_r+0x152c>
 5088490:	05bff516 	blt	zero,r22,5088468 <__alt_data_end+0xfffba268>
 5088494:	003ff506 	br	508846c <__alt_data_end+0xfffba26c>
 5088498:	508ac680 	call	508ac68 <__multadd>
 508849c:	1023883a 	mov	r17,r2
 50884a0:	1029883a 	mov	r20,r2
 50884a4:	003fdf06 	br	5088424 <__alt_data_end+0xfffba224>
 50884a8:	e009883a 	mov	r4,fp
 50884ac:	508ac400 	call	508ac40 <_Bfree>
 50884b0:	00800044 	movi	r2,1
 50884b4:	003fbc06 	br	50883a8 <__alt_data_end+0xfffba1a8>
 50884b8:	a80b883a 	mov	r5,r21
 50884bc:	8009883a 	mov	r4,r16
 50884c0:	508b4600 	call	508b460 <__mcmp>
 50884c4:	103edb0e 	bge	r2,zero,5088034 <__alt_data_end+0xfffb9e34>
 50884c8:	800b883a 	mov	r5,r16
 50884cc:	000f883a 	mov	r7,zero
 50884d0:	01800284 	movi	r6,10
 50884d4:	e009883a 	mov	r4,fp
 50884d8:	508ac680 	call	508ac68 <__multadd>
 50884dc:	1021883a 	mov	r16,r2
 50884e0:	d8800517 	ldw	r2,20(sp)
 50884e4:	d8c00b17 	ldw	r3,44(sp)
 50884e8:	10bfffc4 	addi	r2,r2,-1
 50884ec:	d8800515 	stw	r2,20(sp)
 50884f0:	183f761e 	bne	r3,zero,50882cc <__alt_data_end+0xfffba0cc>
 50884f4:	d9000c17 	ldw	r4,48(sp)
 50884f8:	0101730e 	bge	zero,r4,5088ac8 <_dtoa_r+0x15cc>
 50884fc:	d9000615 	stw	r4,24(sp)
 5088500:	003ed006 	br	5088044 <__alt_data_end+0xfffb9e44>
 5088504:	00800084 	movi	r2,2
 5088508:	3081861e 	bne	r6,r2,5088b24 <_dtoa_r+0x1628>
 508850c:	d8000b15 	stw	zero,44(sp)
 5088510:	003f3c06 	br	5088204 <__alt_data_end+0xfffba004>
 5088514:	dc000917 	ldw	r16,36(sp)
 5088518:	003e9206 	br	5087f64 <__alt_data_end+0xfffb9d64>
 508851c:	d9c00317 	ldw	r7,12(sp)
 5088520:	00800084 	movi	r2,2
 5088524:	11fec50e 	bge	r2,r7,508803c <__alt_data_end+0xfffb9e3c>
 5088528:	d9000617 	ldw	r4,24(sp)
 508852c:	20013c1e 	bne	r4,zero,5088a20 <_dtoa_r+0x1524>
 5088530:	a80b883a 	mov	r5,r21
 5088534:	000f883a 	mov	r7,zero
 5088538:	01800144 	movi	r6,5
 508853c:	e009883a 	mov	r4,fp
 5088540:	508ac680 	call	508ac68 <__multadd>
 5088544:	100b883a 	mov	r5,r2
 5088548:	8009883a 	mov	r4,r16
 508854c:	102b883a 	mov	r21,r2
 5088550:	508b4600 	call	508b460 <__mcmp>
 5088554:	dc000915 	stw	r16,36(sp)
 5088558:	00bf410e 	bge	zero,r2,5088260 <__alt_data_end+0xfffba060>
 508855c:	d9c00717 	ldw	r7,28(sp)
 5088560:	00800c44 	movi	r2,49
 5088564:	38800005 	stb	r2,0(r7)
 5088568:	d8800517 	ldw	r2,20(sp)
 508856c:	3dc00044 	addi	r23,r7,1
 5088570:	10800044 	addi	r2,r2,1
 5088574:	d8800515 	stw	r2,20(sp)
 5088578:	003f3d06 	br	5088270 <__alt_data_end+0xfffba070>
 508857c:	d9800517 	ldw	r6,20(sp)
 5088580:	d9c00717 	ldw	r7,28(sp)
 5088584:	00800c44 	movi	r2,49
 5088588:	31800044 	addi	r6,r6,1
 508858c:	d9800515 	stw	r6,20(sp)
 5088590:	38800005 	stb	r2,0(r7)
 5088594:	003edf06 	br	5088114 <__alt_data_end+0xfffb9f14>
 5088598:	d8000b15 	stw	zero,44(sp)
 508859c:	003c9f06 	br	508781c <__alt_data_end+0xfffb961c>
 50885a0:	903e7e1e 	bne	r18,zero,5087f9c <__alt_data_end+0xfffb9d9c>
 50885a4:	00800434 	movhi	r2,16
 50885a8:	10bfffc4 	addi	r2,r2,-1
 50885ac:	9884703a 	and	r2,r19,r2
 50885b0:	1000ea1e 	bne	r2,zero,508895c <_dtoa_r+0x1460>
 50885b4:	9cdffc2c 	andhi	r19,r19,32752
 50885b8:	9800e826 	beq	r19,zero,508895c <_dtoa_r+0x1460>
 50885bc:	d9c00817 	ldw	r7,32(sp)
 50885c0:	b5800044 	addi	r22,r22,1
 50885c4:	04c00044 	movi	r19,1
 50885c8:	39c00044 	addi	r7,r7,1
 50885cc:	d9c00815 	stw	r7,32(sp)
 50885d0:	d8800d17 	ldw	r2,52(sp)
 50885d4:	103e721e 	bne	r2,zero,5087fa0 <__alt_data_end+0xfffb9da0>
 50885d8:	00800044 	movi	r2,1
 50885dc:	003e7906 	br	5087fc4 <__alt_data_end+0xfffb9dc4>
 50885e0:	8009883a 	mov	r4,r16
 50885e4:	50926900 	call	5092690 <__floatsidf>
 50885e8:	d9800f17 	ldw	r6,60(sp)
 50885ec:	d9c01017 	ldw	r7,64(sp)
 50885f0:	1009883a 	mov	r4,r2
 50885f4:	180b883a 	mov	r5,r3
 50885f8:	50915fc0 	call	50915fc <__muldf3>
 50885fc:	000d883a 	mov	r6,zero
 5088600:	01d00734 	movhi	r7,16412
 5088604:	1009883a 	mov	r4,r2
 5088608:	180b883a 	mov	r5,r3
 508860c:	50902100 	call	5090210 <__adddf3>
 5088610:	047f3034 	movhi	r17,64704
 5088614:	1021883a 	mov	r16,r2
 5088618:	1c63883a 	add	r17,r3,r17
 508861c:	d9000f17 	ldw	r4,60(sp)
 5088620:	d9401017 	ldw	r5,64(sp)
 5088624:	000d883a 	mov	r6,zero
 5088628:	01d00534 	movhi	r7,16404
 508862c:	5091d140 	call	5091d14 <__subdf3>
 5088630:	800d883a 	mov	r6,r16
 5088634:	880f883a 	mov	r7,r17
 5088638:	1009883a 	mov	r4,r2
 508863c:	180b883a 	mov	r5,r3
 5088640:	102b883a 	mov	r21,r2
 5088644:	1829883a 	mov	r20,r3
 5088648:	509142c0 	call	509142c <__gedf2>
 508864c:	00806c16 	blt	zero,r2,5088800 <_dtoa_r+0x1304>
 5088650:	89e0003c 	xorhi	r7,r17,32768
 5088654:	800d883a 	mov	r6,r16
 5088658:	a809883a 	mov	r4,r21
 508865c:	a00b883a 	mov	r5,r20
 5088660:	50915080 	call	5091508 <__ledf2>
 5088664:	103d7e0e 	bge	r2,zero,5087c60 <__alt_data_end+0xfffb9a60>
 5088668:	002b883a 	mov	r21,zero
 508866c:	0023883a 	mov	r17,zero
 5088670:	003efb06 	br	5088260 <__alt_data_end+0xfffba060>
 5088674:	d8800717 	ldw	r2,28(sp)
 5088678:	003bd006 	br	50875bc <__alt_data_end+0xfffb93bc>
 508867c:	d9000a17 	ldw	r4,40(sp)
 5088680:	d9800d17 	ldw	r6,52(sp)
 5088684:	dd400a15 	stw	r21,40(sp)
 5088688:	a905c83a 	sub	r2,r21,r4
 508868c:	308d883a 	add	r6,r6,r2
 5088690:	d9800d15 	stw	r6,52(sp)
 5088694:	002b883a 	mov	r21,zero
 5088698:	003e0606 	br	5087eb4 <__alt_data_end+0xfffb9cb4>
 508869c:	9023883a 	mov	r17,r18
 50886a0:	9829883a 	mov	r20,r19
 50886a4:	04000084 	movi	r16,2
 50886a8:	003c9206 	br	50878f4 <__alt_data_end+0xfffb96f4>
 50886ac:	04000044 	movi	r16,1
 50886b0:	dc000c15 	stw	r16,48(sp)
 50886b4:	dc000615 	stw	r16,24(sp)
 50886b8:	dc002215 	stw	r16,136(sp)
 50886bc:	e0001115 	stw	zero,68(fp)
 50886c0:	000b883a 	mov	r5,zero
 50886c4:	003c6906 	br	508786c <__alt_data_end+0xfffb966c>
 50886c8:	3021883a 	mov	r16,r6
 50886cc:	003ffb06 	br	50886bc <__alt_data_end+0xfffba4bc>
 50886d0:	1000021e 	bne	r2,zero,50886dc <_dtoa_r+0x11e0>
 50886d4:	4200004c 	andi	r8,r8,1
 50886d8:	403e7d1e 	bne	r8,zero,50880d0 <__alt_data_end+0xfffb9ed0>
 50886dc:	01000c04 	movi	r4,48
 50886e0:	00000106 	br	50886e8 <_dtoa_r+0x11ec>
 50886e4:	102f883a 	mov	r23,r2
 50886e8:	b8bfffc4 	addi	r2,r23,-1
 50886ec:	10c00007 	ldb	r3,0(r2)
 50886f0:	193ffc26 	beq	r3,r4,50886e4 <__alt_data_end+0xfffba4e4>
 50886f4:	003e8706 	br	5088114 <__alt_data_end+0xfffb9f14>
 50886f8:	d8800517 	ldw	r2,20(sp)
 50886fc:	00a3c83a 	sub	r17,zero,r2
 5088700:	8800a426 	beq	r17,zero,5088994 <_dtoa_r+0x1498>
 5088704:	888003cc 	andi	r2,r17,15
 5088708:	100490fa 	slli	r2,r2,3
 508870c:	00c14274 	movhi	r3,1289
 5088710:	18d7b304 	addi	r3,r3,24268
 5088714:	1885883a 	add	r2,r3,r2
 5088718:	11800017 	ldw	r6,0(r2)
 508871c:	11c00117 	ldw	r7,4(r2)
 5088720:	9009883a 	mov	r4,r18
 5088724:	980b883a 	mov	r5,r19
 5088728:	8823d13a 	srai	r17,r17,4
 508872c:	50915fc0 	call	50915fc <__muldf3>
 5088730:	d8800f15 	stw	r2,60(sp)
 5088734:	d8c01015 	stw	r3,64(sp)
 5088738:	8800e826 	beq	r17,zero,5088adc <_dtoa_r+0x15e0>
 508873c:	05014274 	movhi	r20,1289
 5088740:	a517a904 	addi	r20,r20,24228
 5088744:	04000084 	movi	r16,2
 5088748:	8980004c 	andi	r6,r17,1
 508874c:	1009883a 	mov	r4,r2
 5088750:	8823d07a 	srai	r17,r17,1
 5088754:	180b883a 	mov	r5,r3
 5088758:	30000426 	beq	r6,zero,508876c <_dtoa_r+0x1270>
 508875c:	a1800017 	ldw	r6,0(r20)
 5088760:	a1c00117 	ldw	r7,4(r20)
 5088764:	84000044 	addi	r16,r16,1
 5088768:	50915fc0 	call	50915fc <__muldf3>
 508876c:	a5000204 	addi	r20,r20,8
 5088770:	883ff51e 	bne	r17,zero,5088748 <__alt_data_end+0xfffba548>
 5088774:	d8800f15 	stw	r2,60(sp)
 5088778:	d8c01015 	stw	r3,64(sp)
 508877c:	003c7606 	br	5087958 <__alt_data_end+0xfffb9758>
 5088780:	00c00c04 	movi	r3,48
 5088784:	10c00005 	stb	r3,0(r2)
 5088788:	d8c00517 	ldw	r3,20(sp)
 508878c:	bd3fffc3 	ldbu	r20,-1(r23)
 5088790:	18c00044 	addi	r3,r3,1
 5088794:	d8c00515 	stw	r3,20(sp)
 5088798:	003db906 	br	5087e80 <__alt_data_end+0xfffb9c80>
 508879c:	89400117 	ldw	r5,4(r17)
 50887a0:	e009883a 	mov	r4,fp
 50887a4:	508ab980 	call	508ab98 <_Balloc>
 50887a8:	89800417 	ldw	r6,16(r17)
 50887ac:	89400304 	addi	r5,r17,12
 50887b0:	11000304 	addi	r4,r2,12
 50887b4:	31800084 	addi	r6,r6,2
 50887b8:	318d883a 	add	r6,r6,r6
 50887bc:	318d883a 	add	r6,r6,r6
 50887c0:	1027883a 	mov	r19,r2
 50887c4:	508a7cc0 	call	508a7cc <memcpy>
 50887c8:	01800044 	movi	r6,1
 50887cc:	980b883a 	mov	r5,r19
 50887d0:	e009883a 	mov	r4,fp
 50887d4:	508b3180 	call	508b318 <__lshift>
 50887d8:	1029883a 	mov	r20,r2
 50887dc:	003ecc06 	br	5088310 <__alt_data_end+0xfffba110>
 50887e0:	00800e44 	movi	r2,57
 50887e4:	90809026 	beq	r18,r2,5088a28 <_dtoa_r+0x152c>
 50887e8:	92000044 	addi	r8,r18,1
 50887ec:	003f1f06 	br	508846c <__alt_data_end+0xfffba26c>
 50887f0:	9011883a 	mov	r8,r18
 50887f4:	8825883a 	mov	r18,r17
 50887f8:	a023883a 	mov	r17,r20
 50887fc:	003e2906 	br	50880a4 <__alt_data_end+0xfffb9ea4>
 5088800:	002b883a 	mov	r21,zero
 5088804:	0023883a 	mov	r17,zero
 5088808:	003f5406 	br	508855c <__alt_data_end+0xfffba35c>
 508880c:	61bfffc4 	addi	r6,r12,-1
 5088810:	300490fa 	slli	r2,r6,3
 5088814:	00c14274 	movhi	r3,1289
 5088818:	18d7b304 	addi	r3,r3,24268
 508881c:	1885883a 	add	r2,r3,r2
 5088820:	11000017 	ldw	r4,0(r2)
 5088824:	11400117 	ldw	r5,4(r2)
 5088828:	d8800717 	ldw	r2,28(sp)
 508882c:	880f883a 	mov	r7,r17
 5088830:	d9801215 	stw	r6,72(sp)
 5088834:	800d883a 	mov	r6,r16
 5088838:	db001615 	stw	r12,88(sp)
 508883c:	15c00044 	addi	r23,r2,1
 5088840:	50915fc0 	call	50915fc <__muldf3>
 5088844:	d9401017 	ldw	r5,64(sp)
 5088848:	d9000f17 	ldw	r4,60(sp)
 508884c:	d8c01515 	stw	r3,84(sp)
 5088850:	d8801415 	stw	r2,80(sp)
 5088854:	50926100 	call	5092610 <__fixdfsi>
 5088858:	1009883a 	mov	r4,r2
 508885c:	1021883a 	mov	r16,r2
 5088860:	50926900 	call	5092690 <__floatsidf>
 5088864:	d9000f17 	ldw	r4,60(sp)
 5088868:	d9401017 	ldw	r5,64(sp)
 508886c:	100d883a 	mov	r6,r2
 5088870:	180f883a 	mov	r7,r3
 5088874:	5091d140 	call	5091d14 <__subdf3>
 5088878:	1829883a 	mov	r20,r3
 508887c:	d8c00717 	ldw	r3,28(sp)
 5088880:	84000c04 	addi	r16,r16,48
 5088884:	1023883a 	mov	r17,r2
 5088888:	1c000005 	stb	r16,0(r3)
 508888c:	db001617 	ldw	r12,88(sp)
 5088890:	00800044 	movi	r2,1
 5088894:	60802226 	beq	r12,r2,5088920 <_dtoa_r+0x1424>
 5088898:	d9c00717 	ldw	r7,28(sp)
 508889c:	8805883a 	mov	r2,r17
 50888a0:	b82b883a 	mov	r21,r23
 50888a4:	3b19883a 	add	r12,r7,r12
 50888a8:	6023883a 	mov	r17,r12
 50888ac:	a007883a 	mov	r3,r20
 50888b0:	dc800f15 	stw	r18,60(sp)
 50888b4:	000d883a 	mov	r6,zero
 50888b8:	01d00934 	movhi	r7,16420
 50888bc:	1009883a 	mov	r4,r2
 50888c0:	180b883a 	mov	r5,r3
 50888c4:	50915fc0 	call	50915fc <__muldf3>
 50888c8:	180b883a 	mov	r5,r3
 50888cc:	1009883a 	mov	r4,r2
 50888d0:	1829883a 	mov	r20,r3
 50888d4:	1025883a 	mov	r18,r2
 50888d8:	50926100 	call	5092610 <__fixdfsi>
 50888dc:	1009883a 	mov	r4,r2
 50888e0:	1021883a 	mov	r16,r2
 50888e4:	50926900 	call	5092690 <__floatsidf>
 50888e8:	100d883a 	mov	r6,r2
 50888ec:	180f883a 	mov	r7,r3
 50888f0:	9009883a 	mov	r4,r18
 50888f4:	a00b883a 	mov	r5,r20
 50888f8:	84000c04 	addi	r16,r16,48
 50888fc:	5091d140 	call	5091d14 <__subdf3>
 5088900:	ad400044 	addi	r21,r21,1
 5088904:	ac3fffc5 	stb	r16,-1(r21)
 5088908:	ac7fea1e 	bne	r21,r17,50888b4 <__alt_data_end+0xfffba6b4>
 508890c:	1023883a 	mov	r17,r2
 5088910:	d8801217 	ldw	r2,72(sp)
 5088914:	dc800f17 	ldw	r18,60(sp)
 5088918:	1829883a 	mov	r20,r3
 508891c:	b8af883a 	add	r23,r23,r2
 5088920:	d9001417 	ldw	r4,80(sp)
 5088924:	d9401517 	ldw	r5,84(sp)
 5088928:	000d883a 	mov	r6,zero
 508892c:	01cff834 	movhi	r7,16352
 5088930:	50902100 	call	5090210 <__adddf3>
 5088934:	880d883a 	mov	r6,r17
 5088938:	a00f883a 	mov	r7,r20
 508893c:	1009883a 	mov	r4,r2
 5088940:	180b883a 	mov	r5,r3
 5088944:	50915080 	call	5091508 <__ledf2>
 5088948:	10003e0e 	bge	r2,zero,5088a44 <_dtoa_r+0x1548>
 508894c:	d9001317 	ldw	r4,76(sp)
 5088950:	bd3fffc3 	ldbu	r20,-1(r23)
 5088954:	d9000515 	stw	r4,20(sp)
 5088958:	003d3b06 	br	5087e48 <__alt_data_end+0xfffb9c48>
 508895c:	0027883a 	mov	r19,zero
 5088960:	003f1b06 	br	50885d0 <__alt_data_end+0xfffba3d0>
 5088964:	d8800817 	ldw	r2,32(sp)
 5088968:	11e9c83a 	sub	r20,r2,r7
 508896c:	0005883a 	mov	r2,zero
 5088970:	003d5406 	br	5087ec4 <__alt_data_end+0xfffb9cc4>
 5088974:	00800044 	movi	r2,1
 5088978:	003dc706 	br	5088098 <__alt_data_end+0xfffb9e98>
 508897c:	d8c00217 	ldw	r3,8(sp)
 5088980:	00800d84 	movi	r2,54
 5088984:	dd400a17 	ldw	r21,40(sp)
 5088988:	10c5c83a 	sub	r2,r2,r3
 508898c:	dd000817 	ldw	r20,32(sp)
 5088990:	003d4c06 	br	5087ec4 <__alt_data_end+0xfffb9cc4>
 5088994:	dc800f15 	stw	r18,60(sp)
 5088998:	dcc01015 	stw	r19,64(sp)
 508899c:	04000084 	movi	r16,2
 50889a0:	003bed06 	br	5087958 <__alt_data_end+0xfffb9758>
 50889a4:	d9000617 	ldw	r4,24(sp)
 50889a8:	203f0d26 	beq	r4,zero,50885e0 <__alt_data_end+0xfffba3e0>
 50889ac:	d9800c17 	ldw	r6,48(sp)
 50889b0:	01bcab0e 	bge	zero,r6,5087c60 <__alt_data_end+0xfffb9a60>
 50889b4:	d9401017 	ldw	r5,64(sp)
 50889b8:	d9000f17 	ldw	r4,60(sp)
 50889bc:	000d883a 	mov	r6,zero
 50889c0:	01d00934 	movhi	r7,16420
 50889c4:	50915fc0 	call	50915fc <__muldf3>
 50889c8:	81000044 	addi	r4,r16,1
 50889cc:	d8800f15 	stw	r2,60(sp)
 50889d0:	d8c01015 	stw	r3,64(sp)
 50889d4:	50926900 	call	5092690 <__floatsidf>
 50889d8:	d9800f17 	ldw	r6,60(sp)
 50889dc:	d9c01017 	ldw	r7,64(sp)
 50889e0:	1009883a 	mov	r4,r2
 50889e4:	180b883a 	mov	r5,r3
 50889e8:	50915fc0 	call	50915fc <__muldf3>
 50889ec:	01d00734 	movhi	r7,16412
 50889f0:	000d883a 	mov	r6,zero
 50889f4:	1009883a 	mov	r4,r2
 50889f8:	180b883a 	mov	r5,r3
 50889fc:	50902100 	call	5090210 <__adddf3>
 5088a00:	d9c00517 	ldw	r7,20(sp)
 5088a04:	047f3034 	movhi	r17,64704
 5088a08:	1021883a 	mov	r16,r2
 5088a0c:	39ffffc4 	addi	r7,r7,-1
 5088a10:	d9c01315 	stw	r7,76(sp)
 5088a14:	1c63883a 	add	r17,r3,r17
 5088a18:	db000c17 	ldw	r12,48(sp)
 5088a1c:	003bea06 	br	50879c8 <__alt_data_end+0xfffb97c8>
 5088a20:	dc000915 	stw	r16,36(sp)
 5088a24:	003e0e06 	br	5088260 <__alt_data_end+0xfffba060>
 5088a28:	01000e44 	movi	r4,57
 5088a2c:	8825883a 	mov	r18,r17
 5088a30:	9dc00044 	addi	r23,r19,1
 5088a34:	99000005 	stb	r4,0(r19)
 5088a38:	a023883a 	mov	r17,r20
 5088a3c:	dc000915 	stw	r16,36(sp)
 5088a40:	003da406 	br	50880d4 <__alt_data_end+0xfffb9ed4>
 5088a44:	d9801417 	ldw	r6,80(sp)
 5088a48:	d9c01517 	ldw	r7,84(sp)
 5088a4c:	0009883a 	mov	r4,zero
 5088a50:	014ff834 	movhi	r5,16352
 5088a54:	5091d140 	call	5091d14 <__subdf3>
 5088a58:	880d883a 	mov	r6,r17
 5088a5c:	a00f883a 	mov	r7,r20
 5088a60:	1009883a 	mov	r4,r2
 5088a64:	180b883a 	mov	r5,r3
 5088a68:	509142c0 	call	509142c <__gedf2>
 5088a6c:	00bc7c0e 	bge	zero,r2,5087c60 <__alt_data_end+0xfffb9a60>
 5088a70:	01000c04 	movi	r4,48
 5088a74:	00000106 	br	5088a7c <_dtoa_r+0x1580>
 5088a78:	102f883a 	mov	r23,r2
 5088a7c:	b8bfffc4 	addi	r2,r23,-1
 5088a80:	10c00007 	ldb	r3,0(r2)
 5088a84:	193ffc26 	beq	r3,r4,5088a78 <__alt_data_end+0xfffba878>
 5088a88:	d9801317 	ldw	r6,76(sp)
 5088a8c:	d9800515 	stw	r6,20(sp)
 5088a90:	003c4406 	br	5087ba4 <__alt_data_end+0xfffb99a4>
 5088a94:	d9801317 	ldw	r6,76(sp)
 5088a98:	d9800515 	stw	r6,20(sp)
 5088a9c:	003cea06 	br	5087e48 <__alt_data_end+0xfffb9c48>
 5088aa0:	dd800f17 	ldw	r22,60(sp)
 5088aa4:	dcc01017 	ldw	r19,64(sp)
 5088aa8:	dc801217 	ldw	r18,72(sp)
 5088aac:	003c6c06 	br	5087c60 <__alt_data_end+0xfffb9a60>
 5088ab0:	903e031e 	bne	r18,zero,50882c0 <__alt_data_end+0xfffba0c0>
 5088ab4:	003ebb06 	br	50885a4 <__alt_data_end+0xfffba3a4>
 5088ab8:	103e6c1e 	bne	r2,zero,508846c <__alt_data_end+0xfffba26c>
 5088abc:	4080004c 	andi	r2,r8,1
 5088ac0:	103e6a26 	beq	r2,zero,508846c <__alt_data_end+0xfffba26c>
 5088ac4:	003e6606 	br	5088460 <__alt_data_end+0xfffba260>
 5088ac8:	d8c00317 	ldw	r3,12(sp)
 5088acc:	00800084 	movi	r2,2
 5088ad0:	10c02916 	blt	r2,r3,5088b78 <_dtoa_r+0x167c>
 5088ad4:	d9000c17 	ldw	r4,48(sp)
 5088ad8:	003e8806 	br	50884fc <__alt_data_end+0xfffba2fc>
 5088adc:	04000084 	movi	r16,2
 5088ae0:	003b9d06 	br	5087958 <__alt_data_end+0xfffb9758>
 5088ae4:	d9001317 	ldw	r4,76(sp)
 5088ae8:	d9000515 	stw	r4,20(sp)
 5088aec:	003cd606 	br	5087e48 <__alt_data_end+0xfffb9c48>
 5088af0:	d8801317 	ldw	r2,76(sp)
 5088af4:	d8800515 	stw	r2,20(sp)
 5088af8:	003c2a06 	br	5087ba4 <__alt_data_end+0xfffb99a4>
 5088afc:	d9800317 	ldw	r6,12(sp)
 5088b00:	00800084 	movi	r2,2
 5088b04:	11801516 	blt	r2,r6,5088b5c <_dtoa_r+0x1660>
 5088b08:	d9c00c17 	ldw	r7,48(sp)
 5088b0c:	d9c00615 	stw	r7,24(sp)
 5088b10:	003df706 	br	50882f0 <__alt_data_end+0xfffba0f0>
 5088b14:	193d3926 	beq	r3,r4,5087ffc <__alt_data_end+0xfffb9dfc>
 5088b18:	00c00f04 	movi	r3,60
 5088b1c:	1885c83a 	sub	r2,r3,r2
 5088b20:	003ddf06 	br	50882a0 <__alt_data_end+0xfffba0a0>
 5088b24:	e009883a 	mov	r4,fp
 5088b28:	e0001115 	stw	zero,68(fp)
 5088b2c:	000b883a 	mov	r5,zero
 5088b30:	508ab980 	call	508ab98 <_Balloc>
 5088b34:	d8800715 	stw	r2,28(sp)
 5088b38:	d8c00717 	ldw	r3,28(sp)
 5088b3c:	00bfffc4 	movi	r2,-1
 5088b40:	01000044 	movi	r4,1
 5088b44:	d8800c15 	stw	r2,48(sp)
 5088b48:	e0c01015 	stw	r3,64(fp)
 5088b4c:	d9000b15 	stw	r4,44(sp)
 5088b50:	d8800615 	stw	r2,24(sp)
 5088b54:	d8002215 	stw	zero,136(sp)
 5088b58:	003c4106 	br	5087c60 <__alt_data_end+0xfffb9a60>
 5088b5c:	d8c00c17 	ldw	r3,48(sp)
 5088b60:	d8c00615 	stw	r3,24(sp)
 5088b64:	003e7006 	br	5088528 <__alt_data_end+0xfffba328>
 5088b68:	04400044 	movi	r17,1
 5088b6c:	003b2006 	br	50877f0 <__alt_data_end+0xfffb95f0>
 5088b70:	000b883a 	mov	r5,zero
 5088b74:	003b3d06 	br	508786c <__alt_data_end+0xfffb966c>
 5088b78:	d8800c17 	ldw	r2,48(sp)
 5088b7c:	d8800615 	stw	r2,24(sp)
 5088b80:	003e6906 	br	5088528 <__alt_data_end+0xfffba328>

05088b84 <__sflush_r>:
 5088b84:	2880030b 	ldhu	r2,12(r5)
 5088b88:	defffb04 	addi	sp,sp,-20
 5088b8c:	dcc00315 	stw	r19,12(sp)
 5088b90:	dc400115 	stw	r17,4(sp)
 5088b94:	dfc00415 	stw	ra,16(sp)
 5088b98:	dc800215 	stw	r18,8(sp)
 5088b9c:	dc000015 	stw	r16,0(sp)
 5088ba0:	10c0020c 	andi	r3,r2,8
 5088ba4:	2823883a 	mov	r17,r5
 5088ba8:	2027883a 	mov	r19,r4
 5088bac:	1800311e 	bne	r3,zero,5088c74 <__sflush_r+0xf0>
 5088bb0:	28c00117 	ldw	r3,4(r5)
 5088bb4:	10820014 	ori	r2,r2,2048
 5088bb8:	2880030d 	sth	r2,12(r5)
 5088bbc:	00c04b0e 	bge	zero,r3,5088cec <__sflush_r+0x168>
 5088bc0:	8a000a17 	ldw	r8,40(r17)
 5088bc4:	40002326 	beq	r8,zero,5088c54 <__sflush_r+0xd0>
 5088bc8:	9c000017 	ldw	r16,0(r19)
 5088bcc:	10c4000c 	andi	r3,r2,4096
 5088bd0:	98000015 	stw	zero,0(r19)
 5088bd4:	18004826 	beq	r3,zero,5088cf8 <__sflush_r+0x174>
 5088bd8:	89801417 	ldw	r6,80(r17)
 5088bdc:	10c0010c 	andi	r3,r2,4
 5088be0:	18000626 	beq	r3,zero,5088bfc <__sflush_r+0x78>
 5088be4:	88c00117 	ldw	r3,4(r17)
 5088be8:	88800c17 	ldw	r2,48(r17)
 5088bec:	30cdc83a 	sub	r6,r6,r3
 5088bf0:	10000226 	beq	r2,zero,5088bfc <__sflush_r+0x78>
 5088bf4:	88800f17 	ldw	r2,60(r17)
 5088bf8:	308dc83a 	sub	r6,r6,r2
 5088bfc:	89400717 	ldw	r5,28(r17)
 5088c00:	000f883a 	mov	r7,zero
 5088c04:	9809883a 	mov	r4,r19
 5088c08:	403ee83a 	callr	r8
 5088c0c:	00ffffc4 	movi	r3,-1
 5088c10:	10c04426 	beq	r2,r3,5088d24 <__sflush_r+0x1a0>
 5088c14:	88c0030b 	ldhu	r3,12(r17)
 5088c18:	89000417 	ldw	r4,16(r17)
 5088c1c:	88000115 	stw	zero,4(r17)
 5088c20:	197dffcc 	andi	r5,r3,63487
 5088c24:	8940030d 	sth	r5,12(r17)
 5088c28:	89000015 	stw	r4,0(r17)
 5088c2c:	18c4000c 	andi	r3,r3,4096
 5088c30:	18002c1e 	bne	r3,zero,5088ce4 <__sflush_r+0x160>
 5088c34:	89400c17 	ldw	r5,48(r17)
 5088c38:	9c000015 	stw	r16,0(r19)
 5088c3c:	28000526 	beq	r5,zero,5088c54 <__sflush_r+0xd0>
 5088c40:	88801004 	addi	r2,r17,64
 5088c44:	28800226 	beq	r5,r2,5088c50 <__sflush_r+0xcc>
 5088c48:	9809883a 	mov	r4,r19
 5088c4c:	50892f00 	call	50892f0 <_free_r>
 5088c50:	88000c15 	stw	zero,48(r17)
 5088c54:	0005883a 	mov	r2,zero
 5088c58:	dfc00417 	ldw	ra,16(sp)
 5088c5c:	dcc00317 	ldw	r19,12(sp)
 5088c60:	dc800217 	ldw	r18,8(sp)
 5088c64:	dc400117 	ldw	r17,4(sp)
 5088c68:	dc000017 	ldw	r16,0(sp)
 5088c6c:	dec00504 	addi	sp,sp,20
 5088c70:	f800283a 	ret
 5088c74:	2c800417 	ldw	r18,16(r5)
 5088c78:	903ff626 	beq	r18,zero,5088c54 <__alt_data_end+0xfffbaa54>
 5088c7c:	2c000017 	ldw	r16,0(r5)
 5088c80:	108000cc 	andi	r2,r2,3
 5088c84:	2c800015 	stw	r18,0(r5)
 5088c88:	84a1c83a 	sub	r16,r16,r18
 5088c8c:	1000131e 	bne	r2,zero,5088cdc <__sflush_r+0x158>
 5088c90:	28800517 	ldw	r2,20(r5)
 5088c94:	88800215 	stw	r2,8(r17)
 5088c98:	04000316 	blt	zero,r16,5088ca8 <__sflush_r+0x124>
 5088c9c:	003fed06 	br	5088c54 <__alt_data_end+0xfffbaa54>
 5088ca0:	90a5883a 	add	r18,r18,r2
 5088ca4:	043feb0e 	bge	zero,r16,5088c54 <__alt_data_end+0xfffbaa54>
 5088ca8:	88800917 	ldw	r2,36(r17)
 5088cac:	89400717 	ldw	r5,28(r17)
 5088cb0:	800f883a 	mov	r7,r16
 5088cb4:	900d883a 	mov	r6,r18
 5088cb8:	9809883a 	mov	r4,r19
 5088cbc:	103ee83a 	callr	r2
 5088cc0:	80a1c83a 	sub	r16,r16,r2
 5088cc4:	00bff616 	blt	zero,r2,5088ca0 <__alt_data_end+0xfffbaaa0>
 5088cc8:	88c0030b 	ldhu	r3,12(r17)
 5088ccc:	00bfffc4 	movi	r2,-1
 5088cd0:	18c01014 	ori	r3,r3,64
 5088cd4:	88c0030d 	sth	r3,12(r17)
 5088cd8:	003fdf06 	br	5088c58 <__alt_data_end+0xfffbaa58>
 5088cdc:	0005883a 	mov	r2,zero
 5088ce0:	003fec06 	br	5088c94 <__alt_data_end+0xfffbaa94>
 5088ce4:	88801415 	stw	r2,80(r17)
 5088ce8:	003fd206 	br	5088c34 <__alt_data_end+0xfffbaa34>
 5088cec:	28c00f17 	ldw	r3,60(r5)
 5088cf0:	00ffb316 	blt	zero,r3,5088bc0 <__alt_data_end+0xfffba9c0>
 5088cf4:	003fd706 	br	5088c54 <__alt_data_end+0xfffbaa54>
 5088cf8:	89400717 	ldw	r5,28(r17)
 5088cfc:	000d883a 	mov	r6,zero
 5088d00:	01c00044 	movi	r7,1
 5088d04:	9809883a 	mov	r4,r19
 5088d08:	403ee83a 	callr	r8
 5088d0c:	100d883a 	mov	r6,r2
 5088d10:	00bfffc4 	movi	r2,-1
 5088d14:	30801426 	beq	r6,r2,5088d68 <__sflush_r+0x1e4>
 5088d18:	8880030b 	ldhu	r2,12(r17)
 5088d1c:	8a000a17 	ldw	r8,40(r17)
 5088d20:	003fae06 	br	5088bdc <__alt_data_end+0xfffba9dc>
 5088d24:	98c00017 	ldw	r3,0(r19)
 5088d28:	183fba26 	beq	r3,zero,5088c14 <__alt_data_end+0xfffbaa14>
 5088d2c:	01000744 	movi	r4,29
 5088d30:	19000626 	beq	r3,r4,5088d4c <__sflush_r+0x1c8>
 5088d34:	01000584 	movi	r4,22
 5088d38:	19000426 	beq	r3,r4,5088d4c <__sflush_r+0x1c8>
 5088d3c:	88c0030b 	ldhu	r3,12(r17)
 5088d40:	18c01014 	ori	r3,r3,64
 5088d44:	88c0030d 	sth	r3,12(r17)
 5088d48:	003fc306 	br	5088c58 <__alt_data_end+0xfffbaa58>
 5088d4c:	8880030b 	ldhu	r2,12(r17)
 5088d50:	88c00417 	ldw	r3,16(r17)
 5088d54:	88000115 	stw	zero,4(r17)
 5088d58:	10bdffcc 	andi	r2,r2,63487
 5088d5c:	8880030d 	sth	r2,12(r17)
 5088d60:	88c00015 	stw	r3,0(r17)
 5088d64:	003fb306 	br	5088c34 <__alt_data_end+0xfffbaa34>
 5088d68:	98800017 	ldw	r2,0(r19)
 5088d6c:	103fea26 	beq	r2,zero,5088d18 <__alt_data_end+0xfffbab18>
 5088d70:	00c00744 	movi	r3,29
 5088d74:	10c00226 	beq	r2,r3,5088d80 <__sflush_r+0x1fc>
 5088d78:	00c00584 	movi	r3,22
 5088d7c:	10c0031e 	bne	r2,r3,5088d8c <__sflush_r+0x208>
 5088d80:	9c000015 	stw	r16,0(r19)
 5088d84:	0005883a 	mov	r2,zero
 5088d88:	003fb306 	br	5088c58 <__alt_data_end+0xfffbaa58>
 5088d8c:	88c0030b 	ldhu	r3,12(r17)
 5088d90:	3005883a 	mov	r2,r6
 5088d94:	18c01014 	ori	r3,r3,64
 5088d98:	88c0030d 	sth	r3,12(r17)
 5088d9c:	003fae06 	br	5088c58 <__alt_data_end+0xfffbaa58>

05088da0 <_fflush_r>:
 5088da0:	defffd04 	addi	sp,sp,-12
 5088da4:	dc000115 	stw	r16,4(sp)
 5088da8:	dfc00215 	stw	ra,8(sp)
 5088dac:	2021883a 	mov	r16,r4
 5088db0:	20000226 	beq	r4,zero,5088dbc <_fflush_r+0x1c>
 5088db4:	20800e17 	ldw	r2,56(r4)
 5088db8:	10000c26 	beq	r2,zero,5088dec <_fflush_r+0x4c>
 5088dbc:	2880030f 	ldh	r2,12(r5)
 5088dc0:	1000051e 	bne	r2,zero,5088dd8 <_fflush_r+0x38>
 5088dc4:	0005883a 	mov	r2,zero
 5088dc8:	dfc00217 	ldw	ra,8(sp)
 5088dcc:	dc000117 	ldw	r16,4(sp)
 5088dd0:	dec00304 	addi	sp,sp,12
 5088dd4:	f800283a 	ret
 5088dd8:	8009883a 	mov	r4,r16
 5088ddc:	dfc00217 	ldw	ra,8(sp)
 5088de0:	dc000117 	ldw	r16,4(sp)
 5088de4:	dec00304 	addi	sp,sp,12
 5088de8:	5088b841 	jmpi	5088b84 <__sflush_r>
 5088dec:	d9400015 	stw	r5,0(sp)
 5088df0:	508917c0 	call	508917c <__sinit>
 5088df4:	d9400017 	ldw	r5,0(sp)
 5088df8:	003ff006 	br	5088dbc <__alt_data_end+0xfffbabbc>

05088dfc <fflush>:
 5088dfc:	20000526 	beq	r4,zero,5088e14 <fflush+0x18>
 5088e00:	00814274 	movhi	r2,1289
 5088e04:	109ef004 	addi	r2,r2,31680
 5088e08:	200b883a 	mov	r5,r4
 5088e0c:	11000017 	ldw	r4,0(r2)
 5088e10:	5088da01 	jmpi	5088da0 <_fflush_r>
 5088e14:	00814274 	movhi	r2,1289
 5088e18:	109eef04 	addi	r2,r2,31676
 5088e1c:	11000017 	ldw	r4,0(r2)
 5088e20:	01414274 	movhi	r5,1289
 5088e24:	29636804 	addi	r5,r5,-29280
 5088e28:	5089b801 	jmpi	5089b80 <_fwalk_reent>

05088e2c <__fp_unlock>:
 5088e2c:	0005883a 	mov	r2,zero
 5088e30:	f800283a 	ret

05088e34 <_cleanup_r>:
 5088e34:	01414274 	movhi	r5,1289
 5088e38:	297be904 	addi	r5,r5,-4188
 5088e3c:	5089b801 	jmpi	5089b80 <_fwalk_reent>

05088e40 <__sinit.part.1>:
 5088e40:	defff704 	addi	sp,sp,-36
 5088e44:	00c14274 	movhi	r3,1289
 5088e48:	dfc00815 	stw	ra,32(sp)
 5088e4c:	ddc00715 	stw	r23,28(sp)
 5088e50:	dd800615 	stw	r22,24(sp)
 5088e54:	dd400515 	stw	r21,20(sp)
 5088e58:	dd000415 	stw	r20,16(sp)
 5088e5c:	dcc00315 	stw	r19,12(sp)
 5088e60:	dc800215 	stw	r18,8(sp)
 5088e64:	dc400115 	stw	r17,4(sp)
 5088e68:	dc000015 	stw	r16,0(sp)
 5088e6c:	18e38d04 	addi	r3,r3,-29132
 5088e70:	24000117 	ldw	r16,4(r4)
 5088e74:	20c00f15 	stw	r3,60(r4)
 5088e78:	2080bb04 	addi	r2,r4,748
 5088e7c:	00c000c4 	movi	r3,3
 5088e80:	20c0b915 	stw	r3,740(r4)
 5088e84:	2080ba15 	stw	r2,744(r4)
 5088e88:	2000b815 	stw	zero,736(r4)
 5088e8c:	05c00204 	movi	r23,8
 5088e90:	00800104 	movi	r2,4
 5088e94:	2025883a 	mov	r18,r4
 5088e98:	b80d883a 	mov	r6,r23
 5088e9c:	81001704 	addi	r4,r16,92
 5088ea0:	000b883a 	mov	r5,zero
 5088ea4:	80000015 	stw	zero,0(r16)
 5088ea8:	80000115 	stw	zero,4(r16)
 5088eac:	80000215 	stw	zero,8(r16)
 5088eb0:	8080030d 	sth	r2,12(r16)
 5088eb4:	80001915 	stw	zero,100(r16)
 5088eb8:	8000038d 	sth	zero,14(r16)
 5088ebc:	80000415 	stw	zero,16(r16)
 5088ec0:	80000515 	stw	zero,20(r16)
 5088ec4:	80000615 	stw	zero,24(r16)
 5088ec8:	508aa700 	call	508aa70 <memset>
 5088ecc:	05814274 	movhi	r22,1289
 5088ed0:	94400217 	ldw	r17,8(r18)
 5088ed4:	05414274 	movhi	r21,1289
 5088ed8:	05014274 	movhi	r20,1289
 5088edc:	04c14274 	movhi	r19,1289
 5088ee0:	b5b07004 	addi	r22,r22,-15936
 5088ee4:	ad708704 	addi	r21,r21,-15844
 5088ee8:	a530a604 	addi	r20,r20,-15720
 5088eec:	9cf0bd04 	addi	r19,r19,-15628
 5088ef0:	85800815 	stw	r22,32(r16)
 5088ef4:	85400915 	stw	r21,36(r16)
 5088ef8:	85000a15 	stw	r20,40(r16)
 5088efc:	84c00b15 	stw	r19,44(r16)
 5088f00:	84000715 	stw	r16,28(r16)
 5088f04:	00800284 	movi	r2,10
 5088f08:	8880030d 	sth	r2,12(r17)
 5088f0c:	00800044 	movi	r2,1
 5088f10:	b80d883a 	mov	r6,r23
 5088f14:	89001704 	addi	r4,r17,92
 5088f18:	000b883a 	mov	r5,zero
 5088f1c:	88000015 	stw	zero,0(r17)
 5088f20:	88000115 	stw	zero,4(r17)
 5088f24:	88000215 	stw	zero,8(r17)
 5088f28:	88001915 	stw	zero,100(r17)
 5088f2c:	8880038d 	sth	r2,14(r17)
 5088f30:	88000415 	stw	zero,16(r17)
 5088f34:	88000515 	stw	zero,20(r17)
 5088f38:	88000615 	stw	zero,24(r17)
 5088f3c:	508aa700 	call	508aa70 <memset>
 5088f40:	94000317 	ldw	r16,12(r18)
 5088f44:	00800484 	movi	r2,18
 5088f48:	8c400715 	stw	r17,28(r17)
 5088f4c:	8d800815 	stw	r22,32(r17)
 5088f50:	8d400915 	stw	r21,36(r17)
 5088f54:	8d000a15 	stw	r20,40(r17)
 5088f58:	8cc00b15 	stw	r19,44(r17)
 5088f5c:	8080030d 	sth	r2,12(r16)
 5088f60:	00800084 	movi	r2,2
 5088f64:	80000015 	stw	zero,0(r16)
 5088f68:	80000115 	stw	zero,4(r16)
 5088f6c:	80000215 	stw	zero,8(r16)
 5088f70:	80001915 	stw	zero,100(r16)
 5088f74:	8080038d 	sth	r2,14(r16)
 5088f78:	80000415 	stw	zero,16(r16)
 5088f7c:	80000515 	stw	zero,20(r16)
 5088f80:	80000615 	stw	zero,24(r16)
 5088f84:	b80d883a 	mov	r6,r23
 5088f88:	000b883a 	mov	r5,zero
 5088f8c:	81001704 	addi	r4,r16,92
 5088f90:	508aa700 	call	508aa70 <memset>
 5088f94:	00800044 	movi	r2,1
 5088f98:	84000715 	stw	r16,28(r16)
 5088f9c:	85800815 	stw	r22,32(r16)
 5088fa0:	85400915 	stw	r21,36(r16)
 5088fa4:	85000a15 	stw	r20,40(r16)
 5088fa8:	84c00b15 	stw	r19,44(r16)
 5088fac:	90800e15 	stw	r2,56(r18)
 5088fb0:	dfc00817 	ldw	ra,32(sp)
 5088fb4:	ddc00717 	ldw	r23,28(sp)
 5088fb8:	dd800617 	ldw	r22,24(sp)
 5088fbc:	dd400517 	ldw	r21,20(sp)
 5088fc0:	dd000417 	ldw	r20,16(sp)
 5088fc4:	dcc00317 	ldw	r19,12(sp)
 5088fc8:	dc800217 	ldw	r18,8(sp)
 5088fcc:	dc400117 	ldw	r17,4(sp)
 5088fd0:	dc000017 	ldw	r16,0(sp)
 5088fd4:	dec00904 	addi	sp,sp,36
 5088fd8:	f800283a 	ret

05088fdc <__fp_lock>:
 5088fdc:	0005883a 	mov	r2,zero
 5088fe0:	f800283a 	ret

05088fe4 <__sfmoreglue>:
 5088fe4:	defffc04 	addi	sp,sp,-16
 5088fe8:	dc400115 	stw	r17,4(sp)
 5088fec:	2c7fffc4 	addi	r17,r5,-1
 5088ff0:	8c401a24 	muli	r17,r17,104
 5088ff4:	dc800215 	stw	r18,8(sp)
 5088ff8:	2825883a 	mov	r18,r5
 5088ffc:	89401d04 	addi	r5,r17,116
 5089000:	dc000015 	stw	r16,0(sp)
 5089004:	dfc00315 	stw	ra,12(sp)
 5089008:	5089edc0 	call	5089edc <_malloc_r>
 508900c:	1021883a 	mov	r16,r2
 5089010:	10000726 	beq	r2,zero,5089030 <__sfmoreglue+0x4c>
 5089014:	11000304 	addi	r4,r2,12
 5089018:	10000015 	stw	zero,0(r2)
 508901c:	14800115 	stw	r18,4(r2)
 5089020:	11000215 	stw	r4,8(r2)
 5089024:	89801a04 	addi	r6,r17,104
 5089028:	000b883a 	mov	r5,zero
 508902c:	508aa700 	call	508aa70 <memset>
 5089030:	8005883a 	mov	r2,r16
 5089034:	dfc00317 	ldw	ra,12(sp)
 5089038:	dc800217 	ldw	r18,8(sp)
 508903c:	dc400117 	ldw	r17,4(sp)
 5089040:	dc000017 	ldw	r16,0(sp)
 5089044:	dec00404 	addi	sp,sp,16
 5089048:	f800283a 	ret

0508904c <__sfp>:
 508904c:	defffb04 	addi	sp,sp,-20
 5089050:	dc000015 	stw	r16,0(sp)
 5089054:	04014274 	movhi	r16,1289
 5089058:	841eef04 	addi	r16,r16,31676
 508905c:	dcc00315 	stw	r19,12(sp)
 5089060:	2027883a 	mov	r19,r4
 5089064:	81000017 	ldw	r4,0(r16)
 5089068:	dfc00415 	stw	ra,16(sp)
 508906c:	dc800215 	stw	r18,8(sp)
 5089070:	20800e17 	ldw	r2,56(r4)
 5089074:	dc400115 	stw	r17,4(sp)
 5089078:	1000021e 	bne	r2,zero,5089084 <__sfp+0x38>
 508907c:	5088e400 	call	5088e40 <__sinit.part.1>
 5089080:	81000017 	ldw	r4,0(r16)
 5089084:	2480b804 	addi	r18,r4,736
 5089088:	047fffc4 	movi	r17,-1
 508908c:	91000117 	ldw	r4,4(r18)
 5089090:	94000217 	ldw	r16,8(r18)
 5089094:	213fffc4 	addi	r4,r4,-1
 5089098:	20000a16 	blt	r4,zero,50890c4 <__sfp+0x78>
 508909c:	8080030f 	ldh	r2,12(r16)
 50890a0:	10000c26 	beq	r2,zero,50890d4 <__sfp+0x88>
 50890a4:	80c01d04 	addi	r3,r16,116
 50890a8:	00000206 	br	50890b4 <__sfp+0x68>
 50890ac:	18bfe60f 	ldh	r2,-104(r3)
 50890b0:	10000826 	beq	r2,zero,50890d4 <__sfp+0x88>
 50890b4:	213fffc4 	addi	r4,r4,-1
 50890b8:	1c3ffd04 	addi	r16,r3,-12
 50890bc:	18c01a04 	addi	r3,r3,104
 50890c0:	247ffa1e 	bne	r4,r17,50890ac <__alt_data_end+0xfffbaeac>
 50890c4:	90800017 	ldw	r2,0(r18)
 50890c8:	10001d26 	beq	r2,zero,5089140 <__sfp+0xf4>
 50890cc:	1025883a 	mov	r18,r2
 50890d0:	003fee06 	br	508908c <__alt_data_end+0xfffbae8c>
 50890d4:	00bfffc4 	movi	r2,-1
 50890d8:	8080038d 	sth	r2,14(r16)
 50890dc:	00800044 	movi	r2,1
 50890e0:	8080030d 	sth	r2,12(r16)
 50890e4:	80001915 	stw	zero,100(r16)
 50890e8:	80000015 	stw	zero,0(r16)
 50890ec:	80000215 	stw	zero,8(r16)
 50890f0:	80000115 	stw	zero,4(r16)
 50890f4:	80000415 	stw	zero,16(r16)
 50890f8:	80000515 	stw	zero,20(r16)
 50890fc:	80000615 	stw	zero,24(r16)
 5089100:	01800204 	movi	r6,8
 5089104:	000b883a 	mov	r5,zero
 5089108:	81001704 	addi	r4,r16,92
 508910c:	508aa700 	call	508aa70 <memset>
 5089110:	8005883a 	mov	r2,r16
 5089114:	80000c15 	stw	zero,48(r16)
 5089118:	80000d15 	stw	zero,52(r16)
 508911c:	80001115 	stw	zero,68(r16)
 5089120:	80001215 	stw	zero,72(r16)
 5089124:	dfc00417 	ldw	ra,16(sp)
 5089128:	dcc00317 	ldw	r19,12(sp)
 508912c:	dc800217 	ldw	r18,8(sp)
 5089130:	dc400117 	ldw	r17,4(sp)
 5089134:	dc000017 	ldw	r16,0(sp)
 5089138:	dec00504 	addi	sp,sp,20
 508913c:	f800283a 	ret
 5089140:	01400104 	movi	r5,4
 5089144:	9809883a 	mov	r4,r19
 5089148:	5088fe40 	call	5088fe4 <__sfmoreglue>
 508914c:	90800015 	stw	r2,0(r18)
 5089150:	103fde1e 	bne	r2,zero,50890cc <__alt_data_end+0xfffbaecc>
 5089154:	00800304 	movi	r2,12
 5089158:	98800015 	stw	r2,0(r19)
 508915c:	0005883a 	mov	r2,zero
 5089160:	003ff006 	br	5089124 <__alt_data_end+0xfffbaf24>

05089164 <_cleanup>:
 5089164:	00814274 	movhi	r2,1289
 5089168:	109eef04 	addi	r2,r2,31676
 508916c:	11000017 	ldw	r4,0(r2)
 5089170:	01414274 	movhi	r5,1289
 5089174:	297be904 	addi	r5,r5,-4188
 5089178:	5089b801 	jmpi	5089b80 <_fwalk_reent>

0508917c <__sinit>:
 508917c:	20800e17 	ldw	r2,56(r4)
 5089180:	10000126 	beq	r2,zero,5089188 <__sinit+0xc>
 5089184:	f800283a 	ret
 5089188:	5088e401 	jmpi	5088e40 <__sinit.part.1>

0508918c <__sfp_lock_acquire>:
 508918c:	f800283a 	ret

05089190 <__sfp_lock_release>:
 5089190:	f800283a 	ret

05089194 <__sinit_lock_acquire>:
 5089194:	f800283a 	ret

05089198 <__sinit_lock_release>:
 5089198:	f800283a 	ret

0508919c <__fp_lock_all>:
 508919c:	00814274 	movhi	r2,1289
 50891a0:	109ef004 	addi	r2,r2,31680
 50891a4:	11000017 	ldw	r4,0(r2)
 50891a8:	01414274 	movhi	r5,1289
 50891ac:	2963f704 	addi	r5,r5,-28708
 50891b0:	5089abc1 	jmpi	5089abc <_fwalk>

050891b4 <__fp_unlock_all>:
 50891b4:	00814274 	movhi	r2,1289
 50891b8:	109ef004 	addi	r2,r2,31680
 50891bc:	11000017 	ldw	r4,0(r2)
 50891c0:	01414274 	movhi	r5,1289
 50891c4:	29638b04 	addi	r5,r5,-29140
 50891c8:	5089abc1 	jmpi	5089abc <_fwalk>

050891cc <_malloc_trim_r>:
 50891cc:	defffb04 	addi	sp,sp,-20
 50891d0:	dcc00315 	stw	r19,12(sp)
 50891d4:	04c14274 	movhi	r19,1289
 50891d8:	dc800215 	stw	r18,8(sp)
 50891dc:	dc400115 	stw	r17,4(sp)
 50891e0:	dc000015 	stw	r16,0(sp)
 50891e4:	dfc00415 	stw	ra,16(sp)
 50891e8:	2821883a 	mov	r16,r5
 50891ec:	9cd96b04 	addi	r19,r19,26028
 50891f0:	2025883a 	mov	r18,r4
 50891f4:	5092f740 	call	5092f74 <__malloc_lock>
 50891f8:	98800217 	ldw	r2,8(r19)
 50891fc:	14400117 	ldw	r17,4(r2)
 5089200:	00bfff04 	movi	r2,-4
 5089204:	88a2703a 	and	r17,r17,r2
 5089208:	8c21c83a 	sub	r16,r17,r16
 508920c:	8403fbc4 	addi	r16,r16,4079
 5089210:	8020d33a 	srli	r16,r16,12
 5089214:	0083ffc4 	movi	r2,4095
 5089218:	843fffc4 	addi	r16,r16,-1
 508921c:	8020933a 	slli	r16,r16,12
 5089220:	1400060e 	bge	r2,r16,508923c <_malloc_trim_r+0x70>
 5089224:	000b883a 	mov	r5,zero
 5089228:	9009883a 	mov	r4,r18
 508922c:	508c16c0 	call	508c16c <_sbrk_r>
 5089230:	98c00217 	ldw	r3,8(r19)
 5089234:	1c47883a 	add	r3,r3,r17
 5089238:	10c00a26 	beq	r2,r3,5089264 <_malloc_trim_r+0x98>
 508923c:	9009883a 	mov	r4,r18
 5089240:	5092f980 	call	5092f98 <__malloc_unlock>
 5089244:	0005883a 	mov	r2,zero
 5089248:	dfc00417 	ldw	ra,16(sp)
 508924c:	dcc00317 	ldw	r19,12(sp)
 5089250:	dc800217 	ldw	r18,8(sp)
 5089254:	dc400117 	ldw	r17,4(sp)
 5089258:	dc000017 	ldw	r16,0(sp)
 508925c:	dec00504 	addi	sp,sp,20
 5089260:	f800283a 	ret
 5089264:	040bc83a 	sub	r5,zero,r16
 5089268:	9009883a 	mov	r4,r18
 508926c:	508c16c0 	call	508c16c <_sbrk_r>
 5089270:	00ffffc4 	movi	r3,-1
 5089274:	10c00d26 	beq	r2,r3,50892ac <_malloc_trim_r+0xe0>
 5089278:	00c142b4 	movhi	r3,1290
 508927c:	18e5d904 	addi	r3,r3,-26780
 5089280:	18800017 	ldw	r2,0(r3)
 5089284:	99000217 	ldw	r4,8(r19)
 5089288:	8c23c83a 	sub	r17,r17,r16
 508928c:	8c400054 	ori	r17,r17,1
 5089290:	1421c83a 	sub	r16,r2,r16
 5089294:	24400115 	stw	r17,4(r4)
 5089298:	9009883a 	mov	r4,r18
 508929c:	1c000015 	stw	r16,0(r3)
 50892a0:	5092f980 	call	5092f98 <__malloc_unlock>
 50892a4:	00800044 	movi	r2,1
 50892a8:	003fe706 	br	5089248 <__alt_data_end+0xfffbb048>
 50892ac:	000b883a 	mov	r5,zero
 50892b0:	9009883a 	mov	r4,r18
 50892b4:	508c16c0 	call	508c16c <_sbrk_r>
 50892b8:	99000217 	ldw	r4,8(r19)
 50892bc:	014003c4 	movi	r5,15
 50892c0:	1107c83a 	sub	r3,r2,r4
 50892c4:	28ffdd0e 	bge	r5,r3,508923c <__alt_data_end+0xfffbb03c>
 50892c8:	01414274 	movhi	r5,1289
 50892cc:	295ef204 	addi	r5,r5,31688
 50892d0:	29400017 	ldw	r5,0(r5)
 50892d4:	18c00054 	ori	r3,r3,1
 50892d8:	20c00115 	stw	r3,4(r4)
 50892dc:	00c142b4 	movhi	r3,1290
 50892e0:	1145c83a 	sub	r2,r2,r5
 50892e4:	18e5d904 	addi	r3,r3,-26780
 50892e8:	18800015 	stw	r2,0(r3)
 50892ec:	003fd306 	br	508923c <__alt_data_end+0xfffbb03c>

050892f0 <_free_r>:
 50892f0:	28004126 	beq	r5,zero,50893f8 <_free_r+0x108>
 50892f4:	defffd04 	addi	sp,sp,-12
 50892f8:	dc400115 	stw	r17,4(sp)
 50892fc:	dc000015 	stw	r16,0(sp)
 5089300:	2023883a 	mov	r17,r4
 5089304:	2821883a 	mov	r16,r5
 5089308:	dfc00215 	stw	ra,8(sp)
 508930c:	5092f740 	call	5092f74 <__malloc_lock>
 5089310:	81ffff17 	ldw	r7,-4(r16)
 5089314:	00bfff84 	movi	r2,-2
 5089318:	01014274 	movhi	r4,1289
 508931c:	81bffe04 	addi	r6,r16,-8
 5089320:	3884703a 	and	r2,r7,r2
 5089324:	21196b04 	addi	r4,r4,26028
 5089328:	308b883a 	add	r5,r6,r2
 508932c:	2a400117 	ldw	r9,4(r5)
 5089330:	22000217 	ldw	r8,8(r4)
 5089334:	00ffff04 	movi	r3,-4
 5089338:	48c6703a 	and	r3,r9,r3
 508933c:	2a005726 	beq	r5,r8,508949c <_free_r+0x1ac>
 5089340:	28c00115 	stw	r3,4(r5)
 5089344:	39c0004c 	andi	r7,r7,1
 5089348:	3800091e 	bne	r7,zero,5089370 <_free_r+0x80>
 508934c:	823ffe17 	ldw	r8,-8(r16)
 5089350:	22400204 	addi	r9,r4,8
 5089354:	320dc83a 	sub	r6,r6,r8
 5089358:	31c00217 	ldw	r7,8(r6)
 508935c:	1205883a 	add	r2,r2,r8
 5089360:	3a406526 	beq	r7,r9,50894f8 <_free_r+0x208>
 5089364:	32000317 	ldw	r8,12(r6)
 5089368:	3a000315 	stw	r8,12(r7)
 508936c:	41c00215 	stw	r7,8(r8)
 5089370:	28cf883a 	add	r7,r5,r3
 5089374:	39c00117 	ldw	r7,4(r7)
 5089378:	39c0004c 	andi	r7,r7,1
 508937c:	38003a26 	beq	r7,zero,5089468 <_free_r+0x178>
 5089380:	10c00054 	ori	r3,r2,1
 5089384:	30c00115 	stw	r3,4(r6)
 5089388:	3087883a 	add	r3,r6,r2
 508938c:	18800015 	stw	r2,0(r3)
 5089390:	00c07fc4 	movi	r3,511
 5089394:	18801936 	bltu	r3,r2,50893fc <_free_r+0x10c>
 5089398:	1004d0fa 	srli	r2,r2,3
 508939c:	01c00044 	movi	r7,1
 50893a0:	21400117 	ldw	r5,4(r4)
 50893a4:	10c00044 	addi	r3,r2,1
 50893a8:	18c7883a 	add	r3,r3,r3
 50893ac:	1005d0ba 	srai	r2,r2,2
 50893b0:	18c7883a 	add	r3,r3,r3
 50893b4:	18c7883a 	add	r3,r3,r3
 50893b8:	1907883a 	add	r3,r3,r4
 50893bc:	3884983a 	sll	r2,r7,r2
 50893c0:	19c00017 	ldw	r7,0(r3)
 50893c4:	1a3ffe04 	addi	r8,r3,-8
 50893c8:	1144b03a 	or	r2,r2,r5
 50893cc:	32000315 	stw	r8,12(r6)
 50893d0:	31c00215 	stw	r7,8(r6)
 50893d4:	20800115 	stw	r2,4(r4)
 50893d8:	19800015 	stw	r6,0(r3)
 50893dc:	39800315 	stw	r6,12(r7)
 50893e0:	8809883a 	mov	r4,r17
 50893e4:	dfc00217 	ldw	ra,8(sp)
 50893e8:	dc400117 	ldw	r17,4(sp)
 50893ec:	dc000017 	ldw	r16,0(sp)
 50893f0:	dec00304 	addi	sp,sp,12
 50893f4:	5092f981 	jmpi	5092f98 <__malloc_unlock>
 50893f8:	f800283a 	ret
 50893fc:	100ad27a 	srli	r5,r2,9
 5089400:	00c00104 	movi	r3,4
 5089404:	19404a36 	bltu	r3,r5,5089530 <_free_r+0x240>
 5089408:	100ad1ba 	srli	r5,r2,6
 508940c:	28c00e44 	addi	r3,r5,57
 5089410:	18c7883a 	add	r3,r3,r3
 5089414:	29400e04 	addi	r5,r5,56
 5089418:	18c7883a 	add	r3,r3,r3
 508941c:	18c7883a 	add	r3,r3,r3
 5089420:	1909883a 	add	r4,r3,r4
 5089424:	20c00017 	ldw	r3,0(r4)
 5089428:	01c14274 	movhi	r7,1289
 508942c:	213ffe04 	addi	r4,r4,-8
 5089430:	39d96b04 	addi	r7,r7,26028
 5089434:	20c04426 	beq	r4,r3,5089548 <_free_r+0x258>
 5089438:	01ffff04 	movi	r7,-4
 508943c:	19400117 	ldw	r5,4(r3)
 5089440:	29ca703a 	and	r5,r5,r7
 5089444:	1140022e 	bgeu	r2,r5,5089450 <_free_r+0x160>
 5089448:	18c00217 	ldw	r3,8(r3)
 508944c:	20fffb1e 	bne	r4,r3,508943c <__alt_data_end+0xfffbb23c>
 5089450:	19000317 	ldw	r4,12(r3)
 5089454:	31000315 	stw	r4,12(r6)
 5089458:	30c00215 	stw	r3,8(r6)
 508945c:	21800215 	stw	r6,8(r4)
 5089460:	19800315 	stw	r6,12(r3)
 5089464:	003fde06 	br	50893e0 <__alt_data_end+0xfffbb1e0>
 5089468:	29c00217 	ldw	r7,8(r5)
 508946c:	10c5883a 	add	r2,r2,r3
 5089470:	00c14274 	movhi	r3,1289
 5089474:	18d96d04 	addi	r3,r3,26036
 5089478:	38c03b26 	beq	r7,r3,5089568 <_free_r+0x278>
 508947c:	2a000317 	ldw	r8,12(r5)
 5089480:	11400054 	ori	r5,r2,1
 5089484:	3087883a 	add	r3,r6,r2
 5089488:	3a000315 	stw	r8,12(r7)
 508948c:	41c00215 	stw	r7,8(r8)
 5089490:	31400115 	stw	r5,4(r6)
 5089494:	18800015 	stw	r2,0(r3)
 5089498:	003fbd06 	br	5089390 <__alt_data_end+0xfffbb190>
 508949c:	39c0004c 	andi	r7,r7,1
 50894a0:	10c5883a 	add	r2,r2,r3
 50894a4:	3800071e 	bne	r7,zero,50894c4 <_free_r+0x1d4>
 50894a8:	81fffe17 	ldw	r7,-8(r16)
 50894ac:	31cdc83a 	sub	r6,r6,r7
 50894b0:	30c00317 	ldw	r3,12(r6)
 50894b4:	31400217 	ldw	r5,8(r6)
 50894b8:	11c5883a 	add	r2,r2,r7
 50894bc:	28c00315 	stw	r3,12(r5)
 50894c0:	19400215 	stw	r5,8(r3)
 50894c4:	10c00054 	ori	r3,r2,1
 50894c8:	30c00115 	stw	r3,4(r6)
 50894cc:	00c14274 	movhi	r3,1289
 50894d0:	18def304 	addi	r3,r3,31692
 50894d4:	18c00017 	ldw	r3,0(r3)
 50894d8:	21800215 	stw	r6,8(r4)
 50894dc:	10ffc036 	bltu	r2,r3,50893e0 <__alt_data_end+0xfffbb1e0>
 50894e0:	008142b4 	movhi	r2,1290
 50894e4:	10a5c604 	addi	r2,r2,-26856
 50894e8:	11400017 	ldw	r5,0(r2)
 50894ec:	8809883a 	mov	r4,r17
 50894f0:	50891cc0 	call	50891cc <_malloc_trim_r>
 50894f4:	003fba06 	br	50893e0 <__alt_data_end+0xfffbb1e0>
 50894f8:	28c9883a 	add	r4,r5,r3
 50894fc:	21000117 	ldw	r4,4(r4)
 5089500:	2100004c 	andi	r4,r4,1
 5089504:	2000391e 	bne	r4,zero,50895ec <_free_r+0x2fc>
 5089508:	29c00217 	ldw	r7,8(r5)
 508950c:	29000317 	ldw	r4,12(r5)
 5089510:	1885883a 	add	r2,r3,r2
 5089514:	10c00054 	ori	r3,r2,1
 5089518:	39000315 	stw	r4,12(r7)
 508951c:	21c00215 	stw	r7,8(r4)
 5089520:	30c00115 	stw	r3,4(r6)
 5089524:	308d883a 	add	r6,r6,r2
 5089528:	30800015 	stw	r2,0(r6)
 508952c:	003fac06 	br	50893e0 <__alt_data_end+0xfffbb1e0>
 5089530:	00c00504 	movi	r3,20
 5089534:	19401536 	bltu	r3,r5,508958c <_free_r+0x29c>
 5089538:	28c01704 	addi	r3,r5,92
 508953c:	18c7883a 	add	r3,r3,r3
 5089540:	294016c4 	addi	r5,r5,91
 5089544:	003fb406 	br	5089418 <__alt_data_end+0xfffbb218>
 5089548:	280bd0ba 	srai	r5,r5,2
 508954c:	00c00044 	movi	r3,1
 5089550:	38800117 	ldw	r2,4(r7)
 5089554:	194a983a 	sll	r5,r3,r5
 5089558:	2007883a 	mov	r3,r4
 508955c:	2884b03a 	or	r2,r5,r2
 5089560:	38800115 	stw	r2,4(r7)
 5089564:	003fbb06 	br	5089454 <__alt_data_end+0xfffbb254>
 5089568:	21800515 	stw	r6,20(r4)
 508956c:	21800415 	stw	r6,16(r4)
 5089570:	10c00054 	ori	r3,r2,1
 5089574:	31c00315 	stw	r7,12(r6)
 5089578:	31c00215 	stw	r7,8(r6)
 508957c:	30c00115 	stw	r3,4(r6)
 5089580:	308d883a 	add	r6,r6,r2
 5089584:	30800015 	stw	r2,0(r6)
 5089588:	003f9506 	br	50893e0 <__alt_data_end+0xfffbb1e0>
 508958c:	00c01504 	movi	r3,84
 5089590:	19400536 	bltu	r3,r5,50895a8 <_free_r+0x2b8>
 5089594:	100ad33a 	srli	r5,r2,12
 5089598:	28c01bc4 	addi	r3,r5,111
 508959c:	18c7883a 	add	r3,r3,r3
 50895a0:	29401b84 	addi	r5,r5,110
 50895a4:	003f9c06 	br	5089418 <__alt_data_end+0xfffbb218>
 50895a8:	00c05504 	movi	r3,340
 50895ac:	19400536 	bltu	r3,r5,50895c4 <_free_r+0x2d4>
 50895b0:	100ad3fa 	srli	r5,r2,15
 50895b4:	28c01e04 	addi	r3,r5,120
 50895b8:	18c7883a 	add	r3,r3,r3
 50895bc:	29401dc4 	addi	r5,r5,119
 50895c0:	003f9506 	br	5089418 <__alt_data_end+0xfffbb218>
 50895c4:	00c15504 	movi	r3,1364
 50895c8:	19400536 	bltu	r3,r5,50895e0 <_free_r+0x2f0>
 50895cc:	100ad4ba 	srli	r5,r2,18
 50895d0:	28c01f44 	addi	r3,r5,125
 50895d4:	18c7883a 	add	r3,r3,r3
 50895d8:	29401f04 	addi	r5,r5,124
 50895dc:	003f8e06 	br	5089418 <__alt_data_end+0xfffbb218>
 50895e0:	00c03f84 	movi	r3,254
 50895e4:	01401f84 	movi	r5,126
 50895e8:	003f8b06 	br	5089418 <__alt_data_end+0xfffbb218>
 50895ec:	10c00054 	ori	r3,r2,1
 50895f0:	30c00115 	stw	r3,4(r6)
 50895f4:	308d883a 	add	r6,r6,r2
 50895f8:	30800015 	stw	r2,0(r6)
 50895fc:	003f7806 	br	50893e0 <__alt_data_end+0xfffbb1e0>

05089600 <__sfvwrite_r>:
 5089600:	30800217 	ldw	r2,8(r6)
 5089604:	10006726 	beq	r2,zero,50897a4 <__sfvwrite_r+0x1a4>
 5089608:	28c0030b 	ldhu	r3,12(r5)
 508960c:	defff404 	addi	sp,sp,-48
 5089610:	dd400715 	stw	r21,28(sp)
 5089614:	dd000615 	stw	r20,24(sp)
 5089618:	dc000215 	stw	r16,8(sp)
 508961c:	dfc00b15 	stw	ra,44(sp)
 5089620:	df000a15 	stw	fp,40(sp)
 5089624:	ddc00915 	stw	r23,36(sp)
 5089628:	dd800815 	stw	r22,32(sp)
 508962c:	dcc00515 	stw	r19,20(sp)
 5089630:	dc800415 	stw	r18,16(sp)
 5089634:	dc400315 	stw	r17,12(sp)
 5089638:	1880020c 	andi	r2,r3,8
 508963c:	2821883a 	mov	r16,r5
 5089640:	202b883a 	mov	r21,r4
 5089644:	3029883a 	mov	r20,r6
 5089648:	10002726 	beq	r2,zero,50896e8 <__sfvwrite_r+0xe8>
 508964c:	28800417 	ldw	r2,16(r5)
 5089650:	10002526 	beq	r2,zero,50896e8 <__sfvwrite_r+0xe8>
 5089654:	1880008c 	andi	r2,r3,2
 5089658:	a4400017 	ldw	r17,0(r20)
 508965c:	10002a26 	beq	r2,zero,5089708 <__sfvwrite_r+0x108>
 5089660:	05a00034 	movhi	r22,32768
 5089664:	0027883a 	mov	r19,zero
 5089668:	0025883a 	mov	r18,zero
 508966c:	b5bf0004 	addi	r22,r22,-1024
 5089670:	980d883a 	mov	r6,r19
 5089674:	a809883a 	mov	r4,r21
 5089678:	90004626 	beq	r18,zero,5089794 <__sfvwrite_r+0x194>
 508967c:	900f883a 	mov	r7,r18
 5089680:	b480022e 	bgeu	r22,r18,508968c <__sfvwrite_r+0x8c>
 5089684:	01e00034 	movhi	r7,32768
 5089688:	39ff0004 	addi	r7,r7,-1024
 508968c:	80800917 	ldw	r2,36(r16)
 5089690:	81400717 	ldw	r5,28(r16)
 5089694:	103ee83a 	callr	r2
 5089698:	0080570e 	bge	zero,r2,50897f8 <__sfvwrite_r+0x1f8>
 508969c:	a0c00217 	ldw	r3,8(r20)
 50896a0:	98a7883a 	add	r19,r19,r2
 50896a4:	90a5c83a 	sub	r18,r18,r2
 50896a8:	1885c83a 	sub	r2,r3,r2
 50896ac:	a0800215 	stw	r2,8(r20)
 50896b0:	103fef1e 	bne	r2,zero,5089670 <__alt_data_end+0xfffbb470>
 50896b4:	0005883a 	mov	r2,zero
 50896b8:	dfc00b17 	ldw	ra,44(sp)
 50896bc:	df000a17 	ldw	fp,40(sp)
 50896c0:	ddc00917 	ldw	r23,36(sp)
 50896c4:	dd800817 	ldw	r22,32(sp)
 50896c8:	dd400717 	ldw	r21,28(sp)
 50896cc:	dd000617 	ldw	r20,24(sp)
 50896d0:	dcc00517 	ldw	r19,20(sp)
 50896d4:	dc800417 	ldw	r18,16(sp)
 50896d8:	dc400317 	ldw	r17,12(sp)
 50896dc:	dc000217 	ldw	r16,8(sp)
 50896e0:	dec00c04 	addi	sp,sp,48
 50896e4:	f800283a 	ret
 50896e8:	800b883a 	mov	r5,r16
 50896ec:	a809883a 	mov	r4,r21
 50896f0:	50871a80 	call	50871a8 <__swsetup_r>
 50896f4:	1000eb1e 	bne	r2,zero,5089aa4 <__sfvwrite_r+0x4a4>
 50896f8:	80c0030b 	ldhu	r3,12(r16)
 50896fc:	a4400017 	ldw	r17,0(r20)
 5089700:	1880008c 	andi	r2,r3,2
 5089704:	103fd61e 	bne	r2,zero,5089660 <__alt_data_end+0xfffbb460>
 5089708:	1880004c 	andi	r2,r3,1
 508970c:	10003f1e 	bne	r2,zero,508980c <__sfvwrite_r+0x20c>
 5089710:	0039883a 	mov	fp,zero
 5089714:	0025883a 	mov	r18,zero
 5089718:	90001a26 	beq	r18,zero,5089784 <__sfvwrite_r+0x184>
 508971c:	1880800c 	andi	r2,r3,512
 5089720:	84c00217 	ldw	r19,8(r16)
 5089724:	10002126 	beq	r2,zero,50897ac <__sfvwrite_r+0x1ac>
 5089728:	982f883a 	mov	r23,r19
 508972c:	94c09336 	bltu	r18,r19,508997c <__sfvwrite_r+0x37c>
 5089730:	1881200c 	andi	r2,r3,1152
 5089734:	10009e1e 	bne	r2,zero,50899b0 <__sfvwrite_r+0x3b0>
 5089738:	81000017 	ldw	r4,0(r16)
 508973c:	b80d883a 	mov	r6,r23
 5089740:	e00b883a 	mov	r5,fp
 5089744:	508a9140 	call	508a914 <memmove>
 5089748:	80c00217 	ldw	r3,8(r16)
 508974c:	81000017 	ldw	r4,0(r16)
 5089750:	9005883a 	mov	r2,r18
 5089754:	1ce7c83a 	sub	r19,r3,r19
 5089758:	25cf883a 	add	r7,r4,r23
 508975c:	84c00215 	stw	r19,8(r16)
 5089760:	81c00015 	stw	r7,0(r16)
 5089764:	a0c00217 	ldw	r3,8(r20)
 5089768:	e0b9883a 	add	fp,fp,r2
 508976c:	90a5c83a 	sub	r18,r18,r2
 5089770:	18a7c83a 	sub	r19,r3,r2
 5089774:	a4c00215 	stw	r19,8(r20)
 5089778:	983fce26 	beq	r19,zero,50896b4 <__alt_data_end+0xfffbb4b4>
 508977c:	80c0030b 	ldhu	r3,12(r16)
 5089780:	903fe61e 	bne	r18,zero,508971c <__alt_data_end+0xfffbb51c>
 5089784:	8f000017 	ldw	fp,0(r17)
 5089788:	8c800117 	ldw	r18,4(r17)
 508978c:	8c400204 	addi	r17,r17,8
 5089790:	003fe106 	br	5089718 <__alt_data_end+0xfffbb518>
 5089794:	8cc00017 	ldw	r19,0(r17)
 5089798:	8c800117 	ldw	r18,4(r17)
 508979c:	8c400204 	addi	r17,r17,8
 50897a0:	003fb306 	br	5089670 <__alt_data_end+0xfffbb470>
 50897a4:	0005883a 	mov	r2,zero
 50897a8:	f800283a 	ret
 50897ac:	81000017 	ldw	r4,0(r16)
 50897b0:	80800417 	ldw	r2,16(r16)
 50897b4:	11005736 	bltu	r2,r4,5089914 <__sfvwrite_r+0x314>
 50897b8:	85c00517 	ldw	r23,20(r16)
 50897bc:	95c05536 	bltu	r18,r23,5089914 <__sfvwrite_r+0x314>
 50897c0:	00a00034 	movhi	r2,32768
 50897c4:	10bfffc4 	addi	r2,r2,-1
 50897c8:	9009883a 	mov	r4,r18
 50897cc:	1480012e 	bgeu	r2,r18,50897d4 <__sfvwrite_r+0x1d4>
 50897d0:	1009883a 	mov	r4,r2
 50897d4:	b80b883a 	mov	r5,r23
 50897d8:	508278c0 	call	508278c <__divsi3>
 50897dc:	15cf383a 	mul	r7,r2,r23
 50897e0:	81400717 	ldw	r5,28(r16)
 50897e4:	80800917 	ldw	r2,36(r16)
 50897e8:	e00d883a 	mov	r6,fp
 50897ec:	a809883a 	mov	r4,r21
 50897f0:	103ee83a 	callr	r2
 50897f4:	00bfdb16 	blt	zero,r2,5089764 <__alt_data_end+0xfffbb564>
 50897f8:	8080030b 	ldhu	r2,12(r16)
 50897fc:	10801014 	ori	r2,r2,64
 5089800:	8080030d 	sth	r2,12(r16)
 5089804:	00bfffc4 	movi	r2,-1
 5089808:	003fab06 	br	50896b8 <__alt_data_end+0xfffbb4b8>
 508980c:	0027883a 	mov	r19,zero
 5089810:	0011883a 	mov	r8,zero
 5089814:	0039883a 	mov	fp,zero
 5089818:	0025883a 	mov	r18,zero
 508981c:	90001f26 	beq	r18,zero,508989c <__sfvwrite_r+0x29c>
 5089820:	40005a26 	beq	r8,zero,508998c <__sfvwrite_r+0x38c>
 5089824:	982d883a 	mov	r22,r19
 5089828:	94c0012e 	bgeu	r18,r19,5089830 <__sfvwrite_r+0x230>
 508982c:	902d883a 	mov	r22,r18
 5089830:	81000017 	ldw	r4,0(r16)
 5089834:	80800417 	ldw	r2,16(r16)
 5089838:	b02f883a 	mov	r23,r22
 508983c:	81c00517 	ldw	r7,20(r16)
 5089840:	1100032e 	bgeu	r2,r4,5089850 <__sfvwrite_r+0x250>
 5089844:	80c00217 	ldw	r3,8(r16)
 5089848:	38c7883a 	add	r3,r7,r3
 508984c:	1d801816 	blt	r3,r22,50898b0 <__sfvwrite_r+0x2b0>
 5089850:	b1c03e16 	blt	r22,r7,508994c <__sfvwrite_r+0x34c>
 5089854:	80800917 	ldw	r2,36(r16)
 5089858:	81400717 	ldw	r5,28(r16)
 508985c:	e00d883a 	mov	r6,fp
 5089860:	da000115 	stw	r8,4(sp)
 5089864:	a809883a 	mov	r4,r21
 5089868:	103ee83a 	callr	r2
 508986c:	102f883a 	mov	r23,r2
 5089870:	da000117 	ldw	r8,4(sp)
 5089874:	00bfe00e 	bge	zero,r2,50897f8 <__alt_data_end+0xfffbb5f8>
 5089878:	9de7c83a 	sub	r19,r19,r23
 508987c:	98001f26 	beq	r19,zero,50898fc <__sfvwrite_r+0x2fc>
 5089880:	a0800217 	ldw	r2,8(r20)
 5089884:	e5f9883a 	add	fp,fp,r23
 5089888:	95e5c83a 	sub	r18,r18,r23
 508988c:	15efc83a 	sub	r23,r2,r23
 5089890:	a5c00215 	stw	r23,8(r20)
 5089894:	b83f8726 	beq	r23,zero,50896b4 <__alt_data_end+0xfffbb4b4>
 5089898:	903fe11e 	bne	r18,zero,5089820 <__alt_data_end+0xfffbb620>
 508989c:	8f000017 	ldw	fp,0(r17)
 50898a0:	8c800117 	ldw	r18,4(r17)
 50898a4:	0011883a 	mov	r8,zero
 50898a8:	8c400204 	addi	r17,r17,8
 50898ac:	003fdb06 	br	508981c <__alt_data_end+0xfffbb61c>
 50898b0:	180d883a 	mov	r6,r3
 50898b4:	e00b883a 	mov	r5,fp
 50898b8:	da000115 	stw	r8,4(sp)
 50898bc:	d8c00015 	stw	r3,0(sp)
 50898c0:	508a9140 	call	508a914 <memmove>
 50898c4:	d8c00017 	ldw	r3,0(sp)
 50898c8:	80800017 	ldw	r2,0(r16)
 50898cc:	800b883a 	mov	r5,r16
 50898d0:	a809883a 	mov	r4,r21
 50898d4:	10c5883a 	add	r2,r2,r3
 50898d8:	80800015 	stw	r2,0(r16)
 50898dc:	d8c00015 	stw	r3,0(sp)
 50898e0:	5088da00 	call	5088da0 <_fflush_r>
 50898e4:	d8c00017 	ldw	r3,0(sp)
 50898e8:	da000117 	ldw	r8,4(sp)
 50898ec:	103fc21e 	bne	r2,zero,50897f8 <__alt_data_end+0xfffbb5f8>
 50898f0:	182f883a 	mov	r23,r3
 50898f4:	9de7c83a 	sub	r19,r19,r23
 50898f8:	983fe11e 	bne	r19,zero,5089880 <__alt_data_end+0xfffbb680>
 50898fc:	800b883a 	mov	r5,r16
 5089900:	a809883a 	mov	r4,r21
 5089904:	5088da00 	call	5088da0 <_fflush_r>
 5089908:	103fbb1e 	bne	r2,zero,50897f8 <__alt_data_end+0xfffbb5f8>
 508990c:	0011883a 	mov	r8,zero
 5089910:	003fdb06 	br	5089880 <__alt_data_end+0xfffbb680>
 5089914:	94c0012e 	bgeu	r18,r19,508991c <__sfvwrite_r+0x31c>
 5089918:	9027883a 	mov	r19,r18
 508991c:	980d883a 	mov	r6,r19
 5089920:	e00b883a 	mov	r5,fp
 5089924:	508a9140 	call	508a914 <memmove>
 5089928:	80800217 	ldw	r2,8(r16)
 508992c:	80c00017 	ldw	r3,0(r16)
 5089930:	14c5c83a 	sub	r2,r2,r19
 5089934:	1cc7883a 	add	r3,r3,r19
 5089938:	80800215 	stw	r2,8(r16)
 508993c:	80c00015 	stw	r3,0(r16)
 5089940:	10004326 	beq	r2,zero,5089a50 <__sfvwrite_r+0x450>
 5089944:	9805883a 	mov	r2,r19
 5089948:	003f8606 	br	5089764 <__alt_data_end+0xfffbb564>
 508994c:	b00d883a 	mov	r6,r22
 5089950:	e00b883a 	mov	r5,fp
 5089954:	da000115 	stw	r8,4(sp)
 5089958:	508a9140 	call	508a914 <memmove>
 508995c:	80800217 	ldw	r2,8(r16)
 5089960:	80c00017 	ldw	r3,0(r16)
 5089964:	da000117 	ldw	r8,4(sp)
 5089968:	1585c83a 	sub	r2,r2,r22
 508996c:	1dad883a 	add	r22,r3,r22
 5089970:	80800215 	stw	r2,8(r16)
 5089974:	85800015 	stw	r22,0(r16)
 5089978:	003fbf06 	br	5089878 <__alt_data_end+0xfffbb678>
 508997c:	81000017 	ldw	r4,0(r16)
 5089980:	9027883a 	mov	r19,r18
 5089984:	902f883a 	mov	r23,r18
 5089988:	003f6c06 	br	508973c <__alt_data_end+0xfffbb53c>
 508998c:	900d883a 	mov	r6,r18
 5089990:	01400284 	movi	r5,10
 5089994:	e009883a 	mov	r4,fp
 5089998:	508a6e80 	call	508a6e8 <memchr>
 508999c:	10003e26 	beq	r2,zero,5089a98 <__sfvwrite_r+0x498>
 50899a0:	10800044 	addi	r2,r2,1
 50899a4:	1727c83a 	sub	r19,r2,fp
 50899a8:	02000044 	movi	r8,1
 50899ac:	003f9d06 	br	5089824 <__alt_data_end+0xfffbb624>
 50899b0:	80800517 	ldw	r2,20(r16)
 50899b4:	81400417 	ldw	r5,16(r16)
 50899b8:	81c00017 	ldw	r7,0(r16)
 50899bc:	10a7883a 	add	r19,r2,r2
 50899c0:	9885883a 	add	r2,r19,r2
 50899c4:	1026d7fa 	srli	r19,r2,31
 50899c8:	396dc83a 	sub	r22,r7,r5
 50899cc:	b1000044 	addi	r4,r22,1
 50899d0:	9885883a 	add	r2,r19,r2
 50899d4:	1027d07a 	srai	r19,r2,1
 50899d8:	2485883a 	add	r2,r4,r18
 50899dc:	980d883a 	mov	r6,r19
 50899e0:	9880022e 	bgeu	r19,r2,50899ec <__sfvwrite_r+0x3ec>
 50899e4:	1027883a 	mov	r19,r2
 50899e8:	100d883a 	mov	r6,r2
 50899ec:	18c1000c 	andi	r3,r3,1024
 50899f0:	18001c26 	beq	r3,zero,5089a64 <__sfvwrite_r+0x464>
 50899f4:	300b883a 	mov	r5,r6
 50899f8:	a809883a 	mov	r4,r21
 50899fc:	5089edc0 	call	5089edc <_malloc_r>
 5089a00:	102f883a 	mov	r23,r2
 5089a04:	10002926 	beq	r2,zero,5089aac <__sfvwrite_r+0x4ac>
 5089a08:	81400417 	ldw	r5,16(r16)
 5089a0c:	b00d883a 	mov	r6,r22
 5089a10:	1009883a 	mov	r4,r2
 5089a14:	508a7cc0 	call	508a7cc <memcpy>
 5089a18:	8080030b 	ldhu	r2,12(r16)
 5089a1c:	00fedfc4 	movi	r3,-1153
 5089a20:	10c4703a 	and	r2,r2,r3
 5089a24:	10802014 	ori	r2,r2,128
 5089a28:	8080030d 	sth	r2,12(r16)
 5089a2c:	bd89883a 	add	r4,r23,r22
 5089a30:	9d8fc83a 	sub	r7,r19,r22
 5089a34:	85c00415 	stw	r23,16(r16)
 5089a38:	84c00515 	stw	r19,20(r16)
 5089a3c:	81000015 	stw	r4,0(r16)
 5089a40:	9027883a 	mov	r19,r18
 5089a44:	81c00215 	stw	r7,8(r16)
 5089a48:	902f883a 	mov	r23,r18
 5089a4c:	003f3b06 	br	508973c <__alt_data_end+0xfffbb53c>
 5089a50:	800b883a 	mov	r5,r16
 5089a54:	a809883a 	mov	r4,r21
 5089a58:	5088da00 	call	5088da0 <_fflush_r>
 5089a5c:	103fb926 	beq	r2,zero,5089944 <__alt_data_end+0xfffbb744>
 5089a60:	003f6506 	br	50897f8 <__alt_data_end+0xfffbb5f8>
 5089a64:	a809883a 	mov	r4,r21
 5089a68:	508bb940 	call	508bb94 <_realloc_r>
 5089a6c:	102f883a 	mov	r23,r2
 5089a70:	103fee1e 	bne	r2,zero,5089a2c <__alt_data_end+0xfffbb82c>
 5089a74:	81400417 	ldw	r5,16(r16)
 5089a78:	a809883a 	mov	r4,r21
 5089a7c:	50892f00 	call	50892f0 <_free_r>
 5089a80:	8080030b 	ldhu	r2,12(r16)
 5089a84:	00ffdfc4 	movi	r3,-129
 5089a88:	1884703a 	and	r2,r3,r2
 5089a8c:	00c00304 	movi	r3,12
 5089a90:	a8c00015 	stw	r3,0(r21)
 5089a94:	003f5906 	br	50897fc <__alt_data_end+0xfffbb5fc>
 5089a98:	94c00044 	addi	r19,r18,1
 5089a9c:	02000044 	movi	r8,1
 5089aa0:	003f6006 	br	5089824 <__alt_data_end+0xfffbb624>
 5089aa4:	00bfffc4 	movi	r2,-1
 5089aa8:	003f0306 	br	50896b8 <__alt_data_end+0xfffbb4b8>
 5089aac:	00800304 	movi	r2,12
 5089ab0:	a8800015 	stw	r2,0(r21)
 5089ab4:	8080030b 	ldhu	r2,12(r16)
 5089ab8:	003f5006 	br	50897fc <__alt_data_end+0xfffbb5fc>

05089abc <_fwalk>:
 5089abc:	defff704 	addi	sp,sp,-36
 5089ac0:	dd000415 	stw	r20,16(sp)
 5089ac4:	dfc00815 	stw	ra,32(sp)
 5089ac8:	ddc00715 	stw	r23,28(sp)
 5089acc:	dd800615 	stw	r22,24(sp)
 5089ad0:	dd400515 	stw	r21,20(sp)
 5089ad4:	dcc00315 	stw	r19,12(sp)
 5089ad8:	dc800215 	stw	r18,8(sp)
 5089adc:	dc400115 	stw	r17,4(sp)
 5089ae0:	dc000015 	stw	r16,0(sp)
 5089ae4:	2500b804 	addi	r20,r4,736
 5089ae8:	a0002326 	beq	r20,zero,5089b78 <_fwalk+0xbc>
 5089aec:	282b883a 	mov	r21,r5
 5089af0:	002f883a 	mov	r23,zero
 5089af4:	05800044 	movi	r22,1
 5089af8:	04ffffc4 	movi	r19,-1
 5089afc:	a4400117 	ldw	r17,4(r20)
 5089b00:	a4800217 	ldw	r18,8(r20)
 5089b04:	8c7fffc4 	addi	r17,r17,-1
 5089b08:	88000d16 	blt	r17,zero,5089b40 <_fwalk+0x84>
 5089b0c:	94000304 	addi	r16,r18,12
 5089b10:	94800384 	addi	r18,r18,14
 5089b14:	8080000b 	ldhu	r2,0(r16)
 5089b18:	8c7fffc4 	addi	r17,r17,-1
 5089b1c:	813ffd04 	addi	r4,r16,-12
 5089b20:	b080042e 	bgeu	r22,r2,5089b34 <_fwalk+0x78>
 5089b24:	9080000f 	ldh	r2,0(r18)
 5089b28:	14c00226 	beq	r2,r19,5089b34 <_fwalk+0x78>
 5089b2c:	a83ee83a 	callr	r21
 5089b30:	b8aeb03a 	or	r23,r23,r2
 5089b34:	84001a04 	addi	r16,r16,104
 5089b38:	94801a04 	addi	r18,r18,104
 5089b3c:	8cfff51e 	bne	r17,r19,5089b14 <__alt_data_end+0xfffbb914>
 5089b40:	a5000017 	ldw	r20,0(r20)
 5089b44:	a03fed1e 	bne	r20,zero,5089afc <__alt_data_end+0xfffbb8fc>
 5089b48:	b805883a 	mov	r2,r23
 5089b4c:	dfc00817 	ldw	ra,32(sp)
 5089b50:	ddc00717 	ldw	r23,28(sp)
 5089b54:	dd800617 	ldw	r22,24(sp)
 5089b58:	dd400517 	ldw	r21,20(sp)
 5089b5c:	dd000417 	ldw	r20,16(sp)
 5089b60:	dcc00317 	ldw	r19,12(sp)
 5089b64:	dc800217 	ldw	r18,8(sp)
 5089b68:	dc400117 	ldw	r17,4(sp)
 5089b6c:	dc000017 	ldw	r16,0(sp)
 5089b70:	dec00904 	addi	sp,sp,36
 5089b74:	f800283a 	ret
 5089b78:	002f883a 	mov	r23,zero
 5089b7c:	003ff206 	br	5089b48 <__alt_data_end+0xfffbb948>

05089b80 <_fwalk_reent>:
 5089b80:	defff704 	addi	sp,sp,-36
 5089b84:	dd000415 	stw	r20,16(sp)
 5089b88:	dfc00815 	stw	ra,32(sp)
 5089b8c:	ddc00715 	stw	r23,28(sp)
 5089b90:	dd800615 	stw	r22,24(sp)
 5089b94:	dd400515 	stw	r21,20(sp)
 5089b98:	dcc00315 	stw	r19,12(sp)
 5089b9c:	dc800215 	stw	r18,8(sp)
 5089ba0:	dc400115 	stw	r17,4(sp)
 5089ba4:	dc000015 	stw	r16,0(sp)
 5089ba8:	2500b804 	addi	r20,r4,736
 5089bac:	a0002326 	beq	r20,zero,5089c3c <_fwalk_reent+0xbc>
 5089bb0:	282b883a 	mov	r21,r5
 5089bb4:	2027883a 	mov	r19,r4
 5089bb8:	002f883a 	mov	r23,zero
 5089bbc:	05800044 	movi	r22,1
 5089bc0:	04bfffc4 	movi	r18,-1
 5089bc4:	a4400117 	ldw	r17,4(r20)
 5089bc8:	a4000217 	ldw	r16,8(r20)
 5089bcc:	8c7fffc4 	addi	r17,r17,-1
 5089bd0:	88000c16 	blt	r17,zero,5089c04 <_fwalk_reent+0x84>
 5089bd4:	84000304 	addi	r16,r16,12
 5089bd8:	8080000b 	ldhu	r2,0(r16)
 5089bdc:	8c7fffc4 	addi	r17,r17,-1
 5089be0:	817ffd04 	addi	r5,r16,-12
 5089be4:	b080052e 	bgeu	r22,r2,5089bfc <_fwalk_reent+0x7c>
 5089be8:	8080008f 	ldh	r2,2(r16)
 5089bec:	9809883a 	mov	r4,r19
 5089bf0:	14800226 	beq	r2,r18,5089bfc <_fwalk_reent+0x7c>
 5089bf4:	a83ee83a 	callr	r21
 5089bf8:	b8aeb03a 	or	r23,r23,r2
 5089bfc:	84001a04 	addi	r16,r16,104
 5089c00:	8cbff51e 	bne	r17,r18,5089bd8 <__alt_data_end+0xfffbb9d8>
 5089c04:	a5000017 	ldw	r20,0(r20)
 5089c08:	a03fee1e 	bne	r20,zero,5089bc4 <__alt_data_end+0xfffbb9c4>
 5089c0c:	b805883a 	mov	r2,r23
 5089c10:	dfc00817 	ldw	ra,32(sp)
 5089c14:	ddc00717 	ldw	r23,28(sp)
 5089c18:	dd800617 	ldw	r22,24(sp)
 5089c1c:	dd400517 	ldw	r21,20(sp)
 5089c20:	dd000417 	ldw	r20,16(sp)
 5089c24:	dcc00317 	ldw	r19,12(sp)
 5089c28:	dc800217 	ldw	r18,8(sp)
 5089c2c:	dc400117 	ldw	r17,4(sp)
 5089c30:	dc000017 	ldw	r16,0(sp)
 5089c34:	dec00904 	addi	sp,sp,36
 5089c38:	f800283a 	ret
 5089c3c:	002f883a 	mov	r23,zero
 5089c40:	003ff206 	br	5089c0c <__alt_data_end+0xfffbba0c>

05089c44 <_setlocale_r>:
 5089c44:	30001b26 	beq	r6,zero,5089cb4 <_setlocale_r+0x70>
 5089c48:	01414274 	movhi	r5,1289
 5089c4c:	defffe04 	addi	sp,sp,-8
 5089c50:	29579904 	addi	r5,r5,24164
 5089c54:	3009883a 	mov	r4,r6
 5089c58:	dc000015 	stw	r16,0(sp)
 5089c5c:	dfc00115 	stw	ra,4(sp)
 5089c60:	3021883a 	mov	r16,r6
 5089c64:	508c2fc0 	call	508c2fc <strcmp>
 5089c68:	1000061e 	bne	r2,zero,5089c84 <_setlocale_r+0x40>
 5089c6c:	00814274 	movhi	r2,1289
 5089c70:	10979804 	addi	r2,r2,24160
 5089c74:	dfc00117 	ldw	ra,4(sp)
 5089c78:	dc000017 	ldw	r16,0(sp)
 5089c7c:	dec00204 	addi	sp,sp,8
 5089c80:	f800283a 	ret
 5089c84:	01414274 	movhi	r5,1289
 5089c88:	29579804 	addi	r5,r5,24160
 5089c8c:	8009883a 	mov	r4,r16
 5089c90:	508c2fc0 	call	508c2fc <strcmp>
 5089c94:	103ff526 	beq	r2,zero,5089c6c <__alt_data_end+0xfffbba6c>
 5089c98:	01414274 	movhi	r5,1289
 5089c9c:	29577b04 	addi	r5,r5,24044
 5089ca0:	8009883a 	mov	r4,r16
 5089ca4:	508c2fc0 	call	508c2fc <strcmp>
 5089ca8:	103ff026 	beq	r2,zero,5089c6c <__alt_data_end+0xfffbba6c>
 5089cac:	0005883a 	mov	r2,zero
 5089cb0:	003ff006 	br	5089c74 <__alt_data_end+0xfffbba74>
 5089cb4:	00814274 	movhi	r2,1289
 5089cb8:	10979804 	addi	r2,r2,24160
 5089cbc:	f800283a 	ret

05089cc0 <__locale_charset>:
 5089cc0:	00814274 	movhi	r2,1289
 5089cc4:	10995504 	addi	r2,r2,25940
 5089cc8:	f800283a 	ret

05089ccc <__locale_mb_cur_max>:
 5089ccc:	00814274 	movhi	r2,1289
 5089cd0:	109ef104 	addi	r2,r2,31684
 5089cd4:	10800017 	ldw	r2,0(r2)
 5089cd8:	f800283a 	ret

05089cdc <__locale_msgcharset>:
 5089cdc:	00814274 	movhi	r2,1289
 5089ce0:	10994d04 	addi	r2,r2,25908
 5089ce4:	f800283a 	ret

05089ce8 <__locale_cjk_lang>:
 5089ce8:	0005883a 	mov	r2,zero
 5089cec:	f800283a 	ret

05089cf0 <_localeconv_r>:
 5089cf0:	00814274 	movhi	r2,1289
 5089cf4:	10995d04 	addi	r2,r2,25972
 5089cf8:	f800283a 	ret

05089cfc <setlocale>:
 5089cfc:	00814274 	movhi	r2,1289
 5089d00:	109ef004 	addi	r2,r2,31680
 5089d04:	280d883a 	mov	r6,r5
 5089d08:	200b883a 	mov	r5,r4
 5089d0c:	11000017 	ldw	r4,0(r2)
 5089d10:	5089c441 	jmpi	5089c44 <_setlocale_r>

05089d14 <localeconv>:
 5089d14:	00814274 	movhi	r2,1289
 5089d18:	10995d04 	addi	r2,r2,25972
 5089d1c:	f800283a 	ret

05089d20 <__smakebuf_r>:
 5089d20:	2880030b 	ldhu	r2,12(r5)
 5089d24:	10c0008c 	andi	r3,r2,2
 5089d28:	1800411e 	bne	r3,zero,5089e30 <__smakebuf_r+0x110>
 5089d2c:	deffec04 	addi	sp,sp,-80
 5089d30:	dc000f15 	stw	r16,60(sp)
 5089d34:	2821883a 	mov	r16,r5
 5089d38:	2940038f 	ldh	r5,14(r5)
 5089d3c:	dc401015 	stw	r17,64(sp)
 5089d40:	dfc01315 	stw	ra,76(sp)
 5089d44:	dcc01215 	stw	r19,72(sp)
 5089d48:	dc801115 	stw	r18,68(sp)
 5089d4c:	2023883a 	mov	r17,r4
 5089d50:	28001c16 	blt	r5,zero,5089dc4 <__smakebuf_r+0xa4>
 5089d54:	d80d883a 	mov	r6,sp
 5089d58:	508f2b00 	call	508f2b0 <_fstat_r>
 5089d5c:	10001816 	blt	r2,zero,5089dc0 <__smakebuf_r+0xa0>
 5089d60:	d8800117 	ldw	r2,4(sp)
 5089d64:	00e00014 	movui	r3,32768
 5089d68:	10bc000c 	andi	r2,r2,61440
 5089d6c:	14c80020 	cmpeqi	r19,r2,8192
 5089d70:	10c03726 	beq	r2,r3,5089e50 <__smakebuf_r+0x130>
 5089d74:	80c0030b 	ldhu	r3,12(r16)
 5089d78:	18c20014 	ori	r3,r3,2048
 5089d7c:	80c0030d 	sth	r3,12(r16)
 5089d80:	00c80004 	movi	r3,8192
 5089d84:	10c0521e 	bne	r2,r3,5089ed0 <__smakebuf_r+0x1b0>
 5089d88:	8140038f 	ldh	r5,14(r16)
 5089d8c:	8809883a 	mov	r4,r17
 5089d90:	508f30c0 	call	508f30c <_isatty_r>
 5089d94:	10004c26 	beq	r2,zero,5089ec8 <__smakebuf_r+0x1a8>
 5089d98:	8080030b 	ldhu	r2,12(r16)
 5089d9c:	80c010c4 	addi	r3,r16,67
 5089da0:	80c00015 	stw	r3,0(r16)
 5089da4:	10800054 	ori	r2,r2,1
 5089da8:	8080030d 	sth	r2,12(r16)
 5089dac:	00800044 	movi	r2,1
 5089db0:	80c00415 	stw	r3,16(r16)
 5089db4:	80800515 	stw	r2,20(r16)
 5089db8:	04810004 	movi	r18,1024
 5089dbc:	00000706 	br	5089ddc <__smakebuf_r+0xbc>
 5089dc0:	8080030b 	ldhu	r2,12(r16)
 5089dc4:	10c0200c 	andi	r3,r2,128
 5089dc8:	18001f1e 	bne	r3,zero,5089e48 <__smakebuf_r+0x128>
 5089dcc:	04810004 	movi	r18,1024
 5089dd0:	10820014 	ori	r2,r2,2048
 5089dd4:	8080030d 	sth	r2,12(r16)
 5089dd8:	0027883a 	mov	r19,zero
 5089ddc:	900b883a 	mov	r5,r18
 5089de0:	8809883a 	mov	r4,r17
 5089de4:	5089edc0 	call	5089edc <_malloc_r>
 5089de8:	10002c26 	beq	r2,zero,5089e9c <__smakebuf_r+0x17c>
 5089dec:	80c0030b 	ldhu	r3,12(r16)
 5089df0:	01014274 	movhi	r4,1289
 5089df4:	21238d04 	addi	r4,r4,-29132
 5089df8:	89000f15 	stw	r4,60(r17)
 5089dfc:	18c02014 	ori	r3,r3,128
 5089e00:	80c0030d 	sth	r3,12(r16)
 5089e04:	80800015 	stw	r2,0(r16)
 5089e08:	80800415 	stw	r2,16(r16)
 5089e0c:	84800515 	stw	r18,20(r16)
 5089e10:	98001a1e 	bne	r19,zero,5089e7c <__smakebuf_r+0x15c>
 5089e14:	dfc01317 	ldw	ra,76(sp)
 5089e18:	dcc01217 	ldw	r19,72(sp)
 5089e1c:	dc801117 	ldw	r18,68(sp)
 5089e20:	dc401017 	ldw	r17,64(sp)
 5089e24:	dc000f17 	ldw	r16,60(sp)
 5089e28:	dec01404 	addi	sp,sp,80
 5089e2c:	f800283a 	ret
 5089e30:	288010c4 	addi	r2,r5,67
 5089e34:	28800015 	stw	r2,0(r5)
 5089e38:	28800415 	stw	r2,16(r5)
 5089e3c:	00800044 	movi	r2,1
 5089e40:	28800515 	stw	r2,20(r5)
 5089e44:	f800283a 	ret
 5089e48:	04801004 	movi	r18,64
 5089e4c:	003fe006 	br	5089dd0 <__alt_data_end+0xfffbbbd0>
 5089e50:	81000a17 	ldw	r4,40(r16)
 5089e54:	00c14274 	movhi	r3,1289
 5089e58:	18f0a604 	addi	r3,r3,-15720
 5089e5c:	20ffc51e 	bne	r4,r3,5089d74 <__alt_data_end+0xfffbbb74>
 5089e60:	8080030b 	ldhu	r2,12(r16)
 5089e64:	04810004 	movi	r18,1024
 5089e68:	84801315 	stw	r18,76(r16)
 5089e6c:	1484b03a 	or	r2,r2,r18
 5089e70:	8080030d 	sth	r2,12(r16)
 5089e74:	0027883a 	mov	r19,zero
 5089e78:	003fd806 	br	5089ddc <__alt_data_end+0xfffbbbdc>
 5089e7c:	8140038f 	ldh	r5,14(r16)
 5089e80:	8809883a 	mov	r4,r17
 5089e84:	508f30c0 	call	508f30c <_isatty_r>
 5089e88:	103fe226 	beq	r2,zero,5089e14 <__alt_data_end+0xfffbbc14>
 5089e8c:	8080030b 	ldhu	r2,12(r16)
 5089e90:	10800054 	ori	r2,r2,1
 5089e94:	8080030d 	sth	r2,12(r16)
 5089e98:	003fde06 	br	5089e14 <__alt_data_end+0xfffbbc14>
 5089e9c:	8080030b 	ldhu	r2,12(r16)
 5089ea0:	10c0800c 	andi	r3,r2,512
 5089ea4:	183fdb1e 	bne	r3,zero,5089e14 <__alt_data_end+0xfffbbc14>
 5089ea8:	10800094 	ori	r2,r2,2
 5089eac:	80c010c4 	addi	r3,r16,67
 5089eb0:	8080030d 	sth	r2,12(r16)
 5089eb4:	00800044 	movi	r2,1
 5089eb8:	80c00015 	stw	r3,0(r16)
 5089ebc:	80c00415 	stw	r3,16(r16)
 5089ec0:	80800515 	stw	r2,20(r16)
 5089ec4:	003fd306 	br	5089e14 <__alt_data_end+0xfffbbc14>
 5089ec8:	04810004 	movi	r18,1024
 5089ecc:	003fc306 	br	5089ddc <__alt_data_end+0xfffbbbdc>
 5089ed0:	0027883a 	mov	r19,zero
 5089ed4:	04810004 	movi	r18,1024
 5089ed8:	003fc006 	br	5089ddc <__alt_data_end+0xfffbbbdc>

05089edc <_malloc_r>:
 5089edc:	defff504 	addi	sp,sp,-44
 5089ee0:	dc800315 	stw	r18,12(sp)
 5089ee4:	dfc00a15 	stw	ra,40(sp)
 5089ee8:	df000915 	stw	fp,36(sp)
 5089eec:	ddc00815 	stw	r23,32(sp)
 5089ef0:	dd800715 	stw	r22,28(sp)
 5089ef4:	dd400615 	stw	r21,24(sp)
 5089ef8:	dd000515 	stw	r20,20(sp)
 5089efc:	dcc00415 	stw	r19,16(sp)
 5089f00:	dc400215 	stw	r17,8(sp)
 5089f04:	dc000115 	stw	r16,4(sp)
 5089f08:	288002c4 	addi	r2,r5,11
 5089f0c:	00c00584 	movi	r3,22
 5089f10:	2025883a 	mov	r18,r4
 5089f14:	18807f2e 	bgeu	r3,r2,508a114 <_malloc_r+0x238>
 5089f18:	047ffe04 	movi	r17,-8
 5089f1c:	1462703a 	and	r17,r2,r17
 5089f20:	8800a316 	blt	r17,zero,508a1b0 <_malloc_r+0x2d4>
 5089f24:	8940a236 	bltu	r17,r5,508a1b0 <_malloc_r+0x2d4>
 5089f28:	5092f740 	call	5092f74 <__malloc_lock>
 5089f2c:	00807dc4 	movi	r2,503
 5089f30:	1441e92e 	bgeu	r2,r17,508a6d8 <_malloc_r+0x7fc>
 5089f34:	8804d27a 	srli	r2,r17,9
 5089f38:	1000a126 	beq	r2,zero,508a1c0 <_malloc_r+0x2e4>
 5089f3c:	00c00104 	movi	r3,4
 5089f40:	18811e36 	bltu	r3,r2,508a3bc <_malloc_r+0x4e0>
 5089f44:	8804d1ba 	srli	r2,r17,6
 5089f48:	12000e44 	addi	r8,r2,57
 5089f4c:	11c00e04 	addi	r7,r2,56
 5089f50:	4209883a 	add	r4,r8,r8
 5089f54:	04c14274 	movhi	r19,1289
 5089f58:	2109883a 	add	r4,r4,r4
 5089f5c:	9cd96b04 	addi	r19,r19,26028
 5089f60:	2109883a 	add	r4,r4,r4
 5089f64:	9909883a 	add	r4,r19,r4
 5089f68:	24000117 	ldw	r16,4(r4)
 5089f6c:	213ffe04 	addi	r4,r4,-8
 5089f70:	24009726 	beq	r4,r16,508a1d0 <_malloc_r+0x2f4>
 5089f74:	80800117 	ldw	r2,4(r16)
 5089f78:	01bfff04 	movi	r6,-4
 5089f7c:	014003c4 	movi	r5,15
 5089f80:	1184703a 	and	r2,r2,r6
 5089f84:	1447c83a 	sub	r3,r2,r17
 5089f88:	28c00716 	blt	r5,r3,5089fa8 <_malloc_r+0xcc>
 5089f8c:	1800920e 	bge	r3,zero,508a1d8 <_malloc_r+0x2fc>
 5089f90:	84000317 	ldw	r16,12(r16)
 5089f94:	24008e26 	beq	r4,r16,508a1d0 <_malloc_r+0x2f4>
 5089f98:	80800117 	ldw	r2,4(r16)
 5089f9c:	1184703a 	and	r2,r2,r6
 5089fa0:	1447c83a 	sub	r3,r2,r17
 5089fa4:	28fff90e 	bge	r5,r3,5089f8c <__alt_data_end+0xfffbbd8c>
 5089fa8:	3809883a 	mov	r4,r7
 5089fac:	01814274 	movhi	r6,1289
 5089fb0:	9c000417 	ldw	r16,16(r19)
 5089fb4:	31996b04 	addi	r6,r6,26028
 5089fb8:	32000204 	addi	r8,r6,8
 5089fbc:	82013426 	beq	r16,r8,508a490 <_malloc_r+0x5b4>
 5089fc0:	80c00117 	ldw	r3,4(r16)
 5089fc4:	00bfff04 	movi	r2,-4
 5089fc8:	188e703a 	and	r7,r3,r2
 5089fcc:	3c45c83a 	sub	r2,r7,r17
 5089fd0:	00c003c4 	movi	r3,15
 5089fd4:	18811f16 	blt	r3,r2,508a454 <_malloc_r+0x578>
 5089fd8:	32000515 	stw	r8,20(r6)
 5089fdc:	32000415 	stw	r8,16(r6)
 5089fe0:	10007f0e 	bge	r2,zero,508a1e0 <_malloc_r+0x304>
 5089fe4:	00807fc4 	movi	r2,511
 5089fe8:	11c0fd36 	bltu	r2,r7,508a3e0 <_malloc_r+0x504>
 5089fec:	3806d0fa 	srli	r3,r7,3
 5089ff0:	01c00044 	movi	r7,1
 5089ff4:	30800117 	ldw	r2,4(r6)
 5089ff8:	19400044 	addi	r5,r3,1
 5089ffc:	294b883a 	add	r5,r5,r5
 508a000:	1807d0ba 	srai	r3,r3,2
 508a004:	294b883a 	add	r5,r5,r5
 508a008:	294b883a 	add	r5,r5,r5
 508a00c:	298b883a 	add	r5,r5,r6
 508a010:	38c6983a 	sll	r3,r7,r3
 508a014:	29c00017 	ldw	r7,0(r5)
 508a018:	2a7ffe04 	addi	r9,r5,-8
 508a01c:	1886b03a 	or	r3,r3,r2
 508a020:	82400315 	stw	r9,12(r16)
 508a024:	81c00215 	stw	r7,8(r16)
 508a028:	30c00115 	stw	r3,4(r6)
 508a02c:	2c000015 	stw	r16,0(r5)
 508a030:	3c000315 	stw	r16,12(r7)
 508a034:	2005d0ba 	srai	r2,r4,2
 508a038:	01400044 	movi	r5,1
 508a03c:	288a983a 	sll	r5,r5,r2
 508a040:	19406f36 	bltu	r3,r5,508a200 <_malloc_r+0x324>
 508a044:	28c4703a 	and	r2,r5,r3
 508a048:	10000a1e 	bne	r2,zero,508a074 <_malloc_r+0x198>
 508a04c:	00bfff04 	movi	r2,-4
 508a050:	294b883a 	add	r5,r5,r5
 508a054:	2088703a 	and	r4,r4,r2
 508a058:	28c4703a 	and	r2,r5,r3
 508a05c:	21000104 	addi	r4,r4,4
 508a060:	1000041e 	bne	r2,zero,508a074 <_malloc_r+0x198>
 508a064:	294b883a 	add	r5,r5,r5
 508a068:	28c4703a 	and	r2,r5,r3
 508a06c:	21000104 	addi	r4,r4,4
 508a070:	103ffc26 	beq	r2,zero,508a064 <__alt_data_end+0xfffbbe64>
 508a074:	02bfff04 	movi	r10,-4
 508a078:	024003c4 	movi	r9,15
 508a07c:	21800044 	addi	r6,r4,1
 508a080:	318d883a 	add	r6,r6,r6
 508a084:	318d883a 	add	r6,r6,r6
 508a088:	318d883a 	add	r6,r6,r6
 508a08c:	998d883a 	add	r6,r19,r6
 508a090:	333ffe04 	addi	r12,r6,-8
 508a094:	2017883a 	mov	r11,r4
 508a098:	31800104 	addi	r6,r6,4
 508a09c:	34000017 	ldw	r16,0(r6)
 508a0a0:	31fffd04 	addi	r7,r6,-12
 508a0a4:	81c0041e 	bne	r16,r7,508a0b8 <_malloc_r+0x1dc>
 508a0a8:	0000fb06 	br	508a498 <_malloc_r+0x5bc>
 508a0ac:	1801030e 	bge	r3,zero,508a4bc <_malloc_r+0x5e0>
 508a0b0:	84000317 	ldw	r16,12(r16)
 508a0b4:	81c0f826 	beq	r16,r7,508a498 <_malloc_r+0x5bc>
 508a0b8:	80800117 	ldw	r2,4(r16)
 508a0bc:	1284703a 	and	r2,r2,r10
 508a0c0:	1447c83a 	sub	r3,r2,r17
 508a0c4:	48fff90e 	bge	r9,r3,508a0ac <__alt_data_end+0xfffbbeac>
 508a0c8:	80800317 	ldw	r2,12(r16)
 508a0cc:	81000217 	ldw	r4,8(r16)
 508a0d0:	89400054 	ori	r5,r17,1
 508a0d4:	81400115 	stw	r5,4(r16)
 508a0d8:	20800315 	stw	r2,12(r4)
 508a0dc:	11000215 	stw	r4,8(r2)
 508a0e0:	8463883a 	add	r17,r16,r17
 508a0e4:	9c400515 	stw	r17,20(r19)
 508a0e8:	9c400415 	stw	r17,16(r19)
 508a0ec:	18800054 	ori	r2,r3,1
 508a0f0:	88800115 	stw	r2,4(r17)
 508a0f4:	8a000315 	stw	r8,12(r17)
 508a0f8:	8a000215 	stw	r8,8(r17)
 508a0fc:	88e3883a 	add	r17,r17,r3
 508a100:	88c00015 	stw	r3,0(r17)
 508a104:	9009883a 	mov	r4,r18
 508a108:	5092f980 	call	5092f98 <__malloc_unlock>
 508a10c:	80800204 	addi	r2,r16,8
 508a110:	00001b06 	br	508a180 <_malloc_r+0x2a4>
 508a114:	04400404 	movi	r17,16
 508a118:	89402536 	bltu	r17,r5,508a1b0 <_malloc_r+0x2d4>
 508a11c:	5092f740 	call	5092f74 <__malloc_lock>
 508a120:	00800184 	movi	r2,6
 508a124:	01000084 	movi	r4,2
 508a128:	04c14274 	movhi	r19,1289
 508a12c:	1085883a 	add	r2,r2,r2
 508a130:	9cd96b04 	addi	r19,r19,26028
 508a134:	1085883a 	add	r2,r2,r2
 508a138:	9885883a 	add	r2,r19,r2
 508a13c:	14000117 	ldw	r16,4(r2)
 508a140:	10fffe04 	addi	r3,r2,-8
 508a144:	80c0d926 	beq	r16,r3,508a4ac <_malloc_r+0x5d0>
 508a148:	80c00117 	ldw	r3,4(r16)
 508a14c:	81000317 	ldw	r4,12(r16)
 508a150:	00bfff04 	movi	r2,-4
 508a154:	1884703a 	and	r2,r3,r2
 508a158:	81400217 	ldw	r5,8(r16)
 508a15c:	8085883a 	add	r2,r16,r2
 508a160:	10c00117 	ldw	r3,4(r2)
 508a164:	29000315 	stw	r4,12(r5)
 508a168:	21400215 	stw	r5,8(r4)
 508a16c:	18c00054 	ori	r3,r3,1
 508a170:	10c00115 	stw	r3,4(r2)
 508a174:	9009883a 	mov	r4,r18
 508a178:	5092f980 	call	5092f98 <__malloc_unlock>
 508a17c:	80800204 	addi	r2,r16,8
 508a180:	dfc00a17 	ldw	ra,40(sp)
 508a184:	df000917 	ldw	fp,36(sp)
 508a188:	ddc00817 	ldw	r23,32(sp)
 508a18c:	dd800717 	ldw	r22,28(sp)
 508a190:	dd400617 	ldw	r21,24(sp)
 508a194:	dd000517 	ldw	r20,20(sp)
 508a198:	dcc00417 	ldw	r19,16(sp)
 508a19c:	dc800317 	ldw	r18,12(sp)
 508a1a0:	dc400217 	ldw	r17,8(sp)
 508a1a4:	dc000117 	ldw	r16,4(sp)
 508a1a8:	dec00b04 	addi	sp,sp,44
 508a1ac:	f800283a 	ret
 508a1b0:	00800304 	movi	r2,12
 508a1b4:	90800015 	stw	r2,0(r18)
 508a1b8:	0005883a 	mov	r2,zero
 508a1bc:	003ff006 	br	508a180 <__alt_data_end+0xfffbbf80>
 508a1c0:	01002004 	movi	r4,128
 508a1c4:	02001004 	movi	r8,64
 508a1c8:	01c00fc4 	movi	r7,63
 508a1cc:	003f6106 	br	5089f54 <__alt_data_end+0xfffbbd54>
 508a1d0:	4009883a 	mov	r4,r8
 508a1d4:	003f7506 	br	5089fac <__alt_data_end+0xfffbbdac>
 508a1d8:	81000317 	ldw	r4,12(r16)
 508a1dc:	003fde06 	br	508a158 <__alt_data_end+0xfffbbf58>
 508a1e0:	81c5883a 	add	r2,r16,r7
 508a1e4:	11400117 	ldw	r5,4(r2)
 508a1e8:	9009883a 	mov	r4,r18
 508a1ec:	29400054 	ori	r5,r5,1
 508a1f0:	11400115 	stw	r5,4(r2)
 508a1f4:	5092f980 	call	5092f98 <__malloc_unlock>
 508a1f8:	80800204 	addi	r2,r16,8
 508a1fc:	003fe006 	br	508a180 <__alt_data_end+0xfffbbf80>
 508a200:	9c000217 	ldw	r16,8(r19)
 508a204:	00bfff04 	movi	r2,-4
 508a208:	85800117 	ldw	r22,4(r16)
 508a20c:	b0ac703a 	and	r22,r22,r2
 508a210:	b4400336 	bltu	r22,r17,508a220 <_malloc_r+0x344>
 508a214:	b445c83a 	sub	r2,r22,r17
 508a218:	00c003c4 	movi	r3,15
 508a21c:	18805d16 	blt	r3,r2,508a394 <_malloc_r+0x4b8>
 508a220:	05c14274 	movhi	r23,1289
 508a224:	008142b4 	movhi	r2,1290
 508a228:	10a5c604 	addi	r2,r2,-26856
 508a22c:	bddef204 	addi	r23,r23,31688
 508a230:	15400017 	ldw	r21,0(r2)
 508a234:	b8c00017 	ldw	r3,0(r23)
 508a238:	00bfffc4 	movi	r2,-1
 508a23c:	858d883a 	add	r6,r16,r22
 508a240:	8d6b883a 	add	r21,r17,r21
 508a244:	1880ea26 	beq	r3,r2,508a5f0 <_malloc_r+0x714>
 508a248:	ad4403c4 	addi	r21,r21,4111
 508a24c:	00bc0004 	movi	r2,-4096
 508a250:	a8aa703a 	and	r21,r21,r2
 508a254:	a80b883a 	mov	r5,r21
 508a258:	9009883a 	mov	r4,r18
 508a25c:	d9800015 	stw	r6,0(sp)
 508a260:	508c16c0 	call	508c16c <_sbrk_r>
 508a264:	1029883a 	mov	r20,r2
 508a268:	00bfffc4 	movi	r2,-1
 508a26c:	d9800017 	ldw	r6,0(sp)
 508a270:	a080e826 	beq	r20,r2,508a614 <_malloc_r+0x738>
 508a274:	a180a636 	bltu	r20,r6,508a510 <_malloc_r+0x634>
 508a278:	070142b4 	movhi	fp,1290
 508a27c:	e725d904 	addi	fp,fp,-26780
 508a280:	e0800017 	ldw	r2,0(fp)
 508a284:	a887883a 	add	r3,r21,r2
 508a288:	e0c00015 	stw	r3,0(fp)
 508a28c:	3500e626 	beq	r6,r20,508a628 <_malloc_r+0x74c>
 508a290:	b9000017 	ldw	r4,0(r23)
 508a294:	00bfffc4 	movi	r2,-1
 508a298:	2080ee26 	beq	r4,r2,508a654 <_malloc_r+0x778>
 508a29c:	a185c83a 	sub	r2,r20,r6
 508a2a0:	10c5883a 	add	r2,r2,r3
 508a2a4:	e0800015 	stw	r2,0(fp)
 508a2a8:	a0c001cc 	andi	r3,r20,7
 508a2ac:	1800bc26 	beq	r3,zero,508a5a0 <_malloc_r+0x6c4>
 508a2b0:	a0e9c83a 	sub	r20,r20,r3
 508a2b4:	00840204 	movi	r2,4104
 508a2b8:	a5000204 	addi	r20,r20,8
 508a2bc:	10c7c83a 	sub	r3,r2,r3
 508a2c0:	a545883a 	add	r2,r20,r21
 508a2c4:	1083ffcc 	andi	r2,r2,4095
 508a2c8:	18abc83a 	sub	r21,r3,r2
 508a2cc:	a80b883a 	mov	r5,r21
 508a2d0:	9009883a 	mov	r4,r18
 508a2d4:	508c16c0 	call	508c16c <_sbrk_r>
 508a2d8:	00ffffc4 	movi	r3,-1
 508a2dc:	10c0e126 	beq	r2,r3,508a664 <_malloc_r+0x788>
 508a2e0:	1505c83a 	sub	r2,r2,r20
 508a2e4:	1545883a 	add	r2,r2,r21
 508a2e8:	10800054 	ori	r2,r2,1
 508a2ec:	e0c00017 	ldw	r3,0(fp)
 508a2f0:	9d000215 	stw	r20,8(r19)
 508a2f4:	a0800115 	stw	r2,4(r20)
 508a2f8:	a8c7883a 	add	r3,r21,r3
 508a2fc:	e0c00015 	stw	r3,0(fp)
 508a300:	84c00e26 	beq	r16,r19,508a33c <_malloc_r+0x460>
 508a304:	018003c4 	movi	r6,15
 508a308:	3580a72e 	bgeu	r6,r22,508a5a8 <_malloc_r+0x6cc>
 508a30c:	81400117 	ldw	r5,4(r16)
 508a310:	013ffe04 	movi	r4,-8
 508a314:	b0bffd04 	addi	r2,r22,-12
 508a318:	1104703a 	and	r2,r2,r4
 508a31c:	2900004c 	andi	r4,r5,1
 508a320:	2088b03a 	or	r4,r4,r2
 508a324:	81000115 	stw	r4,4(r16)
 508a328:	01400144 	movi	r5,5
 508a32c:	8089883a 	add	r4,r16,r2
 508a330:	21400115 	stw	r5,4(r4)
 508a334:	21400215 	stw	r5,8(r4)
 508a338:	3080cd36 	bltu	r6,r2,508a670 <_malloc_r+0x794>
 508a33c:	008142b4 	movhi	r2,1290
 508a340:	10a5c504 	addi	r2,r2,-26860
 508a344:	11000017 	ldw	r4,0(r2)
 508a348:	20c0012e 	bgeu	r4,r3,508a350 <_malloc_r+0x474>
 508a34c:	10c00015 	stw	r3,0(r2)
 508a350:	008142b4 	movhi	r2,1290
 508a354:	10a5c404 	addi	r2,r2,-26864
 508a358:	11000017 	ldw	r4,0(r2)
 508a35c:	9c000217 	ldw	r16,8(r19)
 508a360:	20c0012e 	bgeu	r4,r3,508a368 <_malloc_r+0x48c>
 508a364:	10c00015 	stw	r3,0(r2)
 508a368:	80c00117 	ldw	r3,4(r16)
 508a36c:	00bfff04 	movi	r2,-4
 508a370:	1886703a 	and	r3,r3,r2
 508a374:	1c45c83a 	sub	r2,r3,r17
 508a378:	1c400236 	bltu	r3,r17,508a384 <_malloc_r+0x4a8>
 508a37c:	00c003c4 	movi	r3,15
 508a380:	18800416 	blt	r3,r2,508a394 <_malloc_r+0x4b8>
 508a384:	9009883a 	mov	r4,r18
 508a388:	5092f980 	call	5092f98 <__malloc_unlock>
 508a38c:	0005883a 	mov	r2,zero
 508a390:	003f7b06 	br	508a180 <__alt_data_end+0xfffbbf80>
 508a394:	88c00054 	ori	r3,r17,1
 508a398:	80c00115 	stw	r3,4(r16)
 508a39c:	8463883a 	add	r17,r16,r17
 508a3a0:	10800054 	ori	r2,r2,1
 508a3a4:	9c400215 	stw	r17,8(r19)
 508a3a8:	88800115 	stw	r2,4(r17)
 508a3ac:	9009883a 	mov	r4,r18
 508a3b0:	5092f980 	call	5092f98 <__malloc_unlock>
 508a3b4:	80800204 	addi	r2,r16,8
 508a3b8:	003f7106 	br	508a180 <__alt_data_end+0xfffbbf80>
 508a3bc:	00c00504 	movi	r3,20
 508a3c0:	18804a2e 	bgeu	r3,r2,508a4ec <_malloc_r+0x610>
 508a3c4:	00c01504 	movi	r3,84
 508a3c8:	18806e36 	bltu	r3,r2,508a584 <_malloc_r+0x6a8>
 508a3cc:	8804d33a 	srli	r2,r17,12
 508a3d0:	12001bc4 	addi	r8,r2,111
 508a3d4:	11c01b84 	addi	r7,r2,110
 508a3d8:	4209883a 	add	r4,r8,r8
 508a3dc:	003edd06 	br	5089f54 <__alt_data_end+0xfffbbd54>
 508a3e0:	3804d27a 	srli	r2,r7,9
 508a3e4:	00c00104 	movi	r3,4
 508a3e8:	1880442e 	bgeu	r3,r2,508a4fc <_malloc_r+0x620>
 508a3ec:	00c00504 	movi	r3,20
 508a3f0:	18808136 	bltu	r3,r2,508a5f8 <_malloc_r+0x71c>
 508a3f4:	11401704 	addi	r5,r2,92
 508a3f8:	10c016c4 	addi	r3,r2,91
 508a3fc:	294b883a 	add	r5,r5,r5
 508a400:	294b883a 	add	r5,r5,r5
 508a404:	294b883a 	add	r5,r5,r5
 508a408:	994b883a 	add	r5,r19,r5
 508a40c:	28800017 	ldw	r2,0(r5)
 508a410:	01814274 	movhi	r6,1289
 508a414:	297ffe04 	addi	r5,r5,-8
 508a418:	31996b04 	addi	r6,r6,26028
 508a41c:	28806526 	beq	r5,r2,508a5b4 <_malloc_r+0x6d8>
 508a420:	01bfff04 	movi	r6,-4
 508a424:	10c00117 	ldw	r3,4(r2)
 508a428:	1986703a 	and	r3,r3,r6
 508a42c:	38c0022e 	bgeu	r7,r3,508a438 <_malloc_r+0x55c>
 508a430:	10800217 	ldw	r2,8(r2)
 508a434:	28bffb1e 	bne	r5,r2,508a424 <__alt_data_end+0xfffbc224>
 508a438:	11400317 	ldw	r5,12(r2)
 508a43c:	98c00117 	ldw	r3,4(r19)
 508a440:	81400315 	stw	r5,12(r16)
 508a444:	80800215 	stw	r2,8(r16)
 508a448:	2c000215 	stw	r16,8(r5)
 508a44c:	14000315 	stw	r16,12(r2)
 508a450:	003ef806 	br	508a034 <__alt_data_end+0xfffbbe34>
 508a454:	88c00054 	ori	r3,r17,1
 508a458:	80c00115 	stw	r3,4(r16)
 508a45c:	8463883a 	add	r17,r16,r17
 508a460:	34400515 	stw	r17,20(r6)
 508a464:	34400415 	stw	r17,16(r6)
 508a468:	10c00054 	ori	r3,r2,1
 508a46c:	8a000315 	stw	r8,12(r17)
 508a470:	8a000215 	stw	r8,8(r17)
 508a474:	88c00115 	stw	r3,4(r17)
 508a478:	88a3883a 	add	r17,r17,r2
 508a47c:	88800015 	stw	r2,0(r17)
 508a480:	9009883a 	mov	r4,r18
 508a484:	5092f980 	call	5092f98 <__malloc_unlock>
 508a488:	80800204 	addi	r2,r16,8
 508a48c:	003f3c06 	br	508a180 <__alt_data_end+0xfffbbf80>
 508a490:	30c00117 	ldw	r3,4(r6)
 508a494:	003ee706 	br	508a034 <__alt_data_end+0xfffbbe34>
 508a498:	5ac00044 	addi	r11,r11,1
 508a49c:	588000cc 	andi	r2,r11,3
 508a4a0:	31800204 	addi	r6,r6,8
 508a4a4:	103efd1e 	bne	r2,zero,508a09c <__alt_data_end+0xfffbbe9c>
 508a4a8:	00002406 	br	508a53c <_malloc_r+0x660>
 508a4ac:	14000317 	ldw	r16,12(r2)
 508a4b0:	143f251e 	bne	r2,r16,508a148 <__alt_data_end+0xfffbbf48>
 508a4b4:	21000084 	addi	r4,r4,2
 508a4b8:	003ebc06 	br	5089fac <__alt_data_end+0xfffbbdac>
 508a4bc:	8085883a 	add	r2,r16,r2
 508a4c0:	10c00117 	ldw	r3,4(r2)
 508a4c4:	81000317 	ldw	r4,12(r16)
 508a4c8:	81400217 	ldw	r5,8(r16)
 508a4cc:	18c00054 	ori	r3,r3,1
 508a4d0:	10c00115 	stw	r3,4(r2)
 508a4d4:	29000315 	stw	r4,12(r5)
 508a4d8:	21400215 	stw	r5,8(r4)
 508a4dc:	9009883a 	mov	r4,r18
 508a4e0:	5092f980 	call	5092f98 <__malloc_unlock>
 508a4e4:	80800204 	addi	r2,r16,8
 508a4e8:	003f2506 	br	508a180 <__alt_data_end+0xfffbbf80>
 508a4ec:	12001704 	addi	r8,r2,92
 508a4f0:	11c016c4 	addi	r7,r2,91
 508a4f4:	4209883a 	add	r4,r8,r8
 508a4f8:	003e9606 	br	5089f54 <__alt_data_end+0xfffbbd54>
 508a4fc:	3804d1ba 	srli	r2,r7,6
 508a500:	11400e44 	addi	r5,r2,57
 508a504:	10c00e04 	addi	r3,r2,56
 508a508:	294b883a 	add	r5,r5,r5
 508a50c:	003fbc06 	br	508a400 <__alt_data_end+0xfffbc200>
 508a510:	84ff5926 	beq	r16,r19,508a278 <__alt_data_end+0xfffbc078>
 508a514:	00814274 	movhi	r2,1289
 508a518:	10996b04 	addi	r2,r2,26028
 508a51c:	14000217 	ldw	r16,8(r2)
 508a520:	00bfff04 	movi	r2,-4
 508a524:	80c00117 	ldw	r3,4(r16)
 508a528:	1886703a 	and	r3,r3,r2
 508a52c:	003f9106 	br	508a374 <__alt_data_end+0xfffbc174>
 508a530:	60800217 	ldw	r2,8(r12)
 508a534:	213fffc4 	addi	r4,r4,-1
 508a538:	1300651e 	bne	r2,r12,508a6d0 <_malloc_r+0x7f4>
 508a53c:	208000cc 	andi	r2,r4,3
 508a540:	633ffe04 	addi	r12,r12,-8
 508a544:	103ffa1e 	bne	r2,zero,508a530 <__alt_data_end+0xfffbc330>
 508a548:	98800117 	ldw	r2,4(r19)
 508a54c:	0146303a 	nor	r3,zero,r5
 508a550:	1884703a 	and	r2,r3,r2
 508a554:	98800115 	stw	r2,4(r19)
 508a558:	294b883a 	add	r5,r5,r5
 508a55c:	117f2836 	bltu	r2,r5,508a200 <__alt_data_end+0xfffbc000>
 508a560:	283f2726 	beq	r5,zero,508a200 <__alt_data_end+0xfffbc000>
 508a564:	2886703a 	and	r3,r5,r2
 508a568:	5809883a 	mov	r4,r11
 508a56c:	183ec31e 	bne	r3,zero,508a07c <__alt_data_end+0xfffbbe7c>
 508a570:	294b883a 	add	r5,r5,r5
 508a574:	2886703a 	and	r3,r5,r2
 508a578:	21000104 	addi	r4,r4,4
 508a57c:	183ffc26 	beq	r3,zero,508a570 <__alt_data_end+0xfffbc370>
 508a580:	003ebe06 	br	508a07c <__alt_data_end+0xfffbbe7c>
 508a584:	00c05504 	movi	r3,340
 508a588:	18801236 	bltu	r3,r2,508a5d4 <_malloc_r+0x6f8>
 508a58c:	8804d3fa 	srli	r2,r17,15
 508a590:	12001e04 	addi	r8,r2,120
 508a594:	11c01dc4 	addi	r7,r2,119
 508a598:	4209883a 	add	r4,r8,r8
 508a59c:	003e6d06 	br	5089f54 <__alt_data_end+0xfffbbd54>
 508a5a0:	00c40004 	movi	r3,4096
 508a5a4:	003f4606 	br	508a2c0 <__alt_data_end+0xfffbc0c0>
 508a5a8:	00800044 	movi	r2,1
 508a5ac:	a0800115 	stw	r2,4(r20)
 508a5b0:	003f7406 	br	508a384 <__alt_data_end+0xfffbc184>
 508a5b4:	1805d0ba 	srai	r2,r3,2
 508a5b8:	01c00044 	movi	r7,1
 508a5bc:	30c00117 	ldw	r3,4(r6)
 508a5c0:	388e983a 	sll	r7,r7,r2
 508a5c4:	2805883a 	mov	r2,r5
 508a5c8:	38c6b03a 	or	r3,r7,r3
 508a5cc:	30c00115 	stw	r3,4(r6)
 508a5d0:	003f9b06 	br	508a440 <__alt_data_end+0xfffbc240>
 508a5d4:	00c15504 	movi	r3,1364
 508a5d8:	18801a36 	bltu	r3,r2,508a644 <_malloc_r+0x768>
 508a5dc:	8804d4ba 	srli	r2,r17,18
 508a5e0:	12001f44 	addi	r8,r2,125
 508a5e4:	11c01f04 	addi	r7,r2,124
 508a5e8:	4209883a 	add	r4,r8,r8
 508a5ec:	003e5906 	br	5089f54 <__alt_data_end+0xfffbbd54>
 508a5f0:	ad400404 	addi	r21,r21,16
 508a5f4:	003f1706 	br	508a254 <__alt_data_end+0xfffbc054>
 508a5f8:	00c01504 	movi	r3,84
 508a5fc:	18802336 	bltu	r3,r2,508a68c <_malloc_r+0x7b0>
 508a600:	3804d33a 	srli	r2,r7,12
 508a604:	11401bc4 	addi	r5,r2,111
 508a608:	10c01b84 	addi	r3,r2,110
 508a60c:	294b883a 	add	r5,r5,r5
 508a610:	003f7b06 	br	508a400 <__alt_data_end+0xfffbc200>
 508a614:	9c000217 	ldw	r16,8(r19)
 508a618:	00bfff04 	movi	r2,-4
 508a61c:	80c00117 	ldw	r3,4(r16)
 508a620:	1886703a 	and	r3,r3,r2
 508a624:	003f5306 	br	508a374 <__alt_data_end+0xfffbc174>
 508a628:	3083ffcc 	andi	r2,r6,4095
 508a62c:	103f181e 	bne	r2,zero,508a290 <__alt_data_end+0xfffbc090>
 508a630:	99000217 	ldw	r4,8(r19)
 508a634:	b545883a 	add	r2,r22,r21
 508a638:	10800054 	ori	r2,r2,1
 508a63c:	20800115 	stw	r2,4(r4)
 508a640:	003f3e06 	br	508a33c <__alt_data_end+0xfffbc13c>
 508a644:	01003f84 	movi	r4,254
 508a648:	02001fc4 	movi	r8,127
 508a64c:	01c01f84 	movi	r7,126
 508a650:	003e4006 	br	5089f54 <__alt_data_end+0xfffbbd54>
 508a654:	00814274 	movhi	r2,1289
 508a658:	109ef204 	addi	r2,r2,31688
 508a65c:	15000015 	stw	r20,0(r2)
 508a660:	003f1106 	br	508a2a8 <__alt_data_end+0xfffbc0a8>
 508a664:	00800044 	movi	r2,1
 508a668:	002b883a 	mov	r21,zero
 508a66c:	003f1f06 	br	508a2ec <__alt_data_end+0xfffbc0ec>
 508a670:	81400204 	addi	r5,r16,8
 508a674:	9009883a 	mov	r4,r18
 508a678:	50892f00 	call	50892f0 <_free_r>
 508a67c:	008142b4 	movhi	r2,1290
 508a680:	10a5d904 	addi	r2,r2,-26780
 508a684:	10c00017 	ldw	r3,0(r2)
 508a688:	003f2c06 	br	508a33c <__alt_data_end+0xfffbc13c>
 508a68c:	00c05504 	movi	r3,340
 508a690:	18800536 	bltu	r3,r2,508a6a8 <_malloc_r+0x7cc>
 508a694:	3804d3fa 	srli	r2,r7,15
 508a698:	11401e04 	addi	r5,r2,120
 508a69c:	10c01dc4 	addi	r3,r2,119
 508a6a0:	294b883a 	add	r5,r5,r5
 508a6a4:	003f5606 	br	508a400 <__alt_data_end+0xfffbc200>
 508a6a8:	00c15504 	movi	r3,1364
 508a6ac:	18800536 	bltu	r3,r2,508a6c4 <_malloc_r+0x7e8>
 508a6b0:	3804d4ba 	srli	r2,r7,18
 508a6b4:	11401f44 	addi	r5,r2,125
 508a6b8:	10c01f04 	addi	r3,r2,124
 508a6bc:	294b883a 	add	r5,r5,r5
 508a6c0:	003f4f06 	br	508a400 <__alt_data_end+0xfffbc200>
 508a6c4:	01403f84 	movi	r5,254
 508a6c8:	00c01f84 	movi	r3,126
 508a6cc:	003f4c06 	br	508a400 <__alt_data_end+0xfffbc200>
 508a6d0:	98800117 	ldw	r2,4(r19)
 508a6d4:	003fa006 	br	508a558 <__alt_data_end+0xfffbc358>
 508a6d8:	8808d0fa 	srli	r4,r17,3
 508a6dc:	20800044 	addi	r2,r4,1
 508a6e0:	1085883a 	add	r2,r2,r2
 508a6e4:	003e9006 	br	508a128 <__alt_data_end+0xfffbbf28>

0508a6e8 <memchr>:
 508a6e8:	208000cc 	andi	r2,r4,3
 508a6ec:	280f883a 	mov	r7,r5
 508a6f0:	10003426 	beq	r2,zero,508a7c4 <memchr+0xdc>
 508a6f4:	30bfffc4 	addi	r2,r6,-1
 508a6f8:	30001a26 	beq	r6,zero,508a764 <memchr+0x7c>
 508a6fc:	20c00003 	ldbu	r3,0(r4)
 508a700:	29803fcc 	andi	r6,r5,255
 508a704:	30c0051e 	bne	r6,r3,508a71c <memchr+0x34>
 508a708:	00001806 	br	508a76c <memchr+0x84>
 508a70c:	10001526 	beq	r2,zero,508a764 <memchr+0x7c>
 508a710:	20c00003 	ldbu	r3,0(r4)
 508a714:	10bfffc4 	addi	r2,r2,-1
 508a718:	30c01426 	beq	r6,r3,508a76c <memchr+0x84>
 508a71c:	21000044 	addi	r4,r4,1
 508a720:	20c000cc 	andi	r3,r4,3
 508a724:	183ff91e 	bne	r3,zero,508a70c <__alt_data_end+0xfffbc50c>
 508a728:	020000c4 	movi	r8,3
 508a72c:	40801136 	bltu	r8,r2,508a774 <memchr+0x8c>
 508a730:	10000c26 	beq	r2,zero,508a764 <memchr+0x7c>
 508a734:	20c00003 	ldbu	r3,0(r4)
 508a738:	29403fcc 	andi	r5,r5,255
 508a73c:	28c00b26 	beq	r5,r3,508a76c <memchr+0x84>
 508a740:	20c00044 	addi	r3,r4,1
 508a744:	39803fcc 	andi	r6,r7,255
 508a748:	2089883a 	add	r4,r4,r2
 508a74c:	00000306 	br	508a75c <memchr+0x74>
 508a750:	18c00044 	addi	r3,r3,1
 508a754:	197fffc3 	ldbu	r5,-1(r3)
 508a758:	31400526 	beq	r6,r5,508a770 <memchr+0x88>
 508a75c:	1805883a 	mov	r2,r3
 508a760:	20fffb1e 	bne	r4,r3,508a750 <__alt_data_end+0xfffbc550>
 508a764:	0005883a 	mov	r2,zero
 508a768:	f800283a 	ret
 508a76c:	2005883a 	mov	r2,r4
 508a770:	f800283a 	ret
 508a774:	28c03fcc 	andi	r3,r5,255
 508a778:	1812923a 	slli	r9,r3,8
 508a77c:	02ffbff4 	movhi	r11,65279
 508a780:	02a02074 	movhi	r10,32897
 508a784:	48d2b03a 	or	r9,r9,r3
 508a788:	4806943a 	slli	r3,r9,16
 508a78c:	5affbfc4 	addi	r11,r11,-257
 508a790:	52a02004 	addi	r10,r10,-32640
 508a794:	48d2b03a 	or	r9,r9,r3
 508a798:	20c00017 	ldw	r3,0(r4)
 508a79c:	48c6f03a 	xor	r3,r9,r3
 508a7a0:	1acd883a 	add	r6,r3,r11
 508a7a4:	00c6303a 	nor	r3,zero,r3
 508a7a8:	30c6703a 	and	r3,r6,r3
 508a7ac:	1a86703a 	and	r3,r3,r10
 508a7b0:	183fe01e 	bne	r3,zero,508a734 <__alt_data_end+0xfffbc534>
 508a7b4:	10bfff04 	addi	r2,r2,-4
 508a7b8:	21000104 	addi	r4,r4,4
 508a7bc:	40bff636 	bltu	r8,r2,508a798 <__alt_data_end+0xfffbc598>
 508a7c0:	003fdb06 	br	508a730 <__alt_data_end+0xfffbc530>
 508a7c4:	3005883a 	mov	r2,r6
 508a7c8:	003fd706 	br	508a728 <__alt_data_end+0xfffbc528>

0508a7cc <memcpy>:
 508a7cc:	defffd04 	addi	sp,sp,-12
 508a7d0:	dfc00215 	stw	ra,8(sp)
 508a7d4:	dc400115 	stw	r17,4(sp)
 508a7d8:	dc000015 	stw	r16,0(sp)
 508a7dc:	00c003c4 	movi	r3,15
 508a7e0:	2005883a 	mov	r2,r4
 508a7e4:	1980452e 	bgeu	r3,r6,508a8fc <memcpy+0x130>
 508a7e8:	2906b03a 	or	r3,r5,r4
 508a7ec:	18c000cc 	andi	r3,r3,3
 508a7f0:	1800441e 	bne	r3,zero,508a904 <memcpy+0x138>
 508a7f4:	347ffc04 	addi	r17,r6,-16
 508a7f8:	8822d13a 	srli	r17,r17,4
 508a7fc:	28c00104 	addi	r3,r5,4
 508a800:	23400104 	addi	r13,r4,4
 508a804:	8820913a 	slli	r16,r17,4
 508a808:	2b000204 	addi	r12,r5,8
 508a80c:	22c00204 	addi	r11,r4,8
 508a810:	84000504 	addi	r16,r16,20
 508a814:	2a800304 	addi	r10,r5,12
 508a818:	22400304 	addi	r9,r4,12
 508a81c:	2c21883a 	add	r16,r5,r16
 508a820:	2811883a 	mov	r8,r5
 508a824:	200f883a 	mov	r7,r4
 508a828:	41000017 	ldw	r4,0(r8)
 508a82c:	1fc00017 	ldw	ra,0(r3)
 508a830:	63c00017 	ldw	r15,0(r12)
 508a834:	39000015 	stw	r4,0(r7)
 508a838:	53800017 	ldw	r14,0(r10)
 508a83c:	6fc00015 	stw	ra,0(r13)
 508a840:	5bc00015 	stw	r15,0(r11)
 508a844:	4b800015 	stw	r14,0(r9)
 508a848:	18c00404 	addi	r3,r3,16
 508a84c:	39c00404 	addi	r7,r7,16
 508a850:	42000404 	addi	r8,r8,16
 508a854:	6b400404 	addi	r13,r13,16
 508a858:	63000404 	addi	r12,r12,16
 508a85c:	5ac00404 	addi	r11,r11,16
 508a860:	52800404 	addi	r10,r10,16
 508a864:	4a400404 	addi	r9,r9,16
 508a868:	1c3fef1e 	bne	r3,r16,508a828 <__alt_data_end+0xfffbc628>
 508a86c:	89c00044 	addi	r7,r17,1
 508a870:	380e913a 	slli	r7,r7,4
 508a874:	310003cc 	andi	r4,r6,15
 508a878:	02c000c4 	movi	r11,3
 508a87c:	11c7883a 	add	r3,r2,r7
 508a880:	29cb883a 	add	r5,r5,r7
 508a884:	5900212e 	bgeu	r11,r4,508a90c <memcpy+0x140>
 508a888:	1813883a 	mov	r9,r3
 508a88c:	2811883a 	mov	r8,r5
 508a890:	200f883a 	mov	r7,r4
 508a894:	42800017 	ldw	r10,0(r8)
 508a898:	4a400104 	addi	r9,r9,4
 508a89c:	39ffff04 	addi	r7,r7,-4
 508a8a0:	4abfff15 	stw	r10,-4(r9)
 508a8a4:	42000104 	addi	r8,r8,4
 508a8a8:	59fffa36 	bltu	r11,r7,508a894 <__alt_data_end+0xfffbc694>
 508a8ac:	213fff04 	addi	r4,r4,-4
 508a8b0:	2008d0ba 	srli	r4,r4,2
 508a8b4:	318000cc 	andi	r6,r6,3
 508a8b8:	21000044 	addi	r4,r4,1
 508a8bc:	2109883a 	add	r4,r4,r4
 508a8c0:	2109883a 	add	r4,r4,r4
 508a8c4:	1907883a 	add	r3,r3,r4
 508a8c8:	290b883a 	add	r5,r5,r4
 508a8cc:	30000626 	beq	r6,zero,508a8e8 <memcpy+0x11c>
 508a8d0:	198d883a 	add	r6,r3,r6
 508a8d4:	29c00003 	ldbu	r7,0(r5)
 508a8d8:	18c00044 	addi	r3,r3,1
 508a8dc:	29400044 	addi	r5,r5,1
 508a8e0:	19ffffc5 	stb	r7,-1(r3)
 508a8e4:	19bffb1e 	bne	r3,r6,508a8d4 <__alt_data_end+0xfffbc6d4>
 508a8e8:	dfc00217 	ldw	ra,8(sp)
 508a8ec:	dc400117 	ldw	r17,4(sp)
 508a8f0:	dc000017 	ldw	r16,0(sp)
 508a8f4:	dec00304 	addi	sp,sp,12
 508a8f8:	f800283a 	ret
 508a8fc:	2007883a 	mov	r3,r4
 508a900:	003ff206 	br	508a8cc <__alt_data_end+0xfffbc6cc>
 508a904:	2007883a 	mov	r3,r4
 508a908:	003ff106 	br	508a8d0 <__alt_data_end+0xfffbc6d0>
 508a90c:	200d883a 	mov	r6,r4
 508a910:	003fee06 	br	508a8cc <__alt_data_end+0xfffbc6cc>

0508a914 <memmove>:
 508a914:	2005883a 	mov	r2,r4
 508a918:	29000b2e 	bgeu	r5,r4,508a948 <memmove+0x34>
 508a91c:	298f883a 	add	r7,r5,r6
 508a920:	21c0092e 	bgeu	r4,r7,508a948 <memmove+0x34>
 508a924:	2187883a 	add	r3,r4,r6
 508a928:	198bc83a 	sub	r5,r3,r6
 508a92c:	30004826 	beq	r6,zero,508aa50 <memmove+0x13c>
 508a930:	39ffffc4 	addi	r7,r7,-1
 508a934:	39000003 	ldbu	r4,0(r7)
 508a938:	18ffffc4 	addi	r3,r3,-1
 508a93c:	19000005 	stb	r4,0(r3)
 508a940:	28fffb1e 	bne	r5,r3,508a930 <__alt_data_end+0xfffbc730>
 508a944:	f800283a 	ret
 508a948:	00c003c4 	movi	r3,15
 508a94c:	1980412e 	bgeu	r3,r6,508aa54 <memmove+0x140>
 508a950:	2886b03a 	or	r3,r5,r2
 508a954:	18c000cc 	andi	r3,r3,3
 508a958:	1800401e 	bne	r3,zero,508aa5c <memmove+0x148>
 508a95c:	33fffc04 	addi	r15,r6,-16
 508a960:	781ed13a 	srli	r15,r15,4
 508a964:	28c00104 	addi	r3,r5,4
 508a968:	13400104 	addi	r13,r2,4
 508a96c:	781c913a 	slli	r14,r15,4
 508a970:	2b000204 	addi	r12,r5,8
 508a974:	12c00204 	addi	r11,r2,8
 508a978:	73800504 	addi	r14,r14,20
 508a97c:	2a800304 	addi	r10,r5,12
 508a980:	12400304 	addi	r9,r2,12
 508a984:	2b9d883a 	add	r14,r5,r14
 508a988:	2811883a 	mov	r8,r5
 508a98c:	100f883a 	mov	r7,r2
 508a990:	41000017 	ldw	r4,0(r8)
 508a994:	39c00404 	addi	r7,r7,16
 508a998:	18c00404 	addi	r3,r3,16
 508a99c:	393ffc15 	stw	r4,-16(r7)
 508a9a0:	193ffc17 	ldw	r4,-16(r3)
 508a9a4:	6b400404 	addi	r13,r13,16
 508a9a8:	5ac00404 	addi	r11,r11,16
 508a9ac:	693ffc15 	stw	r4,-16(r13)
 508a9b0:	61000017 	ldw	r4,0(r12)
 508a9b4:	4a400404 	addi	r9,r9,16
 508a9b8:	42000404 	addi	r8,r8,16
 508a9bc:	593ffc15 	stw	r4,-16(r11)
 508a9c0:	51000017 	ldw	r4,0(r10)
 508a9c4:	63000404 	addi	r12,r12,16
 508a9c8:	52800404 	addi	r10,r10,16
 508a9cc:	493ffc15 	stw	r4,-16(r9)
 508a9d0:	1bbfef1e 	bne	r3,r14,508a990 <__alt_data_end+0xfffbc790>
 508a9d4:	79000044 	addi	r4,r15,1
 508a9d8:	2008913a 	slli	r4,r4,4
 508a9dc:	328003cc 	andi	r10,r6,15
 508a9e0:	02c000c4 	movi	r11,3
 508a9e4:	1107883a 	add	r3,r2,r4
 508a9e8:	290b883a 	add	r5,r5,r4
 508a9ec:	5a801e2e 	bgeu	r11,r10,508aa68 <memmove+0x154>
 508a9f0:	1813883a 	mov	r9,r3
 508a9f4:	2811883a 	mov	r8,r5
 508a9f8:	500f883a 	mov	r7,r10
 508a9fc:	41000017 	ldw	r4,0(r8)
 508aa00:	4a400104 	addi	r9,r9,4
 508aa04:	39ffff04 	addi	r7,r7,-4
 508aa08:	493fff15 	stw	r4,-4(r9)
 508aa0c:	42000104 	addi	r8,r8,4
 508aa10:	59fffa36 	bltu	r11,r7,508a9fc <__alt_data_end+0xfffbc7fc>
 508aa14:	513fff04 	addi	r4,r10,-4
 508aa18:	2008d0ba 	srli	r4,r4,2
 508aa1c:	318000cc 	andi	r6,r6,3
 508aa20:	21000044 	addi	r4,r4,1
 508aa24:	2109883a 	add	r4,r4,r4
 508aa28:	2109883a 	add	r4,r4,r4
 508aa2c:	1907883a 	add	r3,r3,r4
 508aa30:	290b883a 	add	r5,r5,r4
 508aa34:	30000b26 	beq	r6,zero,508aa64 <memmove+0x150>
 508aa38:	198d883a 	add	r6,r3,r6
 508aa3c:	29c00003 	ldbu	r7,0(r5)
 508aa40:	18c00044 	addi	r3,r3,1
 508aa44:	29400044 	addi	r5,r5,1
 508aa48:	19ffffc5 	stb	r7,-1(r3)
 508aa4c:	19bffb1e 	bne	r3,r6,508aa3c <__alt_data_end+0xfffbc83c>
 508aa50:	f800283a 	ret
 508aa54:	1007883a 	mov	r3,r2
 508aa58:	003ff606 	br	508aa34 <__alt_data_end+0xfffbc834>
 508aa5c:	1007883a 	mov	r3,r2
 508aa60:	003ff506 	br	508aa38 <__alt_data_end+0xfffbc838>
 508aa64:	f800283a 	ret
 508aa68:	500d883a 	mov	r6,r10
 508aa6c:	003ff106 	br	508aa34 <__alt_data_end+0xfffbc834>

0508aa70 <memset>:
 508aa70:	20c000cc 	andi	r3,r4,3
 508aa74:	2005883a 	mov	r2,r4
 508aa78:	18004426 	beq	r3,zero,508ab8c <memset+0x11c>
 508aa7c:	31ffffc4 	addi	r7,r6,-1
 508aa80:	30004026 	beq	r6,zero,508ab84 <memset+0x114>
 508aa84:	2813883a 	mov	r9,r5
 508aa88:	200d883a 	mov	r6,r4
 508aa8c:	2007883a 	mov	r3,r4
 508aa90:	00000406 	br	508aaa4 <memset+0x34>
 508aa94:	3a3fffc4 	addi	r8,r7,-1
 508aa98:	31800044 	addi	r6,r6,1
 508aa9c:	38003926 	beq	r7,zero,508ab84 <memset+0x114>
 508aaa0:	400f883a 	mov	r7,r8
 508aaa4:	18c00044 	addi	r3,r3,1
 508aaa8:	32400005 	stb	r9,0(r6)
 508aaac:	1a0000cc 	andi	r8,r3,3
 508aab0:	403ff81e 	bne	r8,zero,508aa94 <__alt_data_end+0xfffbc894>
 508aab4:	010000c4 	movi	r4,3
 508aab8:	21c02d2e 	bgeu	r4,r7,508ab70 <memset+0x100>
 508aabc:	29003fcc 	andi	r4,r5,255
 508aac0:	200c923a 	slli	r6,r4,8
 508aac4:	3108b03a 	or	r4,r6,r4
 508aac8:	200c943a 	slli	r6,r4,16
 508aacc:	218cb03a 	or	r6,r4,r6
 508aad0:	010003c4 	movi	r4,15
 508aad4:	21c0182e 	bgeu	r4,r7,508ab38 <memset+0xc8>
 508aad8:	3b3ffc04 	addi	r12,r7,-16
 508aadc:	6018d13a 	srli	r12,r12,4
 508aae0:	1a000104 	addi	r8,r3,4
 508aae4:	1ac00204 	addi	r11,r3,8
 508aae8:	6008913a 	slli	r4,r12,4
 508aaec:	1a800304 	addi	r10,r3,12
 508aaf0:	1813883a 	mov	r9,r3
 508aaf4:	21000504 	addi	r4,r4,20
 508aaf8:	1909883a 	add	r4,r3,r4
 508aafc:	49800015 	stw	r6,0(r9)
 508ab00:	41800015 	stw	r6,0(r8)
 508ab04:	59800015 	stw	r6,0(r11)
 508ab08:	51800015 	stw	r6,0(r10)
 508ab0c:	42000404 	addi	r8,r8,16
 508ab10:	4a400404 	addi	r9,r9,16
 508ab14:	5ac00404 	addi	r11,r11,16
 508ab18:	52800404 	addi	r10,r10,16
 508ab1c:	413ff71e 	bne	r8,r4,508aafc <__alt_data_end+0xfffbc8fc>
 508ab20:	63000044 	addi	r12,r12,1
 508ab24:	6018913a 	slli	r12,r12,4
 508ab28:	39c003cc 	andi	r7,r7,15
 508ab2c:	010000c4 	movi	r4,3
 508ab30:	1b07883a 	add	r3,r3,r12
 508ab34:	21c00e2e 	bgeu	r4,r7,508ab70 <memset+0x100>
 508ab38:	1813883a 	mov	r9,r3
 508ab3c:	3811883a 	mov	r8,r7
 508ab40:	010000c4 	movi	r4,3
 508ab44:	49800015 	stw	r6,0(r9)
 508ab48:	423fff04 	addi	r8,r8,-4
 508ab4c:	4a400104 	addi	r9,r9,4
 508ab50:	223ffc36 	bltu	r4,r8,508ab44 <__alt_data_end+0xfffbc944>
 508ab54:	393fff04 	addi	r4,r7,-4
 508ab58:	2008d0ba 	srli	r4,r4,2
 508ab5c:	39c000cc 	andi	r7,r7,3
 508ab60:	21000044 	addi	r4,r4,1
 508ab64:	2109883a 	add	r4,r4,r4
 508ab68:	2109883a 	add	r4,r4,r4
 508ab6c:	1907883a 	add	r3,r3,r4
 508ab70:	38000526 	beq	r7,zero,508ab88 <memset+0x118>
 508ab74:	19cf883a 	add	r7,r3,r7
 508ab78:	19400005 	stb	r5,0(r3)
 508ab7c:	18c00044 	addi	r3,r3,1
 508ab80:	38fffd1e 	bne	r7,r3,508ab78 <__alt_data_end+0xfffbc978>
 508ab84:	f800283a 	ret
 508ab88:	f800283a 	ret
 508ab8c:	2007883a 	mov	r3,r4
 508ab90:	300f883a 	mov	r7,r6
 508ab94:	003fc706 	br	508aab4 <__alt_data_end+0xfffbc8b4>

0508ab98 <_Balloc>:
 508ab98:	20801317 	ldw	r2,76(r4)
 508ab9c:	defffc04 	addi	sp,sp,-16
 508aba0:	dc400115 	stw	r17,4(sp)
 508aba4:	dc000015 	stw	r16,0(sp)
 508aba8:	dfc00315 	stw	ra,12(sp)
 508abac:	dc800215 	stw	r18,8(sp)
 508abb0:	2023883a 	mov	r17,r4
 508abb4:	2821883a 	mov	r16,r5
 508abb8:	10000f26 	beq	r2,zero,508abf8 <_Balloc+0x60>
 508abbc:	8407883a 	add	r3,r16,r16
 508abc0:	18c7883a 	add	r3,r3,r3
 508abc4:	10c7883a 	add	r3,r2,r3
 508abc8:	18800017 	ldw	r2,0(r3)
 508abcc:	10001126 	beq	r2,zero,508ac14 <_Balloc+0x7c>
 508abd0:	11000017 	ldw	r4,0(r2)
 508abd4:	19000015 	stw	r4,0(r3)
 508abd8:	10000415 	stw	zero,16(r2)
 508abdc:	10000315 	stw	zero,12(r2)
 508abe0:	dfc00317 	ldw	ra,12(sp)
 508abe4:	dc800217 	ldw	r18,8(sp)
 508abe8:	dc400117 	ldw	r17,4(sp)
 508abec:	dc000017 	ldw	r16,0(sp)
 508abf0:	dec00404 	addi	sp,sp,16
 508abf4:	f800283a 	ret
 508abf8:	01800844 	movi	r6,33
 508abfc:	01400104 	movi	r5,4
 508ac00:	508eee00 	call	508eee0 <_calloc_r>
 508ac04:	88801315 	stw	r2,76(r17)
 508ac08:	103fec1e 	bne	r2,zero,508abbc <__alt_data_end+0xfffbc9bc>
 508ac0c:	0005883a 	mov	r2,zero
 508ac10:	003ff306 	br	508abe0 <__alt_data_end+0xfffbc9e0>
 508ac14:	01400044 	movi	r5,1
 508ac18:	2c24983a 	sll	r18,r5,r16
 508ac1c:	8809883a 	mov	r4,r17
 508ac20:	91800144 	addi	r6,r18,5
 508ac24:	318d883a 	add	r6,r6,r6
 508ac28:	318d883a 	add	r6,r6,r6
 508ac2c:	508eee00 	call	508eee0 <_calloc_r>
 508ac30:	103ff626 	beq	r2,zero,508ac0c <__alt_data_end+0xfffbca0c>
 508ac34:	14000115 	stw	r16,4(r2)
 508ac38:	14800215 	stw	r18,8(r2)
 508ac3c:	003fe606 	br	508abd8 <__alt_data_end+0xfffbc9d8>

0508ac40 <_Bfree>:
 508ac40:	28000826 	beq	r5,zero,508ac64 <_Bfree+0x24>
 508ac44:	28c00117 	ldw	r3,4(r5)
 508ac48:	20801317 	ldw	r2,76(r4)
 508ac4c:	18c7883a 	add	r3,r3,r3
 508ac50:	18c7883a 	add	r3,r3,r3
 508ac54:	10c5883a 	add	r2,r2,r3
 508ac58:	10c00017 	ldw	r3,0(r2)
 508ac5c:	28c00015 	stw	r3,0(r5)
 508ac60:	11400015 	stw	r5,0(r2)
 508ac64:	f800283a 	ret

0508ac68 <__multadd>:
 508ac68:	defffa04 	addi	sp,sp,-24
 508ac6c:	dc800315 	stw	r18,12(sp)
 508ac70:	dc400215 	stw	r17,8(sp)
 508ac74:	dc000115 	stw	r16,4(sp)
 508ac78:	2823883a 	mov	r17,r5
 508ac7c:	2c000417 	ldw	r16,16(r5)
 508ac80:	dfc00515 	stw	ra,20(sp)
 508ac84:	dcc00415 	stw	r19,16(sp)
 508ac88:	2025883a 	mov	r18,r4
 508ac8c:	29400504 	addi	r5,r5,20
 508ac90:	0011883a 	mov	r8,zero
 508ac94:	28c00017 	ldw	r3,0(r5)
 508ac98:	29400104 	addi	r5,r5,4
 508ac9c:	42000044 	addi	r8,r8,1
 508aca0:	18bfffcc 	andi	r2,r3,65535
 508aca4:	1185383a 	mul	r2,r2,r6
 508aca8:	1806d43a 	srli	r3,r3,16
 508acac:	11cf883a 	add	r7,r2,r7
 508acb0:	3808d43a 	srli	r4,r7,16
 508acb4:	1987383a 	mul	r3,r3,r6
 508acb8:	38bfffcc 	andi	r2,r7,65535
 508acbc:	1907883a 	add	r3,r3,r4
 508acc0:	1808943a 	slli	r4,r3,16
 508acc4:	180ed43a 	srli	r7,r3,16
 508acc8:	2085883a 	add	r2,r4,r2
 508accc:	28bfff15 	stw	r2,-4(r5)
 508acd0:	443ff016 	blt	r8,r16,508ac94 <__alt_data_end+0xfffbca94>
 508acd4:	38000926 	beq	r7,zero,508acfc <__multadd+0x94>
 508acd8:	88800217 	ldw	r2,8(r17)
 508acdc:	80800f0e 	bge	r16,r2,508ad1c <__multadd+0xb4>
 508ace0:	80800144 	addi	r2,r16,5
 508ace4:	1085883a 	add	r2,r2,r2
 508ace8:	1085883a 	add	r2,r2,r2
 508acec:	8885883a 	add	r2,r17,r2
 508acf0:	11c00015 	stw	r7,0(r2)
 508acf4:	84000044 	addi	r16,r16,1
 508acf8:	8c000415 	stw	r16,16(r17)
 508acfc:	8805883a 	mov	r2,r17
 508ad00:	dfc00517 	ldw	ra,20(sp)
 508ad04:	dcc00417 	ldw	r19,16(sp)
 508ad08:	dc800317 	ldw	r18,12(sp)
 508ad0c:	dc400217 	ldw	r17,8(sp)
 508ad10:	dc000117 	ldw	r16,4(sp)
 508ad14:	dec00604 	addi	sp,sp,24
 508ad18:	f800283a 	ret
 508ad1c:	89400117 	ldw	r5,4(r17)
 508ad20:	9009883a 	mov	r4,r18
 508ad24:	d9c00015 	stw	r7,0(sp)
 508ad28:	29400044 	addi	r5,r5,1
 508ad2c:	508ab980 	call	508ab98 <_Balloc>
 508ad30:	89800417 	ldw	r6,16(r17)
 508ad34:	89400304 	addi	r5,r17,12
 508ad38:	11000304 	addi	r4,r2,12
 508ad3c:	31800084 	addi	r6,r6,2
 508ad40:	318d883a 	add	r6,r6,r6
 508ad44:	318d883a 	add	r6,r6,r6
 508ad48:	1027883a 	mov	r19,r2
 508ad4c:	508a7cc0 	call	508a7cc <memcpy>
 508ad50:	d9c00017 	ldw	r7,0(sp)
 508ad54:	88000a26 	beq	r17,zero,508ad80 <__multadd+0x118>
 508ad58:	88c00117 	ldw	r3,4(r17)
 508ad5c:	90801317 	ldw	r2,76(r18)
 508ad60:	18c7883a 	add	r3,r3,r3
 508ad64:	18c7883a 	add	r3,r3,r3
 508ad68:	10c5883a 	add	r2,r2,r3
 508ad6c:	10c00017 	ldw	r3,0(r2)
 508ad70:	88c00015 	stw	r3,0(r17)
 508ad74:	14400015 	stw	r17,0(r2)
 508ad78:	9823883a 	mov	r17,r19
 508ad7c:	003fd806 	br	508ace0 <__alt_data_end+0xfffbcae0>
 508ad80:	9823883a 	mov	r17,r19
 508ad84:	003fd606 	br	508ace0 <__alt_data_end+0xfffbcae0>

0508ad88 <__s2b>:
 508ad88:	defff904 	addi	sp,sp,-28
 508ad8c:	dc400115 	stw	r17,4(sp)
 508ad90:	dc000015 	stw	r16,0(sp)
 508ad94:	2023883a 	mov	r17,r4
 508ad98:	2821883a 	mov	r16,r5
 508ad9c:	39000204 	addi	r4,r7,8
 508ada0:	01400244 	movi	r5,9
 508ada4:	dcc00315 	stw	r19,12(sp)
 508ada8:	dc800215 	stw	r18,8(sp)
 508adac:	dfc00615 	stw	ra,24(sp)
 508adb0:	dd400515 	stw	r21,20(sp)
 508adb4:	dd000415 	stw	r20,16(sp)
 508adb8:	3825883a 	mov	r18,r7
 508adbc:	3027883a 	mov	r19,r6
 508adc0:	508278c0 	call	508278c <__divsi3>
 508adc4:	00c00044 	movi	r3,1
 508adc8:	000b883a 	mov	r5,zero
 508adcc:	1880030e 	bge	r3,r2,508addc <__s2b+0x54>
 508add0:	18c7883a 	add	r3,r3,r3
 508add4:	29400044 	addi	r5,r5,1
 508add8:	18bffd16 	blt	r3,r2,508add0 <__alt_data_end+0xfffbcbd0>
 508addc:	8809883a 	mov	r4,r17
 508ade0:	508ab980 	call	508ab98 <_Balloc>
 508ade4:	d8c00717 	ldw	r3,28(sp)
 508ade8:	10c00515 	stw	r3,20(r2)
 508adec:	00c00044 	movi	r3,1
 508adf0:	10c00415 	stw	r3,16(r2)
 508adf4:	00c00244 	movi	r3,9
 508adf8:	1cc0210e 	bge	r3,r19,508ae80 <__s2b+0xf8>
 508adfc:	80eb883a 	add	r21,r16,r3
 508ae00:	a829883a 	mov	r20,r21
 508ae04:	84e1883a 	add	r16,r16,r19
 508ae08:	a1c00007 	ldb	r7,0(r20)
 508ae0c:	01800284 	movi	r6,10
 508ae10:	a5000044 	addi	r20,r20,1
 508ae14:	100b883a 	mov	r5,r2
 508ae18:	39fff404 	addi	r7,r7,-48
 508ae1c:	8809883a 	mov	r4,r17
 508ae20:	508ac680 	call	508ac68 <__multadd>
 508ae24:	a43ff81e 	bne	r20,r16,508ae08 <__alt_data_end+0xfffbcc08>
 508ae28:	ace1883a 	add	r16,r21,r19
 508ae2c:	843ffe04 	addi	r16,r16,-8
 508ae30:	9c800a0e 	bge	r19,r18,508ae5c <__s2b+0xd4>
 508ae34:	94e5c83a 	sub	r18,r18,r19
 508ae38:	84a5883a 	add	r18,r16,r18
 508ae3c:	81c00007 	ldb	r7,0(r16)
 508ae40:	01800284 	movi	r6,10
 508ae44:	84000044 	addi	r16,r16,1
 508ae48:	100b883a 	mov	r5,r2
 508ae4c:	39fff404 	addi	r7,r7,-48
 508ae50:	8809883a 	mov	r4,r17
 508ae54:	508ac680 	call	508ac68 <__multadd>
 508ae58:	84bff81e 	bne	r16,r18,508ae3c <__alt_data_end+0xfffbcc3c>
 508ae5c:	dfc00617 	ldw	ra,24(sp)
 508ae60:	dd400517 	ldw	r21,20(sp)
 508ae64:	dd000417 	ldw	r20,16(sp)
 508ae68:	dcc00317 	ldw	r19,12(sp)
 508ae6c:	dc800217 	ldw	r18,8(sp)
 508ae70:	dc400117 	ldw	r17,4(sp)
 508ae74:	dc000017 	ldw	r16,0(sp)
 508ae78:	dec00704 	addi	sp,sp,28
 508ae7c:	f800283a 	ret
 508ae80:	84000284 	addi	r16,r16,10
 508ae84:	1827883a 	mov	r19,r3
 508ae88:	003fe906 	br	508ae30 <__alt_data_end+0xfffbcc30>

0508ae8c <__hi0bits>:
 508ae8c:	20bfffec 	andhi	r2,r4,65535
 508ae90:	1000141e 	bne	r2,zero,508aee4 <__hi0bits+0x58>
 508ae94:	2008943a 	slli	r4,r4,16
 508ae98:	00800404 	movi	r2,16
 508ae9c:	20ffc02c 	andhi	r3,r4,65280
 508aea0:	1800021e 	bne	r3,zero,508aeac <__hi0bits+0x20>
 508aea4:	2008923a 	slli	r4,r4,8
 508aea8:	10800204 	addi	r2,r2,8
 508aeac:	20fc002c 	andhi	r3,r4,61440
 508aeb0:	1800021e 	bne	r3,zero,508aebc <__hi0bits+0x30>
 508aeb4:	2008913a 	slli	r4,r4,4
 508aeb8:	10800104 	addi	r2,r2,4
 508aebc:	20f0002c 	andhi	r3,r4,49152
 508aec0:	1800031e 	bne	r3,zero,508aed0 <__hi0bits+0x44>
 508aec4:	2109883a 	add	r4,r4,r4
 508aec8:	10800084 	addi	r2,r2,2
 508aecc:	2109883a 	add	r4,r4,r4
 508aed0:	20000316 	blt	r4,zero,508aee0 <__hi0bits+0x54>
 508aed4:	2110002c 	andhi	r4,r4,16384
 508aed8:	2000041e 	bne	r4,zero,508aeec <__hi0bits+0x60>
 508aedc:	00800804 	movi	r2,32
 508aee0:	f800283a 	ret
 508aee4:	0005883a 	mov	r2,zero
 508aee8:	003fec06 	br	508ae9c <__alt_data_end+0xfffbcc9c>
 508aeec:	10800044 	addi	r2,r2,1
 508aef0:	f800283a 	ret

0508aef4 <__lo0bits>:
 508aef4:	20c00017 	ldw	r3,0(r4)
 508aef8:	188001cc 	andi	r2,r3,7
 508aefc:	10000826 	beq	r2,zero,508af20 <__lo0bits+0x2c>
 508af00:	1880004c 	andi	r2,r3,1
 508af04:	1000211e 	bne	r2,zero,508af8c <__lo0bits+0x98>
 508af08:	1880008c 	andi	r2,r3,2
 508af0c:	1000211e 	bne	r2,zero,508af94 <__lo0bits+0xa0>
 508af10:	1806d0ba 	srli	r3,r3,2
 508af14:	00800084 	movi	r2,2
 508af18:	20c00015 	stw	r3,0(r4)
 508af1c:	f800283a 	ret
 508af20:	18bfffcc 	andi	r2,r3,65535
 508af24:	10001326 	beq	r2,zero,508af74 <__lo0bits+0x80>
 508af28:	0005883a 	mov	r2,zero
 508af2c:	19403fcc 	andi	r5,r3,255
 508af30:	2800021e 	bne	r5,zero,508af3c <__lo0bits+0x48>
 508af34:	1806d23a 	srli	r3,r3,8
 508af38:	10800204 	addi	r2,r2,8
 508af3c:	194003cc 	andi	r5,r3,15
 508af40:	2800021e 	bne	r5,zero,508af4c <__lo0bits+0x58>
 508af44:	1806d13a 	srli	r3,r3,4
 508af48:	10800104 	addi	r2,r2,4
 508af4c:	194000cc 	andi	r5,r3,3
 508af50:	2800021e 	bne	r5,zero,508af5c <__lo0bits+0x68>
 508af54:	1806d0ba 	srli	r3,r3,2
 508af58:	10800084 	addi	r2,r2,2
 508af5c:	1940004c 	andi	r5,r3,1
 508af60:	2800081e 	bne	r5,zero,508af84 <__lo0bits+0x90>
 508af64:	1806d07a 	srli	r3,r3,1
 508af68:	1800051e 	bne	r3,zero,508af80 <__lo0bits+0x8c>
 508af6c:	00800804 	movi	r2,32
 508af70:	f800283a 	ret
 508af74:	1806d43a 	srli	r3,r3,16
 508af78:	00800404 	movi	r2,16
 508af7c:	003feb06 	br	508af2c <__alt_data_end+0xfffbcd2c>
 508af80:	10800044 	addi	r2,r2,1
 508af84:	20c00015 	stw	r3,0(r4)
 508af88:	f800283a 	ret
 508af8c:	0005883a 	mov	r2,zero
 508af90:	f800283a 	ret
 508af94:	1806d07a 	srli	r3,r3,1
 508af98:	00800044 	movi	r2,1
 508af9c:	20c00015 	stw	r3,0(r4)
 508afa0:	f800283a 	ret

0508afa4 <__i2b>:
 508afa4:	defffd04 	addi	sp,sp,-12
 508afa8:	dc000015 	stw	r16,0(sp)
 508afac:	04000044 	movi	r16,1
 508afb0:	dc400115 	stw	r17,4(sp)
 508afb4:	2823883a 	mov	r17,r5
 508afb8:	800b883a 	mov	r5,r16
 508afbc:	dfc00215 	stw	ra,8(sp)
 508afc0:	508ab980 	call	508ab98 <_Balloc>
 508afc4:	14400515 	stw	r17,20(r2)
 508afc8:	14000415 	stw	r16,16(r2)
 508afcc:	dfc00217 	ldw	ra,8(sp)
 508afd0:	dc400117 	ldw	r17,4(sp)
 508afd4:	dc000017 	ldw	r16,0(sp)
 508afd8:	dec00304 	addi	sp,sp,12
 508afdc:	f800283a 	ret

0508afe0 <__multiply>:
 508afe0:	defffa04 	addi	sp,sp,-24
 508afe4:	dcc00315 	stw	r19,12(sp)
 508afe8:	dc800215 	stw	r18,8(sp)
 508afec:	34c00417 	ldw	r19,16(r6)
 508aff0:	2c800417 	ldw	r18,16(r5)
 508aff4:	dd000415 	stw	r20,16(sp)
 508aff8:	dc400115 	stw	r17,4(sp)
 508affc:	dfc00515 	stw	ra,20(sp)
 508b000:	dc000015 	stw	r16,0(sp)
 508b004:	2829883a 	mov	r20,r5
 508b008:	3023883a 	mov	r17,r6
 508b00c:	94c0050e 	bge	r18,r19,508b024 <__multiply+0x44>
 508b010:	9007883a 	mov	r3,r18
 508b014:	3029883a 	mov	r20,r6
 508b018:	9825883a 	mov	r18,r19
 508b01c:	2823883a 	mov	r17,r5
 508b020:	1827883a 	mov	r19,r3
 508b024:	a0800217 	ldw	r2,8(r20)
 508b028:	94e1883a 	add	r16,r18,r19
 508b02c:	a1400117 	ldw	r5,4(r20)
 508b030:	1400010e 	bge	r2,r16,508b038 <__multiply+0x58>
 508b034:	29400044 	addi	r5,r5,1
 508b038:	508ab980 	call	508ab98 <_Balloc>
 508b03c:	8415883a 	add	r10,r16,r16
 508b040:	12c00504 	addi	r11,r2,20
 508b044:	5295883a 	add	r10,r10,r10
 508b048:	5a95883a 	add	r10,r11,r10
 508b04c:	5807883a 	mov	r3,r11
 508b050:	5a80032e 	bgeu	r11,r10,508b060 <__multiply+0x80>
 508b054:	18000015 	stw	zero,0(r3)
 508b058:	18c00104 	addi	r3,r3,4
 508b05c:	1abffd36 	bltu	r3,r10,508b054 <__alt_data_end+0xfffbce54>
 508b060:	9ce7883a 	add	r19,r19,r19
 508b064:	94a5883a 	add	r18,r18,r18
 508b068:	89800504 	addi	r6,r17,20
 508b06c:	9ce7883a 	add	r19,r19,r19
 508b070:	a3400504 	addi	r13,r20,20
 508b074:	94a5883a 	add	r18,r18,r18
 508b078:	34d9883a 	add	r12,r6,r19
 508b07c:	6c93883a 	add	r9,r13,r18
 508b080:	3300422e 	bgeu	r6,r12,508b18c <__multiply+0x1ac>
 508b084:	37c00017 	ldw	ra,0(r6)
 508b088:	fbffffcc 	andi	r15,ra,65535
 508b08c:	78001b26 	beq	r15,zero,508b0fc <__multiply+0x11c>
 508b090:	5811883a 	mov	r8,r11
 508b094:	681d883a 	mov	r14,r13
 508b098:	000f883a 	mov	r7,zero
 508b09c:	71000017 	ldw	r4,0(r14)
 508b0a0:	40c00017 	ldw	r3,0(r8)
 508b0a4:	73800104 	addi	r14,r14,4
 508b0a8:	217fffcc 	andi	r5,r4,65535
 508b0ac:	2bcb383a 	mul	r5,r5,r15
 508b0b0:	2008d43a 	srli	r4,r4,16
 508b0b4:	1c7fffcc 	andi	r17,r3,65535
 508b0b8:	2c4b883a 	add	r5,r5,r17
 508b0bc:	29cb883a 	add	r5,r5,r7
 508b0c0:	23c9383a 	mul	r4,r4,r15
 508b0c4:	1806d43a 	srli	r3,r3,16
 508b0c8:	280ed43a 	srli	r7,r5,16
 508b0cc:	297fffcc 	andi	r5,r5,65535
 508b0d0:	20c7883a 	add	r3,r4,r3
 508b0d4:	19c7883a 	add	r3,r3,r7
 508b0d8:	1808943a 	slli	r4,r3,16
 508b0dc:	4023883a 	mov	r17,r8
 508b0e0:	180ed43a 	srli	r7,r3,16
 508b0e4:	214ab03a 	or	r5,r4,r5
 508b0e8:	41400015 	stw	r5,0(r8)
 508b0ec:	42000104 	addi	r8,r8,4
 508b0f0:	727fea36 	bltu	r14,r9,508b09c <__alt_data_end+0xfffbce9c>
 508b0f4:	89c00115 	stw	r7,4(r17)
 508b0f8:	37c00017 	ldw	ra,0(r6)
 508b0fc:	f83ed43a 	srli	ra,ra,16
 508b100:	f8001f26 	beq	ra,zero,508b180 <__multiply+0x1a0>
 508b104:	58c00017 	ldw	r3,0(r11)
 508b108:	681d883a 	mov	r14,r13
 508b10c:	581f883a 	mov	r15,r11
 508b110:	1811883a 	mov	r8,r3
 508b114:	5825883a 	mov	r18,r11
 508b118:	000f883a 	mov	r7,zero
 508b11c:	00000106 	br	508b124 <__multiply+0x144>
 508b120:	8825883a 	mov	r18,r17
 508b124:	7140000b 	ldhu	r5,0(r14)
 508b128:	4010d43a 	srli	r8,r8,16
 508b12c:	193fffcc 	andi	r4,r3,65535
 508b130:	2fcb383a 	mul	r5,r5,ra
 508b134:	7bc00104 	addi	r15,r15,4
 508b138:	73800104 	addi	r14,r14,4
 508b13c:	2a0b883a 	add	r5,r5,r8
 508b140:	29cb883a 	add	r5,r5,r7
 508b144:	2806943a 	slli	r3,r5,16
 508b148:	94400104 	addi	r17,r18,4
 508b14c:	280ad43a 	srli	r5,r5,16
 508b150:	1908b03a 	or	r4,r3,r4
 508b154:	793fff15 	stw	r4,-4(r15)
 508b158:	70ffff17 	ldw	r3,-4(r14)
 508b15c:	8a000017 	ldw	r8,0(r17)
 508b160:	1806d43a 	srli	r3,r3,16
 508b164:	413fffcc 	andi	r4,r8,65535
 508b168:	1fc7383a 	mul	r3,r3,ra
 508b16c:	1907883a 	add	r3,r3,r4
 508b170:	1947883a 	add	r3,r3,r5
 508b174:	180ed43a 	srli	r7,r3,16
 508b178:	727fe936 	bltu	r14,r9,508b120 <__alt_data_end+0xfffbcf20>
 508b17c:	90c00115 	stw	r3,4(r18)
 508b180:	31800104 	addi	r6,r6,4
 508b184:	5ac00104 	addi	r11,r11,4
 508b188:	333fbe36 	bltu	r6,r12,508b084 <__alt_data_end+0xfffbce84>
 508b18c:	0400090e 	bge	zero,r16,508b1b4 <__multiply+0x1d4>
 508b190:	50ffff17 	ldw	r3,-4(r10)
 508b194:	52bfff04 	addi	r10,r10,-4
 508b198:	18000326 	beq	r3,zero,508b1a8 <__multiply+0x1c8>
 508b19c:	00000506 	br	508b1b4 <__multiply+0x1d4>
 508b1a0:	50c00017 	ldw	r3,0(r10)
 508b1a4:	1800031e 	bne	r3,zero,508b1b4 <__multiply+0x1d4>
 508b1a8:	843fffc4 	addi	r16,r16,-1
 508b1ac:	52bfff04 	addi	r10,r10,-4
 508b1b0:	803ffb1e 	bne	r16,zero,508b1a0 <__alt_data_end+0xfffbcfa0>
 508b1b4:	14000415 	stw	r16,16(r2)
 508b1b8:	dfc00517 	ldw	ra,20(sp)
 508b1bc:	dd000417 	ldw	r20,16(sp)
 508b1c0:	dcc00317 	ldw	r19,12(sp)
 508b1c4:	dc800217 	ldw	r18,8(sp)
 508b1c8:	dc400117 	ldw	r17,4(sp)
 508b1cc:	dc000017 	ldw	r16,0(sp)
 508b1d0:	dec00604 	addi	sp,sp,24
 508b1d4:	f800283a 	ret

0508b1d8 <__pow5mult>:
 508b1d8:	defffa04 	addi	sp,sp,-24
 508b1dc:	dcc00315 	stw	r19,12(sp)
 508b1e0:	dc000015 	stw	r16,0(sp)
 508b1e4:	dfc00515 	stw	ra,20(sp)
 508b1e8:	dd000415 	stw	r20,16(sp)
 508b1ec:	dc800215 	stw	r18,8(sp)
 508b1f0:	dc400115 	stw	r17,4(sp)
 508b1f4:	308000cc 	andi	r2,r6,3
 508b1f8:	3021883a 	mov	r16,r6
 508b1fc:	2027883a 	mov	r19,r4
 508b200:	10002f1e 	bne	r2,zero,508b2c0 <__pow5mult+0xe8>
 508b204:	2825883a 	mov	r18,r5
 508b208:	8021d0ba 	srai	r16,r16,2
 508b20c:	80001a26 	beq	r16,zero,508b278 <__pow5mult+0xa0>
 508b210:	9c401217 	ldw	r17,72(r19)
 508b214:	8800061e 	bne	r17,zero,508b230 <__pow5mult+0x58>
 508b218:	00003406 	br	508b2ec <__pow5mult+0x114>
 508b21c:	8021d07a 	srai	r16,r16,1
 508b220:	80001526 	beq	r16,zero,508b278 <__pow5mult+0xa0>
 508b224:	88800017 	ldw	r2,0(r17)
 508b228:	10001c26 	beq	r2,zero,508b29c <__pow5mult+0xc4>
 508b22c:	1023883a 	mov	r17,r2
 508b230:	8080004c 	andi	r2,r16,1
 508b234:	103ff926 	beq	r2,zero,508b21c <__alt_data_end+0xfffbd01c>
 508b238:	880d883a 	mov	r6,r17
 508b23c:	900b883a 	mov	r5,r18
 508b240:	9809883a 	mov	r4,r19
 508b244:	508afe00 	call	508afe0 <__multiply>
 508b248:	90001b26 	beq	r18,zero,508b2b8 <__pow5mult+0xe0>
 508b24c:	91000117 	ldw	r4,4(r18)
 508b250:	98c01317 	ldw	r3,76(r19)
 508b254:	8021d07a 	srai	r16,r16,1
 508b258:	2109883a 	add	r4,r4,r4
 508b25c:	2109883a 	add	r4,r4,r4
 508b260:	1907883a 	add	r3,r3,r4
 508b264:	19000017 	ldw	r4,0(r3)
 508b268:	91000015 	stw	r4,0(r18)
 508b26c:	1c800015 	stw	r18,0(r3)
 508b270:	1025883a 	mov	r18,r2
 508b274:	803feb1e 	bne	r16,zero,508b224 <__alt_data_end+0xfffbd024>
 508b278:	9005883a 	mov	r2,r18
 508b27c:	dfc00517 	ldw	ra,20(sp)
 508b280:	dd000417 	ldw	r20,16(sp)
 508b284:	dcc00317 	ldw	r19,12(sp)
 508b288:	dc800217 	ldw	r18,8(sp)
 508b28c:	dc400117 	ldw	r17,4(sp)
 508b290:	dc000017 	ldw	r16,0(sp)
 508b294:	dec00604 	addi	sp,sp,24
 508b298:	f800283a 	ret
 508b29c:	880d883a 	mov	r6,r17
 508b2a0:	880b883a 	mov	r5,r17
 508b2a4:	9809883a 	mov	r4,r19
 508b2a8:	508afe00 	call	508afe0 <__multiply>
 508b2ac:	88800015 	stw	r2,0(r17)
 508b2b0:	10000015 	stw	zero,0(r2)
 508b2b4:	003fdd06 	br	508b22c <__alt_data_end+0xfffbd02c>
 508b2b8:	1025883a 	mov	r18,r2
 508b2bc:	003fd706 	br	508b21c <__alt_data_end+0xfffbd01c>
 508b2c0:	10bfffc4 	addi	r2,r2,-1
 508b2c4:	1085883a 	add	r2,r2,r2
 508b2c8:	00c14274 	movhi	r3,1289
 508b2cc:	18d79c04 	addi	r3,r3,24176
 508b2d0:	1085883a 	add	r2,r2,r2
 508b2d4:	1885883a 	add	r2,r3,r2
 508b2d8:	11800017 	ldw	r6,0(r2)
 508b2dc:	000f883a 	mov	r7,zero
 508b2e0:	508ac680 	call	508ac68 <__multadd>
 508b2e4:	1025883a 	mov	r18,r2
 508b2e8:	003fc706 	br	508b208 <__alt_data_end+0xfffbd008>
 508b2ec:	05000044 	movi	r20,1
 508b2f0:	a00b883a 	mov	r5,r20
 508b2f4:	9809883a 	mov	r4,r19
 508b2f8:	508ab980 	call	508ab98 <_Balloc>
 508b2fc:	1023883a 	mov	r17,r2
 508b300:	00809c44 	movi	r2,625
 508b304:	88800515 	stw	r2,20(r17)
 508b308:	8d000415 	stw	r20,16(r17)
 508b30c:	9c401215 	stw	r17,72(r19)
 508b310:	88000015 	stw	zero,0(r17)
 508b314:	003fc606 	br	508b230 <__alt_data_end+0xfffbd030>

0508b318 <__lshift>:
 508b318:	defff904 	addi	sp,sp,-28
 508b31c:	dd400515 	stw	r21,20(sp)
 508b320:	dcc00315 	stw	r19,12(sp)
 508b324:	302bd17a 	srai	r21,r6,5
 508b328:	2cc00417 	ldw	r19,16(r5)
 508b32c:	28800217 	ldw	r2,8(r5)
 508b330:	dd000415 	stw	r20,16(sp)
 508b334:	ace7883a 	add	r19,r21,r19
 508b338:	dc800215 	stw	r18,8(sp)
 508b33c:	dc400115 	stw	r17,4(sp)
 508b340:	dc000015 	stw	r16,0(sp)
 508b344:	dfc00615 	stw	ra,24(sp)
 508b348:	9c000044 	addi	r16,r19,1
 508b34c:	2823883a 	mov	r17,r5
 508b350:	3029883a 	mov	r20,r6
 508b354:	2025883a 	mov	r18,r4
 508b358:	29400117 	ldw	r5,4(r5)
 508b35c:	1400030e 	bge	r2,r16,508b36c <__lshift+0x54>
 508b360:	1085883a 	add	r2,r2,r2
 508b364:	29400044 	addi	r5,r5,1
 508b368:	143ffd16 	blt	r2,r16,508b360 <__alt_data_end+0xfffbd160>
 508b36c:	9009883a 	mov	r4,r18
 508b370:	508ab980 	call	508ab98 <_Balloc>
 508b374:	10c00504 	addi	r3,r2,20
 508b378:	0540070e 	bge	zero,r21,508b398 <__lshift+0x80>
 508b37c:	ad6b883a 	add	r21,r21,r21
 508b380:	ad6b883a 	add	r21,r21,r21
 508b384:	1809883a 	mov	r4,r3
 508b388:	1d47883a 	add	r3,r3,r21
 508b38c:	20000015 	stw	zero,0(r4)
 508b390:	21000104 	addi	r4,r4,4
 508b394:	193ffd1e 	bne	r3,r4,508b38c <__alt_data_end+0xfffbd18c>
 508b398:	8a000417 	ldw	r8,16(r17)
 508b39c:	89000504 	addi	r4,r17,20
 508b3a0:	a18007cc 	andi	r6,r20,31
 508b3a4:	4211883a 	add	r8,r8,r8
 508b3a8:	4211883a 	add	r8,r8,r8
 508b3ac:	2211883a 	add	r8,r4,r8
 508b3b0:	30002326 	beq	r6,zero,508b440 <__lshift+0x128>
 508b3b4:	02400804 	movi	r9,32
 508b3b8:	4993c83a 	sub	r9,r9,r6
 508b3bc:	000b883a 	mov	r5,zero
 508b3c0:	21c00017 	ldw	r7,0(r4)
 508b3c4:	1815883a 	mov	r10,r3
 508b3c8:	18c00104 	addi	r3,r3,4
 508b3cc:	398e983a 	sll	r7,r7,r6
 508b3d0:	21000104 	addi	r4,r4,4
 508b3d4:	394ab03a 	or	r5,r7,r5
 508b3d8:	197fff15 	stw	r5,-4(r3)
 508b3dc:	217fff17 	ldw	r5,-4(r4)
 508b3e0:	2a4ad83a 	srl	r5,r5,r9
 508b3e4:	223ff636 	bltu	r4,r8,508b3c0 <__alt_data_end+0xfffbd1c0>
 508b3e8:	51400115 	stw	r5,4(r10)
 508b3ec:	28001a1e 	bne	r5,zero,508b458 <__lshift+0x140>
 508b3f0:	843fffc4 	addi	r16,r16,-1
 508b3f4:	14000415 	stw	r16,16(r2)
 508b3f8:	88000826 	beq	r17,zero,508b41c <__lshift+0x104>
 508b3fc:	89000117 	ldw	r4,4(r17)
 508b400:	90c01317 	ldw	r3,76(r18)
 508b404:	2109883a 	add	r4,r4,r4
 508b408:	2109883a 	add	r4,r4,r4
 508b40c:	1907883a 	add	r3,r3,r4
 508b410:	19000017 	ldw	r4,0(r3)
 508b414:	89000015 	stw	r4,0(r17)
 508b418:	1c400015 	stw	r17,0(r3)
 508b41c:	dfc00617 	ldw	ra,24(sp)
 508b420:	dd400517 	ldw	r21,20(sp)
 508b424:	dd000417 	ldw	r20,16(sp)
 508b428:	dcc00317 	ldw	r19,12(sp)
 508b42c:	dc800217 	ldw	r18,8(sp)
 508b430:	dc400117 	ldw	r17,4(sp)
 508b434:	dc000017 	ldw	r16,0(sp)
 508b438:	dec00704 	addi	sp,sp,28
 508b43c:	f800283a 	ret
 508b440:	21400017 	ldw	r5,0(r4)
 508b444:	18c00104 	addi	r3,r3,4
 508b448:	21000104 	addi	r4,r4,4
 508b44c:	197fff15 	stw	r5,-4(r3)
 508b450:	223ffb36 	bltu	r4,r8,508b440 <__alt_data_end+0xfffbd240>
 508b454:	003fe606 	br	508b3f0 <__alt_data_end+0xfffbd1f0>
 508b458:	9c000084 	addi	r16,r19,2
 508b45c:	003fe406 	br	508b3f0 <__alt_data_end+0xfffbd1f0>

0508b460 <__mcmp>:
 508b460:	20800417 	ldw	r2,16(r4)
 508b464:	28c00417 	ldw	r3,16(r5)
 508b468:	10c5c83a 	sub	r2,r2,r3
 508b46c:	1000111e 	bne	r2,zero,508b4b4 <__mcmp+0x54>
 508b470:	18c7883a 	add	r3,r3,r3
 508b474:	18c7883a 	add	r3,r3,r3
 508b478:	21000504 	addi	r4,r4,20
 508b47c:	29400504 	addi	r5,r5,20
 508b480:	20c5883a 	add	r2,r4,r3
 508b484:	28cb883a 	add	r5,r5,r3
 508b488:	00000106 	br	508b490 <__mcmp+0x30>
 508b48c:	20800a2e 	bgeu	r4,r2,508b4b8 <__mcmp+0x58>
 508b490:	10bfff04 	addi	r2,r2,-4
 508b494:	297fff04 	addi	r5,r5,-4
 508b498:	11800017 	ldw	r6,0(r2)
 508b49c:	28c00017 	ldw	r3,0(r5)
 508b4a0:	30fffa26 	beq	r6,r3,508b48c <__alt_data_end+0xfffbd28c>
 508b4a4:	30c00236 	bltu	r6,r3,508b4b0 <__mcmp+0x50>
 508b4a8:	00800044 	movi	r2,1
 508b4ac:	f800283a 	ret
 508b4b0:	00bfffc4 	movi	r2,-1
 508b4b4:	f800283a 	ret
 508b4b8:	0005883a 	mov	r2,zero
 508b4bc:	f800283a 	ret

0508b4c0 <__mdiff>:
 508b4c0:	28c00417 	ldw	r3,16(r5)
 508b4c4:	30800417 	ldw	r2,16(r6)
 508b4c8:	defffa04 	addi	sp,sp,-24
 508b4cc:	dcc00315 	stw	r19,12(sp)
 508b4d0:	dc800215 	stw	r18,8(sp)
 508b4d4:	dfc00515 	stw	ra,20(sp)
 508b4d8:	dd000415 	stw	r20,16(sp)
 508b4dc:	dc400115 	stw	r17,4(sp)
 508b4e0:	dc000015 	stw	r16,0(sp)
 508b4e4:	1887c83a 	sub	r3,r3,r2
 508b4e8:	2825883a 	mov	r18,r5
 508b4ec:	3027883a 	mov	r19,r6
 508b4f0:	1800141e 	bne	r3,zero,508b544 <__mdiff+0x84>
 508b4f4:	1085883a 	add	r2,r2,r2
 508b4f8:	1085883a 	add	r2,r2,r2
 508b4fc:	2a000504 	addi	r8,r5,20
 508b500:	34000504 	addi	r16,r6,20
 508b504:	4087883a 	add	r3,r8,r2
 508b508:	8085883a 	add	r2,r16,r2
 508b50c:	00000106 	br	508b514 <__mdiff+0x54>
 508b510:	40c0592e 	bgeu	r8,r3,508b678 <__mdiff+0x1b8>
 508b514:	18ffff04 	addi	r3,r3,-4
 508b518:	10bfff04 	addi	r2,r2,-4
 508b51c:	19c00017 	ldw	r7,0(r3)
 508b520:	11400017 	ldw	r5,0(r2)
 508b524:	397ffa26 	beq	r7,r5,508b510 <__alt_data_end+0xfffbd310>
 508b528:	3940592e 	bgeu	r7,r5,508b690 <__mdiff+0x1d0>
 508b52c:	9005883a 	mov	r2,r18
 508b530:	4023883a 	mov	r17,r8
 508b534:	9825883a 	mov	r18,r19
 508b538:	05000044 	movi	r20,1
 508b53c:	1027883a 	mov	r19,r2
 508b540:	00000406 	br	508b554 <__mdiff+0x94>
 508b544:	18005616 	blt	r3,zero,508b6a0 <__mdiff+0x1e0>
 508b548:	34400504 	addi	r17,r6,20
 508b54c:	2c000504 	addi	r16,r5,20
 508b550:	0029883a 	mov	r20,zero
 508b554:	91400117 	ldw	r5,4(r18)
 508b558:	508ab980 	call	508ab98 <_Balloc>
 508b55c:	92400417 	ldw	r9,16(r18)
 508b560:	9b000417 	ldw	r12,16(r19)
 508b564:	12c00504 	addi	r11,r2,20
 508b568:	4a51883a 	add	r8,r9,r9
 508b56c:	6319883a 	add	r12,r12,r12
 508b570:	4211883a 	add	r8,r8,r8
 508b574:	6319883a 	add	r12,r12,r12
 508b578:	15000315 	stw	r20,12(r2)
 508b57c:	8211883a 	add	r8,r16,r8
 508b580:	8b19883a 	add	r12,r17,r12
 508b584:	0007883a 	mov	r3,zero
 508b588:	81400017 	ldw	r5,0(r16)
 508b58c:	89c00017 	ldw	r7,0(r17)
 508b590:	59800104 	addi	r6,r11,4
 508b594:	293fffcc 	andi	r4,r5,65535
 508b598:	20c7883a 	add	r3,r4,r3
 508b59c:	393fffcc 	andi	r4,r7,65535
 508b5a0:	1909c83a 	sub	r4,r3,r4
 508b5a4:	280ad43a 	srli	r5,r5,16
 508b5a8:	380ed43a 	srli	r7,r7,16
 508b5ac:	2007d43a 	srai	r3,r4,16
 508b5b0:	213fffcc 	andi	r4,r4,65535
 508b5b4:	29cbc83a 	sub	r5,r5,r7
 508b5b8:	28c7883a 	add	r3,r5,r3
 508b5bc:	180a943a 	slli	r5,r3,16
 508b5c0:	8c400104 	addi	r17,r17,4
 508b5c4:	84000104 	addi	r16,r16,4
 508b5c8:	2908b03a 	or	r4,r5,r4
 508b5cc:	59000015 	stw	r4,0(r11)
 508b5d0:	1807d43a 	srai	r3,r3,16
 508b5d4:	3015883a 	mov	r10,r6
 508b5d8:	3017883a 	mov	r11,r6
 508b5dc:	8b3fea36 	bltu	r17,r12,508b588 <__alt_data_end+0xfffbd388>
 508b5e0:	8200162e 	bgeu	r16,r8,508b63c <__mdiff+0x17c>
 508b5e4:	8017883a 	mov	r11,r16
 508b5e8:	59400017 	ldw	r5,0(r11)
 508b5ec:	31800104 	addi	r6,r6,4
 508b5f0:	5ac00104 	addi	r11,r11,4
 508b5f4:	293fffcc 	andi	r4,r5,65535
 508b5f8:	20c7883a 	add	r3,r4,r3
 508b5fc:	280ed43a 	srli	r7,r5,16
 508b600:	180bd43a 	srai	r5,r3,16
 508b604:	193fffcc 	andi	r4,r3,65535
 508b608:	3947883a 	add	r3,r7,r5
 508b60c:	180a943a 	slli	r5,r3,16
 508b610:	1807d43a 	srai	r3,r3,16
 508b614:	2908b03a 	or	r4,r5,r4
 508b618:	313fff15 	stw	r4,-4(r6)
 508b61c:	5a3ff236 	bltu	r11,r8,508b5e8 <__alt_data_end+0xfffbd3e8>
 508b620:	0406303a 	nor	r3,zero,r16
 508b624:	1a07883a 	add	r3,r3,r8
 508b628:	1806d0ba 	srli	r3,r3,2
 508b62c:	18c00044 	addi	r3,r3,1
 508b630:	18c7883a 	add	r3,r3,r3
 508b634:	18c7883a 	add	r3,r3,r3
 508b638:	50d5883a 	add	r10,r10,r3
 508b63c:	50ffff04 	addi	r3,r10,-4
 508b640:	2000041e 	bne	r4,zero,508b654 <__mdiff+0x194>
 508b644:	18ffff04 	addi	r3,r3,-4
 508b648:	19000017 	ldw	r4,0(r3)
 508b64c:	4a7fffc4 	addi	r9,r9,-1
 508b650:	203ffc26 	beq	r4,zero,508b644 <__alt_data_end+0xfffbd444>
 508b654:	12400415 	stw	r9,16(r2)
 508b658:	dfc00517 	ldw	ra,20(sp)
 508b65c:	dd000417 	ldw	r20,16(sp)
 508b660:	dcc00317 	ldw	r19,12(sp)
 508b664:	dc800217 	ldw	r18,8(sp)
 508b668:	dc400117 	ldw	r17,4(sp)
 508b66c:	dc000017 	ldw	r16,0(sp)
 508b670:	dec00604 	addi	sp,sp,24
 508b674:	f800283a 	ret
 508b678:	000b883a 	mov	r5,zero
 508b67c:	508ab980 	call	508ab98 <_Balloc>
 508b680:	00c00044 	movi	r3,1
 508b684:	10c00415 	stw	r3,16(r2)
 508b688:	10000515 	stw	zero,20(r2)
 508b68c:	003ff206 	br	508b658 <__alt_data_end+0xfffbd458>
 508b690:	8023883a 	mov	r17,r16
 508b694:	0029883a 	mov	r20,zero
 508b698:	4021883a 	mov	r16,r8
 508b69c:	003fad06 	br	508b554 <__alt_data_end+0xfffbd354>
 508b6a0:	9005883a 	mov	r2,r18
 508b6a4:	94400504 	addi	r17,r18,20
 508b6a8:	9c000504 	addi	r16,r19,20
 508b6ac:	9825883a 	mov	r18,r19
 508b6b0:	05000044 	movi	r20,1
 508b6b4:	1027883a 	mov	r19,r2
 508b6b8:	003fa606 	br	508b554 <__alt_data_end+0xfffbd354>

0508b6bc <__ulp>:
 508b6bc:	295ffc2c 	andhi	r5,r5,32752
 508b6c0:	00bf3034 	movhi	r2,64704
 508b6c4:	2887883a 	add	r3,r5,r2
 508b6c8:	00c0020e 	bge	zero,r3,508b6d4 <__ulp+0x18>
 508b6cc:	0005883a 	mov	r2,zero
 508b6d0:	f800283a 	ret
 508b6d4:	00c7c83a 	sub	r3,zero,r3
 508b6d8:	1807d53a 	srai	r3,r3,20
 508b6dc:	008004c4 	movi	r2,19
 508b6e0:	10c00b0e 	bge	r2,r3,508b710 <__ulp+0x54>
 508b6e4:	18bffb04 	addi	r2,r3,-20
 508b6e8:	01000784 	movi	r4,30
 508b6ec:	0007883a 	mov	r3,zero
 508b6f0:	20800516 	blt	r4,r2,508b708 <__ulp+0x4c>
 508b6f4:	010007c4 	movi	r4,31
 508b6f8:	2089c83a 	sub	r4,r4,r2
 508b6fc:	00800044 	movi	r2,1
 508b700:	1104983a 	sll	r2,r2,r4
 508b704:	f800283a 	ret
 508b708:	00800044 	movi	r2,1
 508b70c:	f800283a 	ret
 508b710:	01400234 	movhi	r5,8
 508b714:	28c7d83a 	sra	r3,r5,r3
 508b718:	0005883a 	mov	r2,zero
 508b71c:	f800283a 	ret

0508b720 <__b2d>:
 508b720:	defffa04 	addi	sp,sp,-24
 508b724:	dc000015 	stw	r16,0(sp)
 508b728:	24000417 	ldw	r16,16(r4)
 508b72c:	dc400115 	stw	r17,4(sp)
 508b730:	24400504 	addi	r17,r4,20
 508b734:	8421883a 	add	r16,r16,r16
 508b738:	8421883a 	add	r16,r16,r16
 508b73c:	8c21883a 	add	r16,r17,r16
 508b740:	dc800215 	stw	r18,8(sp)
 508b744:	84bfff17 	ldw	r18,-4(r16)
 508b748:	dd000415 	stw	r20,16(sp)
 508b74c:	dcc00315 	stw	r19,12(sp)
 508b750:	9009883a 	mov	r4,r18
 508b754:	2829883a 	mov	r20,r5
 508b758:	dfc00515 	stw	ra,20(sp)
 508b75c:	508ae8c0 	call	508ae8c <__hi0bits>
 508b760:	00c00804 	movi	r3,32
 508b764:	1889c83a 	sub	r4,r3,r2
 508b768:	a1000015 	stw	r4,0(r20)
 508b76c:	01000284 	movi	r4,10
 508b770:	84ffff04 	addi	r19,r16,-4
 508b774:	20801216 	blt	r4,r2,508b7c0 <__b2d+0xa0>
 508b778:	018002c4 	movi	r6,11
 508b77c:	308dc83a 	sub	r6,r6,r2
 508b780:	9186d83a 	srl	r3,r18,r6
 508b784:	18cffc34 	orhi	r3,r3,16368
 508b788:	8cc0212e 	bgeu	r17,r19,508b810 <__b2d+0xf0>
 508b78c:	813ffe17 	ldw	r4,-8(r16)
 508b790:	218cd83a 	srl	r6,r4,r6
 508b794:	10800544 	addi	r2,r2,21
 508b798:	9084983a 	sll	r2,r18,r2
 508b79c:	1184b03a 	or	r2,r2,r6
 508b7a0:	dfc00517 	ldw	ra,20(sp)
 508b7a4:	dd000417 	ldw	r20,16(sp)
 508b7a8:	dcc00317 	ldw	r19,12(sp)
 508b7ac:	dc800217 	ldw	r18,8(sp)
 508b7b0:	dc400117 	ldw	r17,4(sp)
 508b7b4:	dc000017 	ldw	r16,0(sp)
 508b7b8:	dec00604 	addi	sp,sp,24
 508b7bc:	f800283a 	ret
 508b7c0:	8cc00f2e 	bgeu	r17,r19,508b800 <__b2d+0xe0>
 508b7c4:	117ffd44 	addi	r5,r2,-11
 508b7c8:	80bffe17 	ldw	r2,-8(r16)
 508b7cc:	28000e26 	beq	r5,zero,508b808 <__b2d+0xe8>
 508b7d0:	1949c83a 	sub	r4,r3,r5
 508b7d4:	9164983a 	sll	r18,r18,r5
 508b7d8:	1106d83a 	srl	r3,r2,r4
 508b7dc:	81bffe04 	addi	r6,r16,-8
 508b7e0:	948ffc34 	orhi	r18,r18,16368
 508b7e4:	90c6b03a 	or	r3,r18,r3
 508b7e8:	89800e2e 	bgeu	r17,r6,508b824 <__b2d+0x104>
 508b7ec:	81bffd17 	ldw	r6,-12(r16)
 508b7f0:	1144983a 	sll	r2,r2,r5
 508b7f4:	310ad83a 	srl	r5,r6,r4
 508b7f8:	2884b03a 	or	r2,r5,r2
 508b7fc:	003fe806 	br	508b7a0 <__alt_data_end+0xfffbd5a0>
 508b800:	10bffd44 	addi	r2,r2,-11
 508b804:	1000041e 	bne	r2,zero,508b818 <__b2d+0xf8>
 508b808:	90cffc34 	orhi	r3,r18,16368
 508b80c:	003fe406 	br	508b7a0 <__alt_data_end+0xfffbd5a0>
 508b810:	000d883a 	mov	r6,zero
 508b814:	003fdf06 	br	508b794 <__alt_data_end+0xfffbd594>
 508b818:	90a4983a 	sll	r18,r18,r2
 508b81c:	0005883a 	mov	r2,zero
 508b820:	003ff906 	br	508b808 <__alt_data_end+0xfffbd608>
 508b824:	1144983a 	sll	r2,r2,r5
 508b828:	003fdd06 	br	508b7a0 <__alt_data_end+0xfffbd5a0>

0508b82c <__d2b>:
 508b82c:	defff804 	addi	sp,sp,-32
 508b830:	dc000215 	stw	r16,8(sp)
 508b834:	3021883a 	mov	r16,r6
 508b838:	dc400315 	stw	r17,12(sp)
 508b83c:	8022907a 	slli	r17,r16,1
 508b840:	dd000615 	stw	r20,24(sp)
 508b844:	2829883a 	mov	r20,r5
 508b848:	01400044 	movi	r5,1
 508b84c:	dcc00515 	stw	r19,20(sp)
 508b850:	dc800415 	stw	r18,16(sp)
 508b854:	dfc00715 	stw	ra,28(sp)
 508b858:	3825883a 	mov	r18,r7
 508b85c:	8822d57a 	srli	r17,r17,21
 508b860:	508ab980 	call	508ab98 <_Balloc>
 508b864:	1027883a 	mov	r19,r2
 508b868:	00800434 	movhi	r2,16
 508b86c:	10bfffc4 	addi	r2,r2,-1
 508b870:	808c703a 	and	r6,r16,r2
 508b874:	88000126 	beq	r17,zero,508b87c <__d2b+0x50>
 508b878:	31800434 	orhi	r6,r6,16
 508b87c:	d9800015 	stw	r6,0(sp)
 508b880:	a0002426 	beq	r20,zero,508b914 <__d2b+0xe8>
 508b884:	d9000104 	addi	r4,sp,4
 508b888:	dd000115 	stw	r20,4(sp)
 508b88c:	508aef40 	call	508aef4 <__lo0bits>
 508b890:	d8c00017 	ldw	r3,0(sp)
 508b894:	10002f1e 	bne	r2,zero,508b954 <__d2b+0x128>
 508b898:	d9000117 	ldw	r4,4(sp)
 508b89c:	99000515 	stw	r4,20(r19)
 508b8a0:	1821003a 	cmpeq	r16,r3,zero
 508b8a4:	01000084 	movi	r4,2
 508b8a8:	2421c83a 	sub	r16,r4,r16
 508b8ac:	98c00615 	stw	r3,24(r19)
 508b8b0:	9c000415 	stw	r16,16(r19)
 508b8b4:	88001f1e 	bne	r17,zero,508b934 <__d2b+0x108>
 508b8b8:	10bef384 	addi	r2,r2,-1074
 508b8bc:	90800015 	stw	r2,0(r18)
 508b8c0:	00900034 	movhi	r2,16384
 508b8c4:	10bfffc4 	addi	r2,r2,-1
 508b8c8:	8085883a 	add	r2,r16,r2
 508b8cc:	1085883a 	add	r2,r2,r2
 508b8d0:	1085883a 	add	r2,r2,r2
 508b8d4:	9885883a 	add	r2,r19,r2
 508b8d8:	11000517 	ldw	r4,20(r2)
 508b8dc:	8020917a 	slli	r16,r16,5
 508b8e0:	508ae8c0 	call	508ae8c <__hi0bits>
 508b8e4:	d8c00817 	ldw	r3,32(sp)
 508b8e8:	8085c83a 	sub	r2,r16,r2
 508b8ec:	18800015 	stw	r2,0(r3)
 508b8f0:	9805883a 	mov	r2,r19
 508b8f4:	dfc00717 	ldw	ra,28(sp)
 508b8f8:	dd000617 	ldw	r20,24(sp)
 508b8fc:	dcc00517 	ldw	r19,20(sp)
 508b900:	dc800417 	ldw	r18,16(sp)
 508b904:	dc400317 	ldw	r17,12(sp)
 508b908:	dc000217 	ldw	r16,8(sp)
 508b90c:	dec00804 	addi	sp,sp,32
 508b910:	f800283a 	ret
 508b914:	d809883a 	mov	r4,sp
 508b918:	508aef40 	call	508aef4 <__lo0bits>
 508b91c:	d8c00017 	ldw	r3,0(sp)
 508b920:	04000044 	movi	r16,1
 508b924:	9c000415 	stw	r16,16(r19)
 508b928:	98c00515 	stw	r3,20(r19)
 508b92c:	10800804 	addi	r2,r2,32
 508b930:	883fe126 	beq	r17,zero,508b8b8 <__alt_data_end+0xfffbd6b8>
 508b934:	00c00d44 	movi	r3,53
 508b938:	8c7ef344 	addi	r17,r17,-1075
 508b93c:	88a3883a 	add	r17,r17,r2
 508b940:	1885c83a 	sub	r2,r3,r2
 508b944:	d8c00817 	ldw	r3,32(sp)
 508b948:	94400015 	stw	r17,0(r18)
 508b94c:	18800015 	stw	r2,0(r3)
 508b950:	003fe706 	br	508b8f0 <__alt_data_end+0xfffbd6f0>
 508b954:	01000804 	movi	r4,32
 508b958:	2089c83a 	sub	r4,r4,r2
 508b95c:	1908983a 	sll	r4,r3,r4
 508b960:	d9400117 	ldw	r5,4(sp)
 508b964:	1886d83a 	srl	r3,r3,r2
 508b968:	2148b03a 	or	r4,r4,r5
 508b96c:	99000515 	stw	r4,20(r19)
 508b970:	d8c00015 	stw	r3,0(sp)
 508b974:	003fca06 	br	508b8a0 <__alt_data_end+0xfffbd6a0>

0508b978 <__ratio>:
 508b978:	defff904 	addi	sp,sp,-28
 508b97c:	dc400315 	stw	r17,12(sp)
 508b980:	2823883a 	mov	r17,r5
 508b984:	d9400104 	addi	r5,sp,4
 508b988:	dfc00615 	stw	ra,24(sp)
 508b98c:	dcc00515 	stw	r19,20(sp)
 508b990:	dc800415 	stw	r18,16(sp)
 508b994:	2027883a 	mov	r19,r4
 508b998:	dc000215 	stw	r16,8(sp)
 508b99c:	508b7200 	call	508b720 <__b2d>
 508b9a0:	d80b883a 	mov	r5,sp
 508b9a4:	8809883a 	mov	r4,r17
 508b9a8:	1025883a 	mov	r18,r2
 508b9ac:	1821883a 	mov	r16,r3
 508b9b0:	508b7200 	call	508b720 <__b2d>
 508b9b4:	8a000417 	ldw	r8,16(r17)
 508b9b8:	99000417 	ldw	r4,16(r19)
 508b9bc:	d9400117 	ldw	r5,4(sp)
 508b9c0:	2209c83a 	sub	r4,r4,r8
 508b9c4:	2010917a 	slli	r8,r4,5
 508b9c8:	d9000017 	ldw	r4,0(sp)
 508b9cc:	2909c83a 	sub	r4,r5,r4
 508b9d0:	4109883a 	add	r4,r8,r4
 508b9d4:	01000e0e 	bge	zero,r4,508ba10 <__ratio+0x98>
 508b9d8:	2008953a 	slli	r4,r4,20
 508b9dc:	2421883a 	add	r16,r4,r16
 508b9e0:	100d883a 	mov	r6,r2
 508b9e4:	180f883a 	mov	r7,r3
 508b9e8:	9009883a 	mov	r4,r18
 508b9ec:	800b883a 	mov	r5,r16
 508b9f0:	5090abc0 	call	5090abc <__divdf3>
 508b9f4:	dfc00617 	ldw	ra,24(sp)
 508b9f8:	dcc00517 	ldw	r19,20(sp)
 508b9fc:	dc800417 	ldw	r18,16(sp)
 508ba00:	dc400317 	ldw	r17,12(sp)
 508ba04:	dc000217 	ldw	r16,8(sp)
 508ba08:	dec00704 	addi	sp,sp,28
 508ba0c:	f800283a 	ret
 508ba10:	2008953a 	slli	r4,r4,20
 508ba14:	1907c83a 	sub	r3,r3,r4
 508ba18:	003ff106 	br	508b9e0 <__alt_data_end+0xfffbd7e0>

0508ba1c <_mprec_log10>:
 508ba1c:	defffe04 	addi	sp,sp,-8
 508ba20:	dc000015 	stw	r16,0(sp)
 508ba24:	dfc00115 	stw	ra,4(sp)
 508ba28:	008005c4 	movi	r2,23
 508ba2c:	2021883a 	mov	r16,r4
 508ba30:	11000d0e 	bge	r2,r4,508ba68 <_mprec_log10+0x4c>
 508ba34:	0005883a 	mov	r2,zero
 508ba38:	00cffc34 	movhi	r3,16368
 508ba3c:	843fffc4 	addi	r16,r16,-1
 508ba40:	000d883a 	mov	r6,zero
 508ba44:	01d00934 	movhi	r7,16420
 508ba48:	1009883a 	mov	r4,r2
 508ba4c:	180b883a 	mov	r5,r3
 508ba50:	50915fc0 	call	50915fc <__muldf3>
 508ba54:	803ff91e 	bne	r16,zero,508ba3c <__alt_data_end+0xfffbd83c>
 508ba58:	dfc00117 	ldw	ra,4(sp)
 508ba5c:	dc000017 	ldw	r16,0(sp)
 508ba60:	dec00204 	addi	sp,sp,8
 508ba64:	f800283a 	ret
 508ba68:	202090fa 	slli	r16,r4,3
 508ba6c:	00814274 	movhi	r2,1289
 508ba70:	1097b304 	addi	r2,r2,24268
 508ba74:	1421883a 	add	r16,r2,r16
 508ba78:	80800017 	ldw	r2,0(r16)
 508ba7c:	80c00117 	ldw	r3,4(r16)
 508ba80:	dfc00117 	ldw	ra,4(sp)
 508ba84:	dc000017 	ldw	r16,0(sp)
 508ba88:	dec00204 	addi	sp,sp,8
 508ba8c:	f800283a 	ret

0508ba90 <__copybits>:
 508ba90:	297fffc4 	addi	r5,r5,-1
 508ba94:	280fd17a 	srai	r7,r5,5
 508ba98:	30c00417 	ldw	r3,16(r6)
 508ba9c:	30800504 	addi	r2,r6,20
 508baa0:	39c00044 	addi	r7,r7,1
 508baa4:	18c7883a 	add	r3,r3,r3
 508baa8:	39cf883a 	add	r7,r7,r7
 508baac:	18c7883a 	add	r3,r3,r3
 508bab0:	39cf883a 	add	r7,r7,r7
 508bab4:	10c7883a 	add	r3,r2,r3
 508bab8:	21cf883a 	add	r7,r4,r7
 508babc:	10c00d2e 	bgeu	r2,r3,508baf4 <__copybits+0x64>
 508bac0:	200b883a 	mov	r5,r4
 508bac4:	12000017 	ldw	r8,0(r2)
 508bac8:	29400104 	addi	r5,r5,4
 508bacc:	10800104 	addi	r2,r2,4
 508bad0:	2a3fff15 	stw	r8,-4(r5)
 508bad4:	10fffb36 	bltu	r2,r3,508bac4 <__alt_data_end+0xfffbd8c4>
 508bad8:	1985c83a 	sub	r2,r3,r6
 508badc:	10bffac4 	addi	r2,r2,-21
 508bae0:	1004d0ba 	srli	r2,r2,2
 508bae4:	10800044 	addi	r2,r2,1
 508bae8:	1085883a 	add	r2,r2,r2
 508baec:	1085883a 	add	r2,r2,r2
 508baf0:	2089883a 	add	r4,r4,r2
 508baf4:	21c0032e 	bgeu	r4,r7,508bb04 <__copybits+0x74>
 508baf8:	20000015 	stw	zero,0(r4)
 508bafc:	21000104 	addi	r4,r4,4
 508bb00:	21fffd36 	bltu	r4,r7,508baf8 <__alt_data_end+0xfffbd8f8>
 508bb04:	f800283a 	ret

0508bb08 <__any_on>:
 508bb08:	20c00417 	ldw	r3,16(r4)
 508bb0c:	2805d17a 	srai	r2,r5,5
 508bb10:	21000504 	addi	r4,r4,20
 508bb14:	18800d0e 	bge	r3,r2,508bb4c <__any_on+0x44>
 508bb18:	18c7883a 	add	r3,r3,r3
 508bb1c:	18c7883a 	add	r3,r3,r3
 508bb20:	20c7883a 	add	r3,r4,r3
 508bb24:	20c0192e 	bgeu	r4,r3,508bb8c <__any_on+0x84>
 508bb28:	18bfff17 	ldw	r2,-4(r3)
 508bb2c:	18ffff04 	addi	r3,r3,-4
 508bb30:	1000041e 	bne	r2,zero,508bb44 <__any_on+0x3c>
 508bb34:	20c0142e 	bgeu	r4,r3,508bb88 <__any_on+0x80>
 508bb38:	18ffff04 	addi	r3,r3,-4
 508bb3c:	19400017 	ldw	r5,0(r3)
 508bb40:	283ffc26 	beq	r5,zero,508bb34 <__alt_data_end+0xfffbd934>
 508bb44:	00800044 	movi	r2,1
 508bb48:	f800283a 	ret
 508bb4c:	10c00a0e 	bge	r2,r3,508bb78 <__any_on+0x70>
 508bb50:	1085883a 	add	r2,r2,r2
 508bb54:	1085883a 	add	r2,r2,r2
 508bb58:	294007cc 	andi	r5,r5,31
 508bb5c:	2087883a 	add	r3,r4,r2
 508bb60:	283ff026 	beq	r5,zero,508bb24 <__alt_data_end+0xfffbd924>
 508bb64:	19800017 	ldw	r6,0(r3)
 508bb68:	3144d83a 	srl	r2,r6,r5
 508bb6c:	114a983a 	sll	r5,r2,r5
 508bb70:	317ff41e 	bne	r6,r5,508bb44 <__alt_data_end+0xfffbd944>
 508bb74:	003feb06 	br	508bb24 <__alt_data_end+0xfffbd924>
 508bb78:	1085883a 	add	r2,r2,r2
 508bb7c:	1085883a 	add	r2,r2,r2
 508bb80:	2087883a 	add	r3,r4,r2
 508bb84:	003fe706 	br	508bb24 <__alt_data_end+0xfffbd924>
 508bb88:	f800283a 	ret
 508bb8c:	0005883a 	mov	r2,zero
 508bb90:	f800283a 	ret

0508bb94 <_realloc_r>:
 508bb94:	defff604 	addi	sp,sp,-40
 508bb98:	dc800215 	stw	r18,8(sp)
 508bb9c:	dfc00915 	stw	ra,36(sp)
 508bba0:	df000815 	stw	fp,32(sp)
 508bba4:	ddc00715 	stw	r23,28(sp)
 508bba8:	dd800615 	stw	r22,24(sp)
 508bbac:	dd400515 	stw	r21,20(sp)
 508bbb0:	dd000415 	stw	r20,16(sp)
 508bbb4:	dcc00315 	stw	r19,12(sp)
 508bbb8:	dc400115 	stw	r17,4(sp)
 508bbbc:	dc000015 	stw	r16,0(sp)
 508bbc0:	3025883a 	mov	r18,r6
 508bbc4:	2800b726 	beq	r5,zero,508bea4 <_realloc_r+0x310>
 508bbc8:	282b883a 	mov	r21,r5
 508bbcc:	2029883a 	mov	r20,r4
 508bbd0:	5092f740 	call	5092f74 <__malloc_lock>
 508bbd4:	a8bfff17 	ldw	r2,-4(r21)
 508bbd8:	043fff04 	movi	r16,-4
 508bbdc:	90c002c4 	addi	r3,r18,11
 508bbe0:	01000584 	movi	r4,22
 508bbe4:	acfffe04 	addi	r19,r21,-8
 508bbe8:	1420703a 	and	r16,r2,r16
 508bbec:	20c0332e 	bgeu	r4,r3,508bcbc <_realloc_r+0x128>
 508bbf0:	047ffe04 	movi	r17,-8
 508bbf4:	1c62703a 	and	r17,r3,r17
 508bbf8:	8807883a 	mov	r3,r17
 508bbfc:	88005816 	blt	r17,zero,508bd60 <_realloc_r+0x1cc>
 508bc00:	8c805736 	bltu	r17,r18,508bd60 <_realloc_r+0x1cc>
 508bc04:	80c0300e 	bge	r16,r3,508bcc8 <_realloc_r+0x134>
 508bc08:	07014274 	movhi	fp,1289
 508bc0c:	e7196b04 	addi	fp,fp,26028
 508bc10:	e1c00217 	ldw	r7,8(fp)
 508bc14:	9c09883a 	add	r4,r19,r16
 508bc18:	22000117 	ldw	r8,4(r4)
 508bc1c:	21c06326 	beq	r4,r7,508bdac <_realloc_r+0x218>
 508bc20:	017fff84 	movi	r5,-2
 508bc24:	414a703a 	and	r5,r8,r5
 508bc28:	214b883a 	add	r5,r4,r5
 508bc2c:	29800117 	ldw	r6,4(r5)
 508bc30:	3180004c 	andi	r6,r6,1
 508bc34:	30003f26 	beq	r6,zero,508bd34 <_realloc_r+0x1a0>
 508bc38:	1080004c 	andi	r2,r2,1
 508bc3c:	10008326 	beq	r2,zero,508be4c <_realloc_r+0x2b8>
 508bc40:	900b883a 	mov	r5,r18
 508bc44:	a009883a 	mov	r4,r20
 508bc48:	5089edc0 	call	5089edc <_malloc_r>
 508bc4c:	1025883a 	mov	r18,r2
 508bc50:	10011e26 	beq	r2,zero,508c0cc <_realloc_r+0x538>
 508bc54:	a93fff17 	ldw	r4,-4(r21)
 508bc58:	10fffe04 	addi	r3,r2,-8
 508bc5c:	00bfff84 	movi	r2,-2
 508bc60:	2084703a 	and	r2,r4,r2
 508bc64:	9885883a 	add	r2,r19,r2
 508bc68:	1880ee26 	beq	r3,r2,508c024 <_realloc_r+0x490>
 508bc6c:	81bfff04 	addi	r6,r16,-4
 508bc70:	00800904 	movi	r2,36
 508bc74:	1180b836 	bltu	r2,r6,508bf58 <_realloc_r+0x3c4>
 508bc78:	00c004c4 	movi	r3,19
 508bc7c:	19809636 	bltu	r3,r6,508bed8 <_realloc_r+0x344>
 508bc80:	9005883a 	mov	r2,r18
 508bc84:	a807883a 	mov	r3,r21
 508bc88:	19000017 	ldw	r4,0(r3)
 508bc8c:	11000015 	stw	r4,0(r2)
 508bc90:	19000117 	ldw	r4,4(r3)
 508bc94:	11000115 	stw	r4,4(r2)
 508bc98:	18c00217 	ldw	r3,8(r3)
 508bc9c:	10c00215 	stw	r3,8(r2)
 508bca0:	a80b883a 	mov	r5,r21
 508bca4:	a009883a 	mov	r4,r20
 508bca8:	50892f00 	call	50892f0 <_free_r>
 508bcac:	a009883a 	mov	r4,r20
 508bcb0:	5092f980 	call	5092f98 <__malloc_unlock>
 508bcb4:	9005883a 	mov	r2,r18
 508bcb8:	00001206 	br	508bd04 <_realloc_r+0x170>
 508bcbc:	00c00404 	movi	r3,16
 508bcc0:	1823883a 	mov	r17,r3
 508bcc4:	003fce06 	br	508bc00 <__alt_data_end+0xfffbda00>
 508bcc8:	a825883a 	mov	r18,r21
 508bccc:	8445c83a 	sub	r2,r16,r17
 508bcd0:	00c003c4 	movi	r3,15
 508bcd4:	18802636 	bltu	r3,r2,508bd70 <_realloc_r+0x1dc>
 508bcd8:	99800117 	ldw	r6,4(r19)
 508bcdc:	9c07883a 	add	r3,r19,r16
 508bce0:	3180004c 	andi	r6,r6,1
 508bce4:	3420b03a 	or	r16,r6,r16
 508bce8:	9c000115 	stw	r16,4(r19)
 508bcec:	18800117 	ldw	r2,4(r3)
 508bcf0:	10800054 	ori	r2,r2,1
 508bcf4:	18800115 	stw	r2,4(r3)
 508bcf8:	a009883a 	mov	r4,r20
 508bcfc:	5092f980 	call	5092f98 <__malloc_unlock>
 508bd00:	9005883a 	mov	r2,r18
 508bd04:	dfc00917 	ldw	ra,36(sp)
 508bd08:	df000817 	ldw	fp,32(sp)
 508bd0c:	ddc00717 	ldw	r23,28(sp)
 508bd10:	dd800617 	ldw	r22,24(sp)
 508bd14:	dd400517 	ldw	r21,20(sp)
 508bd18:	dd000417 	ldw	r20,16(sp)
 508bd1c:	dcc00317 	ldw	r19,12(sp)
 508bd20:	dc800217 	ldw	r18,8(sp)
 508bd24:	dc400117 	ldw	r17,4(sp)
 508bd28:	dc000017 	ldw	r16,0(sp)
 508bd2c:	dec00a04 	addi	sp,sp,40
 508bd30:	f800283a 	ret
 508bd34:	017fff04 	movi	r5,-4
 508bd38:	414a703a 	and	r5,r8,r5
 508bd3c:	814d883a 	add	r6,r16,r5
 508bd40:	30c01f16 	blt	r6,r3,508bdc0 <_realloc_r+0x22c>
 508bd44:	20800317 	ldw	r2,12(r4)
 508bd48:	20c00217 	ldw	r3,8(r4)
 508bd4c:	a825883a 	mov	r18,r21
 508bd50:	3021883a 	mov	r16,r6
 508bd54:	18800315 	stw	r2,12(r3)
 508bd58:	10c00215 	stw	r3,8(r2)
 508bd5c:	003fdb06 	br	508bccc <__alt_data_end+0xfffbdacc>
 508bd60:	00800304 	movi	r2,12
 508bd64:	a0800015 	stw	r2,0(r20)
 508bd68:	0005883a 	mov	r2,zero
 508bd6c:	003fe506 	br	508bd04 <__alt_data_end+0xfffbdb04>
 508bd70:	98c00117 	ldw	r3,4(r19)
 508bd74:	9c4b883a 	add	r5,r19,r17
 508bd78:	11000054 	ori	r4,r2,1
 508bd7c:	18c0004c 	andi	r3,r3,1
 508bd80:	1c62b03a 	or	r17,r3,r17
 508bd84:	9c400115 	stw	r17,4(r19)
 508bd88:	29000115 	stw	r4,4(r5)
 508bd8c:	2885883a 	add	r2,r5,r2
 508bd90:	10c00117 	ldw	r3,4(r2)
 508bd94:	29400204 	addi	r5,r5,8
 508bd98:	a009883a 	mov	r4,r20
 508bd9c:	18c00054 	ori	r3,r3,1
 508bda0:	10c00115 	stw	r3,4(r2)
 508bda4:	50892f00 	call	50892f0 <_free_r>
 508bda8:	003fd306 	br	508bcf8 <__alt_data_end+0xfffbdaf8>
 508bdac:	017fff04 	movi	r5,-4
 508bdb0:	414a703a 	and	r5,r8,r5
 508bdb4:	89800404 	addi	r6,r17,16
 508bdb8:	8151883a 	add	r8,r16,r5
 508bdbc:	4180590e 	bge	r8,r6,508bf24 <_realloc_r+0x390>
 508bdc0:	1080004c 	andi	r2,r2,1
 508bdc4:	103f9e1e 	bne	r2,zero,508bc40 <__alt_data_end+0xfffbda40>
 508bdc8:	adbffe17 	ldw	r22,-8(r21)
 508bdcc:	00bfff04 	movi	r2,-4
 508bdd0:	9dadc83a 	sub	r22,r19,r22
 508bdd4:	b1800117 	ldw	r6,4(r22)
 508bdd8:	3084703a 	and	r2,r6,r2
 508bddc:	20002026 	beq	r4,zero,508be60 <_realloc_r+0x2cc>
 508bde0:	80af883a 	add	r23,r16,r2
 508bde4:	b96f883a 	add	r23,r23,r5
 508bde8:	21c05f26 	beq	r4,r7,508bf68 <_realloc_r+0x3d4>
 508bdec:	b8c01c16 	blt	r23,r3,508be60 <_realloc_r+0x2cc>
 508bdf0:	20800317 	ldw	r2,12(r4)
 508bdf4:	20c00217 	ldw	r3,8(r4)
 508bdf8:	81bfff04 	addi	r6,r16,-4
 508bdfc:	01000904 	movi	r4,36
 508be00:	18800315 	stw	r2,12(r3)
 508be04:	10c00215 	stw	r3,8(r2)
 508be08:	b0c00217 	ldw	r3,8(r22)
 508be0c:	b0800317 	ldw	r2,12(r22)
 508be10:	b4800204 	addi	r18,r22,8
 508be14:	18800315 	stw	r2,12(r3)
 508be18:	10c00215 	stw	r3,8(r2)
 508be1c:	21801b36 	bltu	r4,r6,508be8c <_realloc_r+0x2f8>
 508be20:	008004c4 	movi	r2,19
 508be24:	1180352e 	bgeu	r2,r6,508befc <_realloc_r+0x368>
 508be28:	a8800017 	ldw	r2,0(r21)
 508be2c:	b0800215 	stw	r2,8(r22)
 508be30:	a8800117 	ldw	r2,4(r21)
 508be34:	b0800315 	stw	r2,12(r22)
 508be38:	008006c4 	movi	r2,27
 508be3c:	11807f36 	bltu	r2,r6,508c03c <_realloc_r+0x4a8>
 508be40:	b0800404 	addi	r2,r22,16
 508be44:	ad400204 	addi	r21,r21,8
 508be48:	00002d06 	br	508bf00 <_realloc_r+0x36c>
 508be4c:	adbffe17 	ldw	r22,-8(r21)
 508be50:	00bfff04 	movi	r2,-4
 508be54:	9dadc83a 	sub	r22,r19,r22
 508be58:	b1000117 	ldw	r4,4(r22)
 508be5c:	2084703a 	and	r2,r4,r2
 508be60:	b03f7726 	beq	r22,zero,508bc40 <__alt_data_end+0xfffbda40>
 508be64:	80af883a 	add	r23,r16,r2
 508be68:	b8ff7516 	blt	r23,r3,508bc40 <__alt_data_end+0xfffbda40>
 508be6c:	b0800317 	ldw	r2,12(r22)
 508be70:	b0c00217 	ldw	r3,8(r22)
 508be74:	81bfff04 	addi	r6,r16,-4
 508be78:	01000904 	movi	r4,36
 508be7c:	18800315 	stw	r2,12(r3)
 508be80:	10c00215 	stw	r3,8(r2)
 508be84:	b4800204 	addi	r18,r22,8
 508be88:	21bfe52e 	bgeu	r4,r6,508be20 <__alt_data_end+0xfffbdc20>
 508be8c:	a80b883a 	mov	r5,r21
 508be90:	9009883a 	mov	r4,r18
 508be94:	508a9140 	call	508a914 <memmove>
 508be98:	b821883a 	mov	r16,r23
 508be9c:	b027883a 	mov	r19,r22
 508bea0:	003f8a06 	br	508bccc <__alt_data_end+0xfffbdacc>
 508bea4:	300b883a 	mov	r5,r6
 508bea8:	dfc00917 	ldw	ra,36(sp)
 508beac:	df000817 	ldw	fp,32(sp)
 508beb0:	ddc00717 	ldw	r23,28(sp)
 508beb4:	dd800617 	ldw	r22,24(sp)
 508beb8:	dd400517 	ldw	r21,20(sp)
 508bebc:	dd000417 	ldw	r20,16(sp)
 508bec0:	dcc00317 	ldw	r19,12(sp)
 508bec4:	dc800217 	ldw	r18,8(sp)
 508bec8:	dc400117 	ldw	r17,4(sp)
 508becc:	dc000017 	ldw	r16,0(sp)
 508bed0:	dec00a04 	addi	sp,sp,40
 508bed4:	5089edc1 	jmpi	5089edc <_malloc_r>
 508bed8:	a8c00017 	ldw	r3,0(r21)
 508bedc:	90c00015 	stw	r3,0(r18)
 508bee0:	a8c00117 	ldw	r3,4(r21)
 508bee4:	90c00115 	stw	r3,4(r18)
 508bee8:	00c006c4 	movi	r3,27
 508beec:	19804536 	bltu	r3,r6,508c004 <_realloc_r+0x470>
 508bef0:	90800204 	addi	r2,r18,8
 508bef4:	a8c00204 	addi	r3,r21,8
 508bef8:	003f6306 	br	508bc88 <__alt_data_end+0xfffbda88>
 508befc:	9005883a 	mov	r2,r18
 508bf00:	a8c00017 	ldw	r3,0(r21)
 508bf04:	b821883a 	mov	r16,r23
 508bf08:	b027883a 	mov	r19,r22
 508bf0c:	10c00015 	stw	r3,0(r2)
 508bf10:	a8c00117 	ldw	r3,4(r21)
 508bf14:	10c00115 	stw	r3,4(r2)
 508bf18:	a8c00217 	ldw	r3,8(r21)
 508bf1c:	10c00215 	stw	r3,8(r2)
 508bf20:	003f6a06 	br	508bccc <__alt_data_end+0xfffbdacc>
 508bf24:	9c67883a 	add	r19,r19,r17
 508bf28:	4445c83a 	sub	r2,r8,r17
 508bf2c:	e4c00215 	stw	r19,8(fp)
 508bf30:	10800054 	ori	r2,r2,1
 508bf34:	98800115 	stw	r2,4(r19)
 508bf38:	a8bfff17 	ldw	r2,-4(r21)
 508bf3c:	a009883a 	mov	r4,r20
 508bf40:	1080004c 	andi	r2,r2,1
 508bf44:	1462b03a 	or	r17,r2,r17
 508bf48:	ac7fff15 	stw	r17,-4(r21)
 508bf4c:	5092f980 	call	5092f98 <__malloc_unlock>
 508bf50:	a805883a 	mov	r2,r21
 508bf54:	003f6b06 	br	508bd04 <__alt_data_end+0xfffbdb04>
 508bf58:	a80b883a 	mov	r5,r21
 508bf5c:	9009883a 	mov	r4,r18
 508bf60:	508a9140 	call	508a914 <memmove>
 508bf64:	003f4e06 	br	508bca0 <__alt_data_end+0xfffbdaa0>
 508bf68:	89000404 	addi	r4,r17,16
 508bf6c:	b93fbc16 	blt	r23,r4,508be60 <__alt_data_end+0xfffbdc60>
 508bf70:	b0800317 	ldw	r2,12(r22)
 508bf74:	b0c00217 	ldw	r3,8(r22)
 508bf78:	81bfff04 	addi	r6,r16,-4
 508bf7c:	01000904 	movi	r4,36
 508bf80:	18800315 	stw	r2,12(r3)
 508bf84:	10c00215 	stw	r3,8(r2)
 508bf88:	b4800204 	addi	r18,r22,8
 508bf8c:	21804336 	bltu	r4,r6,508c09c <_realloc_r+0x508>
 508bf90:	008004c4 	movi	r2,19
 508bf94:	11803f2e 	bgeu	r2,r6,508c094 <_realloc_r+0x500>
 508bf98:	a8800017 	ldw	r2,0(r21)
 508bf9c:	b0800215 	stw	r2,8(r22)
 508bfa0:	a8800117 	ldw	r2,4(r21)
 508bfa4:	b0800315 	stw	r2,12(r22)
 508bfa8:	008006c4 	movi	r2,27
 508bfac:	11803f36 	bltu	r2,r6,508c0ac <_realloc_r+0x518>
 508bfb0:	b0800404 	addi	r2,r22,16
 508bfb4:	ad400204 	addi	r21,r21,8
 508bfb8:	a8c00017 	ldw	r3,0(r21)
 508bfbc:	10c00015 	stw	r3,0(r2)
 508bfc0:	a8c00117 	ldw	r3,4(r21)
 508bfc4:	10c00115 	stw	r3,4(r2)
 508bfc8:	a8c00217 	ldw	r3,8(r21)
 508bfcc:	10c00215 	stw	r3,8(r2)
 508bfd0:	b447883a 	add	r3,r22,r17
 508bfd4:	bc45c83a 	sub	r2,r23,r17
 508bfd8:	e0c00215 	stw	r3,8(fp)
 508bfdc:	10800054 	ori	r2,r2,1
 508bfe0:	18800115 	stw	r2,4(r3)
 508bfe4:	b0800117 	ldw	r2,4(r22)
 508bfe8:	a009883a 	mov	r4,r20
 508bfec:	1080004c 	andi	r2,r2,1
 508bff0:	1462b03a 	or	r17,r2,r17
 508bff4:	b4400115 	stw	r17,4(r22)
 508bff8:	5092f980 	call	5092f98 <__malloc_unlock>
 508bffc:	9005883a 	mov	r2,r18
 508c000:	003f4006 	br	508bd04 <__alt_data_end+0xfffbdb04>
 508c004:	a8c00217 	ldw	r3,8(r21)
 508c008:	90c00215 	stw	r3,8(r18)
 508c00c:	a8c00317 	ldw	r3,12(r21)
 508c010:	90c00315 	stw	r3,12(r18)
 508c014:	30801126 	beq	r6,r2,508c05c <_realloc_r+0x4c8>
 508c018:	90800404 	addi	r2,r18,16
 508c01c:	a8c00404 	addi	r3,r21,16
 508c020:	003f1906 	br	508bc88 <__alt_data_end+0xfffbda88>
 508c024:	90ffff17 	ldw	r3,-4(r18)
 508c028:	00bfff04 	movi	r2,-4
 508c02c:	a825883a 	mov	r18,r21
 508c030:	1884703a 	and	r2,r3,r2
 508c034:	80a1883a 	add	r16,r16,r2
 508c038:	003f2406 	br	508bccc <__alt_data_end+0xfffbdacc>
 508c03c:	a8800217 	ldw	r2,8(r21)
 508c040:	b0800415 	stw	r2,16(r22)
 508c044:	a8800317 	ldw	r2,12(r21)
 508c048:	b0800515 	stw	r2,20(r22)
 508c04c:	31000a26 	beq	r6,r4,508c078 <_realloc_r+0x4e4>
 508c050:	b0800604 	addi	r2,r22,24
 508c054:	ad400404 	addi	r21,r21,16
 508c058:	003fa906 	br	508bf00 <__alt_data_end+0xfffbdd00>
 508c05c:	a9000417 	ldw	r4,16(r21)
 508c060:	90800604 	addi	r2,r18,24
 508c064:	a8c00604 	addi	r3,r21,24
 508c068:	91000415 	stw	r4,16(r18)
 508c06c:	a9000517 	ldw	r4,20(r21)
 508c070:	91000515 	stw	r4,20(r18)
 508c074:	003f0406 	br	508bc88 <__alt_data_end+0xfffbda88>
 508c078:	a8c00417 	ldw	r3,16(r21)
 508c07c:	ad400604 	addi	r21,r21,24
 508c080:	b0800804 	addi	r2,r22,32
 508c084:	b0c00615 	stw	r3,24(r22)
 508c088:	a8ffff17 	ldw	r3,-4(r21)
 508c08c:	b0c00715 	stw	r3,28(r22)
 508c090:	003f9b06 	br	508bf00 <__alt_data_end+0xfffbdd00>
 508c094:	9005883a 	mov	r2,r18
 508c098:	003fc706 	br	508bfb8 <__alt_data_end+0xfffbddb8>
 508c09c:	a80b883a 	mov	r5,r21
 508c0a0:	9009883a 	mov	r4,r18
 508c0a4:	508a9140 	call	508a914 <memmove>
 508c0a8:	003fc906 	br	508bfd0 <__alt_data_end+0xfffbddd0>
 508c0ac:	a8800217 	ldw	r2,8(r21)
 508c0b0:	b0800415 	stw	r2,16(r22)
 508c0b4:	a8800317 	ldw	r2,12(r21)
 508c0b8:	b0800515 	stw	r2,20(r22)
 508c0bc:	31000726 	beq	r6,r4,508c0dc <_realloc_r+0x548>
 508c0c0:	b0800604 	addi	r2,r22,24
 508c0c4:	ad400404 	addi	r21,r21,16
 508c0c8:	003fbb06 	br	508bfb8 <__alt_data_end+0xfffbddb8>
 508c0cc:	a009883a 	mov	r4,r20
 508c0d0:	5092f980 	call	5092f98 <__malloc_unlock>
 508c0d4:	0005883a 	mov	r2,zero
 508c0d8:	003f0a06 	br	508bd04 <__alt_data_end+0xfffbdb04>
 508c0dc:	a8c00417 	ldw	r3,16(r21)
 508c0e0:	ad400604 	addi	r21,r21,24
 508c0e4:	b0800804 	addi	r2,r22,32
 508c0e8:	b0c00615 	stw	r3,24(r22)
 508c0ec:	a8ffff17 	ldw	r3,-4(r21)
 508c0f0:	b0c00715 	stw	r3,28(r22)
 508c0f4:	003fb006 	br	508bfb8 <__alt_data_end+0xfffbddb8>

0508c0f8 <__fpclassifyd>:
 508c0f8:	00a00034 	movhi	r2,32768
 508c0fc:	10bfffc4 	addi	r2,r2,-1
 508c100:	2884703a 	and	r2,r5,r2
 508c104:	10000726 	beq	r2,zero,508c124 <__fpclassifyd+0x2c>
 508c108:	00fffc34 	movhi	r3,65520
 508c10c:	019ff834 	movhi	r6,32736
 508c110:	28c7883a 	add	r3,r5,r3
 508c114:	31bfffc4 	addi	r6,r6,-1
 508c118:	30c00536 	bltu	r6,r3,508c130 <__fpclassifyd+0x38>
 508c11c:	00800104 	movi	r2,4
 508c120:	f800283a 	ret
 508c124:	2000021e 	bne	r4,zero,508c130 <__fpclassifyd+0x38>
 508c128:	00800084 	movi	r2,2
 508c12c:	f800283a 	ret
 508c130:	00dffc34 	movhi	r3,32752
 508c134:	019ff834 	movhi	r6,32736
 508c138:	28cb883a 	add	r5,r5,r3
 508c13c:	31bfffc4 	addi	r6,r6,-1
 508c140:	317ff62e 	bgeu	r6,r5,508c11c <__alt_data_end+0xfffbdf1c>
 508c144:	01400434 	movhi	r5,16
 508c148:	297fffc4 	addi	r5,r5,-1
 508c14c:	28800236 	bltu	r5,r2,508c158 <__fpclassifyd+0x60>
 508c150:	008000c4 	movi	r2,3
 508c154:	f800283a 	ret
 508c158:	10c00226 	beq	r2,r3,508c164 <__fpclassifyd+0x6c>
 508c15c:	0005883a 	mov	r2,zero
 508c160:	f800283a 	ret
 508c164:	2005003a 	cmpeq	r2,r4,zero
 508c168:	f800283a 	ret

0508c16c <_sbrk_r>:
 508c16c:	defffd04 	addi	sp,sp,-12
 508c170:	dc000015 	stw	r16,0(sp)
 508c174:	040142b4 	movhi	r16,1290
 508c178:	dc400115 	stw	r17,4(sp)
 508c17c:	8425c704 	addi	r16,r16,-26852
 508c180:	2023883a 	mov	r17,r4
 508c184:	2809883a 	mov	r4,r5
 508c188:	dfc00215 	stw	ra,8(sp)
 508c18c:	80000015 	stw	zero,0(r16)
 508c190:	50931580 	call	5093158 <sbrk>
 508c194:	00ffffc4 	movi	r3,-1
 508c198:	10c00526 	beq	r2,r3,508c1b0 <_sbrk_r+0x44>
 508c19c:	dfc00217 	ldw	ra,8(sp)
 508c1a0:	dc400117 	ldw	r17,4(sp)
 508c1a4:	dc000017 	ldw	r16,0(sp)
 508c1a8:	dec00304 	addi	sp,sp,12
 508c1ac:	f800283a 	ret
 508c1b0:	80c00017 	ldw	r3,0(r16)
 508c1b4:	183ff926 	beq	r3,zero,508c19c <__alt_data_end+0xfffbdf9c>
 508c1b8:	88c00015 	stw	r3,0(r17)
 508c1bc:	003ff706 	br	508c19c <__alt_data_end+0xfffbdf9c>

0508c1c0 <__sread>:
 508c1c0:	defffe04 	addi	sp,sp,-8
 508c1c4:	dc000015 	stw	r16,0(sp)
 508c1c8:	2821883a 	mov	r16,r5
 508c1cc:	2940038f 	ldh	r5,14(r5)
 508c1d0:	dfc00115 	stw	ra,4(sp)
 508c1d4:	508f3c00 	call	508f3c0 <_read_r>
 508c1d8:	10000716 	blt	r2,zero,508c1f8 <__sread+0x38>
 508c1dc:	80c01417 	ldw	r3,80(r16)
 508c1e0:	1887883a 	add	r3,r3,r2
 508c1e4:	80c01415 	stw	r3,80(r16)
 508c1e8:	dfc00117 	ldw	ra,4(sp)
 508c1ec:	dc000017 	ldw	r16,0(sp)
 508c1f0:	dec00204 	addi	sp,sp,8
 508c1f4:	f800283a 	ret
 508c1f8:	80c0030b 	ldhu	r3,12(r16)
 508c1fc:	18fbffcc 	andi	r3,r3,61439
 508c200:	80c0030d 	sth	r3,12(r16)
 508c204:	dfc00117 	ldw	ra,4(sp)
 508c208:	dc000017 	ldw	r16,0(sp)
 508c20c:	dec00204 	addi	sp,sp,8
 508c210:	f800283a 	ret

0508c214 <__seofread>:
 508c214:	0005883a 	mov	r2,zero
 508c218:	f800283a 	ret

0508c21c <__swrite>:
 508c21c:	2880030b 	ldhu	r2,12(r5)
 508c220:	defffb04 	addi	sp,sp,-20
 508c224:	dcc00315 	stw	r19,12(sp)
 508c228:	dc800215 	stw	r18,8(sp)
 508c22c:	dc400115 	stw	r17,4(sp)
 508c230:	dc000015 	stw	r16,0(sp)
 508c234:	dfc00415 	stw	ra,16(sp)
 508c238:	10c0400c 	andi	r3,r2,256
 508c23c:	2821883a 	mov	r16,r5
 508c240:	2023883a 	mov	r17,r4
 508c244:	3025883a 	mov	r18,r6
 508c248:	3827883a 	mov	r19,r7
 508c24c:	18000526 	beq	r3,zero,508c264 <__swrite+0x48>
 508c250:	2940038f 	ldh	r5,14(r5)
 508c254:	01c00084 	movi	r7,2
 508c258:	000d883a 	mov	r6,zero
 508c25c:	508f3600 	call	508f360 <_lseek_r>
 508c260:	8080030b 	ldhu	r2,12(r16)
 508c264:	8140038f 	ldh	r5,14(r16)
 508c268:	10bbffcc 	andi	r2,r2,61439
 508c26c:	980f883a 	mov	r7,r19
 508c270:	900d883a 	mov	r6,r18
 508c274:	8809883a 	mov	r4,r17
 508c278:	8080030d 	sth	r2,12(r16)
 508c27c:	dfc00417 	ldw	ra,16(sp)
 508c280:	dcc00317 	ldw	r19,12(sp)
 508c284:	dc800217 	ldw	r18,8(sp)
 508c288:	dc400117 	ldw	r17,4(sp)
 508c28c:	dc000017 	ldw	r16,0(sp)
 508c290:	dec00504 	addi	sp,sp,20
 508c294:	508ee2c1 	jmpi	508ee2c <_write_r>

0508c298 <__sseek>:
 508c298:	defffe04 	addi	sp,sp,-8
 508c29c:	dc000015 	stw	r16,0(sp)
 508c2a0:	2821883a 	mov	r16,r5
 508c2a4:	2940038f 	ldh	r5,14(r5)
 508c2a8:	dfc00115 	stw	ra,4(sp)
 508c2ac:	508f3600 	call	508f360 <_lseek_r>
 508c2b0:	00ffffc4 	movi	r3,-1
 508c2b4:	10c00826 	beq	r2,r3,508c2d8 <__sseek+0x40>
 508c2b8:	80c0030b 	ldhu	r3,12(r16)
 508c2bc:	80801415 	stw	r2,80(r16)
 508c2c0:	18c40014 	ori	r3,r3,4096
 508c2c4:	80c0030d 	sth	r3,12(r16)
 508c2c8:	dfc00117 	ldw	ra,4(sp)
 508c2cc:	dc000017 	ldw	r16,0(sp)
 508c2d0:	dec00204 	addi	sp,sp,8
 508c2d4:	f800283a 	ret
 508c2d8:	80c0030b 	ldhu	r3,12(r16)
 508c2dc:	18fbffcc 	andi	r3,r3,61439
 508c2e0:	80c0030d 	sth	r3,12(r16)
 508c2e4:	dfc00117 	ldw	ra,4(sp)
 508c2e8:	dc000017 	ldw	r16,0(sp)
 508c2ec:	dec00204 	addi	sp,sp,8
 508c2f0:	f800283a 	ret

0508c2f4 <__sclose>:
 508c2f4:	2940038f 	ldh	r5,14(r5)
 508c2f8:	508ee8c1 	jmpi	508ee8c <_close_r>

0508c2fc <strcmp>:
 508c2fc:	2144b03a 	or	r2,r4,r5
 508c300:	108000cc 	andi	r2,r2,3
 508c304:	1000171e 	bne	r2,zero,508c364 <strcmp+0x68>
 508c308:	20800017 	ldw	r2,0(r4)
 508c30c:	28c00017 	ldw	r3,0(r5)
 508c310:	10c0141e 	bne	r2,r3,508c364 <strcmp+0x68>
 508c314:	027fbff4 	movhi	r9,65279
 508c318:	4a7fbfc4 	addi	r9,r9,-257
 508c31c:	0086303a 	nor	r3,zero,r2
 508c320:	02202074 	movhi	r8,32897
 508c324:	1245883a 	add	r2,r2,r9
 508c328:	42202004 	addi	r8,r8,-32640
 508c32c:	10c4703a 	and	r2,r2,r3
 508c330:	1204703a 	and	r2,r2,r8
 508c334:	10000226 	beq	r2,zero,508c340 <strcmp+0x44>
 508c338:	00002306 	br	508c3c8 <strcmp+0xcc>
 508c33c:	1000221e 	bne	r2,zero,508c3c8 <strcmp+0xcc>
 508c340:	21000104 	addi	r4,r4,4
 508c344:	20c00017 	ldw	r3,0(r4)
 508c348:	29400104 	addi	r5,r5,4
 508c34c:	29800017 	ldw	r6,0(r5)
 508c350:	1a4f883a 	add	r7,r3,r9
 508c354:	00c4303a 	nor	r2,zero,r3
 508c358:	3884703a 	and	r2,r7,r2
 508c35c:	1204703a 	and	r2,r2,r8
 508c360:	19bff626 	beq	r3,r6,508c33c <__alt_data_end+0xfffbe13c>
 508c364:	20800003 	ldbu	r2,0(r4)
 508c368:	10c03fcc 	andi	r3,r2,255
 508c36c:	18c0201c 	xori	r3,r3,128
 508c370:	18ffe004 	addi	r3,r3,-128
 508c374:	18000c26 	beq	r3,zero,508c3a8 <strcmp+0xac>
 508c378:	29800007 	ldb	r6,0(r5)
 508c37c:	19800326 	beq	r3,r6,508c38c <strcmp+0x90>
 508c380:	00001306 	br	508c3d0 <strcmp+0xd4>
 508c384:	29800007 	ldb	r6,0(r5)
 508c388:	11800b1e 	bne	r2,r6,508c3b8 <strcmp+0xbc>
 508c38c:	21000044 	addi	r4,r4,1
 508c390:	20c00003 	ldbu	r3,0(r4)
 508c394:	29400044 	addi	r5,r5,1
 508c398:	18803fcc 	andi	r2,r3,255
 508c39c:	1080201c 	xori	r2,r2,128
 508c3a0:	10bfe004 	addi	r2,r2,-128
 508c3a4:	103ff71e 	bne	r2,zero,508c384 <__alt_data_end+0xfffbe184>
 508c3a8:	0007883a 	mov	r3,zero
 508c3ac:	28800003 	ldbu	r2,0(r5)
 508c3b0:	1885c83a 	sub	r2,r3,r2
 508c3b4:	f800283a 	ret
 508c3b8:	28800003 	ldbu	r2,0(r5)
 508c3bc:	18c03fcc 	andi	r3,r3,255
 508c3c0:	1885c83a 	sub	r2,r3,r2
 508c3c4:	f800283a 	ret
 508c3c8:	0005883a 	mov	r2,zero
 508c3cc:	f800283a 	ret
 508c3d0:	10c03fcc 	andi	r3,r2,255
 508c3d4:	003ff506 	br	508c3ac <__alt_data_end+0xfffbe1ac>

0508c3d8 <__ssprint_r>:
 508c3d8:	30800217 	ldw	r2,8(r6)
 508c3dc:	defff604 	addi	sp,sp,-40
 508c3e0:	dc800215 	stw	r18,8(sp)
 508c3e4:	dfc00915 	stw	ra,36(sp)
 508c3e8:	df000815 	stw	fp,32(sp)
 508c3ec:	ddc00715 	stw	r23,28(sp)
 508c3f0:	dd800615 	stw	r22,24(sp)
 508c3f4:	dd400515 	stw	r21,20(sp)
 508c3f8:	dd000415 	stw	r20,16(sp)
 508c3fc:	dcc00315 	stw	r19,12(sp)
 508c400:	dc400115 	stw	r17,4(sp)
 508c404:	dc000015 	stw	r16,0(sp)
 508c408:	3025883a 	mov	r18,r6
 508c40c:	10005826 	beq	r2,zero,508c570 <__ssprint_r+0x198>
 508c410:	2027883a 	mov	r19,r4
 508c414:	35c00017 	ldw	r23,0(r6)
 508c418:	29000017 	ldw	r4,0(r5)
 508c41c:	28800217 	ldw	r2,8(r5)
 508c420:	2823883a 	mov	r17,r5
 508c424:	0039883a 	mov	fp,zero
 508c428:	0021883a 	mov	r16,zero
 508c42c:	80003926 	beq	r16,zero,508c514 <__ssprint_r+0x13c>
 508c430:	102b883a 	mov	r21,r2
 508c434:	102d883a 	mov	r22,r2
 508c438:	80803a36 	bltu	r16,r2,508c524 <__ssprint_r+0x14c>
 508c43c:	88c0030b 	ldhu	r3,12(r17)
 508c440:	1881200c 	andi	r2,r3,1152
 508c444:	10002626 	beq	r2,zero,508c4e0 <__ssprint_r+0x108>
 508c448:	88800517 	ldw	r2,20(r17)
 508c44c:	89400417 	ldw	r5,16(r17)
 508c450:	81800044 	addi	r6,r16,1
 508c454:	108f883a 	add	r7,r2,r2
 508c458:	3885883a 	add	r2,r7,r2
 508c45c:	100ed7fa 	srli	r7,r2,31
 508c460:	216dc83a 	sub	r22,r4,r5
 508c464:	3589883a 	add	r4,r6,r22
 508c468:	3885883a 	add	r2,r7,r2
 508c46c:	102bd07a 	srai	r21,r2,1
 508c470:	a80d883a 	mov	r6,r21
 508c474:	a900022e 	bgeu	r21,r4,508c480 <__ssprint_r+0xa8>
 508c478:	202b883a 	mov	r21,r4
 508c47c:	200d883a 	mov	r6,r4
 508c480:	18c1000c 	andi	r3,r3,1024
 508c484:	18002a26 	beq	r3,zero,508c530 <__ssprint_r+0x158>
 508c488:	300b883a 	mov	r5,r6
 508c48c:	9809883a 	mov	r4,r19
 508c490:	5089edc0 	call	5089edc <_malloc_r>
 508c494:	1029883a 	mov	r20,r2
 508c498:	10002c26 	beq	r2,zero,508c54c <__ssprint_r+0x174>
 508c49c:	89400417 	ldw	r5,16(r17)
 508c4a0:	b00d883a 	mov	r6,r22
 508c4a4:	1009883a 	mov	r4,r2
 508c4a8:	508a7cc0 	call	508a7cc <memcpy>
 508c4ac:	8880030b 	ldhu	r2,12(r17)
 508c4b0:	00fedfc4 	movi	r3,-1153
 508c4b4:	10c4703a 	and	r2,r2,r3
 508c4b8:	10802014 	ori	r2,r2,128
 508c4bc:	8880030d 	sth	r2,12(r17)
 508c4c0:	a589883a 	add	r4,r20,r22
 508c4c4:	adadc83a 	sub	r22,r21,r22
 508c4c8:	8d400515 	stw	r21,20(r17)
 508c4cc:	8d800215 	stw	r22,8(r17)
 508c4d0:	8d000415 	stw	r20,16(r17)
 508c4d4:	89000015 	stw	r4,0(r17)
 508c4d8:	802b883a 	mov	r21,r16
 508c4dc:	802d883a 	mov	r22,r16
 508c4e0:	b00d883a 	mov	r6,r22
 508c4e4:	e00b883a 	mov	r5,fp
 508c4e8:	508a9140 	call	508a914 <memmove>
 508c4ec:	88800217 	ldw	r2,8(r17)
 508c4f0:	89000017 	ldw	r4,0(r17)
 508c4f4:	90c00217 	ldw	r3,8(r18)
 508c4f8:	1545c83a 	sub	r2,r2,r21
 508c4fc:	2589883a 	add	r4,r4,r22
 508c500:	88800215 	stw	r2,8(r17)
 508c504:	89000015 	stw	r4,0(r17)
 508c508:	1c21c83a 	sub	r16,r3,r16
 508c50c:	94000215 	stw	r16,8(r18)
 508c510:	80001726 	beq	r16,zero,508c570 <__ssprint_r+0x198>
 508c514:	bf000017 	ldw	fp,0(r23)
 508c518:	bc000117 	ldw	r16,4(r23)
 508c51c:	bdc00204 	addi	r23,r23,8
 508c520:	003fc206 	br	508c42c <__alt_data_end+0xfffbe22c>
 508c524:	802b883a 	mov	r21,r16
 508c528:	802d883a 	mov	r22,r16
 508c52c:	003fec06 	br	508c4e0 <__alt_data_end+0xfffbe2e0>
 508c530:	9809883a 	mov	r4,r19
 508c534:	508bb940 	call	508bb94 <_realloc_r>
 508c538:	1029883a 	mov	r20,r2
 508c53c:	103fe01e 	bne	r2,zero,508c4c0 <__alt_data_end+0xfffbe2c0>
 508c540:	89400417 	ldw	r5,16(r17)
 508c544:	9809883a 	mov	r4,r19
 508c548:	50892f00 	call	50892f0 <_free_r>
 508c54c:	88c0030b 	ldhu	r3,12(r17)
 508c550:	00800304 	movi	r2,12
 508c554:	98800015 	stw	r2,0(r19)
 508c558:	18c01014 	ori	r3,r3,64
 508c55c:	88c0030d 	sth	r3,12(r17)
 508c560:	00bfffc4 	movi	r2,-1
 508c564:	90000215 	stw	zero,8(r18)
 508c568:	90000115 	stw	zero,4(r18)
 508c56c:	00000206 	br	508c578 <__ssprint_r+0x1a0>
 508c570:	90000115 	stw	zero,4(r18)
 508c574:	0005883a 	mov	r2,zero
 508c578:	dfc00917 	ldw	ra,36(sp)
 508c57c:	df000817 	ldw	fp,32(sp)
 508c580:	ddc00717 	ldw	r23,28(sp)
 508c584:	dd800617 	ldw	r22,24(sp)
 508c588:	dd400517 	ldw	r21,20(sp)
 508c58c:	dd000417 	ldw	r20,16(sp)
 508c590:	dcc00317 	ldw	r19,12(sp)
 508c594:	dc800217 	ldw	r18,8(sp)
 508c598:	dc400117 	ldw	r17,4(sp)
 508c59c:	dc000017 	ldw	r16,0(sp)
 508c5a0:	dec00a04 	addi	sp,sp,40
 508c5a4:	f800283a 	ret

0508c5a8 <___svfiprintf_internal_r>:
 508c5a8:	2880030b 	ldhu	r2,12(r5)
 508c5ac:	deffc804 	addi	sp,sp,-224
 508c5b0:	dcc03115 	stw	r19,196(sp)
 508c5b4:	dfc03715 	stw	ra,220(sp)
 508c5b8:	df003615 	stw	fp,216(sp)
 508c5bc:	ddc03515 	stw	r23,212(sp)
 508c5c0:	dd803415 	stw	r22,208(sp)
 508c5c4:	dd403315 	stw	r21,204(sp)
 508c5c8:	dd003215 	stw	r20,200(sp)
 508c5cc:	dc803015 	stw	r18,192(sp)
 508c5d0:	dc402f15 	stw	r17,188(sp)
 508c5d4:	dc002e15 	stw	r16,184(sp)
 508c5d8:	d9402715 	stw	r5,156(sp)
 508c5dc:	d9002a15 	stw	r4,168(sp)
 508c5e0:	1080200c 	andi	r2,r2,128
 508c5e4:	d9c02315 	stw	r7,140(sp)
 508c5e8:	3027883a 	mov	r19,r6
 508c5ec:	10000226 	beq	r2,zero,508c5f8 <___svfiprintf_internal_r+0x50>
 508c5f0:	28800417 	ldw	r2,16(r5)
 508c5f4:	10041d26 	beq	r2,zero,508d66c <___svfiprintf_internal_r+0x10c4>
 508c5f8:	dac01a04 	addi	r11,sp,104
 508c5fc:	dac01e15 	stw	r11,120(sp)
 508c600:	d8801e17 	ldw	r2,120(sp)
 508c604:	dac019c4 	addi	r11,sp,103
 508c608:	dd402a17 	ldw	r21,168(sp)
 508c60c:	ddc02717 	ldw	r23,156(sp)
 508c610:	05814274 	movhi	r22,1289
 508c614:	05014274 	movhi	r20,1289
 508c618:	dac01f15 	stw	r11,124(sp)
 508c61c:	12d7c83a 	sub	r11,r2,r11
 508c620:	b597e904 	addi	r22,r22,24484
 508c624:	a517e504 	addi	r20,r20,24468
 508c628:	dec01a15 	stw	sp,104(sp)
 508c62c:	d8001c15 	stw	zero,112(sp)
 508c630:	d8001b15 	stw	zero,108(sp)
 508c634:	d811883a 	mov	r8,sp
 508c638:	d8002915 	stw	zero,164(sp)
 508c63c:	d8002515 	stw	zero,148(sp)
 508c640:	dac02b15 	stw	r11,172(sp)
 508c644:	98800007 	ldb	r2,0(r19)
 508c648:	1002dd26 	beq	r2,zero,508d1c0 <___svfiprintf_internal_r+0xc18>
 508c64c:	00c00944 	movi	r3,37
 508c650:	9823883a 	mov	r17,r19
 508c654:	10c0021e 	bne	r2,r3,508c660 <___svfiprintf_internal_r+0xb8>
 508c658:	00001406 	br	508c6ac <___svfiprintf_internal_r+0x104>
 508c65c:	10c00326 	beq	r2,r3,508c66c <___svfiprintf_internal_r+0xc4>
 508c660:	8c400044 	addi	r17,r17,1
 508c664:	88800007 	ldb	r2,0(r17)
 508c668:	103ffc1e 	bne	r2,zero,508c65c <__alt_data_end+0xfffbe45c>
 508c66c:	8ce1c83a 	sub	r16,r17,r19
 508c670:	80000e26 	beq	r16,zero,508c6ac <___svfiprintf_internal_r+0x104>
 508c674:	d8c01c17 	ldw	r3,112(sp)
 508c678:	d8801b17 	ldw	r2,108(sp)
 508c67c:	44c00015 	stw	r19,0(r8)
 508c680:	1c07883a 	add	r3,r3,r16
 508c684:	10800044 	addi	r2,r2,1
 508c688:	d8c01c15 	stw	r3,112(sp)
 508c68c:	44000115 	stw	r16,4(r8)
 508c690:	d8801b15 	stw	r2,108(sp)
 508c694:	00c001c4 	movi	r3,7
 508c698:	18831e16 	blt	r3,r2,508d314 <___svfiprintf_internal_r+0xd6c>
 508c69c:	42000204 	addi	r8,r8,8
 508c6a0:	dac02517 	ldw	r11,148(sp)
 508c6a4:	5c17883a 	add	r11,r11,r16
 508c6a8:	dac02515 	stw	r11,148(sp)
 508c6ac:	88800007 	ldb	r2,0(r17)
 508c6b0:	1002c526 	beq	r2,zero,508d1c8 <___svfiprintf_internal_r+0xc20>
 508c6b4:	88c00047 	ldb	r3,1(r17)
 508c6b8:	8cc00044 	addi	r19,r17,1
 508c6bc:	d8001d85 	stb	zero,118(sp)
 508c6c0:	0009883a 	mov	r4,zero
 508c6c4:	000f883a 	mov	r7,zero
 508c6c8:	043fffc4 	movi	r16,-1
 508c6cc:	d8002415 	stw	zero,144(sp)
 508c6d0:	0025883a 	mov	r18,zero
 508c6d4:	01401604 	movi	r5,88
 508c6d8:	01800244 	movi	r6,9
 508c6dc:	02800a84 	movi	r10,42
 508c6e0:	02401b04 	movi	r9,108
 508c6e4:	9cc00044 	addi	r19,r19,1
 508c6e8:	18bff804 	addi	r2,r3,-32
 508c6ec:	2881dd36 	bltu	r5,r2,508ce64 <___svfiprintf_internal_r+0x8bc>
 508c6f0:	100490ba 	slli	r2,r2,2
 508c6f4:	02c14274 	movhi	r11,1289
 508c6f8:	5af1c204 	addi	r11,r11,-14584
 508c6fc:	12c5883a 	add	r2,r2,r11
 508c700:	10800017 	ldw	r2,0(r2)
 508c704:	1000683a 	jmp	r2
 508c708:	0508c904 	movi	r20,8996
 508c70c:	0508ce64 	muli	r20,zero,9017
 508c710:	0508ce64 	muli	r20,zero,9017
 508c714:	0508c8f8 	rdprs	r20,zero,8995
 508c718:	0508ce64 	muli	r20,zero,9017
 508c71c:	0508ce64 	muli	r20,zero,9017
 508c720:	0508ce64 	muli	r20,zero,9017
 508c724:	0508ce64 	muli	r20,zero,9017
 508c728:	0508ce64 	muli	r20,zero,9017
 508c72c:	0508ce64 	muli	r20,zero,9017
 508c730:	0508c86c 	andhi	r20,zero,8993
 508c734:	0508ca48 	cmpgei	r20,zero,9001
 508c738:	0508ce64 	muli	r20,zero,9017
 508c73c:	0508c898 	cmpnei	r20,zero,8994
 508c740:	0508ce98 	cmpnei	r20,zero,9018
 508c744:	0508ce64 	muli	r20,zero,9017
 508c748:	0508ce8c 	andi	r20,zero,9018
 508c74c:	0508ce2c 	andhi	r20,zero,9016
 508c750:	0508ce2c 	andhi	r20,zero,9016
 508c754:	0508ce2c 	andhi	r20,zero,9016
 508c758:	0508ce2c 	andhi	r20,zero,9016
 508c75c:	0508ce2c 	andhi	r20,zero,9016
 508c760:	0508ce2c 	andhi	r20,zero,9016
 508c764:	0508ce2c 	andhi	r20,zero,9016
 508c768:	0508ce2c 	andhi	r20,zero,9016
 508c76c:	0508ce2c 	andhi	r20,zero,9016
 508c770:	0508ce64 	muli	r20,zero,9017
 508c774:	0508ce64 	muli	r20,zero,9017
 508c778:	0508ce64 	muli	r20,zero,9017
 508c77c:	0508ce64 	muli	r20,zero,9017
 508c780:	0508ce64 	muli	r20,zero,9017
 508c784:	0508ce64 	muli	r20,zero,9017
 508c788:	0508ce64 	muli	r20,zero,9017
 508c78c:	0508ce64 	muli	r20,zero,9017
 508c790:	0508ce64 	muli	r20,zero,9017
 508c794:	0508ce64 	muli	r20,zero,9017
 508c798:	0508cdc8 	cmpgei	r20,zero,9015
 508c79c:	0508ce64 	muli	r20,zero,9017
 508c7a0:	0508ce64 	muli	r20,zero,9017
 508c7a4:	0508ce64 	muli	r20,zero,9017
 508c7a8:	0508ce64 	muli	r20,zero,9017
 508c7ac:	0508ce64 	muli	r20,zero,9017
 508c7b0:	0508ce64 	muli	r20,zero,9017
 508c7b4:	0508ce64 	muli	r20,zero,9017
 508c7b8:	0508ce64 	muli	r20,zero,9017
 508c7bc:	0508ce64 	muli	r20,zero,9017
 508c7c0:	0508ce64 	muli	r20,zero,9017
 508c7c4:	0508cf40 	call	508cf4 <__alt_mem_sdram+0x508cf4>
 508c7c8:	0508ce64 	muli	r20,zero,9017
 508c7cc:	0508ce64 	muli	r20,zero,9017
 508c7d0:	0508ce64 	muli	r20,zero,9017
 508c7d4:	0508ce64 	muli	r20,zero,9017
 508c7d8:	0508ce64 	muli	r20,zero,9017
 508c7dc:	0508ced8 	cmpnei	r20,zero,9019
 508c7e0:	0508ce64 	muli	r20,zero,9017
 508c7e4:	0508ce64 	muli	r20,zero,9017
 508c7e8:	0508cc0c 	andi	r20,zero,9008
 508c7ec:	0508ce64 	muli	r20,zero,9017
 508c7f0:	0508ce64 	muli	r20,zero,9017
 508c7f4:	0508ce64 	muli	r20,zero,9017
 508c7f8:	0508ce64 	muli	r20,zero,9017
 508c7fc:	0508ce64 	muli	r20,zero,9017
 508c800:	0508ce64 	muli	r20,zero,9017
 508c804:	0508ce64 	muli	r20,zero,9017
 508c808:	0508ce64 	muli	r20,zero,9017
 508c80c:	0508ce64 	muli	r20,zero,9017
 508c810:	0508ce64 	muli	r20,zero,9017
 508c814:	0508cafc 	xorhi	r20,zero,9003
 508c818:	0508cca8 	cmpgeui	r20,zero,9010
 508c81c:	0508ce64 	muli	r20,zero,9017
 508c820:	0508ce64 	muli	r20,zero,9017
 508c824:	0508ce64 	muli	r20,zero,9017
 508c828:	0508cc9c 	xori	r20,zero,9010
 508c82c:	0508cca8 	cmpgeui	r20,zero,9010
 508c830:	0508ce64 	muli	r20,zero,9017
 508c834:	0508ce64 	muli	r20,zero,9017
 508c838:	0508cc8c 	andi	r20,zero,9010
 508c83c:	0508ce64 	muli	r20,zero,9017
 508c840:	0508cc50 	cmplti	r20,zero,9009
 508c844:	0508ca58 	cmpnei	r20,zero,9001
 508c848:	0508c8a4 	muli	r20,zero,8994
 508c84c:	0508cdbc 	xorhi	r20,zero,9014
 508c850:	0508ce64 	muli	r20,zero,9017
 508c854:	0508cd70 	cmpltui	r20,zero,9013
 508c858:	0508ce64 	muli	r20,zero,9017
 508c85c:	0508c9c8 	cmpgei	r20,zero,8999
 508c860:	0508ce64 	muli	r20,zero,9017
 508c864:	0508ce64 	muli	r20,zero,9017
 508c868:	0508c924 	muli	r20,zero,8996
 508c86c:	dac02317 	ldw	r11,140(sp)
 508c870:	5ac00017 	ldw	r11,0(r11)
 508c874:	dac02415 	stw	r11,144(sp)
 508c878:	dac02317 	ldw	r11,140(sp)
 508c87c:	58800104 	addi	r2,r11,4
 508c880:	dac02417 	ldw	r11,144(sp)
 508c884:	5802e90e 	bge	r11,zero,508d42c <___svfiprintf_internal_r+0xe84>
 508c888:	dac02417 	ldw	r11,144(sp)
 508c88c:	d8802315 	stw	r2,140(sp)
 508c890:	02d7c83a 	sub	r11,zero,r11
 508c894:	dac02415 	stw	r11,144(sp)
 508c898:	94800114 	ori	r18,r18,4
 508c89c:	98c00007 	ldb	r3,0(r19)
 508c8a0:	003f9006 	br	508c6e4 <__alt_data_end+0xfffbe4e4>
 508c8a4:	00800c04 	movi	r2,48
 508c8a8:	dac02317 	ldw	r11,140(sp)
 508c8ac:	d8801d05 	stb	r2,116(sp)
 508c8b0:	00801e04 	movi	r2,120
 508c8b4:	d8801d45 	stb	r2,117(sp)
 508c8b8:	d8001d85 	stb	zero,118(sp)
 508c8bc:	58c00104 	addi	r3,r11,4
 508c8c0:	5f000017 	ldw	fp,0(r11)
 508c8c4:	0013883a 	mov	r9,zero
 508c8c8:	90800094 	ori	r2,r18,2
 508c8cc:	80032b16 	blt	r16,zero,508d57c <___svfiprintf_internal_r+0xfd4>
 508c8d0:	00bfdfc4 	movi	r2,-129
 508c8d4:	90a4703a 	and	r18,r18,r2
 508c8d8:	d8c02315 	stw	r3,140(sp)
 508c8dc:	94800094 	ori	r18,r18,2
 508c8e0:	e002dc26 	beq	fp,zero,508d454 <___svfiprintf_internal_r+0xeac>
 508c8e4:	01014274 	movhi	r4,1289
 508c8e8:	21177c04 	addi	r4,r4,24048
 508c8ec:	0015883a 	mov	r10,zero
 508c8f0:	d9002915 	stw	r4,164(sp)
 508c8f4:	00002306 	br	508c984 <___svfiprintf_internal_r+0x3dc>
 508c8f8:	94800054 	ori	r18,r18,1
 508c8fc:	98c00007 	ldb	r3,0(r19)
 508c900:	003f7806 	br	508c6e4 <__alt_data_end+0xfffbe4e4>
 508c904:	38803fcc 	andi	r2,r7,255
 508c908:	1080201c 	xori	r2,r2,128
 508c90c:	10bfe004 	addi	r2,r2,-128
 508c910:	1002f31e 	bne	r2,zero,508d4e0 <___svfiprintf_internal_r+0xf38>
 508c914:	01000044 	movi	r4,1
 508c918:	01c00804 	movi	r7,32
 508c91c:	98c00007 	ldb	r3,0(r19)
 508c920:	003f7006 	br	508c6e4 <__alt_data_end+0xfffbe4e4>
 508c924:	21003fcc 	andi	r4,r4,255
 508c928:	2003aa1e 	bne	r4,zero,508d7d4 <___svfiprintf_internal_r+0x122c>
 508c92c:	00814274 	movhi	r2,1289
 508c930:	10977c04 	addi	r2,r2,24048
 508c934:	d8802915 	stw	r2,164(sp)
 508c938:	9080080c 	andi	r2,r18,32
 508c93c:	1000ba26 	beq	r2,zero,508cc28 <___svfiprintf_internal_r+0x680>
 508c940:	dac02317 	ldw	r11,140(sp)
 508c944:	5f000017 	ldw	fp,0(r11)
 508c948:	5a400117 	ldw	r9,4(r11)
 508c94c:	5ac00204 	addi	r11,r11,8
 508c950:	dac02315 	stw	r11,140(sp)
 508c954:	9080004c 	andi	r2,r18,1
 508c958:	10029026 	beq	r2,zero,508d39c <___svfiprintf_internal_r+0xdf4>
 508c95c:	e244b03a 	or	r2,fp,r9
 508c960:	1002d41e 	bne	r2,zero,508d4b4 <___svfiprintf_internal_r+0xf0c>
 508c964:	d8001d85 	stb	zero,118(sp)
 508c968:	80030b16 	blt	r16,zero,508d598 <___svfiprintf_internal_r+0xff0>
 508c96c:	00bfdfc4 	movi	r2,-129
 508c970:	90a4703a 	and	r18,r18,r2
 508c974:	0015883a 	mov	r10,zero
 508c978:	80002426 	beq	r16,zero,508ca0c <___svfiprintf_internal_r+0x464>
 508c97c:	0039883a 	mov	fp,zero
 508c980:	0013883a 	mov	r9,zero
 508c984:	d9002917 	ldw	r4,164(sp)
 508c988:	dc401a04 	addi	r17,sp,104
 508c98c:	e08003cc 	andi	r2,fp,15
 508c990:	4806973a 	slli	r3,r9,28
 508c994:	2085883a 	add	r2,r4,r2
 508c998:	e038d13a 	srli	fp,fp,4
 508c99c:	10800003 	ldbu	r2,0(r2)
 508c9a0:	4812d13a 	srli	r9,r9,4
 508c9a4:	8c7fffc4 	addi	r17,r17,-1
 508c9a8:	1f38b03a 	or	fp,r3,fp
 508c9ac:	88800005 	stb	r2,0(r17)
 508c9b0:	e244b03a 	or	r2,fp,r9
 508c9b4:	103ff51e 	bne	r2,zero,508c98c <__alt_data_end+0xfffbe78c>
 508c9b8:	dac01e17 	ldw	r11,120(sp)
 508c9bc:	5c57c83a 	sub	r11,r11,r17
 508c9c0:	dac02115 	stw	r11,132(sp)
 508c9c4:	00001406 	br	508ca18 <___svfiprintf_internal_r+0x470>
 508c9c8:	21003fcc 	andi	r4,r4,255
 508c9cc:	2003741e 	bne	r4,zero,508d7a0 <___svfiprintf_internal_r+0x11f8>
 508c9d0:	9080080c 	andi	r2,r18,32
 508c9d4:	10014526 	beq	r2,zero,508ceec <___svfiprintf_internal_r+0x944>
 508c9d8:	dac02317 	ldw	r11,140(sp)
 508c9dc:	d8001d85 	stb	zero,118(sp)
 508c9e0:	58c00204 	addi	r3,r11,8
 508c9e4:	5f000017 	ldw	fp,0(r11)
 508c9e8:	5a400117 	ldw	r9,4(r11)
 508c9ec:	8002d916 	blt	r16,zero,508d554 <___svfiprintf_internal_r+0xfac>
 508c9f0:	013fdfc4 	movi	r4,-129
 508c9f4:	e244b03a 	or	r2,fp,r9
 508c9f8:	d8c02315 	stw	r3,140(sp)
 508c9fc:	9124703a 	and	r18,r18,r4
 508ca00:	0015883a 	mov	r10,zero
 508ca04:	1000b91e 	bne	r2,zero,508ccec <___svfiprintf_internal_r+0x744>
 508ca08:	8002e61e 	bne	r16,zero,508d5a4 <___svfiprintf_internal_r+0xffc>
 508ca0c:	0021883a 	mov	r16,zero
 508ca10:	d8002115 	stw	zero,132(sp)
 508ca14:	dc401a04 	addi	r17,sp,104
 508ca18:	d8c02117 	ldw	r3,132(sp)
 508ca1c:	dc002015 	stw	r16,128(sp)
 508ca20:	80c0010e 	bge	r16,r3,508ca28 <___svfiprintf_internal_r+0x480>
 508ca24:	d8c02015 	stw	r3,128(sp)
 508ca28:	52803fcc 	andi	r10,r10,255
 508ca2c:	5280201c 	xori	r10,r10,128
 508ca30:	52bfe004 	addi	r10,r10,-128
 508ca34:	50003c26 	beq	r10,zero,508cb28 <___svfiprintf_internal_r+0x580>
 508ca38:	dac02017 	ldw	r11,128(sp)
 508ca3c:	5ac00044 	addi	r11,r11,1
 508ca40:	dac02015 	stw	r11,128(sp)
 508ca44:	00003806 	br	508cb28 <___svfiprintf_internal_r+0x580>
 508ca48:	01000044 	movi	r4,1
 508ca4c:	01c00ac4 	movi	r7,43
 508ca50:	98c00007 	ldb	r3,0(r19)
 508ca54:	003f2306 	br	508c6e4 <__alt_data_end+0xfffbe4e4>
 508ca58:	21003fcc 	andi	r4,r4,255
 508ca5c:	2003481e 	bne	r4,zero,508d780 <___svfiprintf_internal_r+0x11d8>
 508ca60:	9080080c 	andi	r2,r18,32
 508ca64:	10013b26 	beq	r2,zero,508cf54 <___svfiprintf_internal_r+0x9ac>
 508ca68:	dac02317 	ldw	r11,140(sp)
 508ca6c:	d8001d85 	stb	zero,118(sp)
 508ca70:	58800204 	addi	r2,r11,8
 508ca74:	5f000017 	ldw	fp,0(r11)
 508ca78:	5a400117 	ldw	r9,4(r11)
 508ca7c:	8002a816 	blt	r16,zero,508d520 <___svfiprintf_internal_r+0xf78>
 508ca80:	013fdfc4 	movi	r4,-129
 508ca84:	e246b03a 	or	r3,fp,r9
 508ca88:	d8802315 	stw	r2,140(sp)
 508ca8c:	9124703a 	and	r18,r18,r4
 508ca90:	18013c26 	beq	r3,zero,508cf84 <___svfiprintf_internal_r+0x9dc>
 508ca94:	0015883a 	mov	r10,zero
 508ca98:	dc401a04 	addi	r17,sp,104
 508ca9c:	e006d0fa 	srli	r3,fp,3
 508caa0:	4808977a 	slli	r4,r9,29
 508caa4:	4812d0fa 	srli	r9,r9,3
 508caa8:	e70001cc 	andi	fp,fp,7
 508caac:	e0800c04 	addi	r2,fp,48
 508cab0:	8c7fffc4 	addi	r17,r17,-1
 508cab4:	20f8b03a 	or	fp,r4,r3
 508cab8:	88800005 	stb	r2,0(r17)
 508cabc:	e246b03a 	or	r3,fp,r9
 508cac0:	183ff61e 	bne	r3,zero,508ca9c <__alt_data_end+0xfffbe89c>
 508cac4:	90c0004c 	andi	r3,r18,1
 508cac8:	1800a526 	beq	r3,zero,508cd60 <___svfiprintf_internal_r+0x7b8>
 508cacc:	10803fcc 	andi	r2,r2,255
 508cad0:	1080201c 	xori	r2,r2,128
 508cad4:	10bfe004 	addi	r2,r2,-128
 508cad8:	00c00c04 	movi	r3,48
 508cadc:	10ffb626 	beq	r2,r3,508c9b8 <__alt_data_end+0xfffbe7b8>
 508cae0:	88ffffc5 	stb	r3,-1(r17)
 508cae4:	d8c01e17 	ldw	r3,120(sp)
 508cae8:	88bfffc4 	addi	r2,r17,-1
 508caec:	1023883a 	mov	r17,r2
 508caf0:	1887c83a 	sub	r3,r3,r2
 508caf4:	d8c02115 	stw	r3,132(sp)
 508caf8:	003fc706 	br	508ca18 <__alt_data_end+0xfffbe818>
 508cafc:	dac02317 	ldw	r11,140(sp)
 508cb00:	00c00044 	movi	r3,1
 508cb04:	d8c02015 	stw	r3,128(sp)
 508cb08:	58800017 	ldw	r2,0(r11)
 508cb0c:	5ac00104 	addi	r11,r11,4
 508cb10:	d8001d85 	stb	zero,118(sp)
 508cb14:	d8801005 	stb	r2,64(sp)
 508cb18:	dac02315 	stw	r11,140(sp)
 508cb1c:	d8c02115 	stw	r3,132(sp)
 508cb20:	dc401004 	addi	r17,sp,64
 508cb24:	0021883a 	mov	r16,zero
 508cb28:	90c0008c 	andi	r3,r18,2
 508cb2c:	d8c02215 	stw	r3,136(sp)
 508cb30:	18000326 	beq	r3,zero,508cb40 <___svfiprintf_internal_r+0x598>
 508cb34:	dac02017 	ldw	r11,128(sp)
 508cb38:	5ac00084 	addi	r11,r11,2
 508cb3c:	dac02015 	stw	r11,128(sp)
 508cb40:	90c0210c 	andi	r3,r18,132
 508cb44:	d8c02615 	stw	r3,152(sp)
 508cb48:	1801131e 	bne	r3,zero,508cf98 <___svfiprintf_internal_r+0x9f0>
 508cb4c:	dac02417 	ldw	r11,144(sp)
 508cb50:	d8c02017 	ldw	r3,128(sp)
 508cb54:	58f9c83a 	sub	fp,r11,r3
 508cb58:	07010f0e 	bge	zero,fp,508cf98 <___svfiprintf_internal_r+0x9f0>
 508cb5c:	02400404 	movi	r9,16
 508cb60:	d8c01c17 	ldw	r3,112(sp)
 508cb64:	d8801b17 	ldw	r2,108(sp)
 508cb68:	4f02d60e 	bge	r9,fp,508d6c4 <___svfiprintf_internal_r+0x111c>
 508cb6c:	01414274 	movhi	r5,1289
 508cb70:	2957e904 	addi	r5,r5,24484
 508cb74:	d9402815 	stw	r5,160(sp)
 508cb78:	028001c4 	movi	r10,7
 508cb7c:	00000306 	br	508cb8c <___svfiprintf_internal_r+0x5e4>
 508cb80:	e73ffc04 	addi	fp,fp,-16
 508cb84:	42000204 	addi	r8,r8,8
 508cb88:	4f00150e 	bge	r9,fp,508cbe0 <___svfiprintf_internal_r+0x638>
 508cb8c:	18c00404 	addi	r3,r3,16
 508cb90:	10800044 	addi	r2,r2,1
 508cb94:	45800015 	stw	r22,0(r8)
 508cb98:	42400115 	stw	r9,4(r8)
 508cb9c:	d8c01c15 	stw	r3,112(sp)
 508cba0:	d8801b15 	stw	r2,108(sp)
 508cba4:	50bff60e 	bge	r10,r2,508cb80 <__alt_data_end+0xfffbe980>
 508cba8:	d9801a04 	addi	r6,sp,104
 508cbac:	b80b883a 	mov	r5,r23
 508cbb0:	a809883a 	mov	r4,r21
 508cbb4:	da402c15 	stw	r9,176(sp)
 508cbb8:	da802d15 	stw	r10,180(sp)
 508cbbc:	508c3d80 	call	508c3d8 <__ssprint_r>
 508cbc0:	da402c17 	ldw	r9,176(sp)
 508cbc4:	da802d17 	ldw	r10,180(sp)
 508cbc8:	1001851e 	bne	r2,zero,508d1e0 <___svfiprintf_internal_r+0xc38>
 508cbcc:	e73ffc04 	addi	fp,fp,-16
 508cbd0:	d8c01c17 	ldw	r3,112(sp)
 508cbd4:	d8801b17 	ldw	r2,108(sp)
 508cbd8:	d811883a 	mov	r8,sp
 508cbdc:	4f3feb16 	blt	r9,fp,508cb8c <__alt_data_end+0xfffbe98c>
 508cbe0:	dac02817 	ldw	r11,160(sp)
 508cbe4:	e0c7883a 	add	r3,fp,r3
 508cbe8:	10800044 	addi	r2,r2,1
 508cbec:	42c00015 	stw	r11,0(r8)
 508cbf0:	47000115 	stw	fp,4(r8)
 508cbf4:	d8c01c15 	stw	r3,112(sp)
 508cbf8:	d8801b15 	stw	r2,108(sp)
 508cbfc:	010001c4 	movi	r4,7
 508cc00:	2081ee16 	blt	r4,r2,508d3bc <___svfiprintf_internal_r+0xe14>
 508cc04:	42000204 	addi	r8,r8,8
 508cc08:	0000e506 	br	508cfa0 <___svfiprintf_internal_r+0x9f8>
 508cc0c:	21003fcc 	andi	r4,r4,255
 508cc10:	2002dd1e 	bne	r4,zero,508d788 <___svfiprintf_internal_r+0x11e0>
 508cc14:	00814274 	movhi	r2,1289
 508cc18:	10977704 	addi	r2,r2,24028
 508cc1c:	d8802915 	stw	r2,164(sp)
 508cc20:	9080080c 	andi	r2,r18,32
 508cc24:	103f461e 	bne	r2,zero,508c940 <__alt_data_end+0xfffbe740>
 508cc28:	9080040c 	andi	r2,r18,16
 508cc2c:	10022e1e 	bne	r2,zero,508d4e8 <___svfiprintf_internal_r+0xf40>
 508cc30:	9080100c 	andi	r2,r18,64
 508cc34:	dac02317 	ldw	r11,140(sp)
 508cc38:	10027326 	beq	r2,zero,508d608 <___svfiprintf_internal_r+0x1060>
 508cc3c:	5f00000b 	ldhu	fp,0(r11)
 508cc40:	5ac00104 	addi	r11,r11,4
 508cc44:	0013883a 	mov	r9,zero
 508cc48:	dac02315 	stw	r11,140(sp)
 508cc4c:	003f4106 	br	508c954 <__alt_data_end+0xfffbe754>
 508cc50:	21003fcc 	andi	r4,r4,255
 508cc54:	2002e11e 	bne	r4,zero,508d7dc <___svfiprintf_internal_r+0x1234>
 508cc58:	9080080c 	andi	r2,r18,32
 508cc5c:	1002011e 	bne	r2,zero,508d464 <___svfiprintf_internal_r+0xebc>
 508cc60:	9080040c 	andi	r2,r18,16
 508cc64:	10023e1e 	bne	r2,zero,508d560 <___svfiprintf_internal_r+0xfb8>
 508cc68:	9480100c 	andi	r18,r18,64
 508cc6c:	90023c26 	beq	r18,zero,508d560 <___svfiprintf_internal_r+0xfb8>
 508cc70:	dac02317 	ldw	r11,140(sp)
 508cc74:	58800017 	ldw	r2,0(r11)
 508cc78:	5ac00104 	addi	r11,r11,4
 508cc7c:	dac02315 	stw	r11,140(sp)
 508cc80:	dac02517 	ldw	r11,148(sp)
 508cc84:	12c0000d 	sth	r11,0(r2)
 508cc88:	003e6e06 	br	508c644 <__alt_data_end+0xfffbe444>
 508cc8c:	98c00007 	ldb	r3,0(r19)
 508cc90:	1a422926 	beq	r3,r9,508d538 <___svfiprintf_internal_r+0xf90>
 508cc94:	94800414 	ori	r18,r18,16
 508cc98:	003e9206 	br	508c6e4 <__alt_data_end+0xfffbe4e4>
 508cc9c:	94801014 	ori	r18,r18,64
 508cca0:	98c00007 	ldb	r3,0(r19)
 508cca4:	003e8f06 	br	508c6e4 <__alt_data_end+0xfffbe4e4>
 508cca8:	21003fcc 	andi	r4,r4,255
 508ccac:	2002c71e 	bne	r4,zero,508d7cc <___svfiprintf_internal_r+0x1224>
 508ccb0:	9080080c 	andi	r2,r18,32
 508ccb4:	10004926 	beq	r2,zero,508cddc <___svfiprintf_internal_r+0x834>
 508ccb8:	dac02317 	ldw	r11,140(sp)
 508ccbc:	58800117 	ldw	r2,4(r11)
 508ccc0:	5f000017 	ldw	fp,0(r11)
 508ccc4:	5ac00204 	addi	r11,r11,8
 508ccc8:	dac02315 	stw	r11,140(sp)
 508cccc:	1013883a 	mov	r9,r2
 508ccd0:	10004b16 	blt	r2,zero,508ce00 <___svfiprintf_internal_r+0x858>
 508ccd4:	da801d83 	ldbu	r10,118(sp)
 508ccd8:	8001cb16 	blt	r16,zero,508d408 <___svfiprintf_internal_r+0xe60>
 508ccdc:	00ffdfc4 	movi	r3,-129
 508cce0:	e244b03a 	or	r2,fp,r9
 508cce4:	90e4703a 	and	r18,r18,r3
 508cce8:	103f4726 	beq	r2,zero,508ca08 <__alt_data_end+0xfffbe808>
 508ccec:	48008c26 	beq	r9,zero,508cf20 <___svfiprintf_internal_r+0x978>
 508ccf0:	dc802015 	stw	r18,128(sp)
 508ccf4:	dc002115 	stw	r16,132(sp)
 508ccf8:	dc401a04 	addi	r17,sp,104
 508ccfc:	e021883a 	mov	r16,fp
 508cd00:	da002215 	stw	r8,136(sp)
 508cd04:	5039883a 	mov	fp,r10
 508cd08:	4825883a 	mov	r18,r9
 508cd0c:	8009883a 	mov	r4,r16
 508cd10:	900b883a 	mov	r5,r18
 508cd14:	01800284 	movi	r6,10
 508cd18:	000f883a 	mov	r7,zero
 508cd1c:	508fcd80 	call	508fcd8 <__umoddi3>
 508cd20:	10800c04 	addi	r2,r2,48
 508cd24:	8c7fffc4 	addi	r17,r17,-1
 508cd28:	8009883a 	mov	r4,r16
 508cd2c:	900b883a 	mov	r5,r18
 508cd30:	88800005 	stb	r2,0(r17)
 508cd34:	01800284 	movi	r6,10
 508cd38:	000f883a 	mov	r7,zero
 508cd3c:	508f7600 	call	508f760 <__udivdi3>
 508cd40:	1021883a 	mov	r16,r2
 508cd44:	10c4b03a 	or	r2,r2,r3
 508cd48:	1825883a 	mov	r18,r3
 508cd4c:	103fef1e 	bne	r2,zero,508cd0c <__alt_data_end+0xfffbeb0c>
 508cd50:	dc802017 	ldw	r18,128(sp)
 508cd54:	dc002117 	ldw	r16,132(sp)
 508cd58:	da002217 	ldw	r8,136(sp)
 508cd5c:	e015883a 	mov	r10,fp
 508cd60:	d8c01e17 	ldw	r3,120(sp)
 508cd64:	1c47c83a 	sub	r3,r3,r17
 508cd68:	d8c02115 	stw	r3,132(sp)
 508cd6c:	003f2a06 	br	508ca18 <__alt_data_end+0xfffbe818>
 508cd70:	dac02317 	ldw	r11,140(sp)
 508cd74:	d8001d85 	stb	zero,118(sp)
 508cd78:	5c400017 	ldw	r17,0(r11)
 508cd7c:	5f000104 	addi	fp,r11,4
 508cd80:	88022f26 	beq	r17,zero,508d640 <___svfiprintf_internal_r+0x1098>
 508cd84:	80022516 	blt	r16,zero,508d61c <___svfiprintf_internal_r+0x1074>
 508cd88:	800d883a 	mov	r6,r16
 508cd8c:	000b883a 	mov	r5,zero
 508cd90:	8809883a 	mov	r4,r17
 508cd94:	da002c15 	stw	r8,176(sp)
 508cd98:	508a6e80 	call	508a6e8 <memchr>
 508cd9c:	da002c17 	ldw	r8,176(sp)
 508cda0:	10026426 	beq	r2,zero,508d734 <___svfiprintf_internal_r+0x118c>
 508cda4:	1445c83a 	sub	r2,r2,r17
 508cda8:	d8802115 	stw	r2,132(sp)
 508cdac:	da801d83 	ldbu	r10,118(sp)
 508cdb0:	df002315 	stw	fp,140(sp)
 508cdb4:	0021883a 	mov	r16,zero
 508cdb8:	003f1706 	br	508ca18 <__alt_data_end+0xfffbe818>
 508cdbc:	94800814 	ori	r18,r18,32
 508cdc0:	98c00007 	ldb	r3,0(r19)
 508cdc4:	003e4706 	br	508c6e4 <__alt_data_end+0xfffbe4e4>
 508cdc8:	21003fcc 	andi	r4,r4,255
 508cdcc:	2002701e 	bne	r4,zero,508d790 <___svfiprintf_internal_r+0x11e8>
 508cdd0:	94800414 	ori	r18,r18,16
 508cdd4:	9080080c 	andi	r2,r18,32
 508cdd8:	103fb71e 	bne	r2,zero,508ccb8 <__alt_data_end+0xfffbeab8>
 508cddc:	9080040c 	andi	r2,r18,16
 508cde0:	1001ab26 	beq	r2,zero,508d490 <___svfiprintf_internal_r+0xee8>
 508cde4:	dac02317 	ldw	r11,140(sp)
 508cde8:	5f000017 	ldw	fp,0(r11)
 508cdec:	5ac00104 	addi	r11,r11,4
 508cdf0:	dac02315 	stw	r11,140(sp)
 508cdf4:	e013d7fa 	srai	r9,fp,31
 508cdf8:	4805883a 	mov	r2,r9
 508cdfc:	103fb50e 	bge	r2,zero,508ccd4 <__alt_data_end+0xfffbead4>
 508ce00:	0739c83a 	sub	fp,zero,fp
 508ce04:	02800b44 	movi	r10,45
 508ce08:	e004c03a 	cmpne	r2,fp,zero
 508ce0c:	0253c83a 	sub	r9,zero,r9
 508ce10:	da801d85 	stb	r10,118(sp)
 508ce14:	4893c83a 	sub	r9,r9,r2
 508ce18:	80023016 	blt	r16,zero,508d6dc <___svfiprintf_internal_r+0x1134>
 508ce1c:	00bfdfc4 	movi	r2,-129
 508ce20:	90a4703a 	and	r18,r18,r2
 508ce24:	483fb21e 	bne	r9,zero,508ccf0 <__alt_data_end+0xfffbeaf0>
 508ce28:	00003d06 	br	508cf20 <___svfiprintf_internal_r+0x978>
 508ce2c:	9817883a 	mov	r11,r19
 508ce30:	d8002415 	stw	zero,144(sp)
 508ce34:	18bff404 	addi	r2,r3,-48
 508ce38:	0019883a 	mov	r12,zero
 508ce3c:	58c00007 	ldb	r3,0(r11)
 508ce40:	630002a4 	muli	r12,r12,10
 508ce44:	9cc00044 	addi	r19,r19,1
 508ce48:	9817883a 	mov	r11,r19
 508ce4c:	1319883a 	add	r12,r2,r12
 508ce50:	18bff404 	addi	r2,r3,-48
 508ce54:	30bff92e 	bgeu	r6,r2,508ce3c <__alt_data_end+0xfffbec3c>
 508ce58:	db002415 	stw	r12,144(sp)
 508ce5c:	18bff804 	addi	r2,r3,-32
 508ce60:	28be232e 	bgeu	r5,r2,508c6f0 <__alt_data_end+0xfffbe4f0>
 508ce64:	21003fcc 	andi	r4,r4,255
 508ce68:	20024b1e 	bne	r4,zero,508d798 <___svfiprintf_internal_r+0x11f0>
 508ce6c:	1800d626 	beq	r3,zero,508d1c8 <___svfiprintf_internal_r+0xc20>
 508ce70:	02c00044 	movi	r11,1
 508ce74:	dac02015 	stw	r11,128(sp)
 508ce78:	d8c01005 	stb	r3,64(sp)
 508ce7c:	d8001d85 	stb	zero,118(sp)
 508ce80:	dac02115 	stw	r11,132(sp)
 508ce84:	dc401004 	addi	r17,sp,64
 508ce88:	003f2606 	br	508cb24 <__alt_data_end+0xfffbe924>
 508ce8c:	94802014 	ori	r18,r18,128
 508ce90:	98c00007 	ldb	r3,0(r19)
 508ce94:	003e1306 	br	508c6e4 <__alt_data_end+0xfffbe4e4>
 508ce98:	98c00007 	ldb	r3,0(r19)
 508ce9c:	9ac00044 	addi	r11,r19,1
 508cea0:	1a822b26 	beq	r3,r10,508d750 <___svfiprintf_internal_r+0x11a8>
 508cea4:	18bff404 	addi	r2,r3,-48
 508cea8:	0021883a 	mov	r16,zero
 508ceac:	30821e36 	bltu	r6,r2,508d728 <___svfiprintf_internal_r+0x1180>
 508ceb0:	58c00007 	ldb	r3,0(r11)
 508ceb4:	840002a4 	muli	r16,r16,10
 508ceb8:	5cc00044 	addi	r19,r11,1
 508cebc:	9817883a 	mov	r11,r19
 508cec0:	80a1883a 	add	r16,r16,r2
 508cec4:	18bff404 	addi	r2,r3,-48
 508cec8:	30bff92e 	bgeu	r6,r2,508ceb0 <__alt_data_end+0xfffbecb0>
 508cecc:	803e060e 	bge	r16,zero,508c6e8 <__alt_data_end+0xfffbe4e8>
 508ced0:	043fffc4 	movi	r16,-1
 508ced4:	003e0406 	br	508c6e8 <__alt_data_end+0xfffbe4e8>
 508ced8:	21003fcc 	andi	r4,r4,255
 508cedc:	2002371e 	bne	r4,zero,508d7bc <___svfiprintf_internal_r+0x1214>
 508cee0:	94800414 	ori	r18,r18,16
 508cee4:	9080080c 	andi	r2,r18,32
 508cee8:	103ebb1e 	bne	r2,zero,508c9d8 <__alt_data_end+0xfffbe7d8>
 508ceec:	9080040c 	andi	r2,r18,16
 508cef0:	10013b26 	beq	r2,zero,508d3e0 <___svfiprintf_internal_r+0xe38>
 508cef4:	dac02317 	ldw	r11,140(sp)
 508cef8:	d8001d85 	stb	zero,118(sp)
 508cefc:	0013883a 	mov	r9,zero
 508cf00:	58800104 	addi	r2,r11,4
 508cf04:	5f000017 	ldw	fp,0(r11)
 508cf08:	80013d16 	blt	r16,zero,508d400 <___svfiprintf_internal_r+0xe58>
 508cf0c:	00ffdfc4 	movi	r3,-129
 508cf10:	d8802315 	stw	r2,140(sp)
 508cf14:	90e4703a 	and	r18,r18,r3
 508cf18:	0015883a 	mov	r10,zero
 508cf1c:	e03eba26 	beq	fp,zero,508ca08 <__alt_data_end+0xfffbe808>
 508cf20:	00800244 	movi	r2,9
 508cf24:	173f7236 	bltu	r2,fp,508ccf0 <__alt_data_end+0xfffbeaf0>
 508cf28:	dac02b17 	ldw	r11,172(sp)
 508cf2c:	e7000c04 	addi	fp,fp,48
 508cf30:	df0019c5 	stb	fp,103(sp)
 508cf34:	dac02115 	stw	r11,132(sp)
 508cf38:	dc4019c4 	addi	r17,sp,103
 508cf3c:	003eb606 	br	508ca18 <__alt_data_end+0xfffbe818>
 508cf40:	21003fcc 	andi	r4,r4,255
 508cf44:	20021f1e 	bne	r4,zero,508d7c4 <___svfiprintf_internal_r+0x121c>
 508cf48:	94800414 	ori	r18,r18,16
 508cf4c:	9080080c 	andi	r2,r18,32
 508cf50:	103ec51e 	bne	r2,zero,508ca68 <__alt_data_end+0xfffbe868>
 508cf54:	9080040c 	andi	r2,r18,16
 508cf58:	10016926 	beq	r2,zero,508d500 <___svfiprintf_internal_r+0xf58>
 508cf5c:	dac02317 	ldw	r11,140(sp)
 508cf60:	d8001d85 	stb	zero,118(sp)
 508cf64:	0013883a 	mov	r9,zero
 508cf68:	58800104 	addi	r2,r11,4
 508cf6c:	5f000017 	ldw	fp,0(r11)
 508cf70:	80016b16 	blt	r16,zero,508d520 <___svfiprintf_internal_r+0xf78>
 508cf74:	00ffdfc4 	movi	r3,-129
 508cf78:	d8802315 	stw	r2,140(sp)
 508cf7c:	90e4703a 	and	r18,r18,r3
 508cf80:	e03ec41e 	bne	fp,zero,508ca94 <__alt_data_end+0xfffbe894>
 508cf84:	0015883a 	mov	r10,zero
 508cf88:	8001c226 	beq	r16,zero,508d694 <___svfiprintf_internal_r+0x10ec>
 508cf8c:	0039883a 	mov	fp,zero
 508cf90:	0013883a 	mov	r9,zero
 508cf94:	003ec006 	br	508ca98 <__alt_data_end+0xfffbe898>
 508cf98:	d8c01c17 	ldw	r3,112(sp)
 508cf9c:	d8801b17 	ldw	r2,108(sp)
 508cfa0:	d9001d87 	ldb	r4,118(sp)
 508cfa4:	20000b26 	beq	r4,zero,508cfd4 <___svfiprintf_internal_r+0xa2c>
 508cfa8:	d9001d84 	addi	r4,sp,118
 508cfac:	18c00044 	addi	r3,r3,1
 508cfb0:	10800044 	addi	r2,r2,1
 508cfb4:	41000015 	stw	r4,0(r8)
 508cfb8:	01000044 	movi	r4,1
 508cfbc:	41000115 	stw	r4,4(r8)
 508cfc0:	d8c01c15 	stw	r3,112(sp)
 508cfc4:	d8801b15 	stw	r2,108(sp)
 508cfc8:	010001c4 	movi	r4,7
 508cfcc:	2080e116 	blt	r4,r2,508d354 <___svfiprintf_internal_r+0xdac>
 508cfd0:	42000204 	addi	r8,r8,8
 508cfd4:	dac02217 	ldw	r11,136(sp)
 508cfd8:	58000b26 	beq	r11,zero,508d008 <___svfiprintf_internal_r+0xa60>
 508cfdc:	d9001d04 	addi	r4,sp,116
 508cfe0:	18c00084 	addi	r3,r3,2
 508cfe4:	10800044 	addi	r2,r2,1
 508cfe8:	41000015 	stw	r4,0(r8)
 508cfec:	01000084 	movi	r4,2
 508cff0:	41000115 	stw	r4,4(r8)
 508cff4:	d8c01c15 	stw	r3,112(sp)
 508cff8:	d8801b15 	stw	r2,108(sp)
 508cffc:	010001c4 	movi	r4,7
 508d000:	2080dd16 	blt	r4,r2,508d378 <___svfiprintf_internal_r+0xdd0>
 508d004:	42000204 	addi	r8,r8,8
 508d008:	dac02617 	ldw	r11,152(sp)
 508d00c:	01002004 	movi	r4,128
 508d010:	59008426 	beq	r11,r4,508d224 <___svfiprintf_internal_r+0xc7c>
 508d014:	dac02117 	ldw	r11,132(sp)
 508d018:	82e1c83a 	sub	r16,r16,r11
 508d01c:	0400270e 	bge	zero,r16,508d0bc <___svfiprintf_internal_r+0xb14>
 508d020:	01c00404 	movi	r7,16
 508d024:	3c016a0e 	bge	r7,r16,508d5d0 <___svfiprintf_internal_r+0x1028>
 508d028:	01414274 	movhi	r5,1289
 508d02c:	2957e504 	addi	r5,r5,24468
 508d030:	d9402215 	stw	r5,136(sp)
 508d034:	070001c4 	movi	fp,7
 508d038:	00000306 	br	508d048 <___svfiprintf_internal_r+0xaa0>
 508d03c:	843ffc04 	addi	r16,r16,-16
 508d040:	42000204 	addi	r8,r8,8
 508d044:	3c00130e 	bge	r7,r16,508d094 <___svfiprintf_internal_r+0xaec>
 508d048:	18c00404 	addi	r3,r3,16
 508d04c:	10800044 	addi	r2,r2,1
 508d050:	45000015 	stw	r20,0(r8)
 508d054:	41c00115 	stw	r7,4(r8)
 508d058:	d8c01c15 	stw	r3,112(sp)
 508d05c:	d8801b15 	stw	r2,108(sp)
 508d060:	e0bff60e 	bge	fp,r2,508d03c <__alt_data_end+0xfffbee3c>
 508d064:	d9801a04 	addi	r6,sp,104
 508d068:	b80b883a 	mov	r5,r23
 508d06c:	a809883a 	mov	r4,r21
 508d070:	d9c02c15 	stw	r7,176(sp)
 508d074:	508c3d80 	call	508c3d8 <__ssprint_r>
 508d078:	d9c02c17 	ldw	r7,176(sp)
 508d07c:	1000581e 	bne	r2,zero,508d1e0 <___svfiprintf_internal_r+0xc38>
 508d080:	843ffc04 	addi	r16,r16,-16
 508d084:	d8c01c17 	ldw	r3,112(sp)
 508d088:	d8801b17 	ldw	r2,108(sp)
 508d08c:	d811883a 	mov	r8,sp
 508d090:	3c3fed16 	blt	r7,r16,508d048 <__alt_data_end+0xfffbee48>
 508d094:	dac02217 	ldw	r11,136(sp)
 508d098:	1c07883a 	add	r3,r3,r16
 508d09c:	10800044 	addi	r2,r2,1
 508d0a0:	42c00015 	stw	r11,0(r8)
 508d0a4:	44000115 	stw	r16,4(r8)
 508d0a8:	d8c01c15 	stw	r3,112(sp)
 508d0ac:	d8801b15 	stw	r2,108(sp)
 508d0b0:	010001c4 	movi	r4,7
 508d0b4:	20809e16 	blt	r4,r2,508d330 <___svfiprintf_internal_r+0xd88>
 508d0b8:	42000204 	addi	r8,r8,8
 508d0bc:	dac02117 	ldw	r11,132(sp)
 508d0c0:	10800044 	addi	r2,r2,1
 508d0c4:	44400015 	stw	r17,0(r8)
 508d0c8:	58c7883a 	add	r3,r11,r3
 508d0cc:	42c00115 	stw	r11,4(r8)
 508d0d0:	d8c01c15 	stw	r3,112(sp)
 508d0d4:	d8801b15 	stw	r2,108(sp)
 508d0d8:	010001c4 	movi	r4,7
 508d0dc:	20807f16 	blt	r4,r2,508d2dc <___svfiprintf_internal_r+0xd34>
 508d0e0:	42000204 	addi	r8,r8,8
 508d0e4:	9480010c 	andi	r18,r18,4
 508d0e8:	90002926 	beq	r18,zero,508d190 <___svfiprintf_internal_r+0xbe8>
 508d0ec:	dac02417 	ldw	r11,144(sp)
 508d0f0:	d8802017 	ldw	r2,128(sp)
 508d0f4:	58a1c83a 	sub	r16,r11,r2
 508d0f8:	0400250e 	bge	zero,r16,508d190 <___svfiprintf_internal_r+0xbe8>
 508d0fc:	04400404 	movi	r17,16
 508d100:	d8801b17 	ldw	r2,108(sp)
 508d104:	8c017c0e 	bge	r17,r16,508d6f8 <___svfiprintf_internal_r+0x1150>
 508d108:	01414274 	movhi	r5,1289
 508d10c:	2957e904 	addi	r5,r5,24484
 508d110:	d9402815 	stw	r5,160(sp)
 508d114:	048001c4 	movi	r18,7
 508d118:	00000306 	br	508d128 <___svfiprintf_internal_r+0xb80>
 508d11c:	843ffc04 	addi	r16,r16,-16
 508d120:	42000204 	addi	r8,r8,8
 508d124:	8c00110e 	bge	r17,r16,508d16c <___svfiprintf_internal_r+0xbc4>
 508d128:	18c00404 	addi	r3,r3,16
 508d12c:	10800044 	addi	r2,r2,1
 508d130:	45800015 	stw	r22,0(r8)
 508d134:	44400115 	stw	r17,4(r8)
 508d138:	d8c01c15 	stw	r3,112(sp)
 508d13c:	d8801b15 	stw	r2,108(sp)
 508d140:	90bff60e 	bge	r18,r2,508d11c <__alt_data_end+0xfffbef1c>
 508d144:	d9801a04 	addi	r6,sp,104
 508d148:	b80b883a 	mov	r5,r23
 508d14c:	a809883a 	mov	r4,r21
 508d150:	508c3d80 	call	508c3d8 <__ssprint_r>
 508d154:	1000221e 	bne	r2,zero,508d1e0 <___svfiprintf_internal_r+0xc38>
 508d158:	843ffc04 	addi	r16,r16,-16
 508d15c:	d8c01c17 	ldw	r3,112(sp)
 508d160:	d8801b17 	ldw	r2,108(sp)
 508d164:	d811883a 	mov	r8,sp
 508d168:	8c3fef16 	blt	r17,r16,508d128 <__alt_data_end+0xfffbef28>
 508d16c:	dac02817 	ldw	r11,160(sp)
 508d170:	1c07883a 	add	r3,r3,r16
 508d174:	10800044 	addi	r2,r2,1
 508d178:	42c00015 	stw	r11,0(r8)
 508d17c:	44000115 	stw	r16,4(r8)
 508d180:	d8c01c15 	stw	r3,112(sp)
 508d184:	d8801b15 	stw	r2,108(sp)
 508d188:	010001c4 	movi	r4,7
 508d18c:	2080aa16 	blt	r4,r2,508d438 <___svfiprintf_internal_r+0xe90>
 508d190:	d8802417 	ldw	r2,144(sp)
 508d194:	dac02017 	ldw	r11,128(sp)
 508d198:	12c0010e 	bge	r2,r11,508d1a0 <___svfiprintf_internal_r+0xbf8>
 508d19c:	5805883a 	mov	r2,r11
 508d1a0:	dac02517 	ldw	r11,148(sp)
 508d1a4:	5897883a 	add	r11,r11,r2
 508d1a8:	dac02515 	stw	r11,148(sp)
 508d1ac:	1800531e 	bne	r3,zero,508d2fc <___svfiprintf_internal_r+0xd54>
 508d1b0:	98800007 	ldb	r2,0(r19)
 508d1b4:	d8001b15 	stw	zero,108(sp)
 508d1b8:	d811883a 	mov	r8,sp
 508d1bc:	103d231e 	bne	r2,zero,508c64c <__alt_data_end+0xfffbe44c>
 508d1c0:	9823883a 	mov	r17,r19
 508d1c4:	003d3906 	br	508c6ac <__alt_data_end+0xfffbe4ac>
 508d1c8:	d8801c17 	ldw	r2,112(sp)
 508d1cc:	10000426 	beq	r2,zero,508d1e0 <___svfiprintf_internal_r+0xc38>
 508d1d0:	d9402717 	ldw	r5,156(sp)
 508d1d4:	d9002a17 	ldw	r4,168(sp)
 508d1d8:	d9801a04 	addi	r6,sp,104
 508d1dc:	508c3d80 	call	508c3d8 <__ssprint_r>
 508d1e0:	dac02717 	ldw	r11,156(sp)
 508d1e4:	d8802517 	ldw	r2,148(sp)
 508d1e8:	58c0030b 	ldhu	r3,12(r11)
 508d1ec:	18c0100c 	andi	r3,r3,64
 508d1f0:	1801381e 	bne	r3,zero,508d6d4 <___svfiprintf_internal_r+0x112c>
 508d1f4:	dfc03717 	ldw	ra,220(sp)
 508d1f8:	df003617 	ldw	fp,216(sp)
 508d1fc:	ddc03517 	ldw	r23,212(sp)
 508d200:	dd803417 	ldw	r22,208(sp)
 508d204:	dd403317 	ldw	r21,204(sp)
 508d208:	dd003217 	ldw	r20,200(sp)
 508d20c:	dcc03117 	ldw	r19,196(sp)
 508d210:	dc803017 	ldw	r18,192(sp)
 508d214:	dc402f17 	ldw	r17,188(sp)
 508d218:	dc002e17 	ldw	r16,184(sp)
 508d21c:	dec03804 	addi	sp,sp,224
 508d220:	f800283a 	ret
 508d224:	dac02417 	ldw	r11,144(sp)
 508d228:	d9002017 	ldw	r4,128(sp)
 508d22c:	5939c83a 	sub	fp,r11,r4
 508d230:	073f780e 	bge	zero,fp,508d014 <__alt_data_end+0xfffbee14>
 508d234:	02400404 	movi	r9,16
 508d238:	4f01370e 	bge	r9,fp,508d718 <___svfiprintf_internal_r+0x1170>
 508d23c:	02c14274 	movhi	r11,1289
 508d240:	5ad7e504 	addi	r11,r11,24468
 508d244:	dac02215 	stw	r11,136(sp)
 508d248:	028001c4 	movi	r10,7
 508d24c:	00000306 	br	508d25c <___svfiprintf_internal_r+0xcb4>
 508d250:	e73ffc04 	addi	fp,fp,-16
 508d254:	42000204 	addi	r8,r8,8
 508d258:	4f00150e 	bge	r9,fp,508d2b0 <___svfiprintf_internal_r+0xd08>
 508d25c:	18c00404 	addi	r3,r3,16
 508d260:	10800044 	addi	r2,r2,1
 508d264:	45000015 	stw	r20,0(r8)
 508d268:	42400115 	stw	r9,4(r8)
 508d26c:	d8c01c15 	stw	r3,112(sp)
 508d270:	d8801b15 	stw	r2,108(sp)
 508d274:	50bff60e 	bge	r10,r2,508d250 <__alt_data_end+0xfffbf050>
 508d278:	d9801a04 	addi	r6,sp,104
 508d27c:	b80b883a 	mov	r5,r23
 508d280:	a809883a 	mov	r4,r21
 508d284:	da402c15 	stw	r9,176(sp)
 508d288:	da802d15 	stw	r10,180(sp)
 508d28c:	508c3d80 	call	508c3d8 <__ssprint_r>
 508d290:	da402c17 	ldw	r9,176(sp)
 508d294:	da802d17 	ldw	r10,180(sp)
 508d298:	103fd11e 	bne	r2,zero,508d1e0 <__alt_data_end+0xfffbefe0>
 508d29c:	e73ffc04 	addi	fp,fp,-16
 508d2a0:	d8c01c17 	ldw	r3,112(sp)
 508d2a4:	d8801b17 	ldw	r2,108(sp)
 508d2a8:	d811883a 	mov	r8,sp
 508d2ac:	4f3feb16 	blt	r9,fp,508d25c <__alt_data_end+0xfffbf05c>
 508d2b0:	dac02217 	ldw	r11,136(sp)
 508d2b4:	1f07883a 	add	r3,r3,fp
 508d2b8:	10800044 	addi	r2,r2,1
 508d2bc:	42c00015 	stw	r11,0(r8)
 508d2c0:	47000115 	stw	fp,4(r8)
 508d2c4:	d8c01c15 	stw	r3,112(sp)
 508d2c8:	d8801b15 	stw	r2,108(sp)
 508d2cc:	010001c4 	movi	r4,7
 508d2d0:	2080b616 	blt	r4,r2,508d5ac <___svfiprintf_internal_r+0x1004>
 508d2d4:	42000204 	addi	r8,r8,8
 508d2d8:	003f4e06 	br	508d014 <__alt_data_end+0xfffbee14>
 508d2dc:	d9801a04 	addi	r6,sp,104
 508d2e0:	b80b883a 	mov	r5,r23
 508d2e4:	a809883a 	mov	r4,r21
 508d2e8:	508c3d80 	call	508c3d8 <__ssprint_r>
 508d2ec:	103fbc1e 	bne	r2,zero,508d1e0 <__alt_data_end+0xfffbefe0>
 508d2f0:	d8c01c17 	ldw	r3,112(sp)
 508d2f4:	d811883a 	mov	r8,sp
 508d2f8:	003f7a06 	br	508d0e4 <__alt_data_end+0xfffbeee4>
 508d2fc:	d9801a04 	addi	r6,sp,104
 508d300:	b80b883a 	mov	r5,r23
 508d304:	a809883a 	mov	r4,r21
 508d308:	508c3d80 	call	508c3d8 <__ssprint_r>
 508d30c:	103fa826 	beq	r2,zero,508d1b0 <__alt_data_end+0xfffbefb0>
 508d310:	003fb306 	br	508d1e0 <__alt_data_end+0xfffbefe0>
 508d314:	d9801a04 	addi	r6,sp,104
 508d318:	b80b883a 	mov	r5,r23
 508d31c:	a809883a 	mov	r4,r21
 508d320:	508c3d80 	call	508c3d8 <__ssprint_r>
 508d324:	103fae1e 	bne	r2,zero,508d1e0 <__alt_data_end+0xfffbefe0>
 508d328:	d811883a 	mov	r8,sp
 508d32c:	003cdc06 	br	508c6a0 <__alt_data_end+0xfffbe4a0>
 508d330:	d9801a04 	addi	r6,sp,104
 508d334:	b80b883a 	mov	r5,r23
 508d338:	a809883a 	mov	r4,r21
 508d33c:	508c3d80 	call	508c3d8 <__ssprint_r>
 508d340:	103fa71e 	bne	r2,zero,508d1e0 <__alt_data_end+0xfffbefe0>
 508d344:	d8c01c17 	ldw	r3,112(sp)
 508d348:	d8801b17 	ldw	r2,108(sp)
 508d34c:	d811883a 	mov	r8,sp
 508d350:	003f5a06 	br	508d0bc <__alt_data_end+0xfffbeebc>
 508d354:	d9801a04 	addi	r6,sp,104
 508d358:	b80b883a 	mov	r5,r23
 508d35c:	a809883a 	mov	r4,r21
 508d360:	508c3d80 	call	508c3d8 <__ssprint_r>
 508d364:	103f9e1e 	bne	r2,zero,508d1e0 <__alt_data_end+0xfffbefe0>
 508d368:	d8c01c17 	ldw	r3,112(sp)
 508d36c:	d8801b17 	ldw	r2,108(sp)
 508d370:	d811883a 	mov	r8,sp
 508d374:	003f1706 	br	508cfd4 <__alt_data_end+0xfffbedd4>
 508d378:	d9801a04 	addi	r6,sp,104
 508d37c:	b80b883a 	mov	r5,r23
 508d380:	a809883a 	mov	r4,r21
 508d384:	508c3d80 	call	508c3d8 <__ssprint_r>
 508d388:	103f951e 	bne	r2,zero,508d1e0 <__alt_data_end+0xfffbefe0>
 508d38c:	d8c01c17 	ldw	r3,112(sp)
 508d390:	d8801b17 	ldw	r2,108(sp)
 508d394:	d811883a 	mov	r8,sp
 508d398:	003f1b06 	br	508d008 <__alt_data_end+0xfffbee08>
 508d39c:	d8001d85 	stb	zero,118(sp)
 508d3a0:	80007b16 	blt	r16,zero,508d590 <___svfiprintf_internal_r+0xfe8>
 508d3a4:	00ffdfc4 	movi	r3,-129
 508d3a8:	e244b03a 	or	r2,fp,r9
 508d3ac:	90e4703a 	and	r18,r18,r3
 508d3b0:	103d7026 	beq	r2,zero,508c974 <__alt_data_end+0xfffbe774>
 508d3b4:	0015883a 	mov	r10,zero
 508d3b8:	003d7206 	br	508c984 <__alt_data_end+0xfffbe784>
 508d3bc:	d9801a04 	addi	r6,sp,104
 508d3c0:	b80b883a 	mov	r5,r23
 508d3c4:	a809883a 	mov	r4,r21
 508d3c8:	508c3d80 	call	508c3d8 <__ssprint_r>
 508d3cc:	103f841e 	bne	r2,zero,508d1e0 <__alt_data_end+0xfffbefe0>
 508d3d0:	d8c01c17 	ldw	r3,112(sp)
 508d3d4:	d8801b17 	ldw	r2,108(sp)
 508d3d8:	d811883a 	mov	r8,sp
 508d3dc:	003ef006 	br	508cfa0 <__alt_data_end+0xfffbeda0>
 508d3e0:	9080100c 	andi	r2,r18,64
 508d3e4:	d8001d85 	stb	zero,118(sp)
 508d3e8:	dac02317 	ldw	r11,140(sp)
 508d3ec:	10008126 	beq	r2,zero,508d5f4 <___svfiprintf_internal_r+0x104c>
 508d3f0:	58800104 	addi	r2,r11,4
 508d3f4:	5f00000b 	ldhu	fp,0(r11)
 508d3f8:	0013883a 	mov	r9,zero
 508d3fc:	803ec30e 	bge	r16,zero,508cf0c <__alt_data_end+0xfffbed0c>
 508d400:	d8802315 	stw	r2,140(sp)
 508d404:	0015883a 	mov	r10,zero
 508d408:	e244b03a 	or	r2,fp,r9
 508d40c:	103e371e 	bne	r2,zero,508ccec <__alt_data_end+0xfffbeaec>
 508d410:	00800044 	movi	r2,1
 508d414:	10803fcc 	andi	r2,r2,255
 508d418:	00c00044 	movi	r3,1
 508d41c:	10c06126 	beq	r2,r3,508d5a4 <___svfiprintf_internal_r+0xffc>
 508d420:	00c00084 	movi	r3,2
 508d424:	10fd5526 	beq	r2,r3,508c97c <__alt_data_end+0xfffbe77c>
 508d428:	003ed806 	br	508cf8c <__alt_data_end+0xfffbed8c>
 508d42c:	d8802315 	stw	r2,140(sp)
 508d430:	98c00007 	ldb	r3,0(r19)
 508d434:	003cab06 	br	508c6e4 <__alt_data_end+0xfffbe4e4>
 508d438:	d9801a04 	addi	r6,sp,104
 508d43c:	b80b883a 	mov	r5,r23
 508d440:	a809883a 	mov	r4,r21
 508d444:	508c3d80 	call	508c3d8 <__ssprint_r>
 508d448:	103f651e 	bne	r2,zero,508d1e0 <__alt_data_end+0xfffbefe0>
 508d44c:	d8c01c17 	ldw	r3,112(sp)
 508d450:	003f4f06 	br	508d190 <__alt_data_end+0xfffbef90>
 508d454:	00814274 	movhi	r2,1289
 508d458:	10977c04 	addi	r2,r2,24048
 508d45c:	d8802915 	stw	r2,164(sp)
 508d460:	003d4406 	br	508c974 <__alt_data_end+0xfffbe774>
 508d464:	dac02317 	ldw	r11,140(sp)
 508d468:	58800017 	ldw	r2,0(r11)
 508d46c:	dac02517 	ldw	r11,148(sp)
 508d470:	5807d7fa 	srai	r3,r11,31
 508d474:	dac02317 	ldw	r11,140(sp)
 508d478:	10c00115 	stw	r3,4(r2)
 508d47c:	5ac00104 	addi	r11,r11,4
 508d480:	dac02315 	stw	r11,140(sp)
 508d484:	dac02517 	ldw	r11,148(sp)
 508d488:	12c00015 	stw	r11,0(r2)
 508d48c:	003c6d06 	br	508c644 <__alt_data_end+0xfffbe444>
 508d490:	9080100c 	andi	r2,r18,64
 508d494:	dac02317 	ldw	r11,140(sp)
 508d498:	103e5326 	beq	r2,zero,508cde8 <__alt_data_end+0xfffbebe8>
 508d49c:	5f00000f 	ldh	fp,0(r11)
 508d4a0:	5ac00104 	addi	r11,r11,4
 508d4a4:	dac02315 	stw	r11,140(sp)
 508d4a8:	e013d7fa 	srai	r9,fp,31
 508d4ac:	4805883a 	mov	r2,r9
 508d4b0:	003e0706 	br	508ccd0 <__alt_data_end+0xfffbead0>
 508d4b4:	00800c04 	movi	r2,48
 508d4b8:	d8801d05 	stb	r2,116(sp)
 508d4bc:	d8c01d45 	stb	r3,117(sp)
 508d4c0:	d8001d85 	stb	zero,118(sp)
 508d4c4:	90800094 	ori	r2,r18,2
 508d4c8:	80008f16 	blt	r16,zero,508d708 <___svfiprintf_internal_r+0x1160>
 508d4cc:	00bfdfc4 	movi	r2,-129
 508d4d0:	90a4703a 	and	r18,r18,r2
 508d4d4:	94800094 	ori	r18,r18,2
 508d4d8:	0015883a 	mov	r10,zero
 508d4dc:	003d2906 	br	508c984 <__alt_data_end+0xfffbe784>
 508d4e0:	98c00007 	ldb	r3,0(r19)
 508d4e4:	003c7f06 	br	508c6e4 <__alt_data_end+0xfffbe4e4>
 508d4e8:	dac02317 	ldw	r11,140(sp)
 508d4ec:	0013883a 	mov	r9,zero
 508d4f0:	5f000017 	ldw	fp,0(r11)
 508d4f4:	5ac00104 	addi	r11,r11,4
 508d4f8:	dac02315 	stw	r11,140(sp)
 508d4fc:	003d1506 	br	508c954 <__alt_data_end+0xfffbe754>
 508d500:	9080100c 	andi	r2,r18,64
 508d504:	d8001d85 	stb	zero,118(sp)
 508d508:	dac02317 	ldw	r11,140(sp)
 508d50c:	10003426 	beq	r2,zero,508d5e0 <___svfiprintf_internal_r+0x1038>
 508d510:	58800104 	addi	r2,r11,4
 508d514:	5f00000b 	ldhu	fp,0(r11)
 508d518:	0013883a 	mov	r9,zero
 508d51c:	803e950e 	bge	r16,zero,508cf74 <__alt_data_end+0xfffbed74>
 508d520:	e246b03a 	or	r3,fp,r9
 508d524:	d8802315 	stw	r2,140(sp)
 508d528:	183d5a1e 	bne	r3,zero,508ca94 <__alt_data_end+0xfffbe894>
 508d52c:	0015883a 	mov	r10,zero
 508d530:	0005883a 	mov	r2,zero
 508d534:	003fb706 	br	508d414 <__alt_data_end+0xfffbf214>
 508d538:	98c00043 	ldbu	r3,1(r19)
 508d53c:	94800814 	ori	r18,r18,32
 508d540:	9cc00044 	addi	r19,r19,1
 508d544:	18c03fcc 	andi	r3,r3,255
 508d548:	18c0201c 	xori	r3,r3,128
 508d54c:	18ffe004 	addi	r3,r3,-128
 508d550:	003c6406 	br	508c6e4 <__alt_data_end+0xfffbe4e4>
 508d554:	d8c02315 	stw	r3,140(sp)
 508d558:	0015883a 	mov	r10,zero
 508d55c:	003faa06 	br	508d408 <__alt_data_end+0xfffbf208>
 508d560:	dac02317 	ldw	r11,140(sp)
 508d564:	58800017 	ldw	r2,0(r11)
 508d568:	5ac00104 	addi	r11,r11,4
 508d56c:	dac02315 	stw	r11,140(sp)
 508d570:	dac02517 	ldw	r11,148(sp)
 508d574:	12c00015 	stw	r11,0(r2)
 508d578:	003c3206 	br	508c644 <__alt_data_end+0xfffbe444>
 508d57c:	01014274 	movhi	r4,1289
 508d580:	21177c04 	addi	r4,r4,24048
 508d584:	d9002915 	stw	r4,164(sp)
 508d588:	d8c02315 	stw	r3,140(sp)
 508d58c:	1025883a 	mov	r18,r2
 508d590:	e244b03a 	or	r2,fp,r9
 508d594:	103f871e 	bne	r2,zero,508d3b4 <__alt_data_end+0xfffbf1b4>
 508d598:	0015883a 	mov	r10,zero
 508d59c:	00800084 	movi	r2,2
 508d5a0:	003f9c06 	br	508d414 <__alt_data_end+0xfffbf214>
 508d5a4:	0039883a 	mov	fp,zero
 508d5a8:	003e5f06 	br	508cf28 <__alt_data_end+0xfffbed28>
 508d5ac:	d9801a04 	addi	r6,sp,104
 508d5b0:	b80b883a 	mov	r5,r23
 508d5b4:	a809883a 	mov	r4,r21
 508d5b8:	508c3d80 	call	508c3d8 <__ssprint_r>
 508d5bc:	103f081e 	bne	r2,zero,508d1e0 <__alt_data_end+0xfffbefe0>
 508d5c0:	d8c01c17 	ldw	r3,112(sp)
 508d5c4:	d8801b17 	ldw	r2,108(sp)
 508d5c8:	d811883a 	mov	r8,sp
 508d5cc:	003e9106 	br	508d014 <__alt_data_end+0xfffbee14>
 508d5d0:	01014274 	movhi	r4,1289
 508d5d4:	2117e504 	addi	r4,r4,24468
 508d5d8:	d9002215 	stw	r4,136(sp)
 508d5dc:	003ead06 	br	508d094 <__alt_data_end+0xfffbee94>
 508d5e0:	58800104 	addi	r2,r11,4
 508d5e4:	5f000017 	ldw	fp,0(r11)
 508d5e8:	0013883a 	mov	r9,zero
 508d5ec:	803e610e 	bge	r16,zero,508cf74 <__alt_data_end+0xfffbed74>
 508d5f0:	003fcb06 	br	508d520 <__alt_data_end+0xfffbf320>
 508d5f4:	58800104 	addi	r2,r11,4
 508d5f8:	5f000017 	ldw	fp,0(r11)
 508d5fc:	0013883a 	mov	r9,zero
 508d600:	803e420e 	bge	r16,zero,508cf0c <__alt_data_end+0xfffbed0c>
 508d604:	003f7e06 	br	508d400 <__alt_data_end+0xfffbf200>
 508d608:	5f000017 	ldw	fp,0(r11)
 508d60c:	5ac00104 	addi	r11,r11,4
 508d610:	0013883a 	mov	r9,zero
 508d614:	dac02315 	stw	r11,140(sp)
 508d618:	003cce06 	br	508c954 <__alt_data_end+0xfffbe754>
 508d61c:	8809883a 	mov	r4,r17
 508d620:	da002c15 	stw	r8,176(sp)
 508d624:	5082b440 	call	5082b44 <strlen>
 508d628:	d8802115 	stw	r2,132(sp)
 508d62c:	da801d83 	ldbu	r10,118(sp)
 508d630:	df002315 	stw	fp,140(sp)
 508d634:	0021883a 	mov	r16,zero
 508d638:	da002c17 	ldw	r8,176(sp)
 508d63c:	003cf606 	br	508ca18 <__alt_data_end+0xfffbe818>
 508d640:	00800184 	movi	r2,6
 508d644:	1400012e 	bgeu	r2,r16,508d64c <___svfiprintf_internal_r+0x10a4>
 508d648:	1021883a 	mov	r16,r2
 508d64c:	dc002115 	stw	r16,132(sp)
 508d650:	8005883a 	mov	r2,r16
 508d654:	80003c16 	blt	r16,zero,508d748 <___svfiprintf_internal_r+0x11a0>
 508d658:	04414274 	movhi	r17,1289
 508d65c:	d8802015 	stw	r2,128(sp)
 508d660:	df002315 	stw	fp,140(sp)
 508d664:	8c578104 	addi	r17,r17,24068
 508d668:	003d2e06 	br	508cb24 <__alt_data_end+0xfffbe924>
 508d66c:	04001004 	movi	r16,64
 508d670:	800b883a 	mov	r5,r16
 508d674:	5089edc0 	call	5089edc <_malloc_r>
 508d678:	dac02717 	ldw	r11,156(sp)
 508d67c:	58800015 	stw	r2,0(r11)
 508d680:	58800415 	stw	r2,16(r11)
 508d684:	10004826 	beq	r2,zero,508d7a8 <___svfiprintf_internal_r+0x1200>
 508d688:	dac02717 	ldw	r11,156(sp)
 508d68c:	5c000515 	stw	r16,20(r11)
 508d690:	003bd906 	br	508c5f8 <__alt_data_end+0xfffbe3f8>
 508d694:	9080004c 	andi	r2,r18,1
 508d698:	0015883a 	mov	r10,zero
 508d69c:	10000626 	beq	r2,zero,508d6b8 <___svfiprintf_internal_r+0x1110>
 508d6a0:	dac02b17 	ldw	r11,172(sp)
 508d6a4:	00800c04 	movi	r2,48
 508d6a8:	d88019c5 	stb	r2,103(sp)
 508d6ac:	dac02115 	stw	r11,132(sp)
 508d6b0:	dc4019c4 	addi	r17,sp,103
 508d6b4:	003cd806 	br	508ca18 <__alt_data_end+0xfffbe818>
 508d6b8:	d8002115 	stw	zero,132(sp)
 508d6bc:	dc401a04 	addi	r17,sp,104
 508d6c0:	003cd506 	br	508ca18 <__alt_data_end+0xfffbe818>
 508d6c4:	01014274 	movhi	r4,1289
 508d6c8:	2117e904 	addi	r4,r4,24484
 508d6cc:	d9002815 	stw	r4,160(sp)
 508d6d0:	003d4306 	br	508cbe0 <__alt_data_end+0xfffbe9e0>
 508d6d4:	00bfffc4 	movi	r2,-1
 508d6d8:	003ec606 	br	508d1f4 <__alt_data_end+0xfffbeff4>
 508d6dc:	00800044 	movi	r2,1
 508d6e0:	10803fcc 	andi	r2,r2,255
 508d6e4:	00c00044 	movi	r3,1
 508d6e8:	10fd8026 	beq	r2,r3,508ccec <__alt_data_end+0xfffbeaec>
 508d6ec:	00c00084 	movi	r3,2
 508d6f0:	10fca426 	beq	r2,r3,508c984 <__alt_data_end+0xfffbe784>
 508d6f4:	003ce806 	br	508ca98 <__alt_data_end+0xfffbe898>
 508d6f8:	01014274 	movhi	r4,1289
 508d6fc:	2117e904 	addi	r4,r4,24484
 508d700:	d9002815 	stw	r4,160(sp)
 508d704:	003e9906 	br	508d16c <__alt_data_end+0xfffbef6c>
 508d708:	1025883a 	mov	r18,r2
 508d70c:	0015883a 	mov	r10,zero
 508d710:	00800084 	movi	r2,2
 508d714:	003ff206 	br	508d6e0 <__alt_data_end+0xfffbf4e0>
 508d718:	01414274 	movhi	r5,1289
 508d71c:	2957e504 	addi	r5,r5,24468
 508d720:	d9402215 	stw	r5,136(sp)
 508d724:	003ee206 	br	508d2b0 <__alt_data_end+0xfffbf0b0>
 508d728:	5827883a 	mov	r19,r11
 508d72c:	0021883a 	mov	r16,zero
 508d730:	003bed06 	br	508c6e8 <__alt_data_end+0xfffbe4e8>
 508d734:	dc002115 	stw	r16,132(sp)
 508d738:	da801d83 	ldbu	r10,118(sp)
 508d73c:	df002315 	stw	fp,140(sp)
 508d740:	0021883a 	mov	r16,zero
 508d744:	003cb406 	br	508ca18 <__alt_data_end+0xfffbe818>
 508d748:	0005883a 	mov	r2,zero
 508d74c:	003fc206 	br	508d658 <__alt_data_end+0xfffbf458>
 508d750:	d8802317 	ldw	r2,140(sp)
 508d754:	98c00043 	ldbu	r3,1(r19)
 508d758:	5827883a 	mov	r19,r11
 508d75c:	14000017 	ldw	r16,0(r2)
 508d760:	10800104 	addi	r2,r2,4
 508d764:	d8802315 	stw	r2,140(sp)
 508d768:	803f760e 	bge	r16,zero,508d544 <__alt_data_end+0xfffbf344>
 508d76c:	18c03fcc 	andi	r3,r3,255
 508d770:	18c0201c 	xori	r3,r3,128
 508d774:	043fffc4 	movi	r16,-1
 508d778:	18ffe004 	addi	r3,r3,-128
 508d77c:	003bd906 	br	508c6e4 <__alt_data_end+0xfffbe4e4>
 508d780:	d9c01d85 	stb	r7,118(sp)
 508d784:	003cb606 	br	508ca60 <__alt_data_end+0xfffbe860>
 508d788:	d9c01d85 	stb	r7,118(sp)
 508d78c:	003d2106 	br	508cc14 <__alt_data_end+0xfffbea14>
 508d790:	d9c01d85 	stb	r7,118(sp)
 508d794:	003d8e06 	br	508cdd0 <__alt_data_end+0xfffbebd0>
 508d798:	d9c01d85 	stb	r7,118(sp)
 508d79c:	003db306 	br	508ce6c <__alt_data_end+0xfffbec6c>
 508d7a0:	d9c01d85 	stb	r7,118(sp)
 508d7a4:	003c8a06 	br	508c9d0 <__alt_data_end+0xfffbe7d0>
 508d7a8:	dac02a17 	ldw	r11,168(sp)
 508d7ac:	00800304 	movi	r2,12
 508d7b0:	58800015 	stw	r2,0(r11)
 508d7b4:	00bfffc4 	movi	r2,-1
 508d7b8:	003e8e06 	br	508d1f4 <__alt_data_end+0xfffbeff4>
 508d7bc:	d9c01d85 	stb	r7,118(sp)
 508d7c0:	003dc706 	br	508cee0 <__alt_data_end+0xfffbece0>
 508d7c4:	d9c01d85 	stb	r7,118(sp)
 508d7c8:	003ddf06 	br	508cf48 <__alt_data_end+0xfffbed48>
 508d7cc:	d9c01d85 	stb	r7,118(sp)
 508d7d0:	003d3706 	br	508ccb0 <__alt_data_end+0xfffbeab0>
 508d7d4:	d9c01d85 	stb	r7,118(sp)
 508d7d8:	003c5406 	br	508c92c <__alt_data_end+0xfffbe72c>
 508d7dc:	d9c01d85 	stb	r7,118(sp)
 508d7e0:	003d1d06 	br	508cc58 <__alt_data_end+0xfffbea58>

0508d7e4 <__sprint_r.part.0>:
 508d7e4:	28801917 	ldw	r2,100(r5)
 508d7e8:	defff604 	addi	sp,sp,-40
 508d7ec:	dd400515 	stw	r21,20(sp)
 508d7f0:	dfc00915 	stw	ra,36(sp)
 508d7f4:	df000815 	stw	fp,32(sp)
 508d7f8:	ddc00715 	stw	r23,28(sp)
 508d7fc:	dd800615 	stw	r22,24(sp)
 508d800:	dd000415 	stw	r20,16(sp)
 508d804:	dcc00315 	stw	r19,12(sp)
 508d808:	dc800215 	stw	r18,8(sp)
 508d80c:	dc400115 	stw	r17,4(sp)
 508d810:	dc000015 	stw	r16,0(sp)
 508d814:	1088000c 	andi	r2,r2,8192
 508d818:	302b883a 	mov	r21,r6
 508d81c:	10002e26 	beq	r2,zero,508d8d8 <__sprint_r.part.0+0xf4>
 508d820:	30800217 	ldw	r2,8(r6)
 508d824:	35800017 	ldw	r22,0(r6)
 508d828:	10002926 	beq	r2,zero,508d8d0 <__sprint_r.part.0+0xec>
 508d82c:	2827883a 	mov	r19,r5
 508d830:	2029883a 	mov	r20,r4
 508d834:	b5c00104 	addi	r23,r22,4
 508d838:	04bfffc4 	movi	r18,-1
 508d83c:	bc400017 	ldw	r17,0(r23)
 508d840:	b4000017 	ldw	r16,0(r22)
 508d844:	0039883a 	mov	fp,zero
 508d848:	8822d0ba 	srli	r17,r17,2
 508d84c:	8800031e 	bne	r17,zero,508d85c <__sprint_r.part.0+0x78>
 508d850:	00001806 	br	508d8b4 <__sprint_r.part.0+0xd0>
 508d854:	84000104 	addi	r16,r16,4
 508d858:	8f001526 	beq	r17,fp,508d8b0 <__sprint_r.part.0+0xcc>
 508d85c:	81400017 	ldw	r5,0(r16)
 508d860:	980d883a 	mov	r6,r19
 508d864:	a009883a 	mov	r4,r20
 508d868:	508f20c0 	call	508f20c <_fputwc_r>
 508d86c:	e7000044 	addi	fp,fp,1
 508d870:	14bff81e 	bne	r2,r18,508d854 <__alt_data_end+0xfffbf654>
 508d874:	9005883a 	mov	r2,r18
 508d878:	a8000215 	stw	zero,8(r21)
 508d87c:	a8000115 	stw	zero,4(r21)
 508d880:	dfc00917 	ldw	ra,36(sp)
 508d884:	df000817 	ldw	fp,32(sp)
 508d888:	ddc00717 	ldw	r23,28(sp)
 508d88c:	dd800617 	ldw	r22,24(sp)
 508d890:	dd400517 	ldw	r21,20(sp)
 508d894:	dd000417 	ldw	r20,16(sp)
 508d898:	dcc00317 	ldw	r19,12(sp)
 508d89c:	dc800217 	ldw	r18,8(sp)
 508d8a0:	dc400117 	ldw	r17,4(sp)
 508d8a4:	dc000017 	ldw	r16,0(sp)
 508d8a8:	dec00a04 	addi	sp,sp,40
 508d8ac:	f800283a 	ret
 508d8b0:	a8800217 	ldw	r2,8(r21)
 508d8b4:	8c63883a 	add	r17,r17,r17
 508d8b8:	8c63883a 	add	r17,r17,r17
 508d8bc:	1445c83a 	sub	r2,r2,r17
 508d8c0:	a8800215 	stw	r2,8(r21)
 508d8c4:	b5800204 	addi	r22,r22,8
 508d8c8:	bdc00204 	addi	r23,r23,8
 508d8cc:	103fdb1e 	bne	r2,zero,508d83c <__alt_data_end+0xfffbf63c>
 508d8d0:	0005883a 	mov	r2,zero
 508d8d4:	003fe806 	br	508d878 <__alt_data_end+0xfffbf678>
 508d8d8:	50896000 	call	5089600 <__sfvwrite_r>
 508d8dc:	003fe606 	br	508d878 <__alt_data_end+0xfffbf678>

0508d8e0 <__sprint_r>:
 508d8e0:	30c00217 	ldw	r3,8(r6)
 508d8e4:	18000126 	beq	r3,zero,508d8ec <__sprint_r+0xc>
 508d8e8:	508d7e41 	jmpi	508d7e4 <__sprint_r.part.0>
 508d8ec:	30000115 	stw	zero,4(r6)
 508d8f0:	0005883a 	mov	r2,zero
 508d8f4:	f800283a 	ret

0508d8f8 <___vfiprintf_internal_r>:
 508d8f8:	deffc904 	addi	sp,sp,-220
 508d8fc:	df003515 	stw	fp,212(sp)
 508d900:	dd003115 	stw	r20,196(sp)
 508d904:	dfc03615 	stw	ra,216(sp)
 508d908:	ddc03415 	stw	r23,208(sp)
 508d90c:	dd803315 	stw	r22,204(sp)
 508d910:	dd403215 	stw	r21,200(sp)
 508d914:	dcc03015 	stw	r19,192(sp)
 508d918:	dc802f15 	stw	r18,188(sp)
 508d91c:	dc402e15 	stw	r17,184(sp)
 508d920:	dc002d15 	stw	r16,180(sp)
 508d924:	d9002015 	stw	r4,128(sp)
 508d928:	d9c02215 	stw	r7,136(sp)
 508d92c:	2829883a 	mov	r20,r5
 508d930:	3039883a 	mov	fp,r6
 508d934:	20000226 	beq	r4,zero,508d940 <___vfiprintf_internal_r+0x48>
 508d938:	20800e17 	ldw	r2,56(r4)
 508d93c:	1000cf26 	beq	r2,zero,508dc7c <___vfiprintf_internal_r+0x384>
 508d940:	a080030b 	ldhu	r2,12(r20)
 508d944:	10c8000c 	andi	r3,r2,8192
 508d948:	1800061e 	bne	r3,zero,508d964 <___vfiprintf_internal_r+0x6c>
 508d94c:	a1001917 	ldw	r4,100(r20)
 508d950:	00f7ffc4 	movi	r3,-8193
 508d954:	10880014 	ori	r2,r2,8192
 508d958:	20c6703a 	and	r3,r4,r3
 508d95c:	a080030d 	sth	r2,12(r20)
 508d960:	a0c01915 	stw	r3,100(r20)
 508d964:	10c0020c 	andi	r3,r2,8
 508d968:	1800a926 	beq	r3,zero,508dc10 <___vfiprintf_internal_r+0x318>
 508d96c:	a0c00417 	ldw	r3,16(r20)
 508d970:	1800a726 	beq	r3,zero,508dc10 <___vfiprintf_internal_r+0x318>
 508d974:	1080068c 	andi	r2,r2,26
 508d978:	00c00284 	movi	r3,10
 508d97c:	10c0ac26 	beq	r2,r3,508dc30 <___vfiprintf_internal_r+0x338>
 508d980:	da801a04 	addi	r10,sp,104
 508d984:	da801e15 	stw	r10,120(sp)
 508d988:	d8801e17 	ldw	r2,120(sp)
 508d98c:	da8019c4 	addi	r10,sp,103
 508d990:	05814274 	movhi	r22,1289
 508d994:	05c14274 	movhi	r23,1289
 508d998:	da801f15 	stw	r10,124(sp)
 508d99c:	1295c83a 	sub	r10,r2,r10
 508d9a0:	b597f104 	addi	r22,r22,24516
 508d9a4:	bdd7ed04 	addi	r23,r23,24500
 508d9a8:	dec01a15 	stw	sp,104(sp)
 508d9ac:	d8001c15 	stw	zero,112(sp)
 508d9b0:	d8001b15 	stw	zero,108(sp)
 508d9b4:	d8002615 	stw	zero,152(sp)
 508d9b8:	d8002315 	stw	zero,140(sp)
 508d9bc:	da802715 	stw	r10,156(sp)
 508d9c0:	d811883a 	mov	r8,sp
 508d9c4:	dd002115 	stw	r20,132(sp)
 508d9c8:	e021883a 	mov	r16,fp
 508d9cc:	80800007 	ldb	r2,0(r16)
 508d9d0:	1003ea26 	beq	r2,zero,508e97c <___vfiprintf_internal_r+0x1084>
 508d9d4:	00c00944 	movi	r3,37
 508d9d8:	8025883a 	mov	r18,r16
 508d9dc:	10c0021e 	bne	r2,r3,508d9e8 <___vfiprintf_internal_r+0xf0>
 508d9e0:	00001606 	br	508da3c <___vfiprintf_internal_r+0x144>
 508d9e4:	10c00326 	beq	r2,r3,508d9f4 <___vfiprintf_internal_r+0xfc>
 508d9e8:	94800044 	addi	r18,r18,1
 508d9ec:	90800007 	ldb	r2,0(r18)
 508d9f0:	103ffc1e 	bne	r2,zero,508d9e4 <__alt_data_end+0xfffbf7e4>
 508d9f4:	9423c83a 	sub	r17,r18,r16
 508d9f8:	88001026 	beq	r17,zero,508da3c <___vfiprintf_internal_r+0x144>
 508d9fc:	d8c01c17 	ldw	r3,112(sp)
 508da00:	d8801b17 	ldw	r2,108(sp)
 508da04:	44000015 	stw	r16,0(r8)
 508da08:	88c7883a 	add	r3,r17,r3
 508da0c:	10800044 	addi	r2,r2,1
 508da10:	44400115 	stw	r17,4(r8)
 508da14:	d8c01c15 	stw	r3,112(sp)
 508da18:	d8801b15 	stw	r2,108(sp)
 508da1c:	010001c4 	movi	r4,7
 508da20:	2080760e 	bge	r4,r2,508dbfc <___vfiprintf_internal_r+0x304>
 508da24:	1803821e 	bne	r3,zero,508e830 <___vfiprintf_internal_r+0xf38>
 508da28:	da802317 	ldw	r10,140(sp)
 508da2c:	d8001b15 	stw	zero,108(sp)
 508da30:	d811883a 	mov	r8,sp
 508da34:	5455883a 	add	r10,r10,r17
 508da38:	da802315 	stw	r10,140(sp)
 508da3c:	90800007 	ldb	r2,0(r18)
 508da40:	10044626 	beq	r2,zero,508eb5c <___vfiprintf_internal_r+0x1264>
 508da44:	90c00047 	ldb	r3,1(r18)
 508da48:	94000044 	addi	r16,r18,1
 508da4c:	d8001d85 	stb	zero,118(sp)
 508da50:	0009883a 	mov	r4,zero
 508da54:	000f883a 	mov	r7,zero
 508da58:	027fffc4 	movi	r9,-1
 508da5c:	0023883a 	mov	r17,zero
 508da60:	0029883a 	mov	r20,zero
 508da64:	01401604 	movi	r5,88
 508da68:	01800244 	movi	r6,9
 508da6c:	03400a84 	movi	r13,42
 508da70:	03001b04 	movi	r12,108
 508da74:	84000044 	addi	r16,r16,1
 508da78:	18bff804 	addi	r2,r3,-32
 508da7c:	28827336 	bltu	r5,r2,508e44c <___vfiprintf_internal_r+0xb54>
 508da80:	100490ba 	slli	r2,r2,2
 508da84:	02814274 	movhi	r10,1289
 508da88:	52b6a604 	addi	r10,r10,-9576
 508da8c:	1285883a 	add	r2,r2,r10
 508da90:	10800017 	ldw	r2,0(r2)
 508da94:	1000683a 	jmp	r2
 508da98:	0508e180 	call	508e18 <__alt_mem_sdram+0x508e18>
 508da9c:	0508e44c 	andi	r20,zero,9105
 508daa0:	0508e44c 	andi	r20,zero,9105
 508daa4:	0508e1a0 	cmpeqi	r20,zero,9094
 508daa8:	0508e44c 	andi	r20,zero,9105
 508daac:	0508e44c 	andi	r20,zero,9105
 508dab0:	0508e44c 	andi	r20,zero,9105
 508dab4:	0508e44c 	andi	r20,zero,9105
 508dab8:	0508e44c 	andi	r20,zero,9105
 508dabc:	0508e44c 	andi	r20,zero,9105
 508dac0:	0508e388 	cmpgei	r20,zero,9102
 508dac4:	0508e3a4 	muli	r20,zero,9102
 508dac8:	0508e44c 	andi	r20,zero,9105
 508dacc:	0508dc8c 	andi	r20,zero,9074
 508dad0:	0508e3b4 	movhi	r20,9102
 508dad4:	0508e44c 	andi	r20,zero,9105
 508dad8:	0508e1ac 	andhi	r20,zero,9094
 508dadc:	0508e1b8 	rdprs	r20,zero,9094
 508dae0:	0508e1b8 	rdprs	r20,zero,9094
 508dae4:	0508e1b8 	rdprs	r20,zero,9094
 508dae8:	0508e1b8 	rdprs	r20,zero,9094
 508daec:	0508e1b8 	rdprs	r20,zero,9094
 508daf0:	0508e1b8 	rdprs	r20,zero,9094
 508daf4:	0508e1b8 	rdprs	r20,zero,9094
 508daf8:	0508e1b8 	rdprs	r20,zero,9094
 508dafc:	0508e1b8 	rdprs	r20,zero,9094
 508db00:	0508e44c 	andi	r20,zero,9105
 508db04:	0508e44c 	andi	r20,zero,9105
 508db08:	0508e44c 	andi	r20,zero,9105
 508db0c:	0508e44c 	andi	r20,zero,9105
 508db10:	0508e44c 	andi	r20,zero,9105
 508db14:	0508e44c 	andi	r20,zero,9105
 508db18:	0508e44c 	andi	r20,zero,9105
 508db1c:	0508e44c 	andi	r20,zero,9105
 508db20:	0508e44c 	andi	r20,zero,9105
 508db24:	0508e44c 	andi	r20,zero,9105
 508db28:	0508e1e4 	muli	r20,zero,9095
 508db2c:	0508e44c 	andi	r20,zero,9105
 508db30:	0508e44c 	andi	r20,zero,9105
 508db34:	0508e44c 	andi	r20,zero,9105
 508db38:	0508e44c 	andi	r20,zero,9105
 508db3c:	0508e44c 	andi	r20,zero,9105
 508db40:	0508e44c 	andi	r20,zero,9105
 508db44:	0508e44c 	andi	r20,zero,9105
 508db48:	0508e44c 	andi	r20,zero,9105
 508db4c:	0508e44c 	andi	r20,zero,9105
 508db50:	0508e44c 	andi	r20,zero,9105
 508db54:	0508e21c 	xori	r20,zero,9096
 508db58:	0508e44c 	andi	r20,zero,9105
 508db5c:	0508e44c 	andi	r20,zero,9105
 508db60:	0508e44c 	andi	r20,zero,9105
 508db64:	0508e44c 	andi	r20,zero,9105
 508db68:	0508e44c 	andi	r20,zero,9105
 508db6c:	0508e274 	movhi	r20,9097
 508db70:	0508e44c 	andi	r20,zero,9105
 508db74:	0508e44c 	andi	r20,zero,9105
 508db78:	0508e2e4 	muli	r20,zero,9099
 508db7c:	0508e44c 	andi	r20,zero,9105
 508db80:	0508e44c 	andi	r20,zero,9105
 508db84:	0508e44c 	andi	r20,zero,9105
 508db88:	0508e44c 	andi	r20,zero,9105
 508db8c:	0508e44c 	andi	r20,zero,9105
 508db90:	0508e44c 	andi	r20,zero,9105
 508db94:	0508e44c 	andi	r20,zero,9105
 508db98:	0508e44c 	andi	r20,zero,9105
 508db9c:	0508e44c 	andi	r20,zero,9105
 508dba0:	0508e44c 	andi	r20,zero,9105
 508dba4:	0508e090 	cmplti	r20,zero,9090
 508dba8:	0508e0bc 	xorhi	r20,zero,9090
 508dbac:	0508e44c 	andi	r20,zero,9105
 508dbb0:	0508e44c 	andi	r20,zero,9105
 508dbb4:	0508e44c 	andi	r20,zero,9105
 508dbb8:	0508e3f4 	movhi	r20,9103
 508dbbc:	0508e0bc 	xorhi	r20,zero,9090
 508dbc0:	0508e44c 	andi	r20,zero,9105
 508dbc4:	0508e44c 	andi	r20,zero,9105
 508dbc8:	0508df50 	cmplti	r20,zero,9085
 508dbcc:	0508e44c 	andi	r20,zero,9105
 508dbd0:	0508df60 	cmpeqi	r20,zero,9085
 508dbd4:	0508df9c 	xori	r20,zero,9086
 508dbd8:	0508dc98 	cmpnei	r20,zero,9074
 508dbdc:	0508df44 	movi	r20,9085
 508dbe0:	0508e44c 	andi	r20,zero,9105
 508dbe4:	0508e320 	cmpeqi	r20,zero,9100
 508dbe8:	0508e44c 	andi	r20,zero,9105
 508dbec:	0508e378 	rdprs	r20,zero,9101
 508dbf0:	0508e44c 	andi	r20,zero,9105
 508dbf4:	0508e44c 	andi	r20,zero,9105
 508dbf8:	0508e03c 	xorhi	r20,zero,9088
 508dbfc:	42000204 	addi	r8,r8,8
 508dc00:	da802317 	ldw	r10,140(sp)
 508dc04:	5455883a 	add	r10,r10,r17
 508dc08:	da802315 	stw	r10,140(sp)
 508dc0c:	003f8b06 	br	508da3c <__alt_data_end+0xfffbf83c>
 508dc10:	d9002017 	ldw	r4,128(sp)
 508dc14:	a00b883a 	mov	r5,r20
 508dc18:	50871a80 	call	50871a8 <__swsetup_r>
 508dc1c:	1003b11e 	bne	r2,zero,508eae4 <___vfiprintf_internal_r+0x11ec>
 508dc20:	a080030b 	ldhu	r2,12(r20)
 508dc24:	00c00284 	movi	r3,10
 508dc28:	1080068c 	andi	r2,r2,26
 508dc2c:	10ff541e 	bne	r2,r3,508d980 <__alt_data_end+0xfffbf780>
 508dc30:	a080038f 	ldh	r2,14(r20)
 508dc34:	103f5216 	blt	r2,zero,508d980 <__alt_data_end+0xfffbf780>
 508dc38:	d9c02217 	ldw	r7,136(sp)
 508dc3c:	d9002017 	ldw	r4,128(sp)
 508dc40:	e00d883a 	mov	r6,fp
 508dc44:	a00b883a 	mov	r5,r20
 508dc48:	508ed700 	call	508ed70 <__sbprintf>
 508dc4c:	dfc03617 	ldw	ra,216(sp)
 508dc50:	df003517 	ldw	fp,212(sp)
 508dc54:	ddc03417 	ldw	r23,208(sp)
 508dc58:	dd803317 	ldw	r22,204(sp)
 508dc5c:	dd403217 	ldw	r21,200(sp)
 508dc60:	dd003117 	ldw	r20,196(sp)
 508dc64:	dcc03017 	ldw	r19,192(sp)
 508dc68:	dc802f17 	ldw	r18,188(sp)
 508dc6c:	dc402e17 	ldw	r17,184(sp)
 508dc70:	dc002d17 	ldw	r16,180(sp)
 508dc74:	dec03704 	addi	sp,sp,220
 508dc78:	f800283a 	ret
 508dc7c:	508917c0 	call	508917c <__sinit>
 508dc80:	003f2f06 	br	508d940 <__alt_data_end+0xfffbf740>
 508dc84:	0463c83a 	sub	r17,zero,r17
 508dc88:	d8802215 	stw	r2,136(sp)
 508dc8c:	a5000114 	ori	r20,r20,4
 508dc90:	80c00007 	ldb	r3,0(r16)
 508dc94:	003f7706 	br	508da74 <__alt_data_end+0xfffbf874>
 508dc98:	00800c04 	movi	r2,48
 508dc9c:	da802217 	ldw	r10,136(sp)
 508dca0:	d8801d05 	stb	r2,116(sp)
 508dca4:	00801e04 	movi	r2,120
 508dca8:	d8801d45 	stb	r2,117(sp)
 508dcac:	d8001d85 	stb	zero,118(sp)
 508dcb0:	50c00104 	addi	r3,r10,4
 508dcb4:	54800017 	ldw	r18,0(r10)
 508dcb8:	0027883a 	mov	r19,zero
 508dcbc:	a0800094 	ori	r2,r20,2
 508dcc0:	48030b16 	blt	r9,zero,508e8f0 <___vfiprintf_internal_r+0xff8>
 508dcc4:	00bfdfc4 	movi	r2,-129
 508dcc8:	a096703a 	and	r11,r20,r2
 508dccc:	d8c02215 	stw	r3,136(sp)
 508dcd0:	5d000094 	ori	r20,r11,2
 508dcd4:	90032b1e 	bne	r18,zero,508e984 <___vfiprintf_internal_r+0x108c>
 508dcd8:	00814274 	movhi	r2,1289
 508dcdc:	10977c04 	addi	r2,r2,24048
 508dce0:	d8802615 	stw	r2,152(sp)
 508dce4:	0039883a 	mov	fp,zero
 508dce8:	48017b1e 	bne	r9,zero,508e2d8 <___vfiprintf_internal_r+0x9e0>
 508dcec:	0013883a 	mov	r9,zero
 508dcf0:	0027883a 	mov	r19,zero
 508dcf4:	dd401a04 	addi	r21,sp,104
 508dcf8:	4825883a 	mov	r18,r9
 508dcfc:	4cc0010e 	bge	r9,r19,508dd04 <___vfiprintf_internal_r+0x40c>
 508dd00:	9825883a 	mov	r18,r19
 508dd04:	e7003fcc 	andi	fp,fp,255
 508dd08:	e700201c 	xori	fp,fp,128
 508dd0c:	e73fe004 	addi	fp,fp,-128
 508dd10:	e0000126 	beq	fp,zero,508dd18 <___vfiprintf_internal_r+0x420>
 508dd14:	94800044 	addi	r18,r18,1
 508dd18:	a380008c 	andi	r14,r20,2
 508dd1c:	70000126 	beq	r14,zero,508dd24 <___vfiprintf_internal_r+0x42c>
 508dd20:	94800084 	addi	r18,r18,2
 508dd24:	a700210c 	andi	fp,r20,132
 508dd28:	e001df1e 	bne	fp,zero,508e4a8 <___vfiprintf_internal_r+0xbb0>
 508dd2c:	8c87c83a 	sub	r3,r17,r18
 508dd30:	00c1dd0e 	bge	zero,r3,508e4a8 <___vfiprintf_internal_r+0xbb0>
 508dd34:	01c00404 	movi	r7,16
 508dd38:	d8801c17 	ldw	r2,112(sp)
 508dd3c:	38c3ad0e 	bge	r7,r3,508ebf4 <___vfiprintf_internal_r+0x12fc>
 508dd40:	02814274 	movhi	r10,1289
 508dd44:	5297f104 	addi	r10,r10,24516
 508dd48:	dc002915 	stw	r16,164(sp)
 508dd4c:	d9801b17 	ldw	r6,108(sp)
 508dd50:	da802415 	stw	r10,144(sp)
 508dd54:	03c001c4 	movi	r15,7
 508dd58:	da402515 	stw	r9,148(sp)
 508dd5c:	db802815 	stw	r14,160(sp)
 508dd60:	1821883a 	mov	r16,r3
 508dd64:	00000506 	br	508dd7c <___vfiprintf_internal_r+0x484>
 508dd68:	31400084 	addi	r5,r6,2
 508dd6c:	42000204 	addi	r8,r8,8
 508dd70:	200d883a 	mov	r6,r4
 508dd74:	843ffc04 	addi	r16,r16,-16
 508dd78:	3c000d0e 	bge	r7,r16,508ddb0 <___vfiprintf_internal_r+0x4b8>
 508dd7c:	10800404 	addi	r2,r2,16
 508dd80:	31000044 	addi	r4,r6,1
 508dd84:	45800015 	stw	r22,0(r8)
 508dd88:	41c00115 	stw	r7,4(r8)
 508dd8c:	d8801c15 	stw	r2,112(sp)
 508dd90:	d9001b15 	stw	r4,108(sp)
 508dd94:	793ff40e 	bge	r15,r4,508dd68 <__alt_data_end+0xfffbfb68>
 508dd98:	1001b51e 	bne	r2,zero,508e470 <___vfiprintf_internal_r+0xb78>
 508dd9c:	843ffc04 	addi	r16,r16,-16
 508dda0:	000d883a 	mov	r6,zero
 508dda4:	01400044 	movi	r5,1
 508dda8:	d811883a 	mov	r8,sp
 508ddac:	3c3ff316 	blt	r7,r16,508dd7c <__alt_data_end+0xfffbfb7c>
 508ddb0:	8007883a 	mov	r3,r16
 508ddb4:	da402517 	ldw	r9,148(sp)
 508ddb8:	db802817 	ldw	r14,160(sp)
 508ddbc:	dc002917 	ldw	r16,164(sp)
 508ddc0:	da802417 	ldw	r10,144(sp)
 508ddc4:	1885883a 	add	r2,r3,r2
 508ddc8:	40c00115 	stw	r3,4(r8)
 508ddcc:	42800015 	stw	r10,0(r8)
 508ddd0:	d8801c15 	stw	r2,112(sp)
 508ddd4:	d9401b15 	stw	r5,108(sp)
 508ddd8:	00c001c4 	movi	r3,7
 508dddc:	19426016 	blt	r3,r5,508e760 <___vfiprintf_internal_r+0xe68>
 508dde0:	d8c01d87 	ldb	r3,118(sp)
 508dde4:	42000204 	addi	r8,r8,8
 508dde8:	29000044 	addi	r4,r5,1
 508ddec:	1801b31e 	bne	r3,zero,508e4bc <___vfiprintf_internal_r+0xbc4>
 508ddf0:	7001c026 	beq	r14,zero,508e4f4 <___vfiprintf_internal_r+0xbfc>
 508ddf4:	d8c01d04 	addi	r3,sp,116
 508ddf8:	10800084 	addi	r2,r2,2
 508ddfc:	40c00015 	stw	r3,0(r8)
 508de00:	00c00084 	movi	r3,2
 508de04:	40c00115 	stw	r3,4(r8)
 508de08:	d8801c15 	stw	r2,112(sp)
 508de0c:	d9001b15 	stw	r4,108(sp)
 508de10:	00c001c4 	movi	r3,7
 508de14:	1902650e 	bge	r3,r4,508e7ac <___vfiprintf_internal_r+0xeb4>
 508de18:	10029a1e 	bne	r2,zero,508e884 <___vfiprintf_internal_r+0xf8c>
 508de1c:	00c02004 	movi	r3,128
 508de20:	01000044 	movi	r4,1
 508de24:	000b883a 	mov	r5,zero
 508de28:	d811883a 	mov	r8,sp
 508de2c:	e0c1b31e 	bne	fp,r3,508e4fc <___vfiprintf_internal_r+0xc04>
 508de30:	8cb9c83a 	sub	fp,r17,r18
 508de34:	0701b10e 	bge	zero,fp,508e4fc <___vfiprintf_internal_r+0xc04>
 508de38:	01c00404 	movi	r7,16
 508de3c:	3f03890e 	bge	r7,fp,508ec64 <___vfiprintf_internal_r+0x136c>
 508de40:	00c14274 	movhi	r3,1289
 508de44:	18d7ed04 	addi	r3,r3,24500
 508de48:	d8c02415 	stw	r3,144(sp)
 508de4c:	8007883a 	mov	r3,r16
 508de50:	034001c4 	movi	r13,7
 508de54:	e021883a 	mov	r16,fp
 508de58:	da402515 	stw	r9,148(sp)
 508de5c:	1839883a 	mov	fp,r3
 508de60:	00000506 	br	508de78 <___vfiprintf_internal_r+0x580>
 508de64:	29800084 	addi	r6,r5,2
 508de68:	42000204 	addi	r8,r8,8
 508de6c:	180b883a 	mov	r5,r3
 508de70:	843ffc04 	addi	r16,r16,-16
 508de74:	3c000d0e 	bge	r7,r16,508deac <___vfiprintf_internal_r+0x5b4>
 508de78:	10800404 	addi	r2,r2,16
 508de7c:	28c00044 	addi	r3,r5,1
 508de80:	45c00015 	stw	r23,0(r8)
 508de84:	41c00115 	stw	r7,4(r8)
 508de88:	d8801c15 	stw	r2,112(sp)
 508de8c:	d8c01b15 	stw	r3,108(sp)
 508de90:	68fff40e 	bge	r13,r3,508de64 <__alt_data_end+0xfffbfc64>
 508de94:	1002241e 	bne	r2,zero,508e728 <___vfiprintf_internal_r+0xe30>
 508de98:	843ffc04 	addi	r16,r16,-16
 508de9c:	01800044 	movi	r6,1
 508dea0:	000b883a 	mov	r5,zero
 508dea4:	d811883a 	mov	r8,sp
 508dea8:	3c3ff316 	blt	r7,r16,508de78 <__alt_data_end+0xfffbfc78>
 508deac:	da402517 	ldw	r9,148(sp)
 508deb0:	e007883a 	mov	r3,fp
 508deb4:	8039883a 	mov	fp,r16
 508deb8:	1821883a 	mov	r16,r3
 508debc:	d8c02417 	ldw	r3,144(sp)
 508dec0:	1705883a 	add	r2,r2,fp
 508dec4:	47000115 	stw	fp,4(r8)
 508dec8:	40c00015 	stw	r3,0(r8)
 508decc:	d8801c15 	stw	r2,112(sp)
 508ded0:	d9801b15 	stw	r6,108(sp)
 508ded4:	00c001c4 	movi	r3,7
 508ded8:	19827616 	blt	r3,r6,508e8b4 <___vfiprintf_internal_r+0xfbc>
 508dedc:	4cf9c83a 	sub	fp,r9,r19
 508dee0:	42000204 	addi	r8,r8,8
 508dee4:	31000044 	addi	r4,r6,1
 508dee8:	300b883a 	mov	r5,r6
 508deec:	07018516 	blt	zero,fp,508e504 <___vfiprintf_internal_r+0xc0c>
 508def0:	9885883a 	add	r2,r19,r2
 508def4:	45400015 	stw	r21,0(r8)
 508def8:	44c00115 	stw	r19,4(r8)
 508defc:	d8801c15 	stw	r2,112(sp)
 508df00:	d9001b15 	stw	r4,108(sp)
 508df04:	00c001c4 	movi	r3,7
 508df08:	1901dd0e 	bge	r3,r4,508e680 <___vfiprintf_internal_r+0xd88>
 508df0c:	1002401e 	bne	r2,zero,508e810 <___vfiprintf_internal_r+0xf18>
 508df10:	d8001b15 	stw	zero,108(sp)
 508df14:	a2c0010c 	andi	r11,r20,4
 508df18:	58000226 	beq	r11,zero,508df24 <___vfiprintf_internal_r+0x62c>
 508df1c:	8ca7c83a 	sub	r19,r17,r18
 508df20:	04c2f216 	blt	zero,r19,508eaec <___vfiprintf_internal_r+0x11f4>
 508df24:	8c80010e 	bge	r17,r18,508df2c <___vfiprintf_internal_r+0x634>
 508df28:	9023883a 	mov	r17,r18
 508df2c:	da802317 	ldw	r10,140(sp)
 508df30:	5455883a 	add	r10,r10,r17
 508df34:	da802315 	stw	r10,140(sp)
 508df38:	d8001b15 	stw	zero,108(sp)
 508df3c:	d811883a 	mov	r8,sp
 508df40:	003ea206 	br	508d9cc <__alt_data_end+0xfffbf7cc>
 508df44:	a5000814 	ori	r20,r20,32
 508df48:	80c00007 	ldb	r3,0(r16)
 508df4c:	003ec906 	br	508da74 <__alt_data_end+0xfffbf874>
 508df50:	80c00007 	ldb	r3,0(r16)
 508df54:	1b030926 	beq	r3,r12,508eb7c <___vfiprintf_internal_r+0x1284>
 508df58:	a5000414 	ori	r20,r20,16
 508df5c:	003ec506 	br	508da74 <__alt_data_end+0xfffbf874>
 508df60:	21003fcc 	andi	r4,r4,255
 508df64:	20035e1e 	bne	r4,zero,508ece0 <___vfiprintf_internal_r+0x13e8>
 508df68:	a080080c 	andi	r2,r20,32
 508df6c:	1002a526 	beq	r2,zero,508ea04 <___vfiprintf_internal_r+0x110c>
 508df70:	da802217 	ldw	r10,136(sp)
 508df74:	50800017 	ldw	r2,0(r10)
 508df78:	da802317 	ldw	r10,140(sp)
 508df7c:	5007d7fa 	srai	r3,r10,31
 508df80:	da802217 	ldw	r10,136(sp)
 508df84:	10c00115 	stw	r3,4(r2)
 508df88:	52800104 	addi	r10,r10,4
 508df8c:	da802215 	stw	r10,136(sp)
 508df90:	da802317 	ldw	r10,140(sp)
 508df94:	12800015 	stw	r10,0(r2)
 508df98:	003e8c06 	br	508d9cc <__alt_data_end+0xfffbf7cc>
 508df9c:	21003fcc 	andi	r4,r4,255
 508dfa0:	2003511e 	bne	r4,zero,508ece8 <___vfiprintf_internal_r+0x13f0>
 508dfa4:	a080080c 	andi	r2,r20,32
 508dfa8:	1000a126 	beq	r2,zero,508e230 <___vfiprintf_internal_r+0x938>
 508dfac:	da802217 	ldw	r10,136(sp)
 508dfb0:	d8001d85 	stb	zero,118(sp)
 508dfb4:	50800204 	addi	r2,r10,8
 508dfb8:	54800017 	ldw	r18,0(r10)
 508dfbc:	54c00117 	ldw	r19,4(r10)
 508dfc0:	4802b416 	blt	r9,zero,508ea94 <___vfiprintf_internal_r+0x119c>
 508dfc4:	013fdfc4 	movi	r4,-129
 508dfc8:	94c6b03a 	or	r3,r18,r19
 508dfcc:	d8802215 	stw	r2,136(sp)
 508dfd0:	a128703a 	and	r20,r20,r4
 508dfd4:	1800a226 	beq	r3,zero,508e260 <___vfiprintf_internal_r+0x968>
 508dfd8:	0039883a 	mov	fp,zero
 508dfdc:	dd401a04 	addi	r21,sp,104
 508dfe0:	9006d0fa 	srli	r3,r18,3
 508dfe4:	9808977a 	slli	r4,r19,29
 508dfe8:	9826d0fa 	srli	r19,r19,3
 508dfec:	948001cc 	andi	r18,r18,7
 508dff0:	90800c04 	addi	r2,r18,48
 508dff4:	ad7fffc4 	addi	r21,r21,-1
 508dff8:	20e4b03a 	or	r18,r4,r3
 508dffc:	a8800005 	stb	r2,0(r21)
 508e000:	94c6b03a 	or	r3,r18,r19
 508e004:	183ff61e 	bne	r3,zero,508dfe0 <__alt_data_end+0xfffbfde0>
 508e008:	a0c0004c 	andi	r3,r20,1
 508e00c:	18005926 	beq	r3,zero,508e174 <___vfiprintf_internal_r+0x87c>
 508e010:	10803fcc 	andi	r2,r2,255
 508e014:	1080201c 	xori	r2,r2,128
 508e018:	10bfe004 	addi	r2,r2,-128
 508e01c:	00c00c04 	movi	r3,48
 508e020:	10c05426 	beq	r2,r3,508e174 <___vfiprintf_internal_r+0x87c>
 508e024:	da801e17 	ldw	r10,120(sp)
 508e028:	a8bfffc4 	addi	r2,r21,-1
 508e02c:	a8ffffc5 	stb	r3,-1(r21)
 508e030:	50a7c83a 	sub	r19,r10,r2
 508e034:	102b883a 	mov	r21,r2
 508e038:	003f2f06 	br	508dcf8 <__alt_data_end+0xfffbfaf8>
 508e03c:	21003fcc 	andi	r4,r4,255
 508e040:	2003421e 	bne	r4,zero,508ed4c <___vfiprintf_internal_r+0x1454>
 508e044:	00814274 	movhi	r2,1289
 508e048:	10977c04 	addi	r2,r2,24048
 508e04c:	d8802615 	stw	r2,152(sp)
 508e050:	a080080c 	andi	r2,r20,32
 508e054:	1000aa26 	beq	r2,zero,508e300 <___vfiprintf_internal_r+0xa08>
 508e058:	da802217 	ldw	r10,136(sp)
 508e05c:	54800017 	ldw	r18,0(r10)
 508e060:	54c00117 	ldw	r19,4(r10)
 508e064:	52800204 	addi	r10,r10,8
 508e068:	da802215 	stw	r10,136(sp)
 508e06c:	a080004c 	andi	r2,r20,1
 508e070:	1001d226 	beq	r2,zero,508e7bc <___vfiprintf_internal_r+0xec4>
 508e074:	94c4b03a 	or	r2,r18,r19
 508e078:	1002351e 	bne	r2,zero,508e950 <___vfiprintf_internal_r+0x1058>
 508e07c:	d8001d85 	stb	zero,118(sp)
 508e080:	48022216 	blt	r9,zero,508e90c <___vfiprintf_internal_r+0x1014>
 508e084:	00bfdfc4 	movi	r2,-129
 508e088:	a0a8703a 	and	r20,r20,r2
 508e08c:	003f1506 	br	508dce4 <__alt_data_end+0xfffbfae4>
 508e090:	da802217 	ldw	r10,136(sp)
 508e094:	04800044 	movi	r18,1
 508e098:	d8001d85 	stb	zero,118(sp)
 508e09c:	50800017 	ldw	r2,0(r10)
 508e0a0:	52800104 	addi	r10,r10,4
 508e0a4:	da802215 	stw	r10,136(sp)
 508e0a8:	d8801005 	stb	r2,64(sp)
 508e0ac:	9027883a 	mov	r19,r18
 508e0b0:	dd401004 	addi	r21,sp,64
 508e0b4:	0013883a 	mov	r9,zero
 508e0b8:	003f1706 	br	508dd18 <__alt_data_end+0xfffbfb18>
 508e0bc:	21003fcc 	andi	r4,r4,255
 508e0c0:	2003201e 	bne	r4,zero,508ed44 <___vfiprintf_internal_r+0x144c>
 508e0c4:	a080080c 	andi	r2,r20,32
 508e0c8:	10004b26 	beq	r2,zero,508e1f8 <___vfiprintf_internal_r+0x900>
 508e0cc:	da802217 	ldw	r10,136(sp)
 508e0d0:	50800117 	ldw	r2,4(r10)
 508e0d4:	54800017 	ldw	r18,0(r10)
 508e0d8:	52800204 	addi	r10,r10,8
 508e0dc:	da802215 	stw	r10,136(sp)
 508e0e0:	1027883a 	mov	r19,r2
 508e0e4:	10022c16 	blt	r2,zero,508e998 <___vfiprintf_internal_r+0x10a0>
 508e0e8:	df001d83 	ldbu	fp,118(sp)
 508e0ec:	48007216 	blt	r9,zero,508e2b8 <___vfiprintf_internal_r+0x9c0>
 508e0f0:	00ffdfc4 	movi	r3,-129
 508e0f4:	94c4b03a 	or	r2,r18,r19
 508e0f8:	a0e8703a 	and	r20,r20,r3
 508e0fc:	1000cc26 	beq	r2,zero,508e430 <___vfiprintf_internal_r+0xb38>
 508e100:	98021026 	beq	r19,zero,508e944 <___vfiprintf_internal_r+0x104c>
 508e104:	dc402415 	stw	r17,144(sp)
 508e108:	dc002515 	stw	r16,148(sp)
 508e10c:	9823883a 	mov	r17,r19
 508e110:	9021883a 	mov	r16,r18
 508e114:	dd401a04 	addi	r21,sp,104
 508e118:	4825883a 	mov	r18,r9
 508e11c:	4027883a 	mov	r19,r8
 508e120:	8009883a 	mov	r4,r16
 508e124:	880b883a 	mov	r5,r17
 508e128:	01800284 	movi	r6,10
 508e12c:	000f883a 	mov	r7,zero
 508e130:	508fcd80 	call	508fcd8 <__umoddi3>
 508e134:	10800c04 	addi	r2,r2,48
 508e138:	ad7fffc4 	addi	r21,r21,-1
 508e13c:	8009883a 	mov	r4,r16
 508e140:	880b883a 	mov	r5,r17
 508e144:	a8800005 	stb	r2,0(r21)
 508e148:	01800284 	movi	r6,10
 508e14c:	000f883a 	mov	r7,zero
 508e150:	508f7600 	call	508f760 <__udivdi3>
 508e154:	1021883a 	mov	r16,r2
 508e158:	10c4b03a 	or	r2,r2,r3
 508e15c:	1823883a 	mov	r17,r3
 508e160:	103fef1e 	bne	r2,zero,508e120 <__alt_data_end+0xfffbff20>
 508e164:	dc402417 	ldw	r17,144(sp)
 508e168:	dc002517 	ldw	r16,148(sp)
 508e16c:	9013883a 	mov	r9,r18
 508e170:	9811883a 	mov	r8,r19
 508e174:	da801e17 	ldw	r10,120(sp)
 508e178:	5567c83a 	sub	r19,r10,r21
 508e17c:	003ede06 	br	508dcf8 <__alt_data_end+0xfffbfaf8>
 508e180:	38803fcc 	andi	r2,r7,255
 508e184:	1080201c 	xori	r2,r2,128
 508e188:	10bfe004 	addi	r2,r2,-128
 508e18c:	1002371e 	bne	r2,zero,508ea6c <___vfiprintf_internal_r+0x1174>
 508e190:	01000044 	movi	r4,1
 508e194:	01c00804 	movi	r7,32
 508e198:	80c00007 	ldb	r3,0(r16)
 508e19c:	003e3506 	br	508da74 <__alt_data_end+0xfffbf874>
 508e1a0:	a5000054 	ori	r20,r20,1
 508e1a4:	80c00007 	ldb	r3,0(r16)
 508e1a8:	003e3206 	br	508da74 <__alt_data_end+0xfffbf874>
 508e1ac:	a5002014 	ori	r20,r20,128
 508e1b0:	80c00007 	ldb	r3,0(r16)
 508e1b4:	003e2f06 	br	508da74 <__alt_data_end+0xfffbf874>
 508e1b8:	8015883a 	mov	r10,r16
 508e1bc:	0023883a 	mov	r17,zero
 508e1c0:	18bff404 	addi	r2,r3,-48
 508e1c4:	50c00007 	ldb	r3,0(r10)
 508e1c8:	8c4002a4 	muli	r17,r17,10
 508e1cc:	84000044 	addi	r16,r16,1
 508e1d0:	8015883a 	mov	r10,r16
 508e1d4:	1463883a 	add	r17,r2,r17
 508e1d8:	18bff404 	addi	r2,r3,-48
 508e1dc:	30bff92e 	bgeu	r6,r2,508e1c4 <__alt_data_end+0xfffbffc4>
 508e1e0:	003e2506 	br	508da78 <__alt_data_end+0xfffbf878>
 508e1e4:	21003fcc 	andi	r4,r4,255
 508e1e8:	2002d41e 	bne	r4,zero,508ed3c <___vfiprintf_internal_r+0x1444>
 508e1ec:	a5000414 	ori	r20,r20,16
 508e1f0:	a080080c 	andi	r2,r20,32
 508e1f4:	103fb51e 	bne	r2,zero,508e0cc <__alt_data_end+0xfffbfecc>
 508e1f8:	a080040c 	andi	r2,r20,16
 508e1fc:	1001f826 	beq	r2,zero,508e9e0 <___vfiprintf_internal_r+0x10e8>
 508e200:	da802217 	ldw	r10,136(sp)
 508e204:	54800017 	ldw	r18,0(r10)
 508e208:	52800104 	addi	r10,r10,4
 508e20c:	da802215 	stw	r10,136(sp)
 508e210:	9027d7fa 	srai	r19,r18,31
 508e214:	9805883a 	mov	r2,r19
 508e218:	003fb206 	br	508e0e4 <__alt_data_end+0xfffbfee4>
 508e21c:	21003fcc 	andi	r4,r4,255
 508e220:	2002c41e 	bne	r4,zero,508ed34 <___vfiprintf_internal_r+0x143c>
 508e224:	a5000414 	ori	r20,r20,16
 508e228:	a080080c 	andi	r2,r20,32
 508e22c:	103f5f1e 	bne	r2,zero,508dfac <__alt_data_end+0xfffbfdac>
 508e230:	a080040c 	andi	r2,r20,16
 508e234:	10020f26 	beq	r2,zero,508ea74 <___vfiprintf_internal_r+0x117c>
 508e238:	da802217 	ldw	r10,136(sp)
 508e23c:	d8001d85 	stb	zero,118(sp)
 508e240:	0027883a 	mov	r19,zero
 508e244:	50800104 	addi	r2,r10,4
 508e248:	54800017 	ldw	r18,0(r10)
 508e24c:	48021116 	blt	r9,zero,508ea94 <___vfiprintf_internal_r+0x119c>
 508e250:	00ffdfc4 	movi	r3,-129
 508e254:	d8802215 	stw	r2,136(sp)
 508e258:	a0e8703a 	and	r20,r20,r3
 508e25c:	903f5e1e 	bne	r18,zero,508dfd8 <__alt_data_end+0xfffbfdd8>
 508e260:	0039883a 	mov	fp,zero
 508e264:	4802a626 	beq	r9,zero,508ed00 <___vfiprintf_internal_r+0x1408>
 508e268:	0025883a 	mov	r18,zero
 508e26c:	0027883a 	mov	r19,zero
 508e270:	003f5a06 	br	508dfdc <__alt_data_end+0xfffbfddc>
 508e274:	21003fcc 	andi	r4,r4,255
 508e278:	20029f1e 	bne	r4,zero,508ecf8 <___vfiprintf_internal_r+0x1400>
 508e27c:	a5000414 	ori	r20,r20,16
 508e280:	a080080c 	andi	r2,r20,32
 508e284:	10005e1e 	bne	r2,zero,508e400 <___vfiprintf_internal_r+0xb08>
 508e288:	a080040c 	andi	r2,r20,16
 508e28c:	1001a21e 	bne	r2,zero,508e918 <___vfiprintf_internal_r+0x1020>
 508e290:	a080100c 	andi	r2,r20,64
 508e294:	d8001d85 	stb	zero,118(sp)
 508e298:	da802217 	ldw	r10,136(sp)
 508e29c:	1002231e 	bne	r2,zero,508eb2c <___vfiprintf_internal_r+0x1234>
 508e2a0:	50800104 	addi	r2,r10,4
 508e2a4:	54800017 	ldw	r18,0(r10)
 508e2a8:	0027883a 	mov	r19,zero
 508e2ac:	4801a00e 	bge	r9,zero,508e930 <___vfiprintf_internal_r+0x1038>
 508e2b0:	d8802215 	stw	r2,136(sp)
 508e2b4:	0039883a 	mov	fp,zero
 508e2b8:	94c4b03a 	or	r2,r18,r19
 508e2bc:	103f901e 	bne	r2,zero,508e100 <__alt_data_end+0xfffbff00>
 508e2c0:	00800044 	movi	r2,1
 508e2c4:	10803fcc 	andi	r2,r2,255
 508e2c8:	00c00044 	movi	r3,1
 508e2cc:	10c05926 	beq	r2,r3,508e434 <___vfiprintf_internal_r+0xb3c>
 508e2d0:	00c00084 	movi	r3,2
 508e2d4:	10ffe41e 	bne	r2,r3,508e268 <__alt_data_end+0xfffc0068>
 508e2d8:	0025883a 	mov	r18,zero
 508e2dc:	0027883a 	mov	r19,zero
 508e2e0:	00013d06 	br	508e7d8 <___vfiprintf_internal_r+0xee0>
 508e2e4:	21003fcc 	andi	r4,r4,255
 508e2e8:	2002811e 	bne	r4,zero,508ecf0 <___vfiprintf_internal_r+0x13f8>
 508e2ec:	00814274 	movhi	r2,1289
 508e2f0:	10977704 	addi	r2,r2,24028
 508e2f4:	d8802615 	stw	r2,152(sp)
 508e2f8:	a080080c 	andi	r2,r20,32
 508e2fc:	103f561e 	bne	r2,zero,508e058 <__alt_data_end+0xfffbfe58>
 508e300:	a080040c 	andi	r2,r20,16
 508e304:	1001d126 	beq	r2,zero,508ea4c <___vfiprintf_internal_r+0x1154>
 508e308:	da802217 	ldw	r10,136(sp)
 508e30c:	0027883a 	mov	r19,zero
 508e310:	54800017 	ldw	r18,0(r10)
 508e314:	52800104 	addi	r10,r10,4
 508e318:	da802215 	stw	r10,136(sp)
 508e31c:	003f5306 	br	508e06c <__alt_data_end+0xfffbfe6c>
 508e320:	da802217 	ldw	r10,136(sp)
 508e324:	d8001d85 	stb	zero,118(sp)
 508e328:	55400017 	ldw	r21,0(r10)
 508e32c:	50c00104 	addi	r3,r10,4
 508e330:	a8024226 	beq	r21,zero,508ec3c <___vfiprintf_internal_r+0x1344>
 508e334:	48021816 	blt	r9,zero,508eb98 <___vfiprintf_internal_r+0x12a0>
 508e338:	480d883a 	mov	r6,r9
 508e33c:	000b883a 	mov	r5,zero
 508e340:	a809883a 	mov	r4,r21
 508e344:	d8c02a15 	stw	r3,168(sp)
 508e348:	da002b15 	stw	r8,172(sp)
 508e34c:	da402c15 	stw	r9,176(sp)
 508e350:	508a6e80 	call	508a6e8 <memchr>
 508e354:	d8c02a17 	ldw	r3,168(sp)
 508e358:	da002b17 	ldw	r8,172(sp)
 508e35c:	da402c17 	ldw	r9,176(sp)
 508e360:	10024826 	beq	r2,zero,508ec84 <___vfiprintf_internal_r+0x138c>
 508e364:	1567c83a 	sub	r19,r2,r21
 508e368:	df001d83 	ldbu	fp,118(sp)
 508e36c:	d8c02215 	stw	r3,136(sp)
 508e370:	0013883a 	mov	r9,zero
 508e374:	003e6006 	br	508dcf8 <__alt_data_end+0xfffbfaf8>
 508e378:	21003fcc 	andi	r4,r4,255
 508e37c:	203fc026 	beq	r4,zero,508e280 <__alt_data_end+0xfffc0080>
 508e380:	d9c01d85 	stb	r7,118(sp)
 508e384:	003fbe06 	br	508e280 <__alt_data_end+0xfffc0080>
 508e388:	da802217 	ldw	r10,136(sp)
 508e38c:	54400017 	ldw	r17,0(r10)
 508e390:	50800104 	addi	r2,r10,4
 508e394:	883e3b16 	blt	r17,zero,508dc84 <__alt_data_end+0xfffbfa84>
 508e398:	d8802215 	stw	r2,136(sp)
 508e39c:	80c00007 	ldb	r3,0(r16)
 508e3a0:	003db406 	br	508da74 <__alt_data_end+0xfffbf874>
 508e3a4:	01000044 	movi	r4,1
 508e3a8:	01c00ac4 	movi	r7,43
 508e3ac:	80c00007 	ldb	r3,0(r16)
 508e3b0:	003db006 	br	508da74 <__alt_data_end+0xfffbf874>
 508e3b4:	80c00007 	ldb	r3,0(r16)
 508e3b8:	82800044 	addi	r10,r16,1
 508e3bc:	1b423c26 	beq	r3,r13,508ecb0 <___vfiprintf_internal_r+0x13b8>
 508e3c0:	18bff404 	addi	r2,r3,-48
 508e3c4:	0013883a 	mov	r9,zero
 508e3c8:	30822b36 	bltu	r6,r2,508ec78 <___vfiprintf_internal_r+0x1380>
 508e3cc:	50c00007 	ldb	r3,0(r10)
 508e3d0:	4a4002a4 	muli	r9,r9,10
 508e3d4:	54000044 	addi	r16,r10,1
 508e3d8:	8015883a 	mov	r10,r16
 508e3dc:	4893883a 	add	r9,r9,r2
 508e3e0:	18bff404 	addi	r2,r3,-48
 508e3e4:	30bff92e 	bgeu	r6,r2,508e3cc <__alt_data_end+0xfffc01cc>
 508e3e8:	483da30e 	bge	r9,zero,508da78 <__alt_data_end+0xfffbf878>
 508e3ec:	027fffc4 	movi	r9,-1
 508e3f0:	003da106 	br	508da78 <__alt_data_end+0xfffbf878>
 508e3f4:	a5001014 	ori	r20,r20,64
 508e3f8:	80c00007 	ldb	r3,0(r16)
 508e3fc:	003d9d06 	br	508da74 <__alt_data_end+0xfffbf874>
 508e400:	da802217 	ldw	r10,136(sp)
 508e404:	d8001d85 	stb	zero,118(sp)
 508e408:	50c00204 	addi	r3,r10,8
 508e40c:	54800017 	ldw	r18,0(r10)
 508e410:	54c00117 	ldw	r19,4(r10)
 508e414:	4801ca16 	blt	r9,zero,508eb40 <___vfiprintf_internal_r+0x1248>
 508e418:	013fdfc4 	movi	r4,-129
 508e41c:	94c4b03a 	or	r2,r18,r19
 508e420:	d8c02215 	stw	r3,136(sp)
 508e424:	a128703a 	and	r20,r20,r4
 508e428:	0039883a 	mov	fp,zero
 508e42c:	103f341e 	bne	r2,zero,508e100 <__alt_data_end+0xfffbff00>
 508e430:	483e2e26 	beq	r9,zero,508dcec <__alt_data_end+0xfffbfaec>
 508e434:	0025883a 	mov	r18,zero
 508e438:	94800c04 	addi	r18,r18,48
 508e43c:	dc8019c5 	stb	r18,103(sp)
 508e440:	dcc02717 	ldw	r19,156(sp)
 508e444:	dd4019c4 	addi	r21,sp,103
 508e448:	003e2b06 	br	508dcf8 <__alt_data_end+0xfffbfaf8>
 508e44c:	21003fcc 	andi	r4,r4,255
 508e450:	2002361e 	bne	r4,zero,508ed2c <___vfiprintf_internal_r+0x1434>
 508e454:	1801c126 	beq	r3,zero,508eb5c <___vfiprintf_internal_r+0x1264>
 508e458:	04800044 	movi	r18,1
 508e45c:	d8c01005 	stb	r3,64(sp)
 508e460:	d8001d85 	stb	zero,118(sp)
 508e464:	9027883a 	mov	r19,r18
 508e468:	dd401004 	addi	r21,sp,64
 508e46c:	003f1106 	br	508e0b4 <__alt_data_end+0xfffbfeb4>
 508e470:	d9402117 	ldw	r5,132(sp)
 508e474:	d9002017 	ldw	r4,128(sp)
 508e478:	d9801a04 	addi	r6,sp,104
 508e47c:	d9c02b15 	stw	r7,172(sp)
 508e480:	dbc02a15 	stw	r15,168(sp)
 508e484:	508d7e40 	call	508d7e4 <__sprint_r.part.0>
 508e488:	d9c02b17 	ldw	r7,172(sp)
 508e48c:	dbc02a17 	ldw	r15,168(sp)
 508e490:	10006d1e 	bne	r2,zero,508e648 <___vfiprintf_internal_r+0xd50>
 508e494:	d9801b17 	ldw	r6,108(sp)
 508e498:	d8801c17 	ldw	r2,112(sp)
 508e49c:	d811883a 	mov	r8,sp
 508e4a0:	31400044 	addi	r5,r6,1
 508e4a4:	003e3306 	br	508dd74 <__alt_data_end+0xfffbfb74>
 508e4a8:	d9401b17 	ldw	r5,108(sp)
 508e4ac:	d8801c17 	ldw	r2,112(sp)
 508e4b0:	29000044 	addi	r4,r5,1
 508e4b4:	d8c01d87 	ldb	r3,118(sp)
 508e4b8:	183e4d26 	beq	r3,zero,508ddf0 <__alt_data_end+0xfffbfbf0>
 508e4bc:	00c00044 	movi	r3,1
 508e4c0:	d9401d84 	addi	r5,sp,118
 508e4c4:	10c5883a 	add	r2,r2,r3
 508e4c8:	41400015 	stw	r5,0(r8)
 508e4cc:	40c00115 	stw	r3,4(r8)
 508e4d0:	d8801c15 	stw	r2,112(sp)
 508e4d4:	d9001b15 	stw	r4,108(sp)
 508e4d8:	014001c4 	movi	r5,7
 508e4dc:	2900a90e 	bge	r5,r4,508e784 <___vfiprintf_internal_r+0xe8c>
 508e4e0:	1000da1e 	bne	r2,zero,508e84c <___vfiprintf_internal_r+0xf54>
 508e4e4:	7000ab1e 	bne	r14,zero,508e794 <___vfiprintf_internal_r+0xe9c>
 508e4e8:	000b883a 	mov	r5,zero
 508e4ec:	1809883a 	mov	r4,r3
 508e4f0:	d811883a 	mov	r8,sp
 508e4f4:	00c02004 	movi	r3,128
 508e4f8:	e0fe4d26 	beq	fp,r3,508de30 <__alt_data_end+0xfffbfc30>
 508e4fc:	4cf9c83a 	sub	fp,r9,r19
 508e500:	073e7b0e 	bge	zero,fp,508def0 <__alt_data_end+0xfffbfcf0>
 508e504:	01c00404 	movi	r7,16
 508e508:	3f01900e 	bge	r7,fp,508eb4c <___vfiprintf_internal_r+0x1254>
 508e50c:	00c14274 	movhi	r3,1289
 508e510:	18d7ed04 	addi	r3,r3,24500
 508e514:	d8c02415 	stw	r3,144(sp)
 508e518:	034001c4 	movi	r13,7
 508e51c:	00000506 	br	508e534 <___vfiprintf_internal_r+0xc3c>
 508e520:	29000084 	addi	r4,r5,2
 508e524:	42000204 	addi	r8,r8,8
 508e528:	180b883a 	mov	r5,r3
 508e52c:	e73ffc04 	addi	fp,fp,-16
 508e530:	3f000d0e 	bge	r7,fp,508e568 <___vfiprintf_internal_r+0xc70>
 508e534:	10800404 	addi	r2,r2,16
 508e538:	28c00044 	addi	r3,r5,1
 508e53c:	45c00015 	stw	r23,0(r8)
 508e540:	41c00115 	stw	r7,4(r8)
 508e544:	d8801c15 	stw	r2,112(sp)
 508e548:	d8c01b15 	stw	r3,108(sp)
 508e54c:	68fff40e 	bge	r13,r3,508e520 <__alt_data_end+0xfffc0320>
 508e550:	1000101e 	bne	r2,zero,508e594 <___vfiprintf_internal_r+0xc9c>
 508e554:	e73ffc04 	addi	fp,fp,-16
 508e558:	01000044 	movi	r4,1
 508e55c:	000b883a 	mov	r5,zero
 508e560:	d811883a 	mov	r8,sp
 508e564:	3f3ff316 	blt	r7,fp,508e534 <__alt_data_end+0xfffc0334>
 508e568:	da802417 	ldw	r10,144(sp)
 508e56c:	1705883a 	add	r2,r2,fp
 508e570:	47000115 	stw	fp,4(r8)
 508e574:	42800015 	stw	r10,0(r8)
 508e578:	d8801c15 	stw	r2,112(sp)
 508e57c:	d9001b15 	stw	r4,108(sp)
 508e580:	00c001c4 	movi	r3,7
 508e584:	19003616 	blt	r3,r4,508e660 <___vfiprintf_internal_r+0xd68>
 508e588:	42000204 	addi	r8,r8,8
 508e58c:	21000044 	addi	r4,r4,1
 508e590:	003e5706 	br	508def0 <__alt_data_end+0xfffbfcf0>
 508e594:	d9402117 	ldw	r5,132(sp)
 508e598:	d9002017 	ldw	r4,128(sp)
 508e59c:	d9801a04 	addi	r6,sp,104
 508e5a0:	d9c02b15 	stw	r7,172(sp)
 508e5a4:	db402a15 	stw	r13,168(sp)
 508e5a8:	508d7e40 	call	508d7e4 <__sprint_r.part.0>
 508e5ac:	d9c02b17 	ldw	r7,172(sp)
 508e5b0:	db402a17 	ldw	r13,168(sp)
 508e5b4:	1000241e 	bne	r2,zero,508e648 <___vfiprintf_internal_r+0xd50>
 508e5b8:	d9401b17 	ldw	r5,108(sp)
 508e5bc:	d8801c17 	ldw	r2,112(sp)
 508e5c0:	d811883a 	mov	r8,sp
 508e5c4:	29000044 	addi	r4,r5,1
 508e5c8:	003fd806 	br	508e52c <__alt_data_end+0xfffc032c>
 508e5cc:	d9401b17 	ldw	r5,108(sp)
 508e5d0:	00c14274 	movhi	r3,1289
 508e5d4:	18d7f104 	addi	r3,r3,24516
 508e5d8:	d8c02415 	stw	r3,144(sp)
 508e5dc:	29400044 	addi	r5,r5,1
 508e5e0:	d8c02417 	ldw	r3,144(sp)
 508e5e4:	14c5883a 	add	r2,r2,r19
 508e5e8:	44c00115 	stw	r19,4(r8)
 508e5ec:	40c00015 	stw	r3,0(r8)
 508e5f0:	d8801c15 	stw	r2,112(sp)
 508e5f4:	d9401b15 	stw	r5,108(sp)
 508e5f8:	00c001c4 	movi	r3,7
 508e5fc:	1940070e 	bge	r3,r5,508e61c <___vfiprintf_internal_r+0xd24>
 508e600:	103e4826 	beq	r2,zero,508df24 <__alt_data_end+0xfffbfd24>
 508e604:	d9402117 	ldw	r5,132(sp)
 508e608:	d9002017 	ldw	r4,128(sp)
 508e60c:	d9801a04 	addi	r6,sp,104
 508e610:	508d7e40 	call	508d7e4 <__sprint_r.part.0>
 508e614:	10000c1e 	bne	r2,zero,508e648 <___vfiprintf_internal_r+0xd50>
 508e618:	d8801c17 	ldw	r2,112(sp)
 508e61c:	8c80010e 	bge	r17,r18,508e624 <___vfiprintf_internal_r+0xd2c>
 508e620:	9023883a 	mov	r17,r18
 508e624:	da802317 	ldw	r10,140(sp)
 508e628:	5455883a 	add	r10,r10,r17
 508e62c:	da802315 	stw	r10,140(sp)
 508e630:	103e4126 	beq	r2,zero,508df38 <__alt_data_end+0xfffbfd38>
 508e634:	d9402117 	ldw	r5,132(sp)
 508e638:	d9002017 	ldw	r4,128(sp)
 508e63c:	d9801a04 	addi	r6,sp,104
 508e640:	508d7e40 	call	508d7e4 <__sprint_r.part.0>
 508e644:	103e3c26 	beq	r2,zero,508df38 <__alt_data_end+0xfffbfd38>
 508e648:	dd002117 	ldw	r20,132(sp)
 508e64c:	a080030b 	ldhu	r2,12(r20)
 508e650:	1080100c 	andi	r2,r2,64
 508e654:	1001231e 	bne	r2,zero,508eae4 <___vfiprintf_internal_r+0x11ec>
 508e658:	d8802317 	ldw	r2,140(sp)
 508e65c:	003d7b06 	br	508dc4c <__alt_data_end+0xfffbfa4c>
 508e660:	1000991e 	bne	r2,zero,508e8c8 <___vfiprintf_internal_r+0xfd0>
 508e664:	00c00044 	movi	r3,1
 508e668:	9805883a 	mov	r2,r19
 508e66c:	dd400015 	stw	r21,0(sp)
 508e670:	dcc00115 	stw	r19,4(sp)
 508e674:	dcc01c15 	stw	r19,112(sp)
 508e678:	d8c01b15 	stw	r3,108(sp)
 508e67c:	d811883a 	mov	r8,sp
 508e680:	42000204 	addi	r8,r8,8
 508e684:	a2c0010c 	andi	r11,r20,4
 508e688:	583fe426 	beq	r11,zero,508e61c <__alt_data_end+0xfffc041c>
 508e68c:	8ca7c83a 	sub	r19,r17,r18
 508e690:	04ffe20e 	bge	zero,r19,508e61c <__alt_data_end+0xfffc041c>
 508e694:	01c00404 	movi	r7,16
 508e698:	3cffcc0e 	bge	r7,r19,508e5cc <__alt_data_end+0xfffc03cc>
 508e69c:	02814274 	movhi	r10,1289
 508e6a0:	5297f104 	addi	r10,r10,24516
 508e6a4:	d9001b17 	ldw	r4,108(sp)
 508e6a8:	da802415 	stw	r10,144(sp)
 508e6ac:	382b883a 	mov	r21,r7
 508e6b0:	050001c4 	movi	r20,7
 508e6b4:	df002017 	ldw	fp,128(sp)
 508e6b8:	00000506 	br	508e6d0 <___vfiprintf_internal_r+0xdd8>
 508e6bc:	21400084 	addi	r5,r4,2
 508e6c0:	42000204 	addi	r8,r8,8
 508e6c4:	1809883a 	mov	r4,r3
 508e6c8:	9cfffc04 	addi	r19,r19,-16
 508e6cc:	acffc40e 	bge	r21,r19,508e5e0 <__alt_data_end+0xfffc03e0>
 508e6d0:	10800404 	addi	r2,r2,16
 508e6d4:	20c00044 	addi	r3,r4,1
 508e6d8:	45800015 	stw	r22,0(r8)
 508e6dc:	45400115 	stw	r21,4(r8)
 508e6e0:	d8801c15 	stw	r2,112(sp)
 508e6e4:	d8c01b15 	stw	r3,108(sp)
 508e6e8:	a0fff40e 	bge	r20,r3,508e6bc <__alt_data_end+0xfffc04bc>
 508e6ec:	1000041e 	bne	r2,zero,508e700 <___vfiprintf_internal_r+0xe08>
 508e6f0:	01400044 	movi	r5,1
 508e6f4:	0009883a 	mov	r4,zero
 508e6f8:	d811883a 	mov	r8,sp
 508e6fc:	003ff206 	br	508e6c8 <__alt_data_end+0xfffc04c8>
 508e700:	d9402117 	ldw	r5,132(sp)
 508e704:	d9801a04 	addi	r6,sp,104
 508e708:	e009883a 	mov	r4,fp
 508e70c:	508d7e40 	call	508d7e4 <__sprint_r.part.0>
 508e710:	103fcd1e 	bne	r2,zero,508e648 <__alt_data_end+0xfffc0448>
 508e714:	d9001b17 	ldw	r4,108(sp)
 508e718:	d8801c17 	ldw	r2,112(sp)
 508e71c:	d811883a 	mov	r8,sp
 508e720:	21400044 	addi	r5,r4,1
 508e724:	003fe806 	br	508e6c8 <__alt_data_end+0xfffc04c8>
 508e728:	d9402117 	ldw	r5,132(sp)
 508e72c:	d9002017 	ldw	r4,128(sp)
 508e730:	d9801a04 	addi	r6,sp,104
 508e734:	d9c02b15 	stw	r7,172(sp)
 508e738:	db402a15 	stw	r13,168(sp)
 508e73c:	508d7e40 	call	508d7e4 <__sprint_r.part.0>
 508e740:	d9c02b17 	ldw	r7,172(sp)
 508e744:	db402a17 	ldw	r13,168(sp)
 508e748:	103fbf1e 	bne	r2,zero,508e648 <__alt_data_end+0xfffc0448>
 508e74c:	d9401b17 	ldw	r5,108(sp)
 508e750:	d8801c17 	ldw	r2,112(sp)
 508e754:	d811883a 	mov	r8,sp
 508e758:	29800044 	addi	r6,r5,1
 508e75c:	003dc406 	br	508de70 <__alt_data_end+0xfffbfc70>
 508e760:	1000d21e 	bne	r2,zero,508eaac <___vfiprintf_internal_r+0x11b4>
 508e764:	d8c01d87 	ldb	r3,118(sp)
 508e768:	18009526 	beq	r3,zero,508e9c0 <___vfiprintf_internal_r+0x10c8>
 508e76c:	00800044 	movi	r2,1
 508e770:	d8c01d84 	addi	r3,sp,118
 508e774:	1009883a 	mov	r4,r2
 508e778:	d8c00015 	stw	r3,0(sp)
 508e77c:	d8800115 	stw	r2,4(sp)
 508e780:	d811883a 	mov	r8,sp
 508e784:	200b883a 	mov	r5,r4
 508e788:	42000204 	addi	r8,r8,8
 508e78c:	21000044 	addi	r4,r4,1
 508e790:	003d9706 	br	508ddf0 <__alt_data_end+0xfffbfbf0>
 508e794:	d9001d04 	addi	r4,sp,116
 508e798:	00800084 	movi	r2,2
 508e79c:	d9000015 	stw	r4,0(sp)
 508e7a0:	d8800115 	stw	r2,4(sp)
 508e7a4:	1809883a 	mov	r4,r3
 508e7a8:	d811883a 	mov	r8,sp
 508e7ac:	200b883a 	mov	r5,r4
 508e7b0:	42000204 	addi	r8,r8,8
 508e7b4:	21000044 	addi	r4,r4,1
 508e7b8:	003f4e06 	br	508e4f4 <__alt_data_end+0xfffc02f4>
 508e7bc:	d8001d85 	stb	zero,118(sp)
 508e7c0:	48005016 	blt	r9,zero,508e904 <___vfiprintf_internal_r+0x100c>
 508e7c4:	00ffdfc4 	movi	r3,-129
 508e7c8:	94c4b03a 	or	r2,r18,r19
 508e7cc:	a0e8703a 	and	r20,r20,r3
 508e7d0:	103d4426 	beq	r2,zero,508dce4 <__alt_data_end+0xfffbfae4>
 508e7d4:	0039883a 	mov	fp,zero
 508e7d8:	d9002617 	ldw	r4,152(sp)
 508e7dc:	dd401a04 	addi	r21,sp,104
 508e7e0:	908003cc 	andi	r2,r18,15
 508e7e4:	9806973a 	slli	r3,r19,28
 508e7e8:	2085883a 	add	r2,r4,r2
 508e7ec:	9024d13a 	srli	r18,r18,4
 508e7f0:	10800003 	ldbu	r2,0(r2)
 508e7f4:	9826d13a 	srli	r19,r19,4
 508e7f8:	ad7fffc4 	addi	r21,r21,-1
 508e7fc:	1ca4b03a 	or	r18,r3,r18
 508e800:	a8800005 	stb	r2,0(r21)
 508e804:	94c4b03a 	or	r2,r18,r19
 508e808:	103ff51e 	bne	r2,zero,508e7e0 <__alt_data_end+0xfffc05e0>
 508e80c:	003e5906 	br	508e174 <__alt_data_end+0xfffbff74>
 508e810:	d9402117 	ldw	r5,132(sp)
 508e814:	d9002017 	ldw	r4,128(sp)
 508e818:	d9801a04 	addi	r6,sp,104
 508e81c:	508d7e40 	call	508d7e4 <__sprint_r.part.0>
 508e820:	103f891e 	bne	r2,zero,508e648 <__alt_data_end+0xfffc0448>
 508e824:	d8801c17 	ldw	r2,112(sp)
 508e828:	d811883a 	mov	r8,sp
 508e82c:	003f9506 	br	508e684 <__alt_data_end+0xfffc0484>
 508e830:	d9402117 	ldw	r5,132(sp)
 508e834:	d9002017 	ldw	r4,128(sp)
 508e838:	d9801a04 	addi	r6,sp,104
 508e83c:	508d7e40 	call	508d7e4 <__sprint_r.part.0>
 508e840:	103f811e 	bne	r2,zero,508e648 <__alt_data_end+0xfffc0448>
 508e844:	d811883a 	mov	r8,sp
 508e848:	003ced06 	br	508dc00 <__alt_data_end+0xfffbfa00>
 508e84c:	d9402117 	ldw	r5,132(sp)
 508e850:	d9002017 	ldw	r4,128(sp)
 508e854:	d9801a04 	addi	r6,sp,104
 508e858:	da402c15 	stw	r9,176(sp)
 508e85c:	db802a15 	stw	r14,168(sp)
 508e860:	508d7e40 	call	508d7e4 <__sprint_r.part.0>
 508e864:	da402c17 	ldw	r9,176(sp)
 508e868:	db802a17 	ldw	r14,168(sp)
 508e86c:	103f761e 	bne	r2,zero,508e648 <__alt_data_end+0xfffc0448>
 508e870:	d9401b17 	ldw	r5,108(sp)
 508e874:	d8801c17 	ldw	r2,112(sp)
 508e878:	d811883a 	mov	r8,sp
 508e87c:	29000044 	addi	r4,r5,1
 508e880:	003d5b06 	br	508ddf0 <__alt_data_end+0xfffbfbf0>
 508e884:	d9402117 	ldw	r5,132(sp)
 508e888:	d9002017 	ldw	r4,128(sp)
 508e88c:	d9801a04 	addi	r6,sp,104
 508e890:	da402c15 	stw	r9,176(sp)
 508e894:	508d7e40 	call	508d7e4 <__sprint_r.part.0>
 508e898:	da402c17 	ldw	r9,176(sp)
 508e89c:	103f6a1e 	bne	r2,zero,508e648 <__alt_data_end+0xfffc0448>
 508e8a0:	d9401b17 	ldw	r5,108(sp)
 508e8a4:	d8801c17 	ldw	r2,112(sp)
 508e8a8:	d811883a 	mov	r8,sp
 508e8ac:	29000044 	addi	r4,r5,1
 508e8b0:	003f1006 	br	508e4f4 <__alt_data_end+0xfffc02f4>
 508e8b4:	1000c31e 	bne	r2,zero,508ebc4 <___vfiprintf_internal_r+0x12cc>
 508e8b8:	01000044 	movi	r4,1
 508e8bc:	000b883a 	mov	r5,zero
 508e8c0:	d811883a 	mov	r8,sp
 508e8c4:	003f0d06 	br	508e4fc <__alt_data_end+0xfffc02fc>
 508e8c8:	d9402117 	ldw	r5,132(sp)
 508e8cc:	d9002017 	ldw	r4,128(sp)
 508e8d0:	d9801a04 	addi	r6,sp,104
 508e8d4:	508d7e40 	call	508d7e4 <__sprint_r.part.0>
 508e8d8:	103f5b1e 	bne	r2,zero,508e648 <__alt_data_end+0xfffc0448>
 508e8dc:	d9001b17 	ldw	r4,108(sp)
 508e8e0:	d8801c17 	ldw	r2,112(sp)
 508e8e4:	d811883a 	mov	r8,sp
 508e8e8:	21000044 	addi	r4,r4,1
 508e8ec:	003d8006 	br	508def0 <__alt_data_end+0xfffbfcf0>
 508e8f0:	01014274 	movhi	r4,1289
 508e8f4:	21177c04 	addi	r4,r4,24048
 508e8f8:	d9002615 	stw	r4,152(sp)
 508e8fc:	d8c02215 	stw	r3,136(sp)
 508e900:	1029883a 	mov	r20,r2
 508e904:	94c4b03a 	or	r2,r18,r19
 508e908:	103fb21e 	bne	r2,zero,508e7d4 <__alt_data_end+0xfffc05d4>
 508e90c:	0039883a 	mov	fp,zero
 508e910:	00800084 	movi	r2,2
 508e914:	003e6b06 	br	508e2c4 <__alt_data_end+0xfffc00c4>
 508e918:	da802217 	ldw	r10,136(sp)
 508e91c:	d8001d85 	stb	zero,118(sp)
 508e920:	0027883a 	mov	r19,zero
 508e924:	50800104 	addi	r2,r10,4
 508e928:	54800017 	ldw	r18,0(r10)
 508e92c:	483e6016 	blt	r9,zero,508e2b0 <__alt_data_end+0xfffc00b0>
 508e930:	00ffdfc4 	movi	r3,-129
 508e934:	d8802215 	stw	r2,136(sp)
 508e938:	a0e8703a 	and	r20,r20,r3
 508e93c:	0039883a 	mov	fp,zero
 508e940:	903ebb26 	beq	r18,zero,508e430 <__alt_data_end+0xfffc0230>
 508e944:	00800244 	movi	r2,9
 508e948:	14bdee36 	bltu	r2,r18,508e104 <__alt_data_end+0xfffbff04>
 508e94c:	003eba06 	br	508e438 <__alt_data_end+0xfffc0238>
 508e950:	00800c04 	movi	r2,48
 508e954:	d8c01d45 	stb	r3,117(sp)
 508e958:	d8801d05 	stb	r2,116(sp)
 508e95c:	d8001d85 	stb	zero,118(sp)
 508e960:	a0c00094 	ori	r3,r20,2
 508e964:	4800a916 	blt	r9,zero,508ec0c <___vfiprintf_internal_r+0x1314>
 508e968:	00bfdfc4 	movi	r2,-129
 508e96c:	a096703a 	and	r11,r20,r2
 508e970:	5d000094 	ori	r20,r11,2
 508e974:	0039883a 	mov	fp,zero
 508e978:	003f9706 	br	508e7d8 <__alt_data_end+0xfffc05d8>
 508e97c:	8025883a 	mov	r18,r16
 508e980:	003c2e06 	br	508da3c <__alt_data_end+0xfffbf83c>
 508e984:	00814274 	movhi	r2,1289
 508e988:	10977c04 	addi	r2,r2,24048
 508e98c:	0039883a 	mov	fp,zero
 508e990:	d8802615 	stw	r2,152(sp)
 508e994:	003f9006 	br	508e7d8 <__alt_data_end+0xfffc05d8>
 508e998:	04a5c83a 	sub	r18,zero,r18
 508e99c:	07000b44 	movi	fp,45
 508e9a0:	9004c03a 	cmpne	r2,r18,zero
 508e9a4:	04e7c83a 	sub	r19,zero,r19
 508e9a8:	df001d85 	stb	fp,118(sp)
 508e9ac:	98a7c83a 	sub	r19,r19,r2
 508e9b0:	48009f16 	blt	r9,zero,508ec30 <___vfiprintf_internal_r+0x1338>
 508e9b4:	00bfdfc4 	movi	r2,-129
 508e9b8:	a0a8703a 	and	r20,r20,r2
 508e9bc:	003dd006 	br	508e100 <__alt_data_end+0xfffbff00>
 508e9c0:	70004c26 	beq	r14,zero,508eaf4 <___vfiprintf_internal_r+0x11fc>
 508e9c4:	00800084 	movi	r2,2
 508e9c8:	d8c01d04 	addi	r3,sp,116
 508e9cc:	d8c00015 	stw	r3,0(sp)
 508e9d0:	d8800115 	stw	r2,4(sp)
 508e9d4:	01000044 	movi	r4,1
 508e9d8:	d811883a 	mov	r8,sp
 508e9dc:	003f7306 	br	508e7ac <__alt_data_end+0xfffc05ac>
 508e9e0:	a080100c 	andi	r2,r20,64
 508e9e4:	da802217 	ldw	r10,136(sp)
 508e9e8:	103e0626 	beq	r2,zero,508e204 <__alt_data_end+0xfffc0004>
 508e9ec:	5480000f 	ldh	r18,0(r10)
 508e9f0:	52800104 	addi	r10,r10,4
 508e9f4:	da802215 	stw	r10,136(sp)
 508e9f8:	9027d7fa 	srai	r19,r18,31
 508e9fc:	9805883a 	mov	r2,r19
 508ea00:	003db806 	br	508e0e4 <__alt_data_end+0xfffbfee4>
 508ea04:	a080040c 	andi	r2,r20,16
 508ea08:	1000091e 	bne	r2,zero,508ea30 <___vfiprintf_internal_r+0x1138>
 508ea0c:	a2c0100c 	andi	r11,r20,64
 508ea10:	58000726 	beq	r11,zero,508ea30 <___vfiprintf_internal_r+0x1138>
 508ea14:	da802217 	ldw	r10,136(sp)
 508ea18:	50800017 	ldw	r2,0(r10)
 508ea1c:	52800104 	addi	r10,r10,4
 508ea20:	da802215 	stw	r10,136(sp)
 508ea24:	da802317 	ldw	r10,140(sp)
 508ea28:	1280000d 	sth	r10,0(r2)
 508ea2c:	003be706 	br	508d9cc <__alt_data_end+0xfffbf7cc>
 508ea30:	da802217 	ldw	r10,136(sp)
 508ea34:	50800017 	ldw	r2,0(r10)
 508ea38:	52800104 	addi	r10,r10,4
 508ea3c:	da802215 	stw	r10,136(sp)
 508ea40:	da802317 	ldw	r10,140(sp)
 508ea44:	12800015 	stw	r10,0(r2)
 508ea48:	003be006 	br	508d9cc <__alt_data_end+0xfffbf7cc>
 508ea4c:	a080100c 	andi	r2,r20,64
 508ea50:	da802217 	ldw	r10,136(sp)
 508ea54:	10003026 	beq	r2,zero,508eb18 <___vfiprintf_internal_r+0x1220>
 508ea58:	5480000b 	ldhu	r18,0(r10)
 508ea5c:	52800104 	addi	r10,r10,4
 508ea60:	0027883a 	mov	r19,zero
 508ea64:	da802215 	stw	r10,136(sp)
 508ea68:	003d8006 	br	508e06c <__alt_data_end+0xfffbfe6c>
 508ea6c:	80c00007 	ldb	r3,0(r16)
 508ea70:	003c0006 	br	508da74 <__alt_data_end+0xfffbf874>
 508ea74:	a080100c 	andi	r2,r20,64
 508ea78:	d8001d85 	stb	zero,118(sp)
 508ea7c:	da802217 	ldw	r10,136(sp)
 508ea80:	1000201e 	bne	r2,zero,508eb04 <___vfiprintf_internal_r+0x120c>
 508ea84:	50800104 	addi	r2,r10,4
 508ea88:	54800017 	ldw	r18,0(r10)
 508ea8c:	0027883a 	mov	r19,zero
 508ea90:	483def0e 	bge	r9,zero,508e250 <__alt_data_end+0xfffc0050>
 508ea94:	94c6b03a 	or	r3,r18,r19
 508ea98:	d8802215 	stw	r2,136(sp)
 508ea9c:	183d4e1e 	bne	r3,zero,508dfd8 <__alt_data_end+0xfffbfdd8>
 508eaa0:	0039883a 	mov	fp,zero
 508eaa4:	0005883a 	mov	r2,zero
 508eaa8:	003e0606 	br	508e2c4 <__alt_data_end+0xfffc00c4>
 508eaac:	d9402117 	ldw	r5,132(sp)
 508eab0:	d9002017 	ldw	r4,128(sp)
 508eab4:	d9801a04 	addi	r6,sp,104
 508eab8:	da402c15 	stw	r9,176(sp)
 508eabc:	db802a15 	stw	r14,168(sp)
 508eac0:	508d7e40 	call	508d7e4 <__sprint_r.part.0>
 508eac4:	da402c17 	ldw	r9,176(sp)
 508eac8:	db802a17 	ldw	r14,168(sp)
 508eacc:	103ede1e 	bne	r2,zero,508e648 <__alt_data_end+0xfffc0448>
 508ead0:	d9401b17 	ldw	r5,108(sp)
 508ead4:	d8801c17 	ldw	r2,112(sp)
 508ead8:	d811883a 	mov	r8,sp
 508eadc:	29000044 	addi	r4,r5,1
 508eae0:	003e7406 	br	508e4b4 <__alt_data_end+0xfffc02b4>
 508eae4:	00bfffc4 	movi	r2,-1
 508eae8:	003c5806 	br	508dc4c <__alt_data_end+0xfffbfa4c>
 508eaec:	d811883a 	mov	r8,sp
 508eaf0:	003ee806 	br	508e694 <__alt_data_end+0xfffc0494>
 508eaf4:	000b883a 	mov	r5,zero
 508eaf8:	01000044 	movi	r4,1
 508eafc:	d811883a 	mov	r8,sp
 508eb00:	003e7c06 	br	508e4f4 <__alt_data_end+0xfffc02f4>
 508eb04:	50800104 	addi	r2,r10,4
 508eb08:	5480000b 	ldhu	r18,0(r10)
 508eb0c:	0027883a 	mov	r19,zero
 508eb10:	483dcf0e 	bge	r9,zero,508e250 <__alt_data_end+0xfffc0050>
 508eb14:	003fdf06 	br	508ea94 <__alt_data_end+0xfffc0894>
 508eb18:	54800017 	ldw	r18,0(r10)
 508eb1c:	52800104 	addi	r10,r10,4
 508eb20:	0027883a 	mov	r19,zero
 508eb24:	da802215 	stw	r10,136(sp)
 508eb28:	003d5006 	br	508e06c <__alt_data_end+0xfffbfe6c>
 508eb2c:	50800104 	addi	r2,r10,4
 508eb30:	5480000b 	ldhu	r18,0(r10)
 508eb34:	0027883a 	mov	r19,zero
 508eb38:	483f7d0e 	bge	r9,zero,508e930 <__alt_data_end+0xfffc0730>
 508eb3c:	003ddc06 	br	508e2b0 <__alt_data_end+0xfffc00b0>
 508eb40:	d8c02215 	stw	r3,136(sp)
 508eb44:	0039883a 	mov	fp,zero
 508eb48:	003ddb06 	br	508e2b8 <__alt_data_end+0xfffc00b8>
 508eb4c:	02814274 	movhi	r10,1289
 508eb50:	5297ed04 	addi	r10,r10,24500
 508eb54:	da802415 	stw	r10,144(sp)
 508eb58:	003e8306 	br	508e568 <__alt_data_end+0xfffc0368>
 508eb5c:	d8801c17 	ldw	r2,112(sp)
 508eb60:	dd002117 	ldw	r20,132(sp)
 508eb64:	103eb926 	beq	r2,zero,508e64c <__alt_data_end+0xfffc044c>
 508eb68:	d9002017 	ldw	r4,128(sp)
 508eb6c:	d9801a04 	addi	r6,sp,104
 508eb70:	a00b883a 	mov	r5,r20
 508eb74:	508d7e40 	call	508d7e4 <__sprint_r.part.0>
 508eb78:	003eb406 	br	508e64c <__alt_data_end+0xfffc044c>
 508eb7c:	80c00043 	ldbu	r3,1(r16)
 508eb80:	a5000814 	ori	r20,r20,32
 508eb84:	84000044 	addi	r16,r16,1
 508eb88:	18c03fcc 	andi	r3,r3,255
 508eb8c:	18c0201c 	xori	r3,r3,128
 508eb90:	18ffe004 	addi	r3,r3,-128
 508eb94:	003bb706 	br	508da74 <__alt_data_end+0xfffbf874>
 508eb98:	a809883a 	mov	r4,r21
 508eb9c:	d8c02a15 	stw	r3,168(sp)
 508eba0:	da002b15 	stw	r8,172(sp)
 508eba4:	5082b440 	call	5082b44 <strlen>
 508eba8:	d8c02a17 	ldw	r3,168(sp)
 508ebac:	1027883a 	mov	r19,r2
 508ebb0:	df001d83 	ldbu	fp,118(sp)
 508ebb4:	d8c02215 	stw	r3,136(sp)
 508ebb8:	0013883a 	mov	r9,zero
 508ebbc:	da002b17 	ldw	r8,172(sp)
 508ebc0:	003c4d06 	br	508dcf8 <__alt_data_end+0xfffbfaf8>
 508ebc4:	d9402117 	ldw	r5,132(sp)
 508ebc8:	d9002017 	ldw	r4,128(sp)
 508ebcc:	d9801a04 	addi	r6,sp,104
 508ebd0:	da402c15 	stw	r9,176(sp)
 508ebd4:	508d7e40 	call	508d7e4 <__sprint_r.part.0>
 508ebd8:	da402c17 	ldw	r9,176(sp)
 508ebdc:	103e9a1e 	bne	r2,zero,508e648 <__alt_data_end+0xfffc0448>
 508ebe0:	d9401b17 	ldw	r5,108(sp)
 508ebe4:	d8801c17 	ldw	r2,112(sp)
 508ebe8:	d811883a 	mov	r8,sp
 508ebec:	29000044 	addi	r4,r5,1
 508ebf0:	003e4206 	br	508e4fc <__alt_data_end+0xfffc02fc>
 508ebf4:	d9401b17 	ldw	r5,108(sp)
 508ebf8:	01014274 	movhi	r4,1289
 508ebfc:	2117f104 	addi	r4,r4,24516
 508ec00:	d9002415 	stw	r4,144(sp)
 508ec04:	29400044 	addi	r5,r5,1
 508ec08:	003c6d06 	br	508ddc0 <__alt_data_end+0xfffbfbc0>
 508ec0c:	0039883a 	mov	fp,zero
 508ec10:	00800084 	movi	r2,2
 508ec14:	10803fcc 	andi	r2,r2,255
 508ec18:	01000044 	movi	r4,1
 508ec1c:	11001e26 	beq	r2,r4,508ec98 <___vfiprintf_internal_r+0x13a0>
 508ec20:	01000084 	movi	r4,2
 508ec24:	11001e1e 	bne	r2,r4,508eca0 <___vfiprintf_internal_r+0x13a8>
 508ec28:	1829883a 	mov	r20,r3
 508ec2c:	003eea06 	br	508e7d8 <__alt_data_end+0xfffc05d8>
 508ec30:	a007883a 	mov	r3,r20
 508ec34:	00800044 	movi	r2,1
 508ec38:	003ff606 	br	508ec14 <__alt_data_end+0xfffc0a14>
 508ec3c:	00800184 	movi	r2,6
 508ec40:	1240012e 	bgeu	r2,r9,508ec48 <___vfiprintf_internal_r+0x1350>
 508ec44:	1013883a 	mov	r9,r2
 508ec48:	4827883a 	mov	r19,r9
 508ec4c:	4825883a 	mov	r18,r9
 508ec50:	48001516 	blt	r9,zero,508eca8 <___vfiprintf_internal_r+0x13b0>
 508ec54:	05414274 	movhi	r21,1289
 508ec58:	d8c02215 	stw	r3,136(sp)
 508ec5c:	ad578104 	addi	r21,r21,24068
 508ec60:	003d1406 	br	508e0b4 <__alt_data_end+0xfffbfeb4>
 508ec64:	02814274 	movhi	r10,1289
 508ec68:	5297ed04 	addi	r10,r10,24500
 508ec6c:	da802415 	stw	r10,144(sp)
 508ec70:	200d883a 	mov	r6,r4
 508ec74:	003c9106 	br	508debc <__alt_data_end+0xfffbfcbc>
 508ec78:	5021883a 	mov	r16,r10
 508ec7c:	0013883a 	mov	r9,zero
 508ec80:	003b7d06 	br	508da78 <__alt_data_end+0xfffbf878>
 508ec84:	4827883a 	mov	r19,r9
 508ec88:	df001d83 	ldbu	fp,118(sp)
 508ec8c:	d8c02215 	stw	r3,136(sp)
 508ec90:	0013883a 	mov	r9,zero
 508ec94:	003c1806 	br	508dcf8 <__alt_data_end+0xfffbfaf8>
 508ec98:	1829883a 	mov	r20,r3
 508ec9c:	003d1806 	br	508e100 <__alt_data_end+0xfffbff00>
 508eca0:	1829883a 	mov	r20,r3
 508eca4:	003ccd06 	br	508dfdc <__alt_data_end+0xfffbfddc>
 508eca8:	0025883a 	mov	r18,zero
 508ecac:	003fe906 	br	508ec54 <__alt_data_end+0xfffc0a54>
 508ecb0:	d8802217 	ldw	r2,136(sp)
 508ecb4:	80c00043 	ldbu	r3,1(r16)
 508ecb8:	5021883a 	mov	r16,r10
 508ecbc:	12400017 	ldw	r9,0(r2)
 508ecc0:	10800104 	addi	r2,r2,4
 508ecc4:	d8802215 	stw	r2,136(sp)
 508ecc8:	483faf0e 	bge	r9,zero,508eb88 <__alt_data_end+0xfffc0988>
 508eccc:	18c03fcc 	andi	r3,r3,255
 508ecd0:	18c0201c 	xori	r3,r3,128
 508ecd4:	027fffc4 	movi	r9,-1
 508ecd8:	18ffe004 	addi	r3,r3,-128
 508ecdc:	003b6506 	br	508da74 <__alt_data_end+0xfffbf874>
 508ece0:	d9c01d85 	stb	r7,118(sp)
 508ece4:	003ca006 	br	508df68 <__alt_data_end+0xfffbfd68>
 508ece8:	d9c01d85 	stb	r7,118(sp)
 508ecec:	003cad06 	br	508dfa4 <__alt_data_end+0xfffbfda4>
 508ecf0:	d9c01d85 	stb	r7,118(sp)
 508ecf4:	003d7d06 	br	508e2ec <__alt_data_end+0xfffc00ec>
 508ecf8:	d9c01d85 	stb	r7,118(sp)
 508ecfc:	003d5f06 	br	508e27c <__alt_data_end+0xfffc007c>
 508ed00:	a080004c 	andi	r2,r20,1
 508ed04:	0039883a 	mov	fp,zero
 508ed08:	10000526 	beq	r2,zero,508ed20 <___vfiprintf_internal_r+0x1428>
 508ed0c:	00800c04 	movi	r2,48
 508ed10:	d88019c5 	stb	r2,103(sp)
 508ed14:	dcc02717 	ldw	r19,156(sp)
 508ed18:	dd4019c4 	addi	r21,sp,103
 508ed1c:	003bf606 	br	508dcf8 <__alt_data_end+0xfffbfaf8>
 508ed20:	0027883a 	mov	r19,zero
 508ed24:	dd401a04 	addi	r21,sp,104
 508ed28:	003bf306 	br	508dcf8 <__alt_data_end+0xfffbfaf8>
 508ed2c:	d9c01d85 	stb	r7,118(sp)
 508ed30:	003dc806 	br	508e454 <__alt_data_end+0xfffc0254>
 508ed34:	d9c01d85 	stb	r7,118(sp)
 508ed38:	003d3a06 	br	508e224 <__alt_data_end+0xfffc0024>
 508ed3c:	d9c01d85 	stb	r7,118(sp)
 508ed40:	003d2a06 	br	508e1ec <__alt_data_end+0xfffbffec>
 508ed44:	d9c01d85 	stb	r7,118(sp)
 508ed48:	003cde06 	br	508e0c4 <__alt_data_end+0xfffbfec4>
 508ed4c:	d9c01d85 	stb	r7,118(sp)
 508ed50:	003cbc06 	br	508e044 <__alt_data_end+0xfffbfe44>

0508ed54 <__vfiprintf_internal>:
 508ed54:	00814274 	movhi	r2,1289
 508ed58:	109ef004 	addi	r2,r2,31680
 508ed5c:	300f883a 	mov	r7,r6
 508ed60:	280d883a 	mov	r6,r5
 508ed64:	200b883a 	mov	r5,r4
 508ed68:	11000017 	ldw	r4,0(r2)
 508ed6c:	508d8f81 	jmpi	508d8f8 <___vfiprintf_internal_r>

0508ed70 <__sbprintf>:
 508ed70:	2880030b 	ldhu	r2,12(r5)
 508ed74:	2ac01917 	ldw	r11,100(r5)
 508ed78:	2a80038b 	ldhu	r10,14(r5)
 508ed7c:	2a400717 	ldw	r9,28(r5)
 508ed80:	2a000917 	ldw	r8,36(r5)
 508ed84:	defee204 	addi	sp,sp,-1144
 508ed88:	00c10004 	movi	r3,1024
 508ed8c:	dc011a15 	stw	r16,1128(sp)
 508ed90:	10bfff4c 	andi	r2,r2,65533
 508ed94:	2821883a 	mov	r16,r5
 508ed98:	d8cb883a 	add	r5,sp,r3
 508ed9c:	dc811c15 	stw	r18,1136(sp)
 508eda0:	dc411b15 	stw	r17,1132(sp)
 508eda4:	dfc11d15 	stw	ra,1140(sp)
 508eda8:	2025883a 	mov	r18,r4
 508edac:	d881030d 	sth	r2,1036(sp)
 508edb0:	dac11915 	stw	r11,1124(sp)
 508edb4:	da81038d 	sth	r10,1038(sp)
 508edb8:	da410715 	stw	r9,1052(sp)
 508edbc:	da010915 	stw	r8,1060(sp)
 508edc0:	dec10015 	stw	sp,1024(sp)
 508edc4:	dec10415 	stw	sp,1040(sp)
 508edc8:	d8c10215 	stw	r3,1032(sp)
 508edcc:	d8c10515 	stw	r3,1044(sp)
 508edd0:	d8010615 	stw	zero,1048(sp)
 508edd4:	508d8f80 	call	508d8f8 <___vfiprintf_internal_r>
 508edd8:	1023883a 	mov	r17,r2
 508eddc:	10000416 	blt	r2,zero,508edf0 <__sbprintf+0x80>
 508ede0:	d9410004 	addi	r5,sp,1024
 508ede4:	9009883a 	mov	r4,r18
 508ede8:	5088da00 	call	5088da0 <_fflush_r>
 508edec:	10000d1e 	bne	r2,zero,508ee24 <__sbprintf+0xb4>
 508edf0:	d881030b 	ldhu	r2,1036(sp)
 508edf4:	1080100c 	andi	r2,r2,64
 508edf8:	10000326 	beq	r2,zero,508ee08 <__sbprintf+0x98>
 508edfc:	8080030b 	ldhu	r2,12(r16)
 508ee00:	10801014 	ori	r2,r2,64
 508ee04:	8080030d 	sth	r2,12(r16)
 508ee08:	8805883a 	mov	r2,r17
 508ee0c:	dfc11d17 	ldw	ra,1140(sp)
 508ee10:	dc811c17 	ldw	r18,1136(sp)
 508ee14:	dc411b17 	ldw	r17,1132(sp)
 508ee18:	dc011a17 	ldw	r16,1128(sp)
 508ee1c:	dec11e04 	addi	sp,sp,1144
 508ee20:	f800283a 	ret
 508ee24:	047fffc4 	movi	r17,-1
 508ee28:	003ff106 	br	508edf0 <__alt_data_end+0xfffc0bf0>

0508ee2c <_write_r>:
 508ee2c:	defffd04 	addi	sp,sp,-12
 508ee30:	2805883a 	mov	r2,r5
 508ee34:	dc000015 	stw	r16,0(sp)
 508ee38:	040142b4 	movhi	r16,1290
 508ee3c:	dc400115 	stw	r17,4(sp)
 508ee40:	300b883a 	mov	r5,r6
 508ee44:	8425c704 	addi	r16,r16,-26852
 508ee48:	2023883a 	mov	r17,r4
 508ee4c:	380d883a 	mov	r6,r7
 508ee50:	1009883a 	mov	r4,r2
 508ee54:	dfc00215 	stw	ra,8(sp)
 508ee58:	80000015 	stw	zero,0(r16)
 508ee5c:	50932740 	call	5093274 <write>
 508ee60:	00ffffc4 	movi	r3,-1
 508ee64:	10c00526 	beq	r2,r3,508ee7c <_write_r+0x50>
 508ee68:	dfc00217 	ldw	ra,8(sp)
 508ee6c:	dc400117 	ldw	r17,4(sp)
 508ee70:	dc000017 	ldw	r16,0(sp)
 508ee74:	dec00304 	addi	sp,sp,12
 508ee78:	f800283a 	ret
 508ee7c:	80c00017 	ldw	r3,0(r16)
 508ee80:	183ff926 	beq	r3,zero,508ee68 <__alt_data_end+0xfffc0c68>
 508ee84:	88c00015 	stw	r3,0(r17)
 508ee88:	003ff706 	br	508ee68 <__alt_data_end+0xfffc0c68>

0508ee8c <_close_r>:
 508ee8c:	defffd04 	addi	sp,sp,-12
 508ee90:	dc000015 	stw	r16,0(sp)
 508ee94:	040142b4 	movhi	r16,1290
 508ee98:	dc400115 	stw	r17,4(sp)
 508ee9c:	8425c704 	addi	r16,r16,-26852
 508eea0:	2023883a 	mov	r17,r4
 508eea4:	2809883a 	mov	r4,r5
 508eea8:	dfc00215 	stw	ra,8(sp)
 508eeac:	80000015 	stw	zero,0(r16)
 508eeb0:	50928b40 	call	50928b4 <close>
 508eeb4:	00ffffc4 	movi	r3,-1
 508eeb8:	10c00526 	beq	r2,r3,508eed0 <_close_r+0x44>
 508eebc:	dfc00217 	ldw	ra,8(sp)
 508eec0:	dc400117 	ldw	r17,4(sp)
 508eec4:	dc000017 	ldw	r16,0(sp)
 508eec8:	dec00304 	addi	sp,sp,12
 508eecc:	f800283a 	ret
 508eed0:	80c00017 	ldw	r3,0(r16)
 508eed4:	183ff926 	beq	r3,zero,508eebc <__alt_data_end+0xfffc0cbc>
 508eed8:	88c00015 	stw	r3,0(r17)
 508eedc:	003ff706 	br	508eebc <__alt_data_end+0xfffc0cbc>

0508eee0 <_calloc_r>:
 508eee0:	298b383a 	mul	r5,r5,r6
 508eee4:	defffe04 	addi	sp,sp,-8
 508eee8:	dfc00115 	stw	ra,4(sp)
 508eeec:	dc000015 	stw	r16,0(sp)
 508eef0:	5089edc0 	call	5089edc <_malloc_r>
 508eef4:	10002926 	beq	r2,zero,508ef9c <_calloc_r+0xbc>
 508eef8:	11bfff17 	ldw	r6,-4(r2)
 508eefc:	1021883a 	mov	r16,r2
 508ef00:	00bfff04 	movi	r2,-4
 508ef04:	308c703a 	and	r6,r6,r2
 508ef08:	00c00904 	movi	r3,36
 508ef0c:	308d883a 	add	r6,r6,r2
 508ef10:	19801636 	bltu	r3,r6,508ef6c <_calloc_r+0x8c>
 508ef14:	008004c4 	movi	r2,19
 508ef18:	11800b2e 	bgeu	r2,r6,508ef48 <_calloc_r+0x68>
 508ef1c:	80000015 	stw	zero,0(r16)
 508ef20:	80000115 	stw	zero,4(r16)
 508ef24:	008006c4 	movi	r2,27
 508ef28:	11801a2e 	bgeu	r2,r6,508ef94 <_calloc_r+0xb4>
 508ef2c:	80000215 	stw	zero,8(r16)
 508ef30:	80000315 	stw	zero,12(r16)
 508ef34:	30c0151e 	bne	r6,r3,508ef8c <_calloc_r+0xac>
 508ef38:	80000415 	stw	zero,16(r16)
 508ef3c:	80800604 	addi	r2,r16,24
 508ef40:	80000515 	stw	zero,20(r16)
 508ef44:	00000106 	br	508ef4c <_calloc_r+0x6c>
 508ef48:	8005883a 	mov	r2,r16
 508ef4c:	10000015 	stw	zero,0(r2)
 508ef50:	10000115 	stw	zero,4(r2)
 508ef54:	10000215 	stw	zero,8(r2)
 508ef58:	8005883a 	mov	r2,r16
 508ef5c:	dfc00117 	ldw	ra,4(sp)
 508ef60:	dc000017 	ldw	r16,0(sp)
 508ef64:	dec00204 	addi	sp,sp,8
 508ef68:	f800283a 	ret
 508ef6c:	000b883a 	mov	r5,zero
 508ef70:	8009883a 	mov	r4,r16
 508ef74:	508aa700 	call	508aa70 <memset>
 508ef78:	8005883a 	mov	r2,r16
 508ef7c:	dfc00117 	ldw	ra,4(sp)
 508ef80:	dc000017 	ldw	r16,0(sp)
 508ef84:	dec00204 	addi	sp,sp,8
 508ef88:	f800283a 	ret
 508ef8c:	80800404 	addi	r2,r16,16
 508ef90:	003fee06 	br	508ef4c <__alt_data_end+0xfffc0d4c>
 508ef94:	80800204 	addi	r2,r16,8
 508ef98:	003fec06 	br	508ef4c <__alt_data_end+0xfffc0d4c>
 508ef9c:	0005883a 	mov	r2,zero
 508efa0:	003fee06 	br	508ef5c <__alt_data_end+0xfffc0d5c>

0508efa4 <_fclose_r>:
 508efa4:	28003926 	beq	r5,zero,508f08c <_fclose_r+0xe8>
 508efa8:	defffc04 	addi	sp,sp,-16
 508efac:	dc400115 	stw	r17,4(sp)
 508efb0:	dc000015 	stw	r16,0(sp)
 508efb4:	dfc00315 	stw	ra,12(sp)
 508efb8:	dc800215 	stw	r18,8(sp)
 508efbc:	2023883a 	mov	r17,r4
 508efc0:	2821883a 	mov	r16,r5
 508efc4:	20000226 	beq	r4,zero,508efd0 <_fclose_r+0x2c>
 508efc8:	20800e17 	ldw	r2,56(r4)
 508efcc:	10002726 	beq	r2,zero,508f06c <_fclose_r+0xc8>
 508efd0:	8080030f 	ldh	r2,12(r16)
 508efd4:	1000071e 	bne	r2,zero,508eff4 <_fclose_r+0x50>
 508efd8:	0005883a 	mov	r2,zero
 508efdc:	dfc00317 	ldw	ra,12(sp)
 508efe0:	dc800217 	ldw	r18,8(sp)
 508efe4:	dc400117 	ldw	r17,4(sp)
 508efe8:	dc000017 	ldw	r16,0(sp)
 508efec:	dec00404 	addi	sp,sp,16
 508eff0:	f800283a 	ret
 508eff4:	800b883a 	mov	r5,r16
 508eff8:	8809883a 	mov	r4,r17
 508effc:	5088b840 	call	5088b84 <__sflush_r>
 508f000:	1025883a 	mov	r18,r2
 508f004:	80800b17 	ldw	r2,44(r16)
 508f008:	10000426 	beq	r2,zero,508f01c <_fclose_r+0x78>
 508f00c:	81400717 	ldw	r5,28(r16)
 508f010:	8809883a 	mov	r4,r17
 508f014:	103ee83a 	callr	r2
 508f018:	10001616 	blt	r2,zero,508f074 <_fclose_r+0xd0>
 508f01c:	8080030b 	ldhu	r2,12(r16)
 508f020:	1080200c 	andi	r2,r2,128
 508f024:	1000151e 	bne	r2,zero,508f07c <_fclose_r+0xd8>
 508f028:	81400c17 	ldw	r5,48(r16)
 508f02c:	28000526 	beq	r5,zero,508f044 <_fclose_r+0xa0>
 508f030:	80801004 	addi	r2,r16,64
 508f034:	28800226 	beq	r5,r2,508f040 <_fclose_r+0x9c>
 508f038:	8809883a 	mov	r4,r17
 508f03c:	50892f00 	call	50892f0 <_free_r>
 508f040:	80000c15 	stw	zero,48(r16)
 508f044:	81401117 	ldw	r5,68(r16)
 508f048:	28000326 	beq	r5,zero,508f058 <_fclose_r+0xb4>
 508f04c:	8809883a 	mov	r4,r17
 508f050:	50892f00 	call	50892f0 <_free_r>
 508f054:	80001115 	stw	zero,68(r16)
 508f058:	508918c0 	call	508918c <__sfp_lock_acquire>
 508f05c:	8000030d 	sth	zero,12(r16)
 508f060:	50891900 	call	5089190 <__sfp_lock_release>
 508f064:	9005883a 	mov	r2,r18
 508f068:	003fdc06 	br	508efdc <__alt_data_end+0xfffc0ddc>
 508f06c:	508917c0 	call	508917c <__sinit>
 508f070:	003fd706 	br	508efd0 <__alt_data_end+0xfffc0dd0>
 508f074:	04bfffc4 	movi	r18,-1
 508f078:	003fe806 	br	508f01c <__alt_data_end+0xfffc0e1c>
 508f07c:	81400417 	ldw	r5,16(r16)
 508f080:	8809883a 	mov	r4,r17
 508f084:	50892f00 	call	50892f0 <_free_r>
 508f088:	003fe706 	br	508f028 <__alt_data_end+0xfffc0e28>
 508f08c:	0005883a 	mov	r2,zero
 508f090:	f800283a 	ret

0508f094 <fclose>:
 508f094:	00814274 	movhi	r2,1289
 508f098:	109ef004 	addi	r2,r2,31680
 508f09c:	200b883a 	mov	r5,r4
 508f0a0:	11000017 	ldw	r4,0(r2)
 508f0a4:	508efa41 	jmpi	508efa4 <_fclose_r>

0508f0a8 <__fputwc>:
 508f0a8:	defff804 	addi	sp,sp,-32
 508f0ac:	dcc00415 	stw	r19,16(sp)
 508f0b0:	dc800315 	stw	r18,12(sp)
 508f0b4:	dc000115 	stw	r16,4(sp)
 508f0b8:	dfc00715 	stw	ra,28(sp)
 508f0bc:	dd400615 	stw	r21,24(sp)
 508f0c0:	dd000515 	stw	r20,20(sp)
 508f0c4:	dc400215 	stw	r17,8(sp)
 508f0c8:	2027883a 	mov	r19,r4
 508f0cc:	2825883a 	mov	r18,r5
 508f0d0:	3021883a 	mov	r16,r6
 508f0d4:	5089ccc0 	call	5089ccc <__locale_mb_cur_max>
 508f0d8:	00c00044 	movi	r3,1
 508f0dc:	10c03e26 	beq	r2,r3,508f1d8 <__fputwc+0x130>
 508f0e0:	81c01704 	addi	r7,r16,92
 508f0e4:	900d883a 	mov	r6,r18
 508f0e8:	d80b883a 	mov	r5,sp
 508f0ec:	9809883a 	mov	r4,r19
 508f0f0:	508f5780 	call	508f578 <_wcrtomb_r>
 508f0f4:	1029883a 	mov	r20,r2
 508f0f8:	00bfffc4 	movi	r2,-1
 508f0fc:	a0802026 	beq	r20,r2,508f180 <__fputwc+0xd8>
 508f100:	d9400003 	ldbu	r5,0(sp)
 508f104:	a0001c26 	beq	r20,zero,508f178 <__fputwc+0xd0>
 508f108:	0023883a 	mov	r17,zero
 508f10c:	05400284 	movi	r21,10
 508f110:	00000906 	br	508f138 <__fputwc+0x90>
 508f114:	80800017 	ldw	r2,0(r16)
 508f118:	11400005 	stb	r5,0(r2)
 508f11c:	80c00017 	ldw	r3,0(r16)
 508f120:	18c00044 	addi	r3,r3,1
 508f124:	80c00015 	stw	r3,0(r16)
 508f128:	8c400044 	addi	r17,r17,1
 508f12c:	dc45883a 	add	r2,sp,r17
 508f130:	8d00112e 	bgeu	r17,r20,508f178 <__fputwc+0xd0>
 508f134:	11400003 	ldbu	r5,0(r2)
 508f138:	80c00217 	ldw	r3,8(r16)
 508f13c:	18ffffc4 	addi	r3,r3,-1
 508f140:	80c00215 	stw	r3,8(r16)
 508f144:	183ff30e 	bge	r3,zero,508f114 <__alt_data_end+0xfffc0f14>
 508f148:	80800617 	ldw	r2,24(r16)
 508f14c:	18801916 	blt	r3,r2,508f1b4 <__fputwc+0x10c>
 508f150:	80800017 	ldw	r2,0(r16)
 508f154:	11400005 	stb	r5,0(r2)
 508f158:	80800017 	ldw	r2,0(r16)
 508f15c:	10c00003 	ldbu	r3,0(r2)
 508f160:	10800044 	addi	r2,r2,1
 508f164:	1d402326 	beq	r3,r21,508f1f4 <__fputwc+0x14c>
 508f168:	80800015 	stw	r2,0(r16)
 508f16c:	8c400044 	addi	r17,r17,1
 508f170:	dc45883a 	add	r2,sp,r17
 508f174:	8d3fef36 	bltu	r17,r20,508f134 <__alt_data_end+0xfffc0f34>
 508f178:	9005883a 	mov	r2,r18
 508f17c:	00000406 	br	508f190 <__fputwc+0xe8>
 508f180:	80c0030b 	ldhu	r3,12(r16)
 508f184:	a005883a 	mov	r2,r20
 508f188:	18c01014 	ori	r3,r3,64
 508f18c:	80c0030d 	sth	r3,12(r16)
 508f190:	dfc00717 	ldw	ra,28(sp)
 508f194:	dd400617 	ldw	r21,24(sp)
 508f198:	dd000517 	ldw	r20,20(sp)
 508f19c:	dcc00417 	ldw	r19,16(sp)
 508f1a0:	dc800317 	ldw	r18,12(sp)
 508f1a4:	dc400217 	ldw	r17,8(sp)
 508f1a8:	dc000117 	ldw	r16,4(sp)
 508f1ac:	dec00804 	addi	sp,sp,32
 508f1b0:	f800283a 	ret
 508f1b4:	800d883a 	mov	r6,r16
 508f1b8:	29403fcc 	andi	r5,r5,255
 508f1bc:	9809883a 	mov	r4,r19
 508f1c0:	508f4200 	call	508f420 <__swbuf_r>
 508f1c4:	10bfffe0 	cmpeqi	r2,r2,-1
 508f1c8:	10803fcc 	andi	r2,r2,255
 508f1cc:	103fd626 	beq	r2,zero,508f128 <__alt_data_end+0xfffc0f28>
 508f1d0:	00bfffc4 	movi	r2,-1
 508f1d4:	003fee06 	br	508f190 <__alt_data_end+0xfffc0f90>
 508f1d8:	90ffffc4 	addi	r3,r18,-1
 508f1dc:	01003f84 	movi	r4,254
 508f1e0:	20ffbf36 	bltu	r4,r3,508f0e0 <__alt_data_end+0xfffc0ee0>
 508f1e4:	900b883a 	mov	r5,r18
 508f1e8:	dc800005 	stb	r18,0(sp)
 508f1ec:	1029883a 	mov	r20,r2
 508f1f0:	003fc506 	br	508f108 <__alt_data_end+0xfffc0f08>
 508f1f4:	800d883a 	mov	r6,r16
 508f1f8:	a80b883a 	mov	r5,r21
 508f1fc:	9809883a 	mov	r4,r19
 508f200:	508f4200 	call	508f420 <__swbuf_r>
 508f204:	10bfffe0 	cmpeqi	r2,r2,-1
 508f208:	003fef06 	br	508f1c8 <__alt_data_end+0xfffc0fc8>

0508f20c <_fputwc_r>:
 508f20c:	3080030b 	ldhu	r2,12(r6)
 508f210:	10c8000c 	andi	r3,r2,8192
 508f214:	1800051e 	bne	r3,zero,508f22c <_fputwc_r+0x20>
 508f218:	30c01917 	ldw	r3,100(r6)
 508f21c:	10880014 	ori	r2,r2,8192
 508f220:	3080030d 	sth	r2,12(r6)
 508f224:	18880014 	ori	r2,r3,8192
 508f228:	30801915 	stw	r2,100(r6)
 508f22c:	508f0a81 	jmpi	508f0a8 <__fputwc>

0508f230 <fputwc>:
 508f230:	00814274 	movhi	r2,1289
 508f234:	defffc04 	addi	sp,sp,-16
 508f238:	109ef004 	addi	r2,r2,31680
 508f23c:	dc000115 	stw	r16,4(sp)
 508f240:	14000017 	ldw	r16,0(r2)
 508f244:	dc400215 	stw	r17,8(sp)
 508f248:	dfc00315 	stw	ra,12(sp)
 508f24c:	2023883a 	mov	r17,r4
 508f250:	80000226 	beq	r16,zero,508f25c <fputwc+0x2c>
 508f254:	80800e17 	ldw	r2,56(r16)
 508f258:	10001026 	beq	r2,zero,508f29c <fputwc+0x6c>
 508f25c:	2880030b 	ldhu	r2,12(r5)
 508f260:	10c8000c 	andi	r3,r2,8192
 508f264:	1800051e 	bne	r3,zero,508f27c <fputwc+0x4c>
 508f268:	28c01917 	ldw	r3,100(r5)
 508f26c:	10880014 	ori	r2,r2,8192
 508f270:	2880030d 	sth	r2,12(r5)
 508f274:	18880014 	ori	r2,r3,8192
 508f278:	28801915 	stw	r2,100(r5)
 508f27c:	280d883a 	mov	r6,r5
 508f280:	8009883a 	mov	r4,r16
 508f284:	880b883a 	mov	r5,r17
 508f288:	dfc00317 	ldw	ra,12(sp)
 508f28c:	dc400217 	ldw	r17,8(sp)
 508f290:	dc000117 	ldw	r16,4(sp)
 508f294:	dec00404 	addi	sp,sp,16
 508f298:	508f0a81 	jmpi	508f0a8 <__fputwc>
 508f29c:	8009883a 	mov	r4,r16
 508f2a0:	d9400015 	stw	r5,0(sp)
 508f2a4:	508917c0 	call	508917c <__sinit>
 508f2a8:	d9400017 	ldw	r5,0(sp)
 508f2ac:	003feb06 	br	508f25c <__alt_data_end+0xfffc105c>

0508f2b0 <_fstat_r>:
 508f2b0:	defffd04 	addi	sp,sp,-12
 508f2b4:	2805883a 	mov	r2,r5
 508f2b8:	dc000015 	stw	r16,0(sp)
 508f2bc:	040142b4 	movhi	r16,1290
 508f2c0:	dc400115 	stw	r17,4(sp)
 508f2c4:	8425c704 	addi	r16,r16,-26852
 508f2c8:	2023883a 	mov	r17,r4
 508f2cc:	300b883a 	mov	r5,r6
 508f2d0:	1009883a 	mov	r4,r2
 508f2d4:	dfc00215 	stw	ra,8(sp)
 508f2d8:	80000015 	stw	zero,0(r16)
 508f2dc:	50929ec0 	call	50929ec <fstat>
 508f2e0:	00ffffc4 	movi	r3,-1
 508f2e4:	10c00526 	beq	r2,r3,508f2fc <_fstat_r+0x4c>
 508f2e8:	dfc00217 	ldw	ra,8(sp)
 508f2ec:	dc400117 	ldw	r17,4(sp)
 508f2f0:	dc000017 	ldw	r16,0(sp)
 508f2f4:	dec00304 	addi	sp,sp,12
 508f2f8:	f800283a 	ret
 508f2fc:	80c00017 	ldw	r3,0(r16)
 508f300:	183ff926 	beq	r3,zero,508f2e8 <__alt_data_end+0xfffc10e8>
 508f304:	88c00015 	stw	r3,0(r17)
 508f308:	003ff706 	br	508f2e8 <__alt_data_end+0xfffc10e8>

0508f30c <_isatty_r>:
 508f30c:	defffd04 	addi	sp,sp,-12
 508f310:	dc000015 	stw	r16,0(sp)
 508f314:	040142b4 	movhi	r16,1290
 508f318:	dc400115 	stw	r17,4(sp)
 508f31c:	8425c704 	addi	r16,r16,-26852
 508f320:	2023883a 	mov	r17,r4
 508f324:	2809883a 	mov	r4,r5
 508f328:	dfc00215 	stw	ra,8(sp)
 508f32c:	80000015 	stw	zero,0(r16)
 508f330:	5092c580 	call	5092c58 <isatty>
 508f334:	00ffffc4 	movi	r3,-1
 508f338:	10c00526 	beq	r2,r3,508f350 <_isatty_r+0x44>
 508f33c:	dfc00217 	ldw	ra,8(sp)
 508f340:	dc400117 	ldw	r17,4(sp)
 508f344:	dc000017 	ldw	r16,0(sp)
 508f348:	dec00304 	addi	sp,sp,12
 508f34c:	f800283a 	ret
 508f350:	80c00017 	ldw	r3,0(r16)
 508f354:	183ff926 	beq	r3,zero,508f33c <__alt_data_end+0xfffc113c>
 508f358:	88c00015 	stw	r3,0(r17)
 508f35c:	003ff706 	br	508f33c <__alt_data_end+0xfffc113c>

0508f360 <_lseek_r>:
 508f360:	defffd04 	addi	sp,sp,-12
 508f364:	2805883a 	mov	r2,r5
 508f368:	dc000015 	stw	r16,0(sp)
 508f36c:	040142b4 	movhi	r16,1290
 508f370:	dc400115 	stw	r17,4(sp)
 508f374:	300b883a 	mov	r5,r6
 508f378:	8425c704 	addi	r16,r16,-26852
 508f37c:	2023883a 	mov	r17,r4
 508f380:	380d883a 	mov	r6,r7
 508f384:	1009883a 	mov	r4,r2
 508f388:	dfc00215 	stw	ra,8(sp)
 508f38c:	80000015 	stw	zero,0(r16)
 508f390:	5092e240 	call	5092e24 <lseek>
 508f394:	00ffffc4 	movi	r3,-1
 508f398:	10c00526 	beq	r2,r3,508f3b0 <_lseek_r+0x50>
 508f39c:	dfc00217 	ldw	ra,8(sp)
 508f3a0:	dc400117 	ldw	r17,4(sp)
 508f3a4:	dc000017 	ldw	r16,0(sp)
 508f3a8:	dec00304 	addi	sp,sp,12
 508f3ac:	f800283a 	ret
 508f3b0:	80c00017 	ldw	r3,0(r16)
 508f3b4:	183ff926 	beq	r3,zero,508f39c <__alt_data_end+0xfffc119c>
 508f3b8:	88c00015 	stw	r3,0(r17)
 508f3bc:	003ff706 	br	508f39c <__alt_data_end+0xfffc119c>

0508f3c0 <_read_r>:
 508f3c0:	defffd04 	addi	sp,sp,-12
 508f3c4:	2805883a 	mov	r2,r5
 508f3c8:	dc000015 	stw	r16,0(sp)
 508f3cc:	040142b4 	movhi	r16,1290
 508f3d0:	dc400115 	stw	r17,4(sp)
 508f3d4:	300b883a 	mov	r5,r6
 508f3d8:	8425c704 	addi	r16,r16,-26852
 508f3dc:	2023883a 	mov	r17,r4
 508f3e0:	380d883a 	mov	r6,r7
 508f3e4:	1009883a 	mov	r4,r2
 508f3e8:	dfc00215 	stw	ra,8(sp)
 508f3ec:	80000015 	stw	zero,0(r16)
 508f3f0:	5092ff80 	call	5092ff8 <read>
 508f3f4:	00ffffc4 	movi	r3,-1
 508f3f8:	10c00526 	beq	r2,r3,508f410 <_read_r+0x50>
 508f3fc:	dfc00217 	ldw	ra,8(sp)
 508f400:	dc400117 	ldw	r17,4(sp)
 508f404:	dc000017 	ldw	r16,0(sp)
 508f408:	dec00304 	addi	sp,sp,12
 508f40c:	f800283a 	ret
 508f410:	80c00017 	ldw	r3,0(r16)
 508f414:	183ff926 	beq	r3,zero,508f3fc <__alt_data_end+0xfffc11fc>
 508f418:	88c00015 	stw	r3,0(r17)
 508f41c:	003ff706 	br	508f3fc <__alt_data_end+0xfffc11fc>

0508f420 <__swbuf_r>:
 508f420:	defffb04 	addi	sp,sp,-20
 508f424:	dcc00315 	stw	r19,12(sp)
 508f428:	dc800215 	stw	r18,8(sp)
 508f42c:	dc000015 	stw	r16,0(sp)
 508f430:	dfc00415 	stw	ra,16(sp)
 508f434:	dc400115 	stw	r17,4(sp)
 508f438:	2025883a 	mov	r18,r4
 508f43c:	2827883a 	mov	r19,r5
 508f440:	3021883a 	mov	r16,r6
 508f444:	20000226 	beq	r4,zero,508f450 <__swbuf_r+0x30>
 508f448:	20800e17 	ldw	r2,56(r4)
 508f44c:	10004226 	beq	r2,zero,508f558 <__swbuf_r+0x138>
 508f450:	80800617 	ldw	r2,24(r16)
 508f454:	8100030b 	ldhu	r4,12(r16)
 508f458:	80800215 	stw	r2,8(r16)
 508f45c:	2080020c 	andi	r2,r4,8
 508f460:	10003626 	beq	r2,zero,508f53c <__swbuf_r+0x11c>
 508f464:	80c00417 	ldw	r3,16(r16)
 508f468:	18003426 	beq	r3,zero,508f53c <__swbuf_r+0x11c>
 508f46c:	2088000c 	andi	r2,r4,8192
 508f470:	9c403fcc 	andi	r17,r19,255
 508f474:	10001a26 	beq	r2,zero,508f4e0 <__swbuf_r+0xc0>
 508f478:	80800017 	ldw	r2,0(r16)
 508f47c:	81000517 	ldw	r4,20(r16)
 508f480:	10c7c83a 	sub	r3,r2,r3
 508f484:	1900200e 	bge	r3,r4,508f508 <__swbuf_r+0xe8>
 508f488:	18c00044 	addi	r3,r3,1
 508f48c:	81000217 	ldw	r4,8(r16)
 508f490:	11400044 	addi	r5,r2,1
 508f494:	81400015 	stw	r5,0(r16)
 508f498:	213fffc4 	addi	r4,r4,-1
 508f49c:	81000215 	stw	r4,8(r16)
 508f4a0:	14c00005 	stb	r19,0(r2)
 508f4a4:	80800517 	ldw	r2,20(r16)
 508f4a8:	10c01e26 	beq	r2,r3,508f524 <__swbuf_r+0x104>
 508f4ac:	8080030b 	ldhu	r2,12(r16)
 508f4b0:	1080004c 	andi	r2,r2,1
 508f4b4:	10000226 	beq	r2,zero,508f4c0 <__swbuf_r+0xa0>
 508f4b8:	00800284 	movi	r2,10
 508f4bc:	88801926 	beq	r17,r2,508f524 <__swbuf_r+0x104>
 508f4c0:	8805883a 	mov	r2,r17
 508f4c4:	dfc00417 	ldw	ra,16(sp)
 508f4c8:	dcc00317 	ldw	r19,12(sp)
 508f4cc:	dc800217 	ldw	r18,8(sp)
 508f4d0:	dc400117 	ldw	r17,4(sp)
 508f4d4:	dc000017 	ldw	r16,0(sp)
 508f4d8:	dec00504 	addi	sp,sp,20
 508f4dc:	f800283a 	ret
 508f4e0:	81401917 	ldw	r5,100(r16)
 508f4e4:	00b7ffc4 	movi	r2,-8193
 508f4e8:	21080014 	ori	r4,r4,8192
 508f4ec:	2884703a 	and	r2,r5,r2
 508f4f0:	80801915 	stw	r2,100(r16)
 508f4f4:	80800017 	ldw	r2,0(r16)
 508f4f8:	8100030d 	sth	r4,12(r16)
 508f4fc:	81000517 	ldw	r4,20(r16)
 508f500:	10c7c83a 	sub	r3,r2,r3
 508f504:	193fe016 	blt	r3,r4,508f488 <__alt_data_end+0xfffc1288>
 508f508:	800b883a 	mov	r5,r16
 508f50c:	9009883a 	mov	r4,r18
 508f510:	5088da00 	call	5088da0 <_fflush_r>
 508f514:	1000071e 	bne	r2,zero,508f534 <__swbuf_r+0x114>
 508f518:	80800017 	ldw	r2,0(r16)
 508f51c:	00c00044 	movi	r3,1
 508f520:	003fda06 	br	508f48c <__alt_data_end+0xfffc128c>
 508f524:	800b883a 	mov	r5,r16
 508f528:	9009883a 	mov	r4,r18
 508f52c:	5088da00 	call	5088da0 <_fflush_r>
 508f530:	103fe326 	beq	r2,zero,508f4c0 <__alt_data_end+0xfffc12c0>
 508f534:	00bfffc4 	movi	r2,-1
 508f538:	003fe206 	br	508f4c4 <__alt_data_end+0xfffc12c4>
 508f53c:	800b883a 	mov	r5,r16
 508f540:	9009883a 	mov	r4,r18
 508f544:	50871a80 	call	50871a8 <__swsetup_r>
 508f548:	103ffa1e 	bne	r2,zero,508f534 <__alt_data_end+0xfffc1334>
 508f54c:	8100030b 	ldhu	r4,12(r16)
 508f550:	80c00417 	ldw	r3,16(r16)
 508f554:	003fc506 	br	508f46c <__alt_data_end+0xfffc126c>
 508f558:	508917c0 	call	508917c <__sinit>
 508f55c:	003fbc06 	br	508f450 <__alt_data_end+0xfffc1250>

0508f560 <__swbuf>:
 508f560:	00814274 	movhi	r2,1289
 508f564:	109ef004 	addi	r2,r2,31680
 508f568:	280d883a 	mov	r6,r5
 508f56c:	200b883a 	mov	r5,r4
 508f570:	11000017 	ldw	r4,0(r2)
 508f574:	508f4201 	jmpi	508f420 <__swbuf_r>

0508f578 <_wcrtomb_r>:
 508f578:	defff604 	addi	sp,sp,-40
 508f57c:	00814274 	movhi	r2,1289
 508f580:	dc800815 	stw	r18,32(sp)
 508f584:	dc400715 	stw	r17,28(sp)
 508f588:	dc000615 	stw	r16,24(sp)
 508f58c:	109ef404 	addi	r2,r2,31696
 508f590:	dfc00915 	stw	ra,36(sp)
 508f594:	2021883a 	mov	r16,r4
 508f598:	3823883a 	mov	r17,r7
 508f59c:	14800017 	ldw	r18,0(r2)
 508f5a0:	28001426 	beq	r5,zero,508f5f4 <_wcrtomb_r+0x7c>
 508f5a4:	d9400415 	stw	r5,16(sp)
 508f5a8:	d9800515 	stw	r6,20(sp)
 508f5ac:	5089cc00 	call	5089cc0 <__locale_charset>
 508f5b0:	d9800517 	ldw	r6,20(sp)
 508f5b4:	d9400417 	ldw	r5,16(sp)
 508f5b8:	100f883a 	mov	r7,r2
 508f5bc:	dc400015 	stw	r17,0(sp)
 508f5c0:	8009883a 	mov	r4,r16
 508f5c4:	903ee83a 	callr	r18
 508f5c8:	00ffffc4 	movi	r3,-1
 508f5cc:	10c0031e 	bne	r2,r3,508f5dc <_wcrtomb_r+0x64>
 508f5d0:	88000015 	stw	zero,0(r17)
 508f5d4:	00c02284 	movi	r3,138
 508f5d8:	80c00015 	stw	r3,0(r16)
 508f5dc:	dfc00917 	ldw	ra,36(sp)
 508f5e0:	dc800817 	ldw	r18,32(sp)
 508f5e4:	dc400717 	ldw	r17,28(sp)
 508f5e8:	dc000617 	ldw	r16,24(sp)
 508f5ec:	dec00a04 	addi	sp,sp,40
 508f5f0:	f800283a 	ret
 508f5f4:	5089cc00 	call	5089cc0 <__locale_charset>
 508f5f8:	100f883a 	mov	r7,r2
 508f5fc:	dc400015 	stw	r17,0(sp)
 508f600:	000d883a 	mov	r6,zero
 508f604:	d9400104 	addi	r5,sp,4
 508f608:	8009883a 	mov	r4,r16
 508f60c:	903ee83a 	callr	r18
 508f610:	003fed06 	br	508f5c8 <__alt_data_end+0xfffc13c8>

0508f614 <wcrtomb>:
 508f614:	defff604 	addi	sp,sp,-40
 508f618:	00814274 	movhi	r2,1289
 508f61c:	dc800615 	stw	r18,24(sp)
 508f620:	dc400515 	stw	r17,20(sp)
 508f624:	109ef004 	addi	r2,r2,31680
 508f628:	dfc00915 	stw	ra,36(sp)
 508f62c:	dd000815 	stw	r20,32(sp)
 508f630:	dcc00715 	stw	r19,28(sp)
 508f634:	dc000415 	stw	r16,16(sp)
 508f638:	3025883a 	mov	r18,r6
 508f63c:	14400017 	ldw	r17,0(r2)
 508f640:	20001926 	beq	r4,zero,508f6a8 <wcrtomb+0x94>
 508f644:	00814274 	movhi	r2,1289
 508f648:	109ef404 	addi	r2,r2,31696
 508f64c:	15000017 	ldw	r20,0(r2)
 508f650:	2021883a 	mov	r16,r4
 508f654:	2827883a 	mov	r19,r5
 508f658:	5089cc00 	call	5089cc0 <__locale_charset>
 508f65c:	100f883a 	mov	r7,r2
 508f660:	dc800015 	stw	r18,0(sp)
 508f664:	980d883a 	mov	r6,r19
 508f668:	800b883a 	mov	r5,r16
 508f66c:	8809883a 	mov	r4,r17
 508f670:	a03ee83a 	callr	r20
 508f674:	00ffffc4 	movi	r3,-1
 508f678:	10c0031e 	bne	r2,r3,508f688 <wcrtomb+0x74>
 508f67c:	90000015 	stw	zero,0(r18)
 508f680:	00c02284 	movi	r3,138
 508f684:	88c00015 	stw	r3,0(r17)
 508f688:	dfc00917 	ldw	ra,36(sp)
 508f68c:	dd000817 	ldw	r20,32(sp)
 508f690:	dcc00717 	ldw	r19,28(sp)
 508f694:	dc800617 	ldw	r18,24(sp)
 508f698:	dc400517 	ldw	r17,20(sp)
 508f69c:	dc000417 	ldw	r16,16(sp)
 508f6a0:	dec00a04 	addi	sp,sp,40
 508f6a4:	f800283a 	ret
 508f6a8:	00814274 	movhi	r2,1289
 508f6ac:	109ef404 	addi	r2,r2,31696
 508f6b0:	14000017 	ldw	r16,0(r2)
 508f6b4:	5089cc00 	call	5089cc0 <__locale_charset>
 508f6b8:	100f883a 	mov	r7,r2
 508f6bc:	dc800015 	stw	r18,0(sp)
 508f6c0:	000d883a 	mov	r6,zero
 508f6c4:	d9400104 	addi	r5,sp,4
 508f6c8:	8809883a 	mov	r4,r17
 508f6cc:	803ee83a 	callr	r16
 508f6d0:	003fe806 	br	508f674 <__alt_data_end+0xfffc1474>

0508f6d4 <__ascii_wctomb>:
 508f6d4:	28000526 	beq	r5,zero,508f6ec <__ascii_wctomb+0x18>
 508f6d8:	00803fc4 	movi	r2,255
 508f6dc:	11800536 	bltu	r2,r6,508f6f4 <__ascii_wctomb+0x20>
 508f6e0:	29800005 	stb	r6,0(r5)
 508f6e4:	00800044 	movi	r2,1
 508f6e8:	f800283a 	ret
 508f6ec:	0005883a 	mov	r2,zero
 508f6f0:	f800283a 	ret
 508f6f4:	00802284 	movi	r2,138
 508f6f8:	20800015 	stw	r2,0(r4)
 508f6fc:	00bfffc4 	movi	r2,-1
 508f700:	f800283a 	ret

0508f704 <_wctomb_r>:
 508f704:	00814274 	movhi	r2,1289
 508f708:	defff904 	addi	sp,sp,-28
 508f70c:	109ef404 	addi	r2,r2,31696
 508f710:	dfc00615 	stw	ra,24(sp)
 508f714:	dc400515 	stw	r17,20(sp)
 508f718:	dc000415 	stw	r16,16(sp)
 508f71c:	3823883a 	mov	r17,r7
 508f720:	14000017 	ldw	r16,0(r2)
 508f724:	d9000115 	stw	r4,4(sp)
 508f728:	d9400215 	stw	r5,8(sp)
 508f72c:	d9800315 	stw	r6,12(sp)
 508f730:	5089cc00 	call	5089cc0 <__locale_charset>
 508f734:	d9800317 	ldw	r6,12(sp)
 508f738:	d9400217 	ldw	r5,8(sp)
 508f73c:	d9000117 	ldw	r4,4(sp)
 508f740:	100f883a 	mov	r7,r2
 508f744:	dc400015 	stw	r17,0(sp)
 508f748:	803ee83a 	callr	r16
 508f74c:	dfc00617 	ldw	ra,24(sp)
 508f750:	dc400517 	ldw	r17,20(sp)
 508f754:	dc000417 	ldw	r16,16(sp)
 508f758:	dec00704 	addi	sp,sp,28
 508f75c:	f800283a 	ret

0508f760 <__udivdi3>:
 508f760:	defff504 	addi	sp,sp,-44
 508f764:	dcc00415 	stw	r19,16(sp)
 508f768:	dc000115 	stw	r16,4(sp)
 508f76c:	dfc00a15 	stw	ra,40(sp)
 508f770:	df000915 	stw	fp,36(sp)
 508f774:	ddc00815 	stw	r23,32(sp)
 508f778:	dd800715 	stw	r22,28(sp)
 508f77c:	dd400615 	stw	r21,24(sp)
 508f780:	dd000515 	stw	r20,20(sp)
 508f784:	dc800315 	stw	r18,12(sp)
 508f788:	dc400215 	stw	r17,8(sp)
 508f78c:	2027883a 	mov	r19,r4
 508f790:	2821883a 	mov	r16,r5
 508f794:	3800411e 	bne	r7,zero,508f89c <__udivdi3+0x13c>
 508f798:	3023883a 	mov	r17,r6
 508f79c:	2025883a 	mov	r18,r4
 508f7a0:	2980522e 	bgeu	r5,r6,508f8ec <__udivdi3+0x18c>
 508f7a4:	00bfffd4 	movui	r2,65535
 508f7a8:	282d883a 	mov	r22,r5
 508f7ac:	1180a836 	bltu	r2,r6,508fa50 <__udivdi3+0x2f0>
 508f7b0:	00803fc4 	movi	r2,255
 508f7b4:	1185803a 	cmpltu	r2,r2,r6
 508f7b8:	100490fa 	slli	r2,r2,3
 508f7bc:	3086d83a 	srl	r3,r6,r2
 508f7c0:	01014274 	movhi	r4,1289
 508f7c4:	2117f504 	addi	r4,r4,24532
 508f7c8:	20c7883a 	add	r3,r4,r3
 508f7cc:	18c00003 	ldbu	r3,0(r3)
 508f7d0:	1885883a 	add	r2,r3,r2
 508f7d4:	00c00804 	movi	r3,32
 508f7d8:	1887c83a 	sub	r3,r3,r2
 508f7dc:	18000526 	beq	r3,zero,508f7f4 <__udivdi3+0x94>
 508f7e0:	80e0983a 	sll	r16,r16,r3
 508f7e4:	9884d83a 	srl	r2,r19,r2
 508f7e8:	30e2983a 	sll	r17,r6,r3
 508f7ec:	98e4983a 	sll	r18,r19,r3
 508f7f0:	142cb03a 	or	r22,r2,r16
 508f7f4:	882ad43a 	srli	r21,r17,16
 508f7f8:	b009883a 	mov	r4,r22
 508f7fc:	8d3fffcc 	andi	r20,r17,65535
 508f800:	a80b883a 	mov	r5,r21
 508f804:	50828e80 	call	50828e8 <__umodsi3>
 508f808:	b009883a 	mov	r4,r22
 508f80c:	a80b883a 	mov	r5,r21
 508f810:	1027883a 	mov	r19,r2
 508f814:	50828840 	call	5082884 <__udivsi3>
 508f818:	102d883a 	mov	r22,r2
 508f81c:	9826943a 	slli	r19,r19,16
 508f820:	9004d43a 	srli	r2,r18,16
 508f824:	a5a1383a 	mul	r16,r20,r22
 508f828:	14c4b03a 	or	r2,r2,r19
 508f82c:	1400052e 	bgeu	r2,r16,508f844 <__udivdi3+0xe4>
 508f830:	1445883a 	add	r2,r2,r17
 508f834:	b0ffffc4 	addi	r3,r22,-1
 508f838:	14400136 	bltu	r2,r17,508f840 <__udivdi3+0xe0>
 508f83c:	14012336 	bltu	r2,r16,508fccc <__udivdi3+0x56c>
 508f840:	182d883a 	mov	r22,r3
 508f844:	1421c83a 	sub	r16,r2,r16
 508f848:	a80b883a 	mov	r5,r21
 508f84c:	8009883a 	mov	r4,r16
 508f850:	50828e80 	call	50828e8 <__umodsi3>
 508f854:	1027883a 	mov	r19,r2
 508f858:	a80b883a 	mov	r5,r21
 508f85c:	8009883a 	mov	r4,r16
 508f860:	50828840 	call	5082884 <__udivsi3>
 508f864:	9826943a 	slli	r19,r19,16
 508f868:	a0a9383a 	mul	r20,r20,r2
 508f86c:	94bfffcc 	andi	r18,r18,65535
 508f870:	94e4b03a 	or	r18,r18,r19
 508f874:	9500052e 	bgeu	r18,r20,508f88c <__udivdi3+0x12c>
 508f878:	8ca5883a 	add	r18,r17,r18
 508f87c:	10ffffc4 	addi	r3,r2,-1
 508f880:	9440f136 	bltu	r18,r17,508fc48 <__udivdi3+0x4e8>
 508f884:	9500f02e 	bgeu	r18,r20,508fc48 <__udivdi3+0x4e8>
 508f888:	10bfff84 	addi	r2,r2,-2
 508f88c:	b00c943a 	slli	r6,r22,16
 508f890:	0007883a 	mov	r3,zero
 508f894:	3084b03a 	or	r2,r6,r2
 508f898:	00005906 	br	508fa00 <__udivdi3+0x2a0>
 508f89c:	29c05636 	bltu	r5,r7,508f9f8 <__udivdi3+0x298>
 508f8a0:	00bfffd4 	movui	r2,65535
 508f8a4:	11c0622e 	bgeu	r2,r7,508fa30 <__udivdi3+0x2d0>
 508f8a8:	00804034 	movhi	r2,256
 508f8ac:	10bfffc4 	addi	r2,r2,-1
 508f8b0:	11c0ee36 	bltu	r2,r7,508fc6c <__udivdi3+0x50c>
 508f8b4:	00800404 	movi	r2,16
 508f8b8:	3886d83a 	srl	r3,r7,r2
 508f8bc:	01014274 	movhi	r4,1289
 508f8c0:	2117f504 	addi	r4,r4,24532
 508f8c4:	20c7883a 	add	r3,r4,r3
 508f8c8:	18c00003 	ldbu	r3,0(r3)
 508f8cc:	05400804 	movi	r21,32
 508f8d0:	1885883a 	add	r2,r3,r2
 508f8d4:	a8abc83a 	sub	r21,r21,r2
 508f8d8:	a800621e 	bne	r21,zero,508fa64 <__udivdi3+0x304>
 508f8dc:	3c00e936 	bltu	r7,r16,508fc84 <__udivdi3+0x524>
 508f8e0:	9985403a 	cmpgeu	r2,r19,r6
 508f8e4:	0007883a 	mov	r3,zero
 508f8e8:	00004506 	br	508fa00 <__udivdi3+0x2a0>
 508f8ec:	3000041e 	bne	r6,zero,508f900 <__udivdi3+0x1a0>
 508f8f0:	000b883a 	mov	r5,zero
 508f8f4:	01000044 	movi	r4,1
 508f8f8:	50828840 	call	5082884 <__udivsi3>
 508f8fc:	1023883a 	mov	r17,r2
 508f900:	00bfffd4 	movui	r2,65535
 508f904:	14404e2e 	bgeu	r2,r17,508fa40 <__udivdi3+0x2e0>
 508f908:	00804034 	movhi	r2,256
 508f90c:	10bfffc4 	addi	r2,r2,-1
 508f910:	1440d836 	bltu	r2,r17,508fc74 <__udivdi3+0x514>
 508f914:	00800404 	movi	r2,16
 508f918:	8886d83a 	srl	r3,r17,r2
 508f91c:	01014274 	movhi	r4,1289
 508f920:	2117f504 	addi	r4,r4,24532
 508f924:	20c7883a 	add	r3,r4,r3
 508f928:	18c00003 	ldbu	r3,0(r3)
 508f92c:	1885883a 	add	r2,r3,r2
 508f930:	00c00804 	movi	r3,32
 508f934:	1887c83a 	sub	r3,r3,r2
 508f938:	18008f1e 	bne	r3,zero,508fb78 <__udivdi3+0x418>
 508f93c:	882ad43a 	srli	r21,r17,16
 508f940:	8461c83a 	sub	r16,r16,r17
 508f944:	8d3fffcc 	andi	r20,r17,65535
 508f948:	00c00044 	movi	r3,1
 508f94c:	8009883a 	mov	r4,r16
 508f950:	a80b883a 	mov	r5,r21
 508f954:	d8c00015 	stw	r3,0(sp)
 508f958:	50828e80 	call	50828e8 <__umodsi3>
 508f95c:	8009883a 	mov	r4,r16
 508f960:	a80b883a 	mov	r5,r21
 508f964:	1027883a 	mov	r19,r2
 508f968:	50828840 	call	5082884 <__udivsi3>
 508f96c:	9826943a 	slli	r19,r19,16
 508f970:	9008d43a 	srli	r4,r18,16
 508f974:	1521383a 	mul	r16,r2,r20
 508f978:	102d883a 	mov	r22,r2
 508f97c:	24c8b03a 	or	r4,r4,r19
 508f980:	d8c00017 	ldw	r3,0(sp)
 508f984:	2400052e 	bgeu	r4,r16,508f99c <__udivdi3+0x23c>
 508f988:	2449883a 	add	r4,r4,r17
 508f98c:	b0bfffc4 	addi	r2,r22,-1
 508f990:	24400136 	bltu	r4,r17,508f998 <__udivdi3+0x238>
 508f994:	2400ca36 	bltu	r4,r16,508fcc0 <__udivdi3+0x560>
 508f998:	102d883a 	mov	r22,r2
 508f99c:	2421c83a 	sub	r16,r4,r16
 508f9a0:	a80b883a 	mov	r5,r21
 508f9a4:	8009883a 	mov	r4,r16
 508f9a8:	d8c00015 	stw	r3,0(sp)
 508f9ac:	50828e80 	call	50828e8 <__umodsi3>
 508f9b0:	1027883a 	mov	r19,r2
 508f9b4:	a80b883a 	mov	r5,r21
 508f9b8:	8009883a 	mov	r4,r16
 508f9bc:	50828840 	call	5082884 <__udivsi3>
 508f9c0:	9826943a 	slli	r19,r19,16
 508f9c4:	1529383a 	mul	r20,r2,r20
 508f9c8:	94bfffcc 	andi	r18,r18,65535
 508f9cc:	94e4b03a 	or	r18,r18,r19
 508f9d0:	d8c00017 	ldw	r3,0(sp)
 508f9d4:	9500052e 	bgeu	r18,r20,508f9ec <__udivdi3+0x28c>
 508f9d8:	8ca5883a 	add	r18,r17,r18
 508f9dc:	113fffc4 	addi	r4,r2,-1
 508f9e0:	94409736 	bltu	r18,r17,508fc40 <__udivdi3+0x4e0>
 508f9e4:	9500962e 	bgeu	r18,r20,508fc40 <__udivdi3+0x4e0>
 508f9e8:	10bfff84 	addi	r2,r2,-2
 508f9ec:	b00c943a 	slli	r6,r22,16
 508f9f0:	3084b03a 	or	r2,r6,r2
 508f9f4:	00000206 	br	508fa00 <__udivdi3+0x2a0>
 508f9f8:	0007883a 	mov	r3,zero
 508f9fc:	0005883a 	mov	r2,zero
 508fa00:	dfc00a17 	ldw	ra,40(sp)
 508fa04:	df000917 	ldw	fp,36(sp)
 508fa08:	ddc00817 	ldw	r23,32(sp)
 508fa0c:	dd800717 	ldw	r22,28(sp)
 508fa10:	dd400617 	ldw	r21,24(sp)
 508fa14:	dd000517 	ldw	r20,20(sp)
 508fa18:	dcc00417 	ldw	r19,16(sp)
 508fa1c:	dc800317 	ldw	r18,12(sp)
 508fa20:	dc400217 	ldw	r17,8(sp)
 508fa24:	dc000117 	ldw	r16,4(sp)
 508fa28:	dec00b04 	addi	sp,sp,44
 508fa2c:	f800283a 	ret
 508fa30:	00803fc4 	movi	r2,255
 508fa34:	11c5803a 	cmpltu	r2,r2,r7
 508fa38:	100490fa 	slli	r2,r2,3
 508fa3c:	003f9e06 	br	508f8b8 <__alt_data_end+0xfffc16b8>
 508fa40:	00803fc4 	movi	r2,255
 508fa44:	1445803a 	cmpltu	r2,r2,r17
 508fa48:	100490fa 	slli	r2,r2,3
 508fa4c:	003fb206 	br	508f918 <__alt_data_end+0xfffc1718>
 508fa50:	00804034 	movhi	r2,256
 508fa54:	10bfffc4 	addi	r2,r2,-1
 508fa58:	11808836 	bltu	r2,r6,508fc7c <__udivdi3+0x51c>
 508fa5c:	00800404 	movi	r2,16
 508fa60:	003f5606 	br	508f7bc <__alt_data_end+0xfffc15bc>
 508fa64:	30aed83a 	srl	r23,r6,r2
 508fa68:	3d4e983a 	sll	r7,r7,r21
 508fa6c:	80acd83a 	srl	r22,r16,r2
 508fa70:	9884d83a 	srl	r2,r19,r2
 508fa74:	3deeb03a 	or	r23,r7,r23
 508fa78:	b824d43a 	srli	r18,r23,16
 508fa7c:	8560983a 	sll	r16,r16,r21
 508fa80:	b009883a 	mov	r4,r22
 508fa84:	900b883a 	mov	r5,r18
 508fa88:	3568983a 	sll	r20,r6,r21
 508fa8c:	1420b03a 	or	r16,r2,r16
 508fa90:	50828e80 	call	50828e8 <__umodsi3>
 508fa94:	b009883a 	mov	r4,r22
 508fa98:	900b883a 	mov	r5,r18
 508fa9c:	1023883a 	mov	r17,r2
 508faa0:	50828840 	call	5082884 <__udivsi3>
 508faa4:	8808943a 	slli	r4,r17,16
 508faa8:	bf3fffcc 	andi	fp,r23,65535
 508faac:	8006d43a 	srli	r3,r16,16
 508fab0:	e0a3383a 	mul	r17,fp,r2
 508fab4:	100d883a 	mov	r6,r2
 508fab8:	1906b03a 	or	r3,r3,r4
 508fabc:	1c40042e 	bgeu	r3,r17,508fad0 <__udivdi3+0x370>
 508fac0:	1dc7883a 	add	r3,r3,r23
 508fac4:	10bfffc4 	addi	r2,r2,-1
 508fac8:	1dc0752e 	bgeu	r3,r23,508fca0 <__udivdi3+0x540>
 508facc:	100d883a 	mov	r6,r2
 508fad0:	1c63c83a 	sub	r17,r3,r17
 508fad4:	900b883a 	mov	r5,r18
 508fad8:	8809883a 	mov	r4,r17
 508fadc:	d9800015 	stw	r6,0(sp)
 508fae0:	50828e80 	call	50828e8 <__umodsi3>
 508fae4:	102d883a 	mov	r22,r2
 508fae8:	8809883a 	mov	r4,r17
 508faec:	900b883a 	mov	r5,r18
 508faf0:	50828840 	call	5082884 <__udivsi3>
 508faf4:	b02c943a 	slli	r22,r22,16
 508faf8:	e089383a 	mul	r4,fp,r2
 508fafc:	843fffcc 	andi	r16,r16,65535
 508fb00:	85a0b03a 	or	r16,r16,r22
 508fb04:	d9800017 	ldw	r6,0(sp)
 508fb08:	8100042e 	bgeu	r16,r4,508fb1c <__udivdi3+0x3bc>
 508fb0c:	85e1883a 	add	r16,r16,r23
 508fb10:	10ffffc4 	addi	r3,r2,-1
 508fb14:	85c05e2e 	bgeu	r16,r23,508fc90 <__udivdi3+0x530>
 508fb18:	1805883a 	mov	r2,r3
 508fb1c:	300c943a 	slli	r6,r6,16
 508fb20:	a17fffcc 	andi	r5,r20,65535
 508fb24:	a028d43a 	srli	r20,r20,16
 508fb28:	3084b03a 	or	r2,r6,r2
 508fb2c:	10ffffcc 	andi	r3,r2,65535
 508fb30:	100cd43a 	srli	r6,r2,16
 508fb34:	194f383a 	mul	r7,r3,r5
 508fb38:	1d07383a 	mul	r3,r3,r20
 508fb3c:	314b383a 	mul	r5,r6,r5
 508fb40:	3810d43a 	srli	r8,r7,16
 508fb44:	8121c83a 	sub	r16,r16,r4
 508fb48:	1947883a 	add	r3,r3,r5
 508fb4c:	40c7883a 	add	r3,r8,r3
 508fb50:	350d383a 	mul	r6,r6,r20
 508fb54:	1940022e 	bgeu	r3,r5,508fb60 <__udivdi3+0x400>
 508fb58:	01000074 	movhi	r4,1
 508fb5c:	310d883a 	add	r6,r6,r4
 508fb60:	1828d43a 	srli	r20,r3,16
 508fb64:	a18d883a 	add	r6,r20,r6
 508fb68:	81803e36 	bltu	r16,r6,508fc64 <__udivdi3+0x504>
 508fb6c:	81803826 	beq	r16,r6,508fc50 <__udivdi3+0x4f0>
 508fb70:	0007883a 	mov	r3,zero
 508fb74:	003fa206 	br	508fa00 <__alt_data_end+0xfffc1800>
 508fb78:	88e2983a 	sll	r17,r17,r3
 508fb7c:	80a8d83a 	srl	r20,r16,r2
 508fb80:	80e0983a 	sll	r16,r16,r3
 508fb84:	882ad43a 	srli	r21,r17,16
 508fb88:	9884d83a 	srl	r2,r19,r2
 508fb8c:	a009883a 	mov	r4,r20
 508fb90:	a80b883a 	mov	r5,r21
 508fb94:	142eb03a 	or	r23,r2,r16
 508fb98:	98e4983a 	sll	r18,r19,r3
 508fb9c:	50828e80 	call	50828e8 <__umodsi3>
 508fba0:	a009883a 	mov	r4,r20
 508fba4:	a80b883a 	mov	r5,r21
 508fba8:	1021883a 	mov	r16,r2
 508fbac:	50828840 	call	5082884 <__udivsi3>
 508fbb0:	1039883a 	mov	fp,r2
 508fbb4:	8d3fffcc 	andi	r20,r17,65535
 508fbb8:	8020943a 	slli	r16,r16,16
 508fbbc:	b804d43a 	srli	r2,r23,16
 508fbc0:	a72d383a 	mul	r22,r20,fp
 508fbc4:	1404b03a 	or	r2,r2,r16
 508fbc8:	1580062e 	bgeu	r2,r22,508fbe4 <__udivdi3+0x484>
 508fbcc:	1445883a 	add	r2,r2,r17
 508fbd0:	e0ffffc4 	addi	r3,fp,-1
 508fbd4:	14403836 	bltu	r2,r17,508fcb8 <__udivdi3+0x558>
 508fbd8:	1580372e 	bgeu	r2,r22,508fcb8 <__udivdi3+0x558>
 508fbdc:	e73fff84 	addi	fp,fp,-2
 508fbe0:	1445883a 	add	r2,r2,r17
 508fbe4:	15adc83a 	sub	r22,r2,r22
 508fbe8:	a80b883a 	mov	r5,r21
 508fbec:	b009883a 	mov	r4,r22
 508fbf0:	50828e80 	call	50828e8 <__umodsi3>
 508fbf4:	1027883a 	mov	r19,r2
 508fbf8:	b009883a 	mov	r4,r22
 508fbfc:	a80b883a 	mov	r5,r21
 508fc00:	50828840 	call	5082884 <__udivsi3>
 508fc04:	9826943a 	slli	r19,r19,16
 508fc08:	a0a1383a 	mul	r16,r20,r2
 508fc0c:	b93fffcc 	andi	r4,r23,65535
 508fc10:	24c8b03a 	or	r4,r4,r19
 508fc14:	2400062e 	bgeu	r4,r16,508fc30 <__udivdi3+0x4d0>
 508fc18:	2449883a 	add	r4,r4,r17
 508fc1c:	10ffffc4 	addi	r3,r2,-1
 508fc20:	24402336 	bltu	r4,r17,508fcb0 <__udivdi3+0x550>
 508fc24:	2400222e 	bgeu	r4,r16,508fcb0 <__udivdi3+0x550>
 508fc28:	10bfff84 	addi	r2,r2,-2
 508fc2c:	2449883a 	add	r4,r4,r17
 508fc30:	e038943a 	slli	fp,fp,16
 508fc34:	2421c83a 	sub	r16,r4,r16
 508fc38:	e086b03a 	or	r3,fp,r2
 508fc3c:	003f4306 	br	508f94c <__alt_data_end+0xfffc174c>
 508fc40:	2005883a 	mov	r2,r4
 508fc44:	003f6906 	br	508f9ec <__alt_data_end+0xfffc17ec>
 508fc48:	1805883a 	mov	r2,r3
 508fc4c:	003f0f06 	br	508f88c <__alt_data_end+0xfffc168c>
 508fc50:	1806943a 	slli	r3,r3,16
 508fc54:	9d66983a 	sll	r19,r19,r21
 508fc58:	39ffffcc 	andi	r7,r7,65535
 508fc5c:	19c7883a 	add	r3,r3,r7
 508fc60:	98ffc32e 	bgeu	r19,r3,508fb70 <__alt_data_end+0xfffc1970>
 508fc64:	10bfffc4 	addi	r2,r2,-1
 508fc68:	003fc106 	br	508fb70 <__alt_data_end+0xfffc1970>
 508fc6c:	00800604 	movi	r2,24
 508fc70:	003f1106 	br	508f8b8 <__alt_data_end+0xfffc16b8>
 508fc74:	00800604 	movi	r2,24
 508fc78:	003f2706 	br	508f918 <__alt_data_end+0xfffc1718>
 508fc7c:	00800604 	movi	r2,24
 508fc80:	003ece06 	br	508f7bc <__alt_data_end+0xfffc15bc>
 508fc84:	0007883a 	mov	r3,zero
 508fc88:	00800044 	movi	r2,1
 508fc8c:	003f5c06 	br	508fa00 <__alt_data_end+0xfffc1800>
 508fc90:	813fa12e 	bgeu	r16,r4,508fb18 <__alt_data_end+0xfffc1918>
 508fc94:	10bfff84 	addi	r2,r2,-2
 508fc98:	85e1883a 	add	r16,r16,r23
 508fc9c:	003f9f06 	br	508fb1c <__alt_data_end+0xfffc191c>
 508fca0:	1c7f8a2e 	bgeu	r3,r17,508facc <__alt_data_end+0xfffc18cc>
 508fca4:	31bfff84 	addi	r6,r6,-2
 508fca8:	1dc7883a 	add	r3,r3,r23
 508fcac:	003f8806 	br	508fad0 <__alt_data_end+0xfffc18d0>
 508fcb0:	1805883a 	mov	r2,r3
 508fcb4:	003fde06 	br	508fc30 <__alt_data_end+0xfffc1a30>
 508fcb8:	1839883a 	mov	fp,r3
 508fcbc:	003fc906 	br	508fbe4 <__alt_data_end+0xfffc19e4>
 508fcc0:	b5bfff84 	addi	r22,r22,-2
 508fcc4:	2449883a 	add	r4,r4,r17
 508fcc8:	003f3406 	br	508f99c <__alt_data_end+0xfffc179c>
 508fccc:	b5bfff84 	addi	r22,r22,-2
 508fcd0:	1445883a 	add	r2,r2,r17
 508fcd4:	003edb06 	br	508f844 <__alt_data_end+0xfffc1644>

0508fcd8 <__umoddi3>:
 508fcd8:	defff404 	addi	sp,sp,-48
 508fcdc:	df000a15 	stw	fp,40(sp)
 508fce0:	dc400315 	stw	r17,12(sp)
 508fce4:	dc000215 	stw	r16,8(sp)
 508fce8:	dfc00b15 	stw	ra,44(sp)
 508fcec:	ddc00915 	stw	r23,36(sp)
 508fcf0:	dd800815 	stw	r22,32(sp)
 508fcf4:	dd400715 	stw	r21,28(sp)
 508fcf8:	dd000615 	stw	r20,24(sp)
 508fcfc:	dcc00515 	stw	r19,20(sp)
 508fd00:	dc800415 	stw	r18,16(sp)
 508fd04:	2021883a 	mov	r16,r4
 508fd08:	2823883a 	mov	r17,r5
 508fd0c:	2839883a 	mov	fp,r5
 508fd10:	38003c1e 	bne	r7,zero,508fe04 <__umoddi3+0x12c>
 508fd14:	3027883a 	mov	r19,r6
 508fd18:	2029883a 	mov	r20,r4
 508fd1c:	2980512e 	bgeu	r5,r6,508fe64 <__umoddi3+0x18c>
 508fd20:	00bfffd4 	movui	r2,65535
 508fd24:	11809a36 	bltu	r2,r6,508ff90 <__umoddi3+0x2b8>
 508fd28:	01003fc4 	movi	r4,255
 508fd2c:	2189803a 	cmpltu	r4,r4,r6
 508fd30:	200890fa 	slli	r4,r4,3
 508fd34:	3104d83a 	srl	r2,r6,r4
 508fd38:	00c14274 	movhi	r3,1289
 508fd3c:	18d7f504 	addi	r3,r3,24532
 508fd40:	1885883a 	add	r2,r3,r2
 508fd44:	10c00003 	ldbu	r3,0(r2)
 508fd48:	00800804 	movi	r2,32
 508fd4c:	1909883a 	add	r4,r3,r4
 508fd50:	1125c83a 	sub	r18,r2,r4
 508fd54:	90000526 	beq	r18,zero,508fd6c <__umoddi3+0x94>
 508fd58:	8ca2983a 	sll	r17,r17,r18
 508fd5c:	8108d83a 	srl	r4,r16,r4
 508fd60:	34a6983a 	sll	r19,r6,r18
 508fd64:	84a8983a 	sll	r20,r16,r18
 508fd68:	2478b03a 	or	fp,r4,r17
 508fd6c:	982ed43a 	srli	r23,r19,16
 508fd70:	e009883a 	mov	r4,fp
 508fd74:	9dbfffcc 	andi	r22,r19,65535
 508fd78:	b80b883a 	mov	r5,r23
 508fd7c:	50828e80 	call	50828e8 <__umodsi3>
 508fd80:	e009883a 	mov	r4,fp
 508fd84:	b80b883a 	mov	r5,r23
 508fd88:	102b883a 	mov	r21,r2
 508fd8c:	50828840 	call	5082884 <__udivsi3>
 508fd90:	a806943a 	slli	r3,r21,16
 508fd94:	a008d43a 	srli	r4,r20,16
 508fd98:	b085383a 	mul	r2,r22,r2
 508fd9c:	20c8b03a 	or	r4,r4,r3
 508fda0:	2080032e 	bgeu	r4,r2,508fdb0 <__umoddi3+0xd8>
 508fda4:	24c9883a 	add	r4,r4,r19
 508fda8:	24c00136 	bltu	r4,r19,508fdb0 <__umoddi3+0xd8>
 508fdac:	20811036 	bltu	r4,r2,50901f0 <__umoddi3+0x518>
 508fdb0:	20abc83a 	sub	r21,r4,r2
 508fdb4:	b80b883a 	mov	r5,r23
 508fdb8:	a809883a 	mov	r4,r21
 508fdbc:	50828e80 	call	50828e8 <__umodsi3>
 508fdc0:	1023883a 	mov	r17,r2
 508fdc4:	b80b883a 	mov	r5,r23
 508fdc8:	a809883a 	mov	r4,r21
 508fdcc:	50828840 	call	5082884 <__udivsi3>
 508fdd0:	8822943a 	slli	r17,r17,16
 508fdd4:	b085383a 	mul	r2,r22,r2
 508fdd8:	a0ffffcc 	andi	r3,r20,65535
 508fddc:	1c46b03a 	or	r3,r3,r17
 508fde0:	1880042e 	bgeu	r3,r2,508fdf4 <__umoddi3+0x11c>
 508fde4:	1cc7883a 	add	r3,r3,r19
 508fde8:	1cc00236 	bltu	r3,r19,508fdf4 <__umoddi3+0x11c>
 508fdec:	1880012e 	bgeu	r3,r2,508fdf4 <__umoddi3+0x11c>
 508fdf0:	1cc7883a 	add	r3,r3,r19
 508fdf4:	1885c83a 	sub	r2,r3,r2
 508fdf8:	1484d83a 	srl	r2,r2,r18
 508fdfc:	0007883a 	mov	r3,zero
 508fe00:	00004f06 	br	508ff40 <__umoddi3+0x268>
 508fe04:	29c04c36 	bltu	r5,r7,508ff38 <__umoddi3+0x260>
 508fe08:	00bfffd4 	movui	r2,65535
 508fe0c:	11c0582e 	bgeu	r2,r7,508ff70 <__umoddi3+0x298>
 508fe10:	00804034 	movhi	r2,256
 508fe14:	10bfffc4 	addi	r2,r2,-1
 508fe18:	11c0e736 	bltu	r2,r7,50901b8 <__umoddi3+0x4e0>
 508fe1c:	01000404 	movi	r4,16
 508fe20:	3904d83a 	srl	r2,r7,r4
 508fe24:	00c14274 	movhi	r3,1289
 508fe28:	18d7f504 	addi	r3,r3,24532
 508fe2c:	1885883a 	add	r2,r3,r2
 508fe30:	14c00003 	ldbu	r19,0(r2)
 508fe34:	00c00804 	movi	r3,32
 508fe38:	9927883a 	add	r19,r19,r4
 508fe3c:	1ce9c83a 	sub	r20,r3,r19
 508fe40:	a000581e 	bne	r20,zero,508ffa4 <__umoddi3+0x2cc>
 508fe44:	3c400136 	bltu	r7,r17,508fe4c <__umoddi3+0x174>
 508fe48:	8180eb36 	bltu	r16,r6,50901f8 <__umoddi3+0x520>
 508fe4c:	8185c83a 	sub	r2,r16,r6
 508fe50:	89e3c83a 	sub	r17,r17,r7
 508fe54:	8089803a 	cmpltu	r4,r16,r2
 508fe58:	8939c83a 	sub	fp,r17,r4
 508fe5c:	e007883a 	mov	r3,fp
 508fe60:	00003706 	br	508ff40 <__umoddi3+0x268>
 508fe64:	3000041e 	bne	r6,zero,508fe78 <__umoddi3+0x1a0>
 508fe68:	000b883a 	mov	r5,zero
 508fe6c:	01000044 	movi	r4,1
 508fe70:	50828840 	call	5082884 <__udivsi3>
 508fe74:	1027883a 	mov	r19,r2
 508fe78:	00bfffd4 	movui	r2,65535
 508fe7c:	14c0402e 	bgeu	r2,r19,508ff80 <__umoddi3+0x2a8>
 508fe80:	00804034 	movhi	r2,256
 508fe84:	10bfffc4 	addi	r2,r2,-1
 508fe88:	14c0cd36 	bltu	r2,r19,50901c0 <__umoddi3+0x4e8>
 508fe8c:	00800404 	movi	r2,16
 508fe90:	9886d83a 	srl	r3,r19,r2
 508fe94:	01014274 	movhi	r4,1289
 508fe98:	2117f504 	addi	r4,r4,24532
 508fe9c:	20c7883a 	add	r3,r4,r3
 508fea0:	18c00003 	ldbu	r3,0(r3)
 508fea4:	1887883a 	add	r3,r3,r2
 508fea8:	00800804 	movi	r2,32
 508feac:	10e5c83a 	sub	r18,r2,r3
 508feb0:	9000901e 	bne	r18,zero,50900f4 <__umoddi3+0x41c>
 508feb4:	982cd43a 	srli	r22,r19,16
 508feb8:	8ce3c83a 	sub	r17,r17,r19
 508febc:	9d7fffcc 	andi	r21,r19,65535
 508fec0:	b00b883a 	mov	r5,r22
 508fec4:	8809883a 	mov	r4,r17
 508fec8:	50828e80 	call	50828e8 <__umodsi3>
 508fecc:	8809883a 	mov	r4,r17
 508fed0:	b00b883a 	mov	r5,r22
 508fed4:	1021883a 	mov	r16,r2
 508fed8:	50828840 	call	5082884 <__udivsi3>
 508fedc:	8006943a 	slli	r3,r16,16
 508fee0:	a008d43a 	srli	r4,r20,16
 508fee4:	1545383a 	mul	r2,r2,r21
 508fee8:	20c8b03a 	or	r4,r4,r3
 508feec:	2080042e 	bgeu	r4,r2,508ff00 <__umoddi3+0x228>
 508fef0:	24c9883a 	add	r4,r4,r19
 508fef4:	24c00236 	bltu	r4,r19,508ff00 <__umoddi3+0x228>
 508fef8:	2080012e 	bgeu	r4,r2,508ff00 <__umoddi3+0x228>
 508fefc:	24c9883a 	add	r4,r4,r19
 508ff00:	20a1c83a 	sub	r16,r4,r2
 508ff04:	b00b883a 	mov	r5,r22
 508ff08:	8009883a 	mov	r4,r16
 508ff0c:	50828e80 	call	50828e8 <__umodsi3>
 508ff10:	1023883a 	mov	r17,r2
 508ff14:	b00b883a 	mov	r5,r22
 508ff18:	8009883a 	mov	r4,r16
 508ff1c:	50828840 	call	5082884 <__udivsi3>
 508ff20:	8822943a 	slli	r17,r17,16
 508ff24:	1545383a 	mul	r2,r2,r21
 508ff28:	a53fffcc 	andi	r20,r20,65535
 508ff2c:	a446b03a 	or	r3,r20,r17
 508ff30:	18bfb02e 	bgeu	r3,r2,508fdf4 <__alt_data_end+0xfffc1bf4>
 508ff34:	003fab06 	br	508fde4 <__alt_data_end+0xfffc1be4>
 508ff38:	2005883a 	mov	r2,r4
 508ff3c:	2807883a 	mov	r3,r5
 508ff40:	dfc00b17 	ldw	ra,44(sp)
 508ff44:	df000a17 	ldw	fp,40(sp)
 508ff48:	ddc00917 	ldw	r23,36(sp)
 508ff4c:	dd800817 	ldw	r22,32(sp)
 508ff50:	dd400717 	ldw	r21,28(sp)
 508ff54:	dd000617 	ldw	r20,24(sp)
 508ff58:	dcc00517 	ldw	r19,20(sp)
 508ff5c:	dc800417 	ldw	r18,16(sp)
 508ff60:	dc400317 	ldw	r17,12(sp)
 508ff64:	dc000217 	ldw	r16,8(sp)
 508ff68:	dec00c04 	addi	sp,sp,48
 508ff6c:	f800283a 	ret
 508ff70:	04c03fc4 	movi	r19,255
 508ff74:	99c9803a 	cmpltu	r4,r19,r7
 508ff78:	200890fa 	slli	r4,r4,3
 508ff7c:	003fa806 	br	508fe20 <__alt_data_end+0xfffc1c20>
 508ff80:	00803fc4 	movi	r2,255
 508ff84:	14c5803a 	cmpltu	r2,r2,r19
 508ff88:	100490fa 	slli	r2,r2,3
 508ff8c:	003fc006 	br	508fe90 <__alt_data_end+0xfffc1c90>
 508ff90:	00804034 	movhi	r2,256
 508ff94:	10bfffc4 	addi	r2,r2,-1
 508ff98:	11808b36 	bltu	r2,r6,50901c8 <__umoddi3+0x4f0>
 508ff9c:	01000404 	movi	r4,16
 508ffa0:	003f6406 	br	508fd34 <__alt_data_end+0xfffc1b34>
 508ffa4:	34c4d83a 	srl	r2,r6,r19
 508ffa8:	3d0e983a 	sll	r7,r7,r20
 508ffac:	8cf8d83a 	srl	fp,r17,r19
 508ffb0:	8d10983a 	sll	r8,r17,r20
 508ffb4:	38aab03a 	or	r21,r7,r2
 508ffb8:	a82cd43a 	srli	r22,r21,16
 508ffbc:	84e2d83a 	srl	r17,r16,r19
 508ffc0:	e009883a 	mov	r4,fp
 508ffc4:	b00b883a 	mov	r5,r22
 508ffc8:	8a22b03a 	or	r17,r17,r8
 508ffcc:	3524983a 	sll	r18,r6,r20
 508ffd0:	50828e80 	call	50828e8 <__umodsi3>
 508ffd4:	e009883a 	mov	r4,fp
 508ffd8:	b00b883a 	mov	r5,r22
 508ffdc:	102f883a 	mov	r23,r2
 508ffe0:	50828840 	call	5082884 <__udivsi3>
 508ffe4:	100d883a 	mov	r6,r2
 508ffe8:	b808943a 	slli	r4,r23,16
 508ffec:	aa3fffcc 	andi	r8,r21,65535
 508fff0:	8804d43a 	srli	r2,r17,16
 508fff4:	41af383a 	mul	r23,r8,r6
 508fff8:	8520983a 	sll	r16,r16,r20
 508fffc:	1104b03a 	or	r2,r2,r4
 5090000:	15c0042e 	bgeu	r2,r23,5090014 <__umoddi3+0x33c>
 5090004:	1545883a 	add	r2,r2,r21
 5090008:	30ffffc4 	addi	r3,r6,-1
 509000c:	1540742e 	bgeu	r2,r21,50901e0 <__umoddi3+0x508>
 5090010:	180d883a 	mov	r6,r3
 5090014:	15efc83a 	sub	r23,r2,r23
 5090018:	b00b883a 	mov	r5,r22
 509001c:	b809883a 	mov	r4,r23
 5090020:	d9800115 	stw	r6,4(sp)
 5090024:	da000015 	stw	r8,0(sp)
 5090028:	50828e80 	call	50828e8 <__umodsi3>
 509002c:	b00b883a 	mov	r5,r22
 5090030:	b809883a 	mov	r4,r23
 5090034:	1039883a 	mov	fp,r2
 5090038:	50828840 	call	5082884 <__udivsi3>
 509003c:	da000017 	ldw	r8,0(sp)
 5090040:	e038943a 	slli	fp,fp,16
 5090044:	100b883a 	mov	r5,r2
 5090048:	4089383a 	mul	r4,r8,r2
 509004c:	8a3fffcc 	andi	r8,r17,65535
 5090050:	4710b03a 	or	r8,r8,fp
 5090054:	d9800117 	ldw	r6,4(sp)
 5090058:	4100042e 	bgeu	r8,r4,509006c <__umoddi3+0x394>
 509005c:	4551883a 	add	r8,r8,r21
 5090060:	10bfffc4 	addi	r2,r2,-1
 5090064:	45405a2e 	bgeu	r8,r21,50901d0 <__umoddi3+0x4f8>
 5090068:	100b883a 	mov	r5,r2
 509006c:	300c943a 	slli	r6,r6,16
 5090070:	91ffffcc 	andi	r7,r18,65535
 5090074:	9004d43a 	srli	r2,r18,16
 5090078:	314cb03a 	or	r6,r6,r5
 509007c:	317fffcc 	andi	r5,r6,65535
 5090080:	300cd43a 	srli	r6,r6,16
 5090084:	29d3383a 	mul	r9,r5,r7
 5090088:	288b383a 	mul	r5,r5,r2
 509008c:	31cf383a 	mul	r7,r6,r7
 5090090:	4806d43a 	srli	r3,r9,16
 5090094:	4111c83a 	sub	r8,r8,r4
 5090098:	29cb883a 	add	r5,r5,r7
 509009c:	194b883a 	add	r5,r3,r5
 50900a0:	3085383a 	mul	r2,r6,r2
 50900a4:	29c0022e 	bgeu	r5,r7,50900b0 <__umoddi3+0x3d8>
 50900a8:	00c00074 	movhi	r3,1
 50900ac:	10c5883a 	add	r2,r2,r3
 50900b0:	2808d43a 	srli	r4,r5,16
 50900b4:	280a943a 	slli	r5,r5,16
 50900b8:	4a7fffcc 	andi	r9,r9,65535
 50900bc:	2085883a 	add	r2,r4,r2
 50900c0:	2a4b883a 	add	r5,r5,r9
 50900c4:	40803636 	bltu	r8,r2,50901a0 <__umoddi3+0x4c8>
 50900c8:	40804d26 	beq	r8,r2,5090200 <__umoddi3+0x528>
 50900cc:	4089c83a 	sub	r4,r8,r2
 50900d0:	280f883a 	mov	r7,r5
 50900d4:	81cfc83a 	sub	r7,r16,r7
 50900d8:	81c7803a 	cmpltu	r3,r16,r7
 50900dc:	20c7c83a 	sub	r3,r4,r3
 50900e0:	1cc4983a 	sll	r2,r3,r19
 50900e4:	3d0ed83a 	srl	r7,r7,r20
 50900e8:	1d06d83a 	srl	r3,r3,r20
 50900ec:	11c4b03a 	or	r2,r2,r7
 50900f0:	003f9306 	br	508ff40 <__alt_data_end+0xfffc1d40>
 50900f4:	9ca6983a 	sll	r19,r19,r18
 50900f8:	88e8d83a 	srl	r20,r17,r3
 50900fc:	80c4d83a 	srl	r2,r16,r3
 5090100:	982cd43a 	srli	r22,r19,16
 5090104:	8ca2983a 	sll	r17,r17,r18
 5090108:	a009883a 	mov	r4,r20
 509010c:	b00b883a 	mov	r5,r22
 5090110:	1478b03a 	or	fp,r2,r17
 5090114:	50828e80 	call	50828e8 <__umodsi3>
 5090118:	a009883a 	mov	r4,r20
 509011c:	b00b883a 	mov	r5,r22
 5090120:	1023883a 	mov	r17,r2
 5090124:	50828840 	call	5082884 <__udivsi3>
 5090128:	9d7fffcc 	andi	r21,r19,65535
 509012c:	880a943a 	slli	r5,r17,16
 5090130:	e008d43a 	srli	r4,fp,16
 5090134:	a885383a 	mul	r2,r21,r2
 5090138:	84a8983a 	sll	r20,r16,r18
 509013c:	2148b03a 	or	r4,r4,r5
 5090140:	2080042e 	bgeu	r4,r2,5090154 <__umoddi3+0x47c>
 5090144:	24c9883a 	add	r4,r4,r19
 5090148:	24c00236 	bltu	r4,r19,5090154 <__umoddi3+0x47c>
 509014c:	2080012e 	bgeu	r4,r2,5090154 <__umoddi3+0x47c>
 5090150:	24c9883a 	add	r4,r4,r19
 5090154:	20a3c83a 	sub	r17,r4,r2
 5090158:	b00b883a 	mov	r5,r22
 509015c:	8809883a 	mov	r4,r17
 5090160:	50828e80 	call	50828e8 <__umodsi3>
 5090164:	102f883a 	mov	r23,r2
 5090168:	8809883a 	mov	r4,r17
 509016c:	b00b883a 	mov	r5,r22
 5090170:	50828840 	call	5082884 <__udivsi3>
 5090174:	b82e943a 	slli	r23,r23,16
 5090178:	a885383a 	mul	r2,r21,r2
 509017c:	e13fffcc 	andi	r4,fp,65535
 5090180:	25c8b03a 	or	r4,r4,r23
 5090184:	2080042e 	bgeu	r4,r2,5090198 <__umoddi3+0x4c0>
 5090188:	24c9883a 	add	r4,r4,r19
 509018c:	24c00236 	bltu	r4,r19,5090198 <__umoddi3+0x4c0>
 5090190:	2080012e 	bgeu	r4,r2,5090198 <__umoddi3+0x4c0>
 5090194:	24c9883a 	add	r4,r4,r19
 5090198:	20a3c83a 	sub	r17,r4,r2
 509019c:	003f4806 	br	508fec0 <__alt_data_end+0xfffc1cc0>
 50901a0:	2c8fc83a 	sub	r7,r5,r18
 50901a4:	1545c83a 	sub	r2,r2,r21
 50901a8:	29cb803a 	cmpltu	r5,r5,r7
 50901ac:	1145c83a 	sub	r2,r2,r5
 50901b0:	4089c83a 	sub	r4,r8,r2
 50901b4:	003fc706 	br	50900d4 <__alt_data_end+0xfffc1ed4>
 50901b8:	01000604 	movi	r4,24
 50901bc:	003f1806 	br	508fe20 <__alt_data_end+0xfffc1c20>
 50901c0:	00800604 	movi	r2,24
 50901c4:	003f3206 	br	508fe90 <__alt_data_end+0xfffc1c90>
 50901c8:	01000604 	movi	r4,24
 50901cc:	003ed906 	br	508fd34 <__alt_data_end+0xfffc1b34>
 50901d0:	413fa52e 	bgeu	r8,r4,5090068 <__alt_data_end+0xfffc1e68>
 50901d4:	297fff84 	addi	r5,r5,-2
 50901d8:	4551883a 	add	r8,r8,r21
 50901dc:	003fa306 	br	509006c <__alt_data_end+0xfffc1e6c>
 50901e0:	15ff8b2e 	bgeu	r2,r23,5090010 <__alt_data_end+0xfffc1e10>
 50901e4:	31bfff84 	addi	r6,r6,-2
 50901e8:	1545883a 	add	r2,r2,r21
 50901ec:	003f8906 	br	5090014 <__alt_data_end+0xfffc1e14>
 50901f0:	24c9883a 	add	r4,r4,r19
 50901f4:	003eee06 	br	508fdb0 <__alt_data_end+0xfffc1bb0>
 50901f8:	8005883a 	mov	r2,r16
 50901fc:	003f1706 	br	508fe5c <__alt_data_end+0xfffc1c5c>
 5090200:	817fe736 	bltu	r16,r5,50901a0 <__alt_data_end+0xfffc1fa0>
 5090204:	280f883a 	mov	r7,r5
 5090208:	0009883a 	mov	r4,zero
 509020c:	003fb106 	br	50900d4 <__alt_data_end+0xfffc1ed4>

05090210 <__adddf3>:
 5090210:	02c00434 	movhi	r11,16
 5090214:	5affffc4 	addi	r11,r11,-1
 5090218:	2806d7fa 	srli	r3,r5,31
 509021c:	2ad4703a 	and	r10,r5,r11
 5090220:	3ad2703a 	and	r9,r7,r11
 5090224:	3804d53a 	srli	r2,r7,20
 5090228:	3018d77a 	srli	r12,r6,29
 509022c:	280ad53a 	srli	r5,r5,20
 5090230:	501490fa 	slli	r10,r10,3
 5090234:	2010d77a 	srli	r8,r4,29
 5090238:	481290fa 	slli	r9,r9,3
 509023c:	380ed7fa 	srli	r7,r7,31
 5090240:	defffb04 	addi	sp,sp,-20
 5090244:	dc800215 	stw	r18,8(sp)
 5090248:	dc400115 	stw	r17,4(sp)
 509024c:	dc000015 	stw	r16,0(sp)
 5090250:	dfc00415 	stw	ra,16(sp)
 5090254:	dcc00315 	stw	r19,12(sp)
 5090258:	1c803fcc 	andi	r18,r3,255
 509025c:	2c01ffcc 	andi	r16,r5,2047
 5090260:	5210b03a 	or	r8,r10,r8
 5090264:	202290fa 	slli	r17,r4,3
 5090268:	1081ffcc 	andi	r2,r2,2047
 509026c:	4b12b03a 	or	r9,r9,r12
 5090270:	300c90fa 	slli	r6,r6,3
 5090274:	91c07526 	beq	r18,r7,509044c <__adddf3+0x23c>
 5090278:	8087c83a 	sub	r3,r16,r2
 509027c:	00c0ab0e 	bge	zero,r3,509052c <__adddf3+0x31c>
 5090280:	10002a1e 	bne	r2,zero,509032c <__adddf3+0x11c>
 5090284:	4984b03a 	or	r2,r9,r6
 5090288:	1000961e 	bne	r2,zero,50904e4 <__adddf3+0x2d4>
 509028c:	888001cc 	andi	r2,r17,7
 5090290:	10000726 	beq	r2,zero,50902b0 <__adddf3+0xa0>
 5090294:	888003cc 	andi	r2,r17,15
 5090298:	00c00104 	movi	r3,4
 509029c:	10c00426 	beq	r2,r3,50902b0 <__adddf3+0xa0>
 50902a0:	88c7883a 	add	r3,r17,r3
 50902a4:	1c63803a 	cmpltu	r17,r3,r17
 50902a8:	4451883a 	add	r8,r8,r17
 50902ac:	1823883a 	mov	r17,r3
 50902b0:	4080202c 	andhi	r2,r8,128
 50902b4:	10005926 	beq	r2,zero,509041c <__adddf3+0x20c>
 50902b8:	84000044 	addi	r16,r16,1
 50902bc:	0081ffc4 	movi	r2,2047
 50902c0:	8080ba26 	beq	r16,r2,50905ac <__adddf3+0x39c>
 50902c4:	00bfe034 	movhi	r2,65408
 50902c8:	10bfffc4 	addi	r2,r2,-1
 50902cc:	4090703a 	and	r8,r8,r2
 50902d0:	4004977a 	slli	r2,r8,29
 50902d4:	4010927a 	slli	r8,r8,9
 50902d8:	8822d0fa 	srli	r17,r17,3
 50902dc:	8401ffcc 	andi	r16,r16,2047
 50902e0:	4010d33a 	srli	r8,r8,12
 50902e4:	9007883a 	mov	r3,r18
 50902e8:	1444b03a 	or	r2,r2,r17
 50902ec:	8401ffcc 	andi	r16,r16,2047
 50902f0:	8020953a 	slli	r16,r16,20
 50902f4:	18c03fcc 	andi	r3,r3,255
 50902f8:	01000434 	movhi	r4,16
 50902fc:	213fffc4 	addi	r4,r4,-1
 5090300:	180697fa 	slli	r3,r3,31
 5090304:	4110703a 	and	r8,r8,r4
 5090308:	4410b03a 	or	r8,r8,r16
 509030c:	40c6b03a 	or	r3,r8,r3
 5090310:	dfc00417 	ldw	ra,16(sp)
 5090314:	dcc00317 	ldw	r19,12(sp)
 5090318:	dc800217 	ldw	r18,8(sp)
 509031c:	dc400117 	ldw	r17,4(sp)
 5090320:	dc000017 	ldw	r16,0(sp)
 5090324:	dec00504 	addi	sp,sp,20
 5090328:	f800283a 	ret
 509032c:	0081ffc4 	movi	r2,2047
 5090330:	80bfd626 	beq	r16,r2,509028c <__alt_data_end+0xfffc208c>
 5090334:	4a402034 	orhi	r9,r9,128
 5090338:	00800e04 	movi	r2,56
 509033c:	10c09f16 	blt	r2,r3,50905bc <__adddf3+0x3ac>
 5090340:	008007c4 	movi	r2,31
 5090344:	10c0c216 	blt	r2,r3,5090650 <__adddf3+0x440>
 5090348:	00800804 	movi	r2,32
 509034c:	10c5c83a 	sub	r2,r2,r3
 5090350:	488a983a 	sll	r5,r9,r2
 5090354:	30c8d83a 	srl	r4,r6,r3
 5090358:	3084983a 	sll	r2,r6,r2
 509035c:	48c6d83a 	srl	r3,r9,r3
 5090360:	290cb03a 	or	r6,r5,r4
 5090364:	1004c03a 	cmpne	r2,r2,zero
 5090368:	308cb03a 	or	r6,r6,r2
 509036c:	898dc83a 	sub	r6,r17,r6
 5090370:	89a3803a 	cmpltu	r17,r17,r6
 5090374:	40d1c83a 	sub	r8,r8,r3
 5090378:	4451c83a 	sub	r8,r8,r17
 509037c:	3023883a 	mov	r17,r6
 5090380:	4080202c 	andhi	r2,r8,128
 5090384:	10002326 	beq	r2,zero,5090414 <__adddf3+0x204>
 5090388:	04c02034 	movhi	r19,128
 509038c:	9cffffc4 	addi	r19,r19,-1
 5090390:	44e6703a 	and	r19,r8,r19
 5090394:	98007626 	beq	r19,zero,5090570 <__adddf3+0x360>
 5090398:	9809883a 	mov	r4,r19
 509039c:	50928140 	call	5092814 <__clzsi2>
 50903a0:	10fffe04 	addi	r3,r2,-8
 50903a4:	010007c4 	movi	r4,31
 50903a8:	20c07716 	blt	r4,r3,5090588 <__adddf3+0x378>
 50903ac:	00800804 	movi	r2,32
 50903b0:	10c5c83a 	sub	r2,r2,r3
 50903b4:	8884d83a 	srl	r2,r17,r2
 50903b8:	98d0983a 	sll	r8,r19,r3
 50903bc:	88e2983a 	sll	r17,r17,r3
 50903c0:	1204b03a 	or	r2,r2,r8
 50903c4:	1c007416 	blt	r3,r16,5090598 <__adddf3+0x388>
 50903c8:	1c21c83a 	sub	r16,r3,r16
 50903cc:	82000044 	addi	r8,r16,1
 50903d0:	00c007c4 	movi	r3,31
 50903d4:	1a009116 	blt	r3,r8,509061c <__adddf3+0x40c>
 50903d8:	00c00804 	movi	r3,32
 50903dc:	1a07c83a 	sub	r3,r3,r8
 50903e0:	8a08d83a 	srl	r4,r17,r8
 50903e4:	88e2983a 	sll	r17,r17,r3
 50903e8:	10c6983a 	sll	r3,r2,r3
 50903ec:	1210d83a 	srl	r8,r2,r8
 50903f0:	8804c03a 	cmpne	r2,r17,zero
 50903f4:	1906b03a 	or	r3,r3,r4
 50903f8:	18a2b03a 	or	r17,r3,r2
 50903fc:	0021883a 	mov	r16,zero
 5090400:	003fa206 	br	509028c <__alt_data_end+0xfffc208c>
 5090404:	1890b03a 	or	r8,r3,r2
 5090408:	40017d26 	beq	r8,zero,5090a00 <__adddf3+0x7f0>
 509040c:	1011883a 	mov	r8,r2
 5090410:	1823883a 	mov	r17,r3
 5090414:	888001cc 	andi	r2,r17,7
 5090418:	103f9e1e 	bne	r2,zero,5090294 <__alt_data_end+0xfffc2094>
 509041c:	4004977a 	slli	r2,r8,29
 5090420:	8822d0fa 	srli	r17,r17,3
 5090424:	4010d0fa 	srli	r8,r8,3
 5090428:	9007883a 	mov	r3,r18
 509042c:	1444b03a 	or	r2,r2,r17
 5090430:	0101ffc4 	movi	r4,2047
 5090434:	81002426 	beq	r16,r4,50904c8 <__adddf3+0x2b8>
 5090438:	8120703a 	and	r16,r16,r4
 509043c:	01000434 	movhi	r4,16
 5090440:	213fffc4 	addi	r4,r4,-1
 5090444:	4110703a 	and	r8,r8,r4
 5090448:	003fa806 	br	50902ec <__alt_data_end+0xfffc20ec>
 509044c:	8089c83a 	sub	r4,r16,r2
 5090450:	01005e0e 	bge	zero,r4,50905cc <__adddf3+0x3bc>
 5090454:	10002b26 	beq	r2,zero,5090504 <__adddf3+0x2f4>
 5090458:	0081ffc4 	movi	r2,2047
 509045c:	80bf8b26 	beq	r16,r2,509028c <__alt_data_end+0xfffc208c>
 5090460:	4a402034 	orhi	r9,r9,128
 5090464:	00800e04 	movi	r2,56
 5090468:	1100a40e 	bge	r2,r4,50906fc <__adddf3+0x4ec>
 509046c:	498cb03a 	or	r6,r9,r6
 5090470:	300ac03a 	cmpne	r5,r6,zero
 5090474:	0013883a 	mov	r9,zero
 5090478:	2c4b883a 	add	r5,r5,r17
 509047c:	2c63803a 	cmpltu	r17,r5,r17
 5090480:	4a11883a 	add	r8,r9,r8
 5090484:	8a11883a 	add	r8,r17,r8
 5090488:	2823883a 	mov	r17,r5
 509048c:	4080202c 	andhi	r2,r8,128
 5090490:	103fe026 	beq	r2,zero,5090414 <__alt_data_end+0xfffc2214>
 5090494:	84000044 	addi	r16,r16,1
 5090498:	0081ffc4 	movi	r2,2047
 509049c:	8080d226 	beq	r16,r2,50907e8 <__adddf3+0x5d8>
 50904a0:	00bfe034 	movhi	r2,65408
 50904a4:	10bfffc4 	addi	r2,r2,-1
 50904a8:	4090703a 	and	r8,r8,r2
 50904ac:	880ad07a 	srli	r5,r17,1
 50904b0:	400897fa 	slli	r4,r8,31
 50904b4:	88c0004c 	andi	r3,r17,1
 50904b8:	28e2b03a 	or	r17,r5,r3
 50904bc:	4010d07a 	srli	r8,r8,1
 50904c0:	2462b03a 	or	r17,r4,r17
 50904c4:	003f7106 	br	509028c <__alt_data_end+0xfffc208c>
 50904c8:	4088b03a 	or	r4,r8,r2
 50904cc:	20014526 	beq	r4,zero,50909e4 <__adddf3+0x7d4>
 50904d0:	01000434 	movhi	r4,16
 50904d4:	42000234 	orhi	r8,r8,8
 50904d8:	213fffc4 	addi	r4,r4,-1
 50904dc:	4110703a 	and	r8,r8,r4
 50904e0:	003f8206 	br	50902ec <__alt_data_end+0xfffc20ec>
 50904e4:	18ffffc4 	addi	r3,r3,-1
 50904e8:	1800491e 	bne	r3,zero,5090610 <__adddf3+0x400>
 50904ec:	898bc83a 	sub	r5,r17,r6
 50904f0:	8963803a 	cmpltu	r17,r17,r5
 50904f4:	4251c83a 	sub	r8,r8,r9
 50904f8:	4451c83a 	sub	r8,r8,r17
 50904fc:	2823883a 	mov	r17,r5
 5090500:	003f9f06 	br	5090380 <__alt_data_end+0xfffc2180>
 5090504:	4984b03a 	or	r2,r9,r6
 5090508:	103f6026 	beq	r2,zero,509028c <__alt_data_end+0xfffc208c>
 509050c:	213fffc4 	addi	r4,r4,-1
 5090510:	2000931e 	bne	r4,zero,5090760 <__adddf3+0x550>
 5090514:	898d883a 	add	r6,r17,r6
 5090518:	3463803a 	cmpltu	r17,r6,r17
 509051c:	4251883a 	add	r8,r8,r9
 5090520:	8a11883a 	add	r8,r17,r8
 5090524:	3023883a 	mov	r17,r6
 5090528:	003fd806 	br	509048c <__alt_data_end+0xfffc228c>
 509052c:	1800541e 	bne	r3,zero,5090680 <__adddf3+0x470>
 5090530:	80800044 	addi	r2,r16,1
 5090534:	1081ffcc 	andi	r2,r2,2047
 5090538:	00c00044 	movi	r3,1
 509053c:	1880a00e 	bge	r3,r2,50907c0 <__adddf3+0x5b0>
 5090540:	8989c83a 	sub	r4,r17,r6
 5090544:	8905803a 	cmpltu	r2,r17,r4
 5090548:	4267c83a 	sub	r19,r8,r9
 509054c:	98a7c83a 	sub	r19,r19,r2
 5090550:	9880202c 	andhi	r2,r19,128
 5090554:	10006326 	beq	r2,zero,50906e4 <__adddf3+0x4d4>
 5090558:	3463c83a 	sub	r17,r6,r17
 509055c:	4a07c83a 	sub	r3,r9,r8
 5090560:	344d803a 	cmpltu	r6,r6,r17
 5090564:	19a7c83a 	sub	r19,r3,r6
 5090568:	3825883a 	mov	r18,r7
 509056c:	983f8a1e 	bne	r19,zero,5090398 <__alt_data_end+0xfffc2198>
 5090570:	8809883a 	mov	r4,r17
 5090574:	50928140 	call	5092814 <__clzsi2>
 5090578:	10800804 	addi	r2,r2,32
 509057c:	10fffe04 	addi	r3,r2,-8
 5090580:	010007c4 	movi	r4,31
 5090584:	20ff890e 	bge	r4,r3,50903ac <__alt_data_end+0xfffc21ac>
 5090588:	10bff604 	addi	r2,r2,-40
 509058c:	8884983a 	sll	r2,r17,r2
 5090590:	0023883a 	mov	r17,zero
 5090594:	1c3f8c0e 	bge	r3,r16,50903c8 <__alt_data_end+0xfffc21c8>
 5090598:	023fe034 	movhi	r8,65408
 509059c:	423fffc4 	addi	r8,r8,-1
 50905a0:	80e1c83a 	sub	r16,r16,r3
 50905a4:	1210703a 	and	r8,r2,r8
 50905a8:	003f3806 	br	509028c <__alt_data_end+0xfffc208c>
 50905ac:	9007883a 	mov	r3,r18
 50905b0:	0011883a 	mov	r8,zero
 50905b4:	0005883a 	mov	r2,zero
 50905b8:	003f4c06 	br	50902ec <__alt_data_end+0xfffc20ec>
 50905bc:	498cb03a 	or	r6,r9,r6
 50905c0:	300cc03a 	cmpne	r6,r6,zero
 50905c4:	0007883a 	mov	r3,zero
 50905c8:	003f6806 	br	509036c <__alt_data_end+0xfffc216c>
 50905cc:	20009c1e 	bne	r4,zero,5090840 <__adddf3+0x630>
 50905d0:	80800044 	addi	r2,r16,1
 50905d4:	1141ffcc 	andi	r5,r2,2047
 50905d8:	01000044 	movi	r4,1
 50905dc:	2140670e 	bge	r4,r5,509077c <__adddf3+0x56c>
 50905e0:	0101ffc4 	movi	r4,2047
 50905e4:	11007f26 	beq	r2,r4,50907e4 <__adddf3+0x5d4>
 50905e8:	898d883a 	add	r6,r17,r6
 50905ec:	4247883a 	add	r3,r8,r9
 50905f0:	3451803a 	cmpltu	r8,r6,r17
 50905f4:	40d1883a 	add	r8,r8,r3
 50905f8:	402297fa 	slli	r17,r8,31
 50905fc:	300cd07a 	srli	r6,r6,1
 5090600:	4010d07a 	srli	r8,r8,1
 5090604:	1021883a 	mov	r16,r2
 5090608:	89a2b03a 	or	r17,r17,r6
 509060c:	003f1f06 	br	509028c <__alt_data_end+0xfffc208c>
 5090610:	0081ffc4 	movi	r2,2047
 5090614:	80bf481e 	bne	r16,r2,5090338 <__alt_data_end+0xfffc2138>
 5090618:	003f1c06 	br	509028c <__alt_data_end+0xfffc208c>
 509061c:	843ff844 	addi	r16,r16,-31
 5090620:	01000804 	movi	r4,32
 5090624:	1406d83a 	srl	r3,r2,r16
 5090628:	41005026 	beq	r8,r4,509076c <__adddf3+0x55c>
 509062c:	01001004 	movi	r4,64
 5090630:	2211c83a 	sub	r8,r4,r8
 5090634:	1204983a 	sll	r2,r2,r8
 5090638:	88a2b03a 	or	r17,r17,r2
 509063c:	8822c03a 	cmpne	r17,r17,zero
 5090640:	1c62b03a 	or	r17,r3,r17
 5090644:	0011883a 	mov	r8,zero
 5090648:	0021883a 	mov	r16,zero
 509064c:	003f7106 	br	5090414 <__alt_data_end+0xfffc2214>
 5090650:	193ff804 	addi	r4,r3,-32
 5090654:	00800804 	movi	r2,32
 5090658:	4908d83a 	srl	r4,r9,r4
 509065c:	18804526 	beq	r3,r2,5090774 <__adddf3+0x564>
 5090660:	00801004 	movi	r2,64
 5090664:	10c5c83a 	sub	r2,r2,r3
 5090668:	4886983a 	sll	r3,r9,r2
 509066c:	198cb03a 	or	r6,r3,r6
 5090670:	300cc03a 	cmpne	r6,r6,zero
 5090674:	218cb03a 	or	r6,r4,r6
 5090678:	0007883a 	mov	r3,zero
 509067c:	003f3b06 	br	509036c <__alt_data_end+0xfffc216c>
 5090680:	80002a26 	beq	r16,zero,509072c <__adddf3+0x51c>
 5090684:	0101ffc4 	movi	r4,2047
 5090688:	11006826 	beq	r2,r4,509082c <__adddf3+0x61c>
 509068c:	00c7c83a 	sub	r3,zero,r3
 5090690:	42002034 	orhi	r8,r8,128
 5090694:	01000e04 	movi	r4,56
 5090698:	20c07c16 	blt	r4,r3,509088c <__adddf3+0x67c>
 509069c:	010007c4 	movi	r4,31
 50906a0:	20c0da16 	blt	r4,r3,5090a0c <__adddf3+0x7fc>
 50906a4:	01000804 	movi	r4,32
 50906a8:	20c9c83a 	sub	r4,r4,r3
 50906ac:	4114983a 	sll	r10,r8,r4
 50906b0:	88cad83a 	srl	r5,r17,r3
 50906b4:	8908983a 	sll	r4,r17,r4
 50906b8:	40c6d83a 	srl	r3,r8,r3
 50906bc:	5162b03a 	or	r17,r10,r5
 50906c0:	2008c03a 	cmpne	r4,r4,zero
 50906c4:	8922b03a 	or	r17,r17,r4
 50906c8:	3463c83a 	sub	r17,r6,r17
 50906cc:	48c7c83a 	sub	r3,r9,r3
 50906d0:	344d803a 	cmpltu	r6,r6,r17
 50906d4:	1991c83a 	sub	r8,r3,r6
 50906d8:	1021883a 	mov	r16,r2
 50906dc:	3825883a 	mov	r18,r7
 50906e0:	003f2706 	br	5090380 <__alt_data_end+0xfffc2180>
 50906e4:	24d0b03a 	or	r8,r4,r19
 50906e8:	40001b1e 	bne	r8,zero,5090758 <__adddf3+0x548>
 50906ec:	0005883a 	mov	r2,zero
 50906f0:	0007883a 	mov	r3,zero
 50906f4:	0021883a 	mov	r16,zero
 50906f8:	003f4d06 	br	5090430 <__alt_data_end+0xfffc2230>
 50906fc:	008007c4 	movi	r2,31
 5090700:	11003c16 	blt	r2,r4,50907f4 <__adddf3+0x5e4>
 5090704:	00800804 	movi	r2,32
 5090708:	1105c83a 	sub	r2,r2,r4
 509070c:	488e983a 	sll	r7,r9,r2
 5090710:	310ad83a 	srl	r5,r6,r4
 5090714:	3084983a 	sll	r2,r6,r2
 5090718:	4912d83a 	srl	r9,r9,r4
 509071c:	394ab03a 	or	r5,r7,r5
 5090720:	1004c03a 	cmpne	r2,r2,zero
 5090724:	288ab03a 	or	r5,r5,r2
 5090728:	003f5306 	br	5090478 <__alt_data_end+0xfffc2278>
 509072c:	4448b03a 	or	r4,r8,r17
 5090730:	20003e26 	beq	r4,zero,509082c <__adddf3+0x61c>
 5090734:	00c6303a 	nor	r3,zero,r3
 5090738:	18003a1e 	bne	r3,zero,5090824 <__adddf3+0x614>
 509073c:	3463c83a 	sub	r17,r6,r17
 5090740:	4a07c83a 	sub	r3,r9,r8
 5090744:	344d803a 	cmpltu	r6,r6,r17
 5090748:	1991c83a 	sub	r8,r3,r6
 509074c:	1021883a 	mov	r16,r2
 5090750:	3825883a 	mov	r18,r7
 5090754:	003f0a06 	br	5090380 <__alt_data_end+0xfffc2180>
 5090758:	2023883a 	mov	r17,r4
 509075c:	003f0d06 	br	5090394 <__alt_data_end+0xfffc2194>
 5090760:	0081ffc4 	movi	r2,2047
 5090764:	80bf3f1e 	bne	r16,r2,5090464 <__alt_data_end+0xfffc2264>
 5090768:	003ec806 	br	509028c <__alt_data_end+0xfffc208c>
 509076c:	0005883a 	mov	r2,zero
 5090770:	003fb106 	br	5090638 <__alt_data_end+0xfffc2438>
 5090774:	0007883a 	mov	r3,zero
 5090778:	003fbc06 	br	509066c <__alt_data_end+0xfffc246c>
 509077c:	4444b03a 	or	r2,r8,r17
 5090780:	8000871e 	bne	r16,zero,50909a0 <__adddf3+0x790>
 5090784:	1000ba26 	beq	r2,zero,5090a70 <__adddf3+0x860>
 5090788:	4984b03a 	or	r2,r9,r6
 509078c:	103ebf26 	beq	r2,zero,509028c <__alt_data_end+0xfffc208c>
 5090790:	8985883a 	add	r2,r17,r6
 5090794:	4247883a 	add	r3,r8,r9
 5090798:	1451803a 	cmpltu	r8,r2,r17
 509079c:	40d1883a 	add	r8,r8,r3
 50907a0:	40c0202c 	andhi	r3,r8,128
 50907a4:	1023883a 	mov	r17,r2
 50907a8:	183f1a26 	beq	r3,zero,5090414 <__alt_data_end+0xfffc2214>
 50907ac:	00bfe034 	movhi	r2,65408
 50907b0:	10bfffc4 	addi	r2,r2,-1
 50907b4:	2021883a 	mov	r16,r4
 50907b8:	4090703a 	and	r8,r8,r2
 50907bc:	003eb306 	br	509028c <__alt_data_end+0xfffc208c>
 50907c0:	4444b03a 	or	r2,r8,r17
 50907c4:	8000291e 	bne	r16,zero,509086c <__adddf3+0x65c>
 50907c8:	10004b1e 	bne	r2,zero,50908f8 <__adddf3+0x6e8>
 50907cc:	4990b03a 	or	r8,r9,r6
 50907d0:	40008b26 	beq	r8,zero,5090a00 <__adddf3+0x7f0>
 50907d4:	4811883a 	mov	r8,r9
 50907d8:	3023883a 	mov	r17,r6
 50907dc:	3825883a 	mov	r18,r7
 50907e0:	003eaa06 	br	509028c <__alt_data_end+0xfffc208c>
 50907e4:	1021883a 	mov	r16,r2
 50907e8:	0011883a 	mov	r8,zero
 50907ec:	0005883a 	mov	r2,zero
 50907f0:	003f0f06 	br	5090430 <__alt_data_end+0xfffc2230>
 50907f4:	217ff804 	addi	r5,r4,-32
 50907f8:	00800804 	movi	r2,32
 50907fc:	494ad83a 	srl	r5,r9,r5
 5090800:	20807d26 	beq	r4,r2,50909f8 <__adddf3+0x7e8>
 5090804:	00801004 	movi	r2,64
 5090808:	1109c83a 	sub	r4,r2,r4
 509080c:	4912983a 	sll	r9,r9,r4
 5090810:	498cb03a 	or	r6,r9,r6
 5090814:	300cc03a 	cmpne	r6,r6,zero
 5090818:	298ab03a 	or	r5,r5,r6
 509081c:	0013883a 	mov	r9,zero
 5090820:	003f1506 	br	5090478 <__alt_data_end+0xfffc2278>
 5090824:	0101ffc4 	movi	r4,2047
 5090828:	113f9a1e 	bne	r2,r4,5090694 <__alt_data_end+0xfffc2494>
 509082c:	4811883a 	mov	r8,r9
 5090830:	3023883a 	mov	r17,r6
 5090834:	1021883a 	mov	r16,r2
 5090838:	3825883a 	mov	r18,r7
 509083c:	003e9306 	br	509028c <__alt_data_end+0xfffc208c>
 5090840:	8000161e 	bne	r16,zero,509089c <__adddf3+0x68c>
 5090844:	444ab03a 	or	r5,r8,r17
 5090848:	28005126 	beq	r5,zero,5090990 <__adddf3+0x780>
 509084c:	0108303a 	nor	r4,zero,r4
 5090850:	20004d1e 	bne	r4,zero,5090988 <__adddf3+0x778>
 5090854:	89a3883a 	add	r17,r17,r6
 5090858:	4253883a 	add	r9,r8,r9
 509085c:	898d803a 	cmpltu	r6,r17,r6
 5090860:	3251883a 	add	r8,r6,r9
 5090864:	1021883a 	mov	r16,r2
 5090868:	003f0806 	br	509048c <__alt_data_end+0xfffc228c>
 509086c:	1000301e 	bne	r2,zero,5090930 <__adddf3+0x720>
 5090870:	4984b03a 	or	r2,r9,r6
 5090874:	10007126 	beq	r2,zero,5090a3c <__adddf3+0x82c>
 5090878:	4811883a 	mov	r8,r9
 509087c:	3023883a 	mov	r17,r6
 5090880:	3825883a 	mov	r18,r7
 5090884:	0401ffc4 	movi	r16,2047
 5090888:	003e8006 	br	509028c <__alt_data_end+0xfffc208c>
 509088c:	4462b03a 	or	r17,r8,r17
 5090890:	8822c03a 	cmpne	r17,r17,zero
 5090894:	0007883a 	mov	r3,zero
 5090898:	003f8b06 	br	50906c8 <__alt_data_end+0xfffc24c8>
 509089c:	0141ffc4 	movi	r5,2047
 50908a0:	11403b26 	beq	r2,r5,5090990 <__adddf3+0x780>
 50908a4:	0109c83a 	sub	r4,zero,r4
 50908a8:	42002034 	orhi	r8,r8,128
 50908ac:	01400e04 	movi	r5,56
 50908b0:	29006716 	blt	r5,r4,5090a50 <__adddf3+0x840>
 50908b4:	014007c4 	movi	r5,31
 50908b8:	29007016 	blt	r5,r4,5090a7c <__adddf3+0x86c>
 50908bc:	01400804 	movi	r5,32
 50908c0:	290bc83a 	sub	r5,r5,r4
 50908c4:	4154983a 	sll	r10,r8,r5
 50908c8:	890ed83a 	srl	r7,r17,r4
 50908cc:	894a983a 	sll	r5,r17,r5
 50908d0:	4108d83a 	srl	r4,r8,r4
 50908d4:	51e2b03a 	or	r17,r10,r7
 50908d8:	280ac03a 	cmpne	r5,r5,zero
 50908dc:	8962b03a 	or	r17,r17,r5
 50908e0:	89a3883a 	add	r17,r17,r6
 50908e4:	2253883a 	add	r9,r4,r9
 50908e8:	898d803a 	cmpltu	r6,r17,r6
 50908ec:	3251883a 	add	r8,r6,r9
 50908f0:	1021883a 	mov	r16,r2
 50908f4:	003ee506 	br	509048c <__alt_data_end+0xfffc228c>
 50908f8:	4984b03a 	or	r2,r9,r6
 50908fc:	103e6326 	beq	r2,zero,509028c <__alt_data_end+0xfffc208c>
 5090900:	8987c83a 	sub	r3,r17,r6
 5090904:	88c9803a 	cmpltu	r4,r17,r3
 5090908:	4245c83a 	sub	r2,r8,r9
 509090c:	1105c83a 	sub	r2,r2,r4
 5090910:	1100202c 	andhi	r4,r2,128
 5090914:	203ebb26 	beq	r4,zero,5090404 <__alt_data_end+0xfffc2204>
 5090918:	3463c83a 	sub	r17,r6,r17
 509091c:	4a07c83a 	sub	r3,r9,r8
 5090920:	344d803a 	cmpltu	r6,r6,r17
 5090924:	1991c83a 	sub	r8,r3,r6
 5090928:	3825883a 	mov	r18,r7
 509092c:	003e5706 	br	509028c <__alt_data_end+0xfffc208c>
 5090930:	4984b03a 	or	r2,r9,r6
 5090934:	10002e26 	beq	r2,zero,50909f0 <__adddf3+0x7e0>
 5090938:	4004d0fa 	srli	r2,r8,3
 509093c:	8822d0fa 	srli	r17,r17,3
 5090940:	4010977a 	slli	r8,r8,29
 5090944:	10c0022c 	andhi	r3,r2,8
 5090948:	4462b03a 	or	r17,r8,r17
 509094c:	18000826 	beq	r3,zero,5090970 <__adddf3+0x760>
 5090950:	4808d0fa 	srli	r4,r9,3
 5090954:	20c0022c 	andhi	r3,r4,8
 5090958:	1800051e 	bne	r3,zero,5090970 <__adddf3+0x760>
 509095c:	300cd0fa 	srli	r6,r6,3
 5090960:	4806977a 	slli	r3,r9,29
 5090964:	2005883a 	mov	r2,r4
 5090968:	3825883a 	mov	r18,r7
 509096c:	19a2b03a 	or	r17,r3,r6
 5090970:	8810d77a 	srli	r8,r17,29
 5090974:	100490fa 	slli	r2,r2,3
 5090978:	882290fa 	slli	r17,r17,3
 509097c:	0401ffc4 	movi	r16,2047
 5090980:	4090b03a 	or	r8,r8,r2
 5090984:	003e4106 	br	509028c <__alt_data_end+0xfffc208c>
 5090988:	0141ffc4 	movi	r5,2047
 509098c:	117fc71e 	bne	r2,r5,50908ac <__alt_data_end+0xfffc26ac>
 5090990:	4811883a 	mov	r8,r9
 5090994:	3023883a 	mov	r17,r6
 5090998:	1021883a 	mov	r16,r2
 509099c:	003e3b06 	br	509028c <__alt_data_end+0xfffc208c>
 50909a0:	10002f26 	beq	r2,zero,5090a60 <__adddf3+0x850>
 50909a4:	4984b03a 	or	r2,r9,r6
 50909a8:	10001126 	beq	r2,zero,50909f0 <__adddf3+0x7e0>
 50909ac:	4004d0fa 	srli	r2,r8,3
 50909b0:	8822d0fa 	srli	r17,r17,3
 50909b4:	4010977a 	slli	r8,r8,29
 50909b8:	10c0022c 	andhi	r3,r2,8
 50909bc:	4462b03a 	or	r17,r8,r17
 50909c0:	183feb26 	beq	r3,zero,5090970 <__alt_data_end+0xfffc2770>
 50909c4:	4808d0fa 	srli	r4,r9,3
 50909c8:	20c0022c 	andhi	r3,r4,8
 50909cc:	183fe81e 	bne	r3,zero,5090970 <__alt_data_end+0xfffc2770>
 50909d0:	300cd0fa 	srli	r6,r6,3
 50909d4:	4806977a 	slli	r3,r9,29
 50909d8:	2005883a 	mov	r2,r4
 50909dc:	19a2b03a 	or	r17,r3,r6
 50909e0:	003fe306 	br	5090970 <__alt_data_end+0xfffc2770>
 50909e4:	0011883a 	mov	r8,zero
 50909e8:	0005883a 	mov	r2,zero
 50909ec:	003e3f06 	br	50902ec <__alt_data_end+0xfffc20ec>
 50909f0:	0401ffc4 	movi	r16,2047
 50909f4:	003e2506 	br	509028c <__alt_data_end+0xfffc208c>
 50909f8:	0013883a 	mov	r9,zero
 50909fc:	003f8406 	br	5090810 <__alt_data_end+0xfffc2610>
 5090a00:	0005883a 	mov	r2,zero
 5090a04:	0007883a 	mov	r3,zero
 5090a08:	003e8906 	br	5090430 <__alt_data_end+0xfffc2230>
 5090a0c:	197ff804 	addi	r5,r3,-32
 5090a10:	01000804 	movi	r4,32
 5090a14:	414ad83a 	srl	r5,r8,r5
 5090a18:	19002426 	beq	r3,r4,5090aac <__adddf3+0x89c>
 5090a1c:	01001004 	movi	r4,64
 5090a20:	20c7c83a 	sub	r3,r4,r3
 5090a24:	40c6983a 	sll	r3,r8,r3
 5090a28:	1c46b03a 	or	r3,r3,r17
 5090a2c:	1806c03a 	cmpne	r3,r3,zero
 5090a30:	28e2b03a 	or	r17,r5,r3
 5090a34:	0007883a 	mov	r3,zero
 5090a38:	003f2306 	br	50906c8 <__alt_data_end+0xfffc24c8>
 5090a3c:	0007883a 	mov	r3,zero
 5090a40:	5811883a 	mov	r8,r11
 5090a44:	00bfffc4 	movi	r2,-1
 5090a48:	0401ffc4 	movi	r16,2047
 5090a4c:	003e7806 	br	5090430 <__alt_data_end+0xfffc2230>
 5090a50:	4462b03a 	or	r17,r8,r17
 5090a54:	8822c03a 	cmpne	r17,r17,zero
 5090a58:	0009883a 	mov	r4,zero
 5090a5c:	003fa006 	br	50908e0 <__alt_data_end+0xfffc26e0>
 5090a60:	4811883a 	mov	r8,r9
 5090a64:	3023883a 	mov	r17,r6
 5090a68:	0401ffc4 	movi	r16,2047
 5090a6c:	003e0706 	br	509028c <__alt_data_end+0xfffc208c>
 5090a70:	4811883a 	mov	r8,r9
 5090a74:	3023883a 	mov	r17,r6
 5090a78:	003e0406 	br	509028c <__alt_data_end+0xfffc208c>
 5090a7c:	21fff804 	addi	r7,r4,-32
 5090a80:	01400804 	movi	r5,32
 5090a84:	41ced83a 	srl	r7,r8,r7
 5090a88:	21400a26 	beq	r4,r5,5090ab4 <__adddf3+0x8a4>
 5090a8c:	01401004 	movi	r5,64
 5090a90:	2909c83a 	sub	r4,r5,r4
 5090a94:	4108983a 	sll	r4,r8,r4
 5090a98:	2448b03a 	or	r4,r4,r17
 5090a9c:	2008c03a 	cmpne	r4,r4,zero
 5090aa0:	3922b03a 	or	r17,r7,r4
 5090aa4:	0009883a 	mov	r4,zero
 5090aa8:	003f8d06 	br	50908e0 <__alt_data_end+0xfffc26e0>
 5090aac:	0007883a 	mov	r3,zero
 5090ab0:	003fdd06 	br	5090a28 <__alt_data_end+0xfffc2828>
 5090ab4:	0009883a 	mov	r4,zero
 5090ab8:	003ff706 	br	5090a98 <__alt_data_end+0xfffc2898>

05090abc <__divdf3>:
 5090abc:	defff204 	addi	sp,sp,-56
 5090ac0:	dd400915 	stw	r21,36(sp)
 5090ac4:	282ad53a 	srli	r21,r5,20
 5090ac8:	dd000815 	stw	r20,32(sp)
 5090acc:	2828d7fa 	srli	r20,r5,31
 5090ad0:	dc000415 	stw	r16,16(sp)
 5090ad4:	04000434 	movhi	r16,16
 5090ad8:	df000c15 	stw	fp,48(sp)
 5090adc:	843fffc4 	addi	r16,r16,-1
 5090ae0:	dfc00d15 	stw	ra,52(sp)
 5090ae4:	ddc00b15 	stw	r23,44(sp)
 5090ae8:	dd800a15 	stw	r22,40(sp)
 5090aec:	dcc00715 	stw	r19,28(sp)
 5090af0:	dc800615 	stw	r18,24(sp)
 5090af4:	dc400515 	stw	r17,20(sp)
 5090af8:	ad41ffcc 	andi	r21,r21,2047
 5090afc:	2c20703a 	and	r16,r5,r16
 5090b00:	a7003fcc 	andi	fp,r20,255
 5090b04:	a8006126 	beq	r21,zero,5090c8c <__divdf3+0x1d0>
 5090b08:	0081ffc4 	movi	r2,2047
 5090b0c:	2025883a 	mov	r18,r4
 5090b10:	a8803726 	beq	r21,r2,5090bf0 <__divdf3+0x134>
 5090b14:	80800434 	orhi	r2,r16,16
 5090b18:	100490fa 	slli	r2,r2,3
 5090b1c:	2020d77a 	srli	r16,r4,29
 5090b20:	202490fa 	slli	r18,r4,3
 5090b24:	ad7f0044 	addi	r21,r21,-1023
 5090b28:	80a0b03a 	or	r16,r16,r2
 5090b2c:	0027883a 	mov	r19,zero
 5090b30:	0013883a 	mov	r9,zero
 5090b34:	3804d53a 	srli	r2,r7,20
 5090b38:	382cd7fa 	srli	r22,r7,31
 5090b3c:	04400434 	movhi	r17,16
 5090b40:	8c7fffc4 	addi	r17,r17,-1
 5090b44:	1081ffcc 	andi	r2,r2,2047
 5090b48:	3011883a 	mov	r8,r6
 5090b4c:	3c62703a 	and	r17,r7,r17
 5090b50:	b5c03fcc 	andi	r23,r22,255
 5090b54:	10006c26 	beq	r2,zero,5090d08 <__divdf3+0x24c>
 5090b58:	00c1ffc4 	movi	r3,2047
 5090b5c:	10c06426 	beq	r2,r3,5090cf0 <__divdf3+0x234>
 5090b60:	88c00434 	orhi	r3,r17,16
 5090b64:	180690fa 	slli	r3,r3,3
 5090b68:	3022d77a 	srli	r17,r6,29
 5090b6c:	301090fa 	slli	r8,r6,3
 5090b70:	10bf0044 	addi	r2,r2,-1023
 5090b74:	88e2b03a 	or	r17,r17,r3
 5090b78:	000f883a 	mov	r7,zero
 5090b7c:	a58cf03a 	xor	r6,r20,r22
 5090b80:	3cc8b03a 	or	r4,r7,r19
 5090b84:	a8abc83a 	sub	r21,r21,r2
 5090b88:	008003c4 	movi	r2,15
 5090b8c:	3007883a 	mov	r3,r6
 5090b90:	34c03fcc 	andi	r19,r6,255
 5090b94:	11009036 	bltu	r2,r4,5090dd8 <__divdf3+0x31c>
 5090b98:	200890ba 	slli	r4,r4,2
 5090b9c:	00814274 	movhi	r2,1289
 5090ba0:	1082ec04 	addi	r2,r2,2992
 5090ba4:	2089883a 	add	r4,r4,r2
 5090ba8:	20800017 	ldw	r2,0(r4)
 5090bac:	1000683a 	jmp	r2
 5090bb0:	05090dd8 	cmpnei	r20,zero,9271
 5090bb4:	05090c28 	cmpgeui	r20,zero,9264
 5090bb8:	05090dc8 	cmpgei	r20,zero,9271
 5090bbc:	05090c1c 	xori	r20,zero,9264
 5090bc0:	05090dc8 	cmpgei	r20,zero,9271
 5090bc4:	05090d9c 	xori	r20,zero,9270
 5090bc8:	05090dc8 	cmpgei	r20,zero,9271
 5090bcc:	05090c1c 	xori	r20,zero,9264
 5090bd0:	05090c28 	cmpgeui	r20,zero,9264
 5090bd4:	05090c28 	cmpgeui	r20,zero,9264
 5090bd8:	05090d9c 	xori	r20,zero,9270
 5090bdc:	05090c1c 	xori	r20,zero,9264
 5090be0:	05090c0c 	andi	r20,zero,9264
 5090be4:	05090c0c 	andi	r20,zero,9264
 5090be8:	05090c0c 	andi	r20,zero,9264
 5090bec:	050910bc 	xorhi	r20,zero,9282
 5090bf0:	2404b03a 	or	r2,r4,r16
 5090bf4:	1000661e 	bne	r2,zero,5090d90 <__divdf3+0x2d4>
 5090bf8:	04c00204 	movi	r19,8
 5090bfc:	0021883a 	mov	r16,zero
 5090c00:	0025883a 	mov	r18,zero
 5090c04:	02400084 	movi	r9,2
 5090c08:	003fca06 	br	5090b34 <__alt_data_end+0xfffc2934>
 5090c0c:	8023883a 	mov	r17,r16
 5090c10:	9011883a 	mov	r8,r18
 5090c14:	e02f883a 	mov	r23,fp
 5090c18:	480f883a 	mov	r7,r9
 5090c1c:	00800084 	movi	r2,2
 5090c20:	3881311e 	bne	r7,r2,50910e8 <__divdf3+0x62c>
 5090c24:	b827883a 	mov	r19,r23
 5090c28:	98c0004c 	andi	r3,r19,1
 5090c2c:	0081ffc4 	movi	r2,2047
 5090c30:	000b883a 	mov	r5,zero
 5090c34:	0025883a 	mov	r18,zero
 5090c38:	1004953a 	slli	r2,r2,20
 5090c3c:	18c03fcc 	andi	r3,r3,255
 5090c40:	04400434 	movhi	r17,16
 5090c44:	8c7fffc4 	addi	r17,r17,-1
 5090c48:	180697fa 	slli	r3,r3,31
 5090c4c:	2c4a703a 	and	r5,r5,r17
 5090c50:	288ab03a 	or	r5,r5,r2
 5090c54:	28c6b03a 	or	r3,r5,r3
 5090c58:	9005883a 	mov	r2,r18
 5090c5c:	dfc00d17 	ldw	ra,52(sp)
 5090c60:	df000c17 	ldw	fp,48(sp)
 5090c64:	ddc00b17 	ldw	r23,44(sp)
 5090c68:	dd800a17 	ldw	r22,40(sp)
 5090c6c:	dd400917 	ldw	r21,36(sp)
 5090c70:	dd000817 	ldw	r20,32(sp)
 5090c74:	dcc00717 	ldw	r19,28(sp)
 5090c78:	dc800617 	ldw	r18,24(sp)
 5090c7c:	dc400517 	ldw	r17,20(sp)
 5090c80:	dc000417 	ldw	r16,16(sp)
 5090c84:	dec00e04 	addi	sp,sp,56
 5090c88:	f800283a 	ret
 5090c8c:	2404b03a 	or	r2,r4,r16
 5090c90:	2027883a 	mov	r19,r4
 5090c94:	10003926 	beq	r2,zero,5090d7c <__divdf3+0x2c0>
 5090c98:	80012e26 	beq	r16,zero,5091154 <__divdf3+0x698>
 5090c9c:	8009883a 	mov	r4,r16
 5090ca0:	d9800315 	stw	r6,12(sp)
 5090ca4:	d9c00215 	stw	r7,8(sp)
 5090ca8:	50928140 	call	5092814 <__clzsi2>
 5090cac:	d9800317 	ldw	r6,12(sp)
 5090cb0:	d9c00217 	ldw	r7,8(sp)
 5090cb4:	113ffd44 	addi	r4,r2,-11
 5090cb8:	00c00704 	movi	r3,28
 5090cbc:	19012116 	blt	r3,r4,5091144 <__divdf3+0x688>
 5090cc0:	00c00744 	movi	r3,29
 5090cc4:	147ffe04 	addi	r17,r2,-8
 5090cc8:	1907c83a 	sub	r3,r3,r4
 5090ccc:	8460983a 	sll	r16,r16,r17
 5090cd0:	98c6d83a 	srl	r3,r19,r3
 5090cd4:	9c64983a 	sll	r18,r19,r17
 5090cd8:	1c20b03a 	or	r16,r3,r16
 5090cdc:	1080fcc4 	addi	r2,r2,1011
 5090ce0:	00abc83a 	sub	r21,zero,r2
 5090ce4:	0027883a 	mov	r19,zero
 5090ce8:	0013883a 	mov	r9,zero
 5090cec:	003f9106 	br	5090b34 <__alt_data_end+0xfffc2934>
 5090cf0:	3446b03a 	or	r3,r6,r17
 5090cf4:	18001f1e 	bne	r3,zero,5090d74 <__divdf3+0x2b8>
 5090cf8:	0023883a 	mov	r17,zero
 5090cfc:	0011883a 	mov	r8,zero
 5090d00:	01c00084 	movi	r7,2
 5090d04:	003f9d06 	br	5090b7c <__alt_data_end+0xfffc297c>
 5090d08:	3446b03a 	or	r3,r6,r17
 5090d0c:	18001526 	beq	r3,zero,5090d64 <__divdf3+0x2a8>
 5090d10:	88011b26 	beq	r17,zero,5091180 <__divdf3+0x6c4>
 5090d14:	8809883a 	mov	r4,r17
 5090d18:	d9800315 	stw	r6,12(sp)
 5090d1c:	da400115 	stw	r9,4(sp)
 5090d20:	50928140 	call	5092814 <__clzsi2>
 5090d24:	d9800317 	ldw	r6,12(sp)
 5090d28:	da400117 	ldw	r9,4(sp)
 5090d2c:	113ffd44 	addi	r4,r2,-11
 5090d30:	00c00704 	movi	r3,28
 5090d34:	19010e16 	blt	r3,r4,5091170 <__divdf3+0x6b4>
 5090d38:	00c00744 	movi	r3,29
 5090d3c:	123ffe04 	addi	r8,r2,-8
 5090d40:	1907c83a 	sub	r3,r3,r4
 5090d44:	8a22983a 	sll	r17,r17,r8
 5090d48:	30c6d83a 	srl	r3,r6,r3
 5090d4c:	3210983a 	sll	r8,r6,r8
 5090d50:	1c62b03a 	or	r17,r3,r17
 5090d54:	1080fcc4 	addi	r2,r2,1011
 5090d58:	0085c83a 	sub	r2,zero,r2
 5090d5c:	000f883a 	mov	r7,zero
 5090d60:	003f8606 	br	5090b7c <__alt_data_end+0xfffc297c>
 5090d64:	0023883a 	mov	r17,zero
 5090d68:	0011883a 	mov	r8,zero
 5090d6c:	01c00044 	movi	r7,1
 5090d70:	003f8206 	br	5090b7c <__alt_data_end+0xfffc297c>
 5090d74:	01c000c4 	movi	r7,3
 5090d78:	003f8006 	br	5090b7c <__alt_data_end+0xfffc297c>
 5090d7c:	04c00104 	movi	r19,4
 5090d80:	0021883a 	mov	r16,zero
 5090d84:	0025883a 	mov	r18,zero
 5090d88:	02400044 	movi	r9,1
 5090d8c:	003f6906 	br	5090b34 <__alt_data_end+0xfffc2934>
 5090d90:	04c00304 	movi	r19,12
 5090d94:	024000c4 	movi	r9,3
 5090d98:	003f6606 	br	5090b34 <__alt_data_end+0xfffc2934>
 5090d9c:	01400434 	movhi	r5,16
 5090da0:	0007883a 	mov	r3,zero
 5090da4:	297fffc4 	addi	r5,r5,-1
 5090da8:	04bfffc4 	movi	r18,-1
 5090dac:	0081ffc4 	movi	r2,2047
 5090db0:	003fa106 	br	5090c38 <__alt_data_end+0xfffc2a38>
 5090db4:	00c00044 	movi	r3,1
 5090db8:	1887c83a 	sub	r3,r3,r2
 5090dbc:	01000e04 	movi	r4,56
 5090dc0:	20c1210e 	bge	r4,r3,5091248 <__divdf3+0x78c>
 5090dc4:	98c0004c 	andi	r3,r19,1
 5090dc8:	0005883a 	mov	r2,zero
 5090dcc:	000b883a 	mov	r5,zero
 5090dd0:	0025883a 	mov	r18,zero
 5090dd4:	003f9806 	br	5090c38 <__alt_data_end+0xfffc2a38>
 5090dd8:	8c00fd36 	bltu	r17,r16,50911d0 <__divdf3+0x714>
 5090ddc:	8440fb26 	beq	r16,r17,50911cc <__divdf3+0x710>
 5090de0:	8007883a 	mov	r3,r16
 5090de4:	ad7fffc4 	addi	r21,r21,-1
 5090de8:	0021883a 	mov	r16,zero
 5090dec:	4004d63a 	srli	r2,r8,24
 5090df0:	8822923a 	slli	r17,r17,8
 5090df4:	1809883a 	mov	r4,r3
 5090df8:	402c923a 	slli	r22,r8,8
 5090dfc:	88b8b03a 	or	fp,r17,r2
 5090e00:	e028d43a 	srli	r20,fp,16
 5090e04:	d8c00015 	stw	r3,0(sp)
 5090e08:	e5ffffcc 	andi	r23,fp,65535
 5090e0c:	a00b883a 	mov	r5,r20
 5090e10:	50828840 	call	5082884 <__udivsi3>
 5090e14:	d8c00017 	ldw	r3,0(sp)
 5090e18:	a00b883a 	mov	r5,r20
 5090e1c:	d8800315 	stw	r2,12(sp)
 5090e20:	1809883a 	mov	r4,r3
 5090e24:	50828e80 	call	50828e8 <__umodsi3>
 5090e28:	d9800317 	ldw	r6,12(sp)
 5090e2c:	1006943a 	slli	r3,r2,16
 5090e30:	9004d43a 	srli	r2,r18,16
 5090e34:	b9a3383a 	mul	r17,r23,r6
 5090e38:	10c4b03a 	or	r2,r2,r3
 5090e3c:	1440062e 	bgeu	r2,r17,5090e58 <__divdf3+0x39c>
 5090e40:	1705883a 	add	r2,r2,fp
 5090e44:	30ffffc4 	addi	r3,r6,-1
 5090e48:	1700ee36 	bltu	r2,fp,5091204 <__divdf3+0x748>
 5090e4c:	1440ed2e 	bgeu	r2,r17,5091204 <__divdf3+0x748>
 5090e50:	31bfff84 	addi	r6,r6,-2
 5090e54:	1705883a 	add	r2,r2,fp
 5090e58:	1463c83a 	sub	r17,r2,r17
 5090e5c:	a00b883a 	mov	r5,r20
 5090e60:	8809883a 	mov	r4,r17
 5090e64:	d9800315 	stw	r6,12(sp)
 5090e68:	50828840 	call	5082884 <__udivsi3>
 5090e6c:	a00b883a 	mov	r5,r20
 5090e70:	8809883a 	mov	r4,r17
 5090e74:	d8800215 	stw	r2,8(sp)
 5090e78:	50828e80 	call	50828e8 <__umodsi3>
 5090e7c:	d9c00217 	ldw	r7,8(sp)
 5090e80:	1004943a 	slli	r2,r2,16
 5090e84:	94bfffcc 	andi	r18,r18,65535
 5090e88:	b9d1383a 	mul	r8,r23,r7
 5090e8c:	90a4b03a 	or	r18,r18,r2
 5090e90:	d9800317 	ldw	r6,12(sp)
 5090e94:	9200062e 	bgeu	r18,r8,5090eb0 <__divdf3+0x3f4>
 5090e98:	9725883a 	add	r18,r18,fp
 5090e9c:	38bfffc4 	addi	r2,r7,-1
 5090ea0:	9700d636 	bltu	r18,fp,50911fc <__divdf3+0x740>
 5090ea4:	9200d52e 	bgeu	r18,r8,50911fc <__divdf3+0x740>
 5090ea8:	39ffff84 	addi	r7,r7,-2
 5090eac:	9725883a 	add	r18,r18,fp
 5090eb0:	3004943a 	slli	r2,r6,16
 5090eb4:	b012d43a 	srli	r9,r22,16
 5090eb8:	b1bfffcc 	andi	r6,r22,65535
 5090ebc:	11e2b03a 	or	r17,r2,r7
 5090ec0:	8806d43a 	srli	r3,r17,16
 5090ec4:	893fffcc 	andi	r4,r17,65535
 5090ec8:	218b383a 	mul	r5,r4,r6
 5090ecc:	30c5383a 	mul	r2,r6,r3
 5090ed0:	2249383a 	mul	r4,r4,r9
 5090ed4:	280ed43a 	srli	r7,r5,16
 5090ed8:	9225c83a 	sub	r18,r18,r8
 5090edc:	2089883a 	add	r4,r4,r2
 5090ee0:	3909883a 	add	r4,r7,r4
 5090ee4:	1a47383a 	mul	r3,r3,r9
 5090ee8:	2080022e 	bgeu	r4,r2,5090ef4 <__divdf3+0x438>
 5090eec:	00800074 	movhi	r2,1
 5090ef0:	1887883a 	add	r3,r3,r2
 5090ef4:	2004d43a 	srli	r2,r4,16
 5090ef8:	2008943a 	slli	r4,r4,16
 5090efc:	297fffcc 	andi	r5,r5,65535
 5090f00:	10c7883a 	add	r3,r2,r3
 5090f04:	2149883a 	add	r4,r4,r5
 5090f08:	90c0a536 	bltu	r18,r3,50911a0 <__divdf3+0x6e4>
 5090f0c:	90c0bf26 	beq	r18,r3,509120c <__divdf3+0x750>
 5090f10:	90c7c83a 	sub	r3,r18,r3
 5090f14:	810fc83a 	sub	r7,r16,r4
 5090f18:	81e5803a 	cmpltu	r18,r16,r7
 5090f1c:	1ca5c83a 	sub	r18,r3,r18
 5090f20:	e480c126 	beq	fp,r18,5091228 <__divdf3+0x76c>
 5090f24:	a00b883a 	mov	r5,r20
 5090f28:	9009883a 	mov	r4,r18
 5090f2c:	d9800315 	stw	r6,12(sp)
 5090f30:	d9c00215 	stw	r7,8(sp)
 5090f34:	da400115 	stw	r9,4(sp)
 5090f38:	50828840 	call	5082884 <__udivsi3>
 5090f3c:	a00b883a 	mov	r5,r20
 5090f40:	9009883a 	mov	r4,r18
 5090f44:	d8800015 	stw	r2,0(sp)
 5090f48:	50828e80 	call	50828e8 <__umodsi3>
 5090f4c:	d9c00217 	ldw	r7,8(sp)
 5090f50:	da000017 	ldw	r8,0(sp)
 5090f54:	1006943a 	slli	r3,r2,16
 5090f58:	3804d43a 	srli	r2,r7,16
 5090f5c:	ba21383a 	mul	r16,r23,r8
 5090f60:	d9800317 	ldw	r6,12(sp)
 5090f64:	10c4b03a 	or	r2,r2,r3
 5090f68:	da400117 	ldw	r9,4(sp)
 5090f6c:	1400062e 	bgeu	r2,r16,5090f88 <__divdf3+0x4cc>
 5090f70:	1705883a 	add	r2,r2,fp
 5090f74:	40ffffc4 	addi	r3,r8,-1
 5090f78:	1700ad36 	bltu	r2,fp,5091230 <__divdf3+0x774>
 5090f7c:	1400ac2e 	bgeu	r2,r16,5091230 <__divdf3+0x774>
 5090f80:	423fff84 	addi	r8,r8,-2
 5090f84:	1705883a 	add	r2,r2,fp
 5090f88:	1421c83a 	sub	r16,r2,r16
 5090f8c:	a00b883a 	mov	r5,r20
 5090f90:	8009883a 	mov	r4,r16
 5090f94:	d9800315 	stw	r6,12(sp)
 5090f98:	d9c00215 	stw	r7,8(sp)
 5090f9c:	da000015 	stw	r8,0(sp)
 5090fa0:	da400115 	stw	r9,4(sp)
 5090fa4:	50828840 	call	5082884 <__udivsi3>
 5090fa8:	8009883a 	mov	r4,r16
 5090fac:	a00b883a 	mov	r5,r20
 5090fb0:	1025883a 	mov	r18,r2
 5090fb4:	50828e80 	call	50828e8 <__umodsi3>
 5090fb8:	d9c00217 	ldw	r7,8(sp)
 5090fbc:	1004943a 	slli	r2,r2,16
 5090fc0:	bcaf383a 	mul	r23,r23,r18
 5090fc4:	393fffcc 	andi	r4,r7,65535
 5090fc8:	2088b03a 	or	r4,r4,r2
 5090fcc:	d9800317 	ldw	r6,12(sp)
 5090fd0:	da000017 	ldw	r8,0(sp)
 5090fd4:	da400117 	ldw	r9,4(sp)
 5090fd8:	25c0062e 	bgeu	r4,r23,5090ff4 <__divdf3+0x538>
 5090fdc:	2709883a 	add	r4,r4,fp
 5090fe0:	90bfffc4 	addi	r2,r18,-1
 5090fe4:	27009436 	bltu	r4,fp,5091238 <__divdf3+0x77c>
 5090fe8:	25c0932e 	bgeu	r4,r23,5091238 <__divdf3+0x77c>
 5090fec:	94bfff84 	addi	r18,r18,-2
 5090ff0:	2709883a 	add	r4,r4,fp
 5090ff4:	4004943a 	slli	r2,r8,16
 5090ff8:	25efc83a 	sub	r23,r4,r23
 5090ffc:	1490b03a 	or	r8,r2,r18
 5091000:	4008d43a 	srli	r4,r8,16
 5091004:	40ffffcc 	andi	r3,r8,65535
 5091008:	30c5383a 	mul	r2,r6,r3
 509100c:	1a47383a 	mul	r3,r3,r9
 5091010:	310d383a 	mul	r6,r6,r4
 5091014:	100ad43a 	srli	r5,r2,16
 5091018:	4913383a 	mul	r9,r9,r4
 509101c:	1987883a 	add	r3,r3,r6
 5091020:	28c7883a 	add	r3,r5,r3
 5091024:	1980022e 	bgeu	r3,r6,5091030 <__divdf3+0x574>
 5091028:	01000074 	movhi	r4,1
 509102c:	4913883a 	add	r9,r9,r4
 5091030:	1808d43a 	srli	r4,r3,16
 5091034:	1806943a 	slli	r3,r3,16
 5091038:	10bfffcc 	andi	r2,r2,65535
 509103c:	2253883a 	add	r9,r4,r9
 5091040:	1887883a 	add	r3,r3,r2
 5091044:	ba403836 	bltu	r23,r9,5091128 <__divdf3+0x66c>
 5091048:	ba403626 	beq	r23,r9,5091124 <__divdf3+0x668>
 509104c:	42000054 	ori	r8,r8,1
 5091050:	a880ffc4 	addi	r2,r21,1023
 5091054:	00bf570e 	bge	zero,r2,5090db4 <__alt_data_end+0xfffc2bb4>
 5091058:	40c001cc 	andi	r3,r8,7
 509105c:	18000726 	beq	r3,zero,509107c <__divdf3+0x5c0>
 5091060:	40c003cc 	andi	r3,r8,15
 5091064:	01000104 	movi	r4,4
 5091068:	19000426 	beq	r3,r4,509107c <__divdf3+0x5c0>
 509106c:	4107883a 	add	r3,r8,r4
 5091070:	1a11803a 	cmpltu	r8,r3,r8
 5091074:	8a23883a 	add	r17,r17,r8
 5091078:	1811883a 	mov	r8,r3
 509107c:	88c0402c 	andhi	r3,r17,256
 5091080:	18000426 	beq	r3,zero,5091094 <__divdf3+0x5d8>
 5091084:	00ffc034 	movhi	r3,65280
 5091088:	18ffffc4 	addi	r3,r3,-1
 509108c:	a8810004 	addi	r2,r21,1024
 5091090:	88e2703a 	and	r17,r17,r3
 5091094:	00c1ff84 	movi	r3,2046
 5091098:	18bee316 	blt	r3,r2,5090c28 <__alt_data_end+0xfffc2a28>
 509109c:	8824977a 	slli	r18,r17,29
 50910a0:	4010d0fa 	srli	r8,r8,3
 50910a4:	8822927a 	slli	r17,r17,9
 50910a8:	1081ffcc 	andi	r2,r2,2047
 50910ac:	9224b03a 	or	r18,r18,r8
 50910b0:	880ad33a 	srli	r5,r17,12
 50910b4:	98c0004c 	andi	r3,r19,1
 50910b8:	003edf06 	br	5090c38 <__alt_data_end+0xfffc2a38>
 50910bc:	8080022c 	andhi	r2,r16,8
 50910c0:	10001226 	beq	r2,zero,509110c <__divdf3+0x650>
 50910c4:	8880022c 	andhi	r2,r17,8
 50910c8:	1000101e 	bne	r2,zero,509110c <__divdf3+0x650>
 50910cc:	00800434 	movhi	r2,16
 50910d0:	89400234 	orhi	r5,r17,8
 50910d4:	10bfffc4 	addi	r2,r2,-1
 50910d8:	b007883a 	mov	r3,r22
 50910dc:	288a703a 	and	r5,r5,r2
 50910e0:	4025883a 	mov	r18,r8
 50910e4:	003f3106 	br	5090dac <__alt_data_end+0xfffc2bac>
 50910e8:	008000c4 	movi	r2,3
 50910ec:	3880a626 	beq	r7,r2,5091388 <__divdf3+0x8cc>
 50910f0:	00800044 	movi	r2,1
 50910f4:	3880521e 	bne	r7,r2,5091240 <__divdf3+0x784>
 50910f8:	b807883a 	mov	r3,r23
 50910fc:	0005883a 	mov	r2,zero
 5091100:	000b883a 	mov	r5,zero
 5091104:	0025883a 	mov	r18,zero
 5091108:	003ecb06 	br	5090c38 <__alt_data_end+0xfffc2a38>
 509110c:	00800434 	movhi	r2,16
 5091110:	81400234 	orhi	r5,r16,8
 5091114:	10bfffc4 	addi	r2,r2,-1
 5091118:	a007883a 	mov	r3,r20
 509111c:	288a703a 	and	r5,r5,r2
 5091120:	003f2206 	br	5090dac <__alt_data_end+0xfffc2bac>
 5091124:	183fca26 	beq	r3,zero,5091050 <__alt_data_end+0xfffc2e50>
 5091128:	e5ef883a 	add	r23,fp,r23
 509112c:	40bfffc4 	addi	r2,r8,-1
 5091130:	bf00392e 	bgeu	r23,fp,5091218 <__divdf3+0x75c>
 5091134:	1011883a 	mov	r8,r2
 5091138:	ba7fc41e 	bne	r23,r9,509104c <__alt_data_end+0xfffc2e4c>
 509113c:	b0ffc31e 	bne	r22,r3,509104c <__alt_data_end+0xfffc2e4c>
 5091140:	003fc306 	br	5091050 <__alt_data_end+0xfffc2e50>
 5091144:	143ff604 	addi	r16,r2,-40
 5091148:	9c20983a 	sll	r16,r19,r16
 509114c:	0025883a 	mov	r18,zero
 5091150:	003ee206 	br	5090cdc <__alt_data_end+0xfffc2adc>
 5091154:	d9800315 	stw	r6,12(sp)
 5091158:	d9c00215 	stw	r7,8(sp)
 509115c:	50928140 	call	5092814 <__clzsi2>
 5091160:	10800804 	addi	r2,r2,32
 5091164:	d9c00217 	ldw	r7,8(sp)
 5091168:	d9800317 	ldw	r6,12(sp)
 509116c:	003ed106 	br	5090cb4 <__alt_data_end+0xfffc2ab4>
 5091170:	147ff604 	addi	r17,r2,-40
 5091174:	3462983a 	sll	r17,r6,r17
 5091178:	0011883a 	mov	r8,zero
 509117c:	003ef506 	br	5090d54 <__alt_data_end+0xfffc2b54>
 5091180:	3009883a 	mov	r4,r6
 5091184:	d9800315 	stw	r6,12(sp)
 5091188:	da400115 	stw	r9,4(sp)
 509118c:	50928140 	call	5092814 <__clzsi2>
 5091190:	10800804 	addi	r2,r2,32
 5091194:	da400117 	ldw	r9,4(sp)
 5091198:	d9800317 	ldw	r6,12(sp)
 509119c:	003ee306 	br	5090d2c <__alt_data_end+0xfffc2b2c>
 50911a0:	85a1883a 	add	r16,r16,r22
 50911a4:	8585803a 	cmpltu	r2,r16,r22
 50911a8:	1705883a 	add	r2,r2,fp
 50911ac:	14a5883a 	add	r18,r2,r18
 50911b0:	88bfffc4 	addi	r2,r17,-1
 50911b4:	e4800c2e 	bgeu	fp,r18,50911e8 <__divdf3+0x72c>
 50911b8:	90c03e36 	bltu	r18,r3,50912b4 <__divdf3+0x7f8>
 50911bc:	1c806926 	beq	r3,r18,5091364 <__divdf3+0x8a8>
 50911c0:	90c7c83a 	sub	r3,r18,r3
 50911c4:	1023883a 	mov	r17,r2
 50911c8:	003f5206 	br	5090f14 <__alt_data_end+0xfffc2d14>
 50911cc:	923f0436 	bltu	r18,r8,5090de0 <__alt_data_end+0xfffc2be0>
 50911d0:	800897fa 	slli	r4,r16,31
 50911d4:	9004d07a 	srli	r2,r18,1
 50911d8:	8006d07a 	srli	r3,r16,1
 50911dc:	902097fa 	slli	r16,r18,31
 50911e0:	20a4b03a 	or	r18,r4,r2
 50911e4:	003f0106 	br	5090dec <__alt_data_end+0xfffc2bec>
 50911e8:	e4bff51e 	bne	fp,r18,50911c0 <__alt_data_end+0xfffc2fc0>
 50911ec:	85bff22e 	bgeu	r16,r22,50911b8 <__alt_data_end+0xfffc2fb8>
 50911f0:	e0c7c83a 	sub	r3,fp,r3
 50911f4:	1023883a 	mov	r17,r2
 50911f8:	003f4606 	br	5090f14 <__alt_data_end+0xfffc2d14>
 50911fc:	100f883a 	mov	r7,r2
 5091200:	003f2b06 	br	5090eb0 <__alt_data_end+0xfffc2cb0>
 5091204:	180d883a 	mov	r6,r3
 5091208:	003f1306 	br	5090e58 <__alt_data_end+0xfffc2c58>
 509120c:	813fe436 	bltu	r16,r4,50911a0 <__alt_data_end+0xfffc2fa0>
 5091210:	0007883a 	mov	r3,zero
 5091214:	003f3f06 	br	5090f14 <__alt_data_end+0xfffc2d14>
 5091218:	ba402c36 	bltu	r23,r9,50912cc <__divdf3+0x810>
 509121c:	4dc05426 	beq	r9,r23,5091370 <__divdf3+0x8b4>
 5091220:	1011883a 	mov	r8,r2
 5091224:	003f8906 	br	509104c <__alt_data_end+0xfffc2e4c>
 5091228:	023fffc4 	movi	r8,-1
 509122c:	003f8806 	br	5091050 <__alt_data_end+0xfffc2e50>
 5091230:	1811883a 	mov	r8,r3
 5091234:	003f5406 	br	5090f88 <__alt_data_end+0xfffc2d88>
 5091238:	1025883a 	mov	r18,r2
 509123c:	003f6d06 	br	5090ff4 <__alt_data_end+0xfffc2df4>
 5091240:	b827883a 	mov	r19,r23
 5091244:	003f8206 	br	5091050 <__alt_data_end+0xfffc2e50>
 5091248:	010007c4 	movi	r4,31
 509124c:	20c02616 	blt	r4,r3,50912e8 <__divdf3+0x82c>
 5091250:	00800804 	movi	r2,32
 5091254:	10c5c83a 	sub	r2,r2,r3
 5091258:	888a983a 	sll	r5,r17,r2
 509125c:	40c8d83a 	srl	r4,r8,r3
 5091260:	4084983a 	sll	r2,r8,r2
 5091264:	88e2d83a 	srl	r17,r17,r3
 5091268:	2906b03a 	or	r3,r5,r4
 509126c:	1004c03a 	cmpne	r2,r2,zero
 5091270:	1886b03a 	or	r3,r3,r2
 5091274:	188001cc 	andi	r2,r3,7
 5091278:	10000726 	beq	r2,zero,5091298 <__divdf3+0x7dc>
 509127c:	188003cc 	andi	r2,r3,15
 5091280:	01000104 	movi	r4,4
 5091284:	11000426 	beq	r2,r4,5091298 <__divdf3+0x7dc>
 5091288:	1805883a 	mov	r2,r3
 509128c:	10c00104 	addi	r3,r2,4
 5091290:	1885803a 	cmpltu	r2,r3,r2
 5091294:	88a3883a 	add	r17,r17,r2
 5091298:	8880202c 	andhi	r2,r17,128
 509129c:	10002726 	beq	r2,zero,509133c <__divdf3+0x880>
 50912a0:	98c0004c 	andi	r3,r19,1
 50912a4:	00800044 	movi	r2,1
 50912a8:	000b883a 	mov	r5,zero
 50912ac:	0025883a 	mov	r18,zero
 50912b0:	003e6106 	br	5090c38 <__alt_data_end+0xfffc2a38>
 50912b4:	85a1883a 	add	r16,r16,r22
 50912b8:	8585803a 	cmpltu	r2,r16,r22
 50912bc:	1705883a 	add	r2,r2,fp
 50912c0:	14a5883a 	add	r18,r2,r18
 50912c4:	8c7fff84 	addi	r17,r17,-2
 50912c8:	003f1106 	br	5090f10 <__alt_data_end+0xfffc2d10>
 50912cc:	b589883a 	add	r4,r22,r22
 50912d0:	25ad803a 	cmpltu	r22,r4,r22
 50912d4:	b739883a 	add	fp,r22,fp
 50912d8:	40bfff84 	addi	r2,r8,-2
 50912dc:	bf2f883a 	add	r23,r23,fp
 50912e0:	202d883a 	mov	r22,r4
 50912e4:	003f9306 	br	5091134 <__alt_data_end+0xfffc2f34>
 50912e8:	013ff844 	movi	r4,-31
 50912ec:	2085c83a 	sub	r2,r4,r2
 50912f0:	8888d83a 	srl	r4,r17,r2
 50912f4:	00800804 	movi	r2,32
 50912f8:	18802126 	beq	r3,r2,5091380 <__divdf3+0x8c4>
 50912fc:	00801004 	movi	r2,64
 5091300:	10c5c83a 	sub	r2,r2,r3
 5091304:	8884983a 	sll	r2,r17,r2
 5091308:	1204b03a 	or	r2,r2,r8
 509130c:	1004c03a 	cmpne	r2,r2,zero
 5091310:	2084b03a 	or	r2,r4,r2
 5091314:	144001cc 	andi	r17,r2,7
 5091318:	88000d1e 	bne	r17,zero,5091350 <__divdf3+0x894>
 509131c:	000b883a 	mov	r5,zero
 5091320:	1024d0fa 	srli	r18,r2,3
 5091324:	98c0004c 	andi	r3,r19,1
 5091328:	0005883a 	mov	r2,zero
 509132c:	9464b03a 	or	r18,r18,r17
 5091330:	003e4106 	br	5090c38 <__alt_data_end+0xfffc2a38>
 5091334:	1007883a 	mov	r3,r2
 5091338:	0023883a 	mov	r17,zero
 509133c:	880a927a 	slli	r5,r17,9
 5091340:	1805883a 	mov	r2,r3
 5091344:	8822977a 	slli	r17,r17,29
 5091348:	280ad33a 	srli	r5,r5,12
 509134c:	003ff406 	br	5091320 <__alt_data_end+0xfffc3120>
 5091350:	10c003cc 	andi	r3,r2,15
 5091354:	01000104 	movi	r4,4
 5091358:	193ff626 	beq	r3,r4,5091334 <__alt_data_end+0xfffc3134>
 509135c:	0023883a 	mov	r17,zero
 5091360:	003fca06 	br	509128c <__alt_data_end+0xfffc308c>
 5091364:	813fd336 	bltu	r16,r4,50912b4 <__alt_data_end+0xfffc30b4>
 5091368:	1023883a 	mov	r17,r2
 509136c:	003fa806 	br	5091210 <__alt_data_end+0xfffc3010>
 5091370:	b0ffd636 	bltu	r22,r3,50912cc <__alt_data_end+0xfffc30cc>
 5091374:	1011883a 	mov	r8,r2
 5091378:	b0ff341e 	bne	r22,r3,509104c <__alt_data_end+0xfffc2e4c>
 509137c:	003f3406 	br	5091050 <__alt_data_end+0xfffc2e50>
 5091380:	0005883a 	mov	r2,zero
 5091384:	003fe006 	br	5091308 <__alt_data_end+0xfffc3108>
 5091388:	00800434 	movhi	r2,16
 509138c:	89400234 	orhi	r5,r17,8
 5091390:	10bfffc4 	addi	r2,r2,-1
 5091394:	b807883a 	mov	r3,r23
 5091398:	288a703a 	and	r5,r5,r2
 509139c:	4025883a 	mov	r18,r8
 50913a0:	003e8206 	br	5090dac <__alt_data_end+0xfffc2bac>

050913a4 <__eqdf2>:
 50913a4:	2804d53a 	srli	r2,r5,20
 50913a8:	3806d53a 	srli	r3,r7,20
 50913ac:	02000434 	movhi	r8,16
 50913b0:	423fffc4 	addi	r8,r8,-1
 50913b4:	1081ffcc 	andi	r2,r2,2047
 50913b8:	0281ffc4 	movi	r10,2047
 50913bc:	2a12703a 	and	r9,r5,r8
 50913c0:	18c1ffcc 	andi	r3,r3,2047
 50913c4:	3a10703a 	and	r8,r7,r8
 50913c8:	280ad7fa 	srli	r5,r5,31
 50913cc:	380ed7fa 	srli	r7,r7,31
 50913d0:	12801026 	beq	r2,r10,5091414 <__eqdf2+0x70>
 50913d4:	0281ffc4 	movi	r10,2047
 50913d8:	1a800a26 	beq	r3,r10,5091404 <__eqdf2+0x60>
 50913dc:	10c00226 	beq	r2,r3,50913e8 <__eqdf2+0x44>
 50913e0:	00800044 	movi	r2,1
 50913e4:	f800283a 	ret
 50913e8:	4a3ffd1e 	bne	r9,r8,50913e0 <__alt_data_end+0xfffc31e0>
 50913ec:	21bffc1e 	bne	r4,r6,50913e0 <__alt_data_end+0xfffc31e0>
 50913f0:	29c00c26 	beq	r5,r7,5091424 <__eqdf2+0x80>
 50913f4:	103ffa1e 	bne	r2,zero,50913e0 <__alt_data_end+0xfffc31e0>
 50913f8:	2244b03a 	or	r2,r4,r9
 50913fc:	1004c03a 	cmpne	r2,r2,zero
 5091400:	f800283a 	ret
 5091404:	3214b03a 	or	r10,r6,r8
 5091408:	503ff426 	beq	r10,zero,50913dc <__alt_data_end+0xfffc31dc>
 509140c:	00800044 	movi	r2,1
 5091410:	f800283a 	ret
 5091414:	2254b03a 	or	r10,r4,r9
 5091418:	503fee26 	beq	r10,zero,50913d4 <__alt_data_end+0xfffc31d4>
 509141c:	00800044 	movi	r2,1
 5091420:	f800283a 	ret
 5091424:	0005883a 	mov	r2,zero
 5091428:	f800283a 	ret

0509142c <__gedf2>:
 509142c:	2804d53a 	srli	r2,r5,20
 5091430:	3806d53a 	srli	r3,r7,20
 5091434:	02000434 	movhi	r8,16
 5091438:	423fffc4 	addi	r8,r8,-1
 509143c:	1081ffcc 	andi	r2,r2,2047
 5091440:	0241ffc4 	movi	r9,2047
 5091444:	2a14703a 	and	r10,r5,r8
 5091448:	18c1ffcc 	andi	r3,r3,2047
 509144c:	3a10703a 	and	r8,r7,r8
 5091450:	280ad7fa 	srli	r5,r5,31
 5091454:	380ed7fa 	srli	r7,r7,31
 5091458:	12401d26 	beq	r2,r9,50914d0 <__gedf2+0xa4>
 509145c:	0241ffc4 	movi	r9,2047
 5091460:	1a401226 	beq	r3,r9,50914ac <__gedf2+0x80>
 5091464:	1000081e 	bne	r2,zero,5091488 <__gedf2+0x5c>
 5091468:	2296b03a 	or	r11,r4,r10
 509146c:	5813003a 	cmpeq	r9,r11,zero
 5091470:	1800091e 	bne	r3,zero,5091498 <__gedf2+0x6c>
 5091474:	3218b03a 	or	r12,r6,r8
 5091478:	6000071e 	bne	r12,zero,5091498 <__gedf2+0x6c>
 509147c:	0005883a 	mov	r2,zero
 5091480:	5800101e 	bne	r11,zero,50914c4 <__gedf2+0x98>
 5091484:	f800283a 	ret
 5091488:	18000c1e 	bne	r3,zero,50914bc <__gedf2+0x90>
 509148c:	3212b03a 	or	r9,r6,r8
 5091490:	48000c26 	beq	r9,zero,50914c4 <__gedf2+0x98>
 5091494:	0013883a 	mov	r9,zero
 5091498:	39c03fcc 	andi	r7,r7,255
 509149c:	48000826 	beq	r9,zero,50914c0 <__gedf2+0x94>
 50914a0:	38000926 	beq	r7,zero,50914c8 <__gedf2+0x9c>
 50914a4:	00800044 	movi	r2,1
 50914a8:	f800283a 	ret
 50914ac:	3212b03a 	or	r9,r6,r8
 50914b0:	483fec26 	beq	r9,zero,5091464 <__alt_data_end+0xfffc3264>
 50914b4:	00bfff84 	movi	r2,-2
 50914b8:	f800283a 	ret
 50914bc:	39c03fcc 	andi	r7,r7,255
 50914c0:	29c00626 	beq	r5,r7,50914dc <__gedf2+0xb0>
 50914c4:	283ff726 	beq	r5,zero,50914a4 <__alt_data_end+0xfffc32a4>
 50914c8:	00bfffc4 	movi	r2,-1
 50914cc:	f800283a 	ret
 50914d0:	2292b03a 	or	r9,r4,r10
 50914d4:	483fe126 	beq	r9,zero,509145c <__alt_data_end+0xfffc325c>
 50914d8:	003ff606 	br	50914b4 <__alt_data_end+0xfffc32b4>
 50914dc:	18bff916 	blt	r3,r2,50914c4 <__alt_data_end+0xfffc32c4>
 50914e0:	10c00316 	blt	r2,r3,50914f0 <__gedf2+0xc4>
 50914e4:	42bff736 	bltu	r8,r10,50914c4 <__alt_data_end+0xfffc32c4>
 50914e8:	52000326 	beq	r10,r8,50914f8 <__gedf2+0xcc>
 50914ec:	5200042e 	bgeu	r10,r8,5091500 <__gedf2+0xd4>
 50914f0:	283fec1e 	bne	r5,zero,50914a4 <__alt_data_end+0xfffc32a4>
 50914f4:	003ff406 	br	50914c8 <__alt_data_end+0xfffc32c8>
 50914f8:	313ff236 	bltu	r6,r4,50914c4 <__alt_data_end+0xfffc32c4>
 50914fc:	21bffc36 	bltu	r4,r6,50914f0 <__alt_data_end+0xfffc32f0>
 5091500:	0005883a 	mov	r2,zero
 5091504:	f800283a 	ret

05091508 <__ledf2>:
 5091508:	2804d53a 	srli	r2,r5,20
 509150c:	3810d53a 	srli	r8,r7,20
 5091510:	00c00434 	movhi	r3,16
 5091514:	18ffffc4 	addi	r3,r3,-1
 5091518:	1081ffcc 	andi	r2,r2,2047
 509151c:	0241ffc4 	movi	r9,2047
 5091520:	28d4703a 	and	r10,r5,r3
 5091524:	4201ffcc 	andi	r8,r8,2047
 5091528:	38c6703a 	and	r3,r7,r3
 509152c:	280ad7fa 	srli	r5,r5,31
 5091530:	380ed7fa 	srli	r7,r7,31
 5091534:	12401f26 	beq	r2,r9,50915b4 <__ledf2+0xac>
 5091538:	0241ffc4 	movi	r9,2047
 509153c:	42401426 	beq	r8,r9,5091590 <__ledf2+0x88>
 5091540:	1000091e 	bne	r2,zero,5091568 <__ledf2+0x60>
 5091544:	2296b03a 	or	r11,r4,r10
 5091548:	5813003a 	cmpeq	r9,r11,zero
 509154c:	29403fcc 	andi	r5,r5,255
 5091550:	40000a1e 	bne	r8,zero,509157c <__ledf2+0x74>
 5091554:	30d8b03a 	or	r12,r6,r3
 5091558:	6000081e 	bne	r12,zero,509157c <__ledf2+0x74>
 509155c:	0005883a 	mov	r2,zero
 5091560:	5800111e 	bne	r11,zero,50915a8 <__ledf2+0xa0>
 5091564:	f800283a 	ret
 5091568:	29403fcc 	andi	r5,r5,255
 509156c:	40000c1e 	bne	r8,zero,50915a0 <__ledf2+0x98>
 5091570:	30d2b03a 	or	r9,r6,r3
 5091574:	48000c26 	beq	r9,zero,50915a8 <__ledf2+0xa0>
 5091578:	0013883a 	mov	r9,zero
 509157c:	39c03fcc 	andi	r7,r7,255
 5091580:	48000826 	beq	r9,zero,50915a4 <__ledf2+0x9c>
 5091584:	38001126 	beq	r7,zero,50915cc <__ledf2+0xc4>
 5091588:	00800044 	movi	r2,1
 509158c:	f800283a 	ret
 5091590:	30d2b03a 	or	r9,r6,r3
 5091594:	483fea26 	beq	r9,zero,5091540 <__alt_data_end+0xfffc3340>
 5091598:	00800084 	movi	r2,2
 509159c:	f800283a 	ret
 50915a0:	39c03fcc 	andi	r7,r7,255
 50915a4:	39400726 	beq	r7,r5,50915c4 <__ledf2+0xbc>
 50915a8:	2800081e 	bne	r5,zero,50915cc <__ledf2+0xc4>
 50915ac:	00800044 	movi	r2,1
 50915b0:	f800283a 	ret
 50915b4:	2292b03a 	or	r9,r4,r10
 50915b8:	483fdf26 	beq	r9,zero,5091538 <__alt_data_end+0xfffc3338>
 50915bc:	00800084 	movi	r2,2
 50915c0:	f800283a 	ret
 50915c4:	4080030e 	bge	r8,r2,50915d4 <__ledf2+0xcc>
 50915c8:	383fef26 	beq	r7,zero,5091588 <__alt_data_end+0xfffc3388>
 50915cc:	00bfffc4 	movi	r2,-1
 50915d0:	f800283a 	ret
 50915d4:	123feb16 	blt	r2,r8,5091584 <__alt_data_end+0xfffc3384>
 50915d8:	1abff336 	bltu	r3,r10,50915a8 <__alt_data_end+0xfffc33a8>
 50915dc:	50c00326 	beq	r10,r3,50915ec <__ledf2+0xe4>
 50915e0:	50c0042e 	bgeu	r10,r3,50915f4 <__ledf2+0xec>
 50915e4:	283fe81e 	bne	r5,zero,5091588 <__alt_data_end+0xfffc3388>
 50915e8:	003ff806 	br	50915cc <__alt_data_end+0xfffc33cc>
 50915ec:	313fee36 	bltu	r6,r4,50915a8 <__alt_data_end+0xfffc33a8>
 50915f0:	21bffc36 	bltu	r4,r6,50915e4 <__alt_data_end+0xfffc33e4>
 50915f4:	0005883a 	mov	r2,zero
 50915f8:	f800283a 	ret

050915fc <__muldf3>:
 50915fc:	defff304 	addi	sp,sp,-52
 5091600:	2804d53a 	srli	r2,r5,20
 5091604:	dd800915 	stw	r22,36(sp)
 5091608:	282cd7fa 	srli	r22,r5,31
 509160c:	dc000315 	stw	r16,12(sp)
 5091610:	04000434 	movhi	r16,16
 5091614:	dd400815 	stw	r21,32(sp)
 5091618:	dc800515 	stw	r18,20(sp)
 509161c:	843fffc4 	addi	r16,r16,-1
 5091620:	dfc00c15 	stw	ra,48(sp)
 5091624:	df000b15 	stw	fp,44(sp)
 5091628:	ddc00a15 	stw	r23,40(sp)
 509162c:	dd000715 	stw	r20,28(sp)
 5091630:	dcc00615 	stw	r19,24(sp)
 5091634:	dc400415 	stw	r17,16(sp)
 5091638:	1481ffcc 	andi	r18,r2,2047
 509163c:	2c20703a 	and	r16,r5,r16
 5091640:	b02b883a 	mov	r21,r22
 5091644:	b2403fcc 	andi	r9,r22,255
 5091648:	90006026 	beq	r18,zero,50917cc <__muldf3+0x1d0>
 509164c:	0081ffc4 	movi	r2,2047
 5091650:	2029883a 	mov	r20,r4
 5091654:	90803626 	beq	r18,r2,5091730 <__muldf3+0x134>
 5091658:	80800434 	orhi	r2,r16,16
 509165c:	100490fa 	slli	r2,r2,3
 5091660:	2020d77a 	srli	r16,r4,29
 5091664:	202890fa 	slli	r20,r4,3
 5091668:	94bf0044 	addi	r18,r18,-1023
 509166c:	80a0b03a 	or	r16,r16,r2
 5091670:	0027883a 	mov	r19,zero
 5091674:	0039883a 	mov	fp,zero
 5091678:	3804d53a 	srli	r2,r7,20
 509167c:	382ed7fa 	srli	r23,r7,31
 5091680:	04400434 	movhi	r17,16
 5091684:	8c7fffc4 	addi	r17,r17,-1
 5091688:	1081ffcc 	andi	r2,r2,2047
 509168c:	3011883a 	mov	r8,r6
 5091690:	3c62703a 	and	r17,r7,r17
 5091694:	ba803fcc 	andi	r10,r23,255
 5091698:	10006d26 	beq	r2,zero,5091850 <__muldf3+0x254>
 509169c:	00c1ffc4 	movi	r3,2047
 50916a0:	10c06526 	beq	r2,r3,5091838 <__muldf3+0x23c>
 50916a4:	88c00434 	orhi	r3,r17,16
 50916a8:	180690fa 	slli	r3,r3,3
 50916ac:	3022d77a 	srli	r17,r6,29
 50916b0:	301090fa 	slli	r8,r6,3
 50916b4:	10bf0044 	addi	r2,r2,-1023
 50916b8:	88e2b03a 	or	r17,r17,r3
 50916bc:	000b883a 	mov	r5,zero
 50916c0:	9085883a 	add	r2,r18,r2
 50916c4:	2cc8b03a 	or	r4,r5,r19
 50916c8:	00c003c4 	movi	r3,15
 50916cc:	bdacf03a 	xor	r22,r23,r22
 50916d0:	12c00044 	addi	r11,r2,1
 50916d4:	19009936 	bltu	r3,r4,509193c <__muldf3+0x340>
 50916d8:	200890ba 	slli	r4,r4,2
 50916dc:	00c14274 	movhi	r3,1289
 50916e0:	18c5bc04 	addi	r3,r3,5872
 50916e4:	20c9883a 	add	r4,r4,r3
 50916e8:	20c00017 	ldw	r3,0(r4)
 50916ec:	1800683a 	jmp	r3
 50916f0:	0509193c 	xorhi	r20,zero,9316
 50916f4:	05091750 	cmplti	r20,zero,9309
 50916f8:	05091750 	cmplti	r20,zero,9309
 50916fc:	0509174c 	andi	r20,zero,9309
 5091700:	05091918 	cmpnei	r20,zero,9316
 5091704:	05091918 	cmpnei	r20,zero,9316
 5091708:	05091900 	call	509190 <__alt_mem_sdram+0x509190>
 509170c:	0509174c 	andi	r20,zero,9309
 5091710:	05091918 	cmpnei	r20,zero,9316
 5091714:	05091900 	call	509190 <__alt_mem_sdram+0x509190>
 5091718:	05091918 	cmpnei	r20,zero,9316
 509171c:	0509174c 	andi	r20,zero,9309
 5091720:	05091928 	cmpgeui	r20,zero,9316
 5091724:	05091928 	cmpgeui	r20,zero,9316
 5091728:	05091928 	cmpgeui	r20,zero,9316
 509172c:	05091b44 	movi	r20,9325
 5091730:	2404b03a 	or	r2,r4,r16
 5091734:	10006f1e 	bne	r2,zero,50918f4 <__muldf3+0x2f8>
 5091738:	04c00204 	movi	r19,8
 509173c:	0021883a 	mov	r16,zero
 5091740:	0029883a 	mov	r20,zero
 5091744:	07000084 	movi	fp,2
 5091748:	003fcb06 	br	5091678 <__alt_data_end+0xfffc3478>
 509174c:	502d883a 	mov	r22,r10
 5091750:	00800084 	movi	r2,2
 5091754:	28805726 	beq	r5,r2,50918b4 <__muldf3+0x2b8>
 5091758:	008000c4 	movi	r2,3
 509175c:	28816626 	beq	r5,r2,5091cf8 <__muldf3+0x6fc>
 5091760:	00800044 	movi	r2,1
 5091764:	2881411e 	bne	r5,r2,5091c6c <__muldf3+0x670>
 5091768:	b02b883a 	mov	r21,r22
 509176c:	0005883a 	mov	r2,zero
 5091770:	000b883a 	mov	r5,zero
 5091774:	0029883a 	mov	r20,zero
 5091778:	1004953a 	slli	r2,r2,20
 509177c:	a8c03fcc 	andi	r3,r21,255
 5091780:	04400434 	movhi	r17,16
 5091784:	8c7fffc4 	addi	r17,r17,-1
 5091788:	180697fa 	slli	r3,r3,31
 509178c:	2c4a703a 	and	r5,r5,r17
 5091790:	288ab03a 	or	r5,r5,r2
 5091794:	28c6b03a 	or	r3,r5,r3
 5091798:	a005883a 	mov	r2,r20
 509179c:	dfc00c17 	ldw	ra,48(sp)
 50917a0:	df000b17 	ldw	fp,44(sp)
 50917a4:	ddc00a17 	ldw	r23,40(sp)
 50917a8:	dd800917 	ldw	r22,36(sp)
 50917ac:	dd400817 	ldw	r21,32(sp)
 50917b0:	dd000717 	ldw	r20,28(sp)
 50917b4:	dcc00617 	ldw	r19,24(sp)
 50917b8:	dc800517 	ldw	r18,20(sp)
 50917bc:	dc400417 	ldw	r17,16(sp)
 50917c0:	dc000317 	ldw	r16,12(sp)
 50917c4:	dec00d04 	addi	sp,sp,52
 50917c8:	f800283a 	ret
 50917cc:	2404b03a 	or	r2,r4,r16
 50917d0:	2027883a 	mov	r19,r4
 50917d4:	10004226 	beq	r2,zero,50918e0 <__muldf3+0x2e4>
 50917d8:	8000fc26 	beq	r16,zero,5091bcc <__muldf3+0x5d0>
 50917dc:	8009883a 	mov	r4,r16
 50917e0:	d9800215 	stw	r6,8(sp)
 50917e4:	d9c00015 	stw	r7,0(sp)
 50917e8:	da400115 	stw	r9,4(sp)
 50917ec:	50928140 	call	5092814 <__clzsi2>
 50917f0:	d9800217 	ldw	r6,8(sp)
 50917f4:	d9c00017 	ldw	r7,0(sp)
 50917f8:	da400117 	ldw	r9,4(sp)
 50917fc:	113ffd44 	addi	r4,r2,-11
 5091800:	00c00704 	movi	r3,28
 5091804:	1900ed16 	blt	r3,r4,5091bbc <__muldf3+0x5c0>
 5091808:	00c00744 	movi	r3,29
 509180c:	147ffe04 	addi	r17,r2,-8
 5091810:	1907c83a 	sub	r3,r3,r4
 5091814:	8460983a 	sll	r16,r16,r17
 5091818:	98c6d83a 	srl	r3,r19,r3
 509181c:	9c68983a 	sll	r20,r19,r17
 5091820:	1c20b03a 	or	r16,r3,r16
 5091824:	1080fcc4 	addi	r2,r2,1011
 5091828:	00a5c83a 	sub	r18,zero,r2
 509182c:	0027883a 	mov	r19,zero
 5091830:	0039883a 	mov	fp,zero
 5091834:	003f9006 	br	5091678 <__alt_data_end+0xfffc3478>
 5091838:	3446b03a 	or	r3,r6,r17
 509183c:	1800261e 	bne	r3,zero,50918d8 <__muldf3+0x2dc>
 5091840:	0023883a 	mov	r17,zero
 5091844:	0011883a 	mov	r8,zero
 5091848:	01400084 	movi	r5,2
 509184c:	003f9c06 	br	50916c0 <__alt_data_end+0xfffc34c0>
 5091850:	3446b03a 	or	r3,r6,r17
 5091854:	18001c26 	beq	r3,zero,50918c8 <__muldf3+0x2cc>
 5091858:	8800ce26 	beq	r17,zero,5091b94 <__muldf3+0x598>
 509185c:	8809883a 	mov	r4,r17
 5091860:	d9800215 	stw	r6,8(sp)
 5091864:	da400115 	stw	r9,4(sp)
 5091868:	da800015 	stw	r10,0(sp)
 509186c:	50928140 	call	5092814 <__clzsi2>
 5091870:	d9800217 	ldw	r6,8(sp)
 5091874:	da400117 	ldw	r9,4(sp)
 5091878:	da800017 	ldw	r10,0(sp)
 509187c:	113ffd44 	addi	r4,r2,-11
 5091880:	00c00704 	movi	r3,28
 5091884:	1900bf16 	blt	r3,r4,5091b84 <__muldf3+0x588>
 5091888:	00c00744 	movi	r3,29
 509188c:	123ffe04 	addi	r8,r2,-8
 5091890:	1907c83a 	sub	r3,r3,r4
 5091894:	8a22983a 	sll	r17,r17,r8
 5091898:	30c6d83a 	srl	r3,r6,r3
 509189c:	3210983a 	sll	r8,r6,r8
 50918a0:	1c62b03a 	or	r17,r3,r17
 50918a4:	1080fcc4 	addi	r2,r2,1011
 50918a8:	0085c83a 	sub	r2,zero,r2
 50918ac:	000b883a 	mov	r5,zero
 50918b0:	003f8306 	br	50916c0 <__alt_data_end+0xfffc34c0>
 50918b4:	b02b883a 	mov	r21,r22
 50918b8:	0081ffc4 	movi	r2,2047
 50918bc:	000b883a 	mov	r5,zero
 50918c0:	0029883a 	mov	r20,zero
 50918c4:	003fac06 	br	5091778 <__alt_data_end+0xfffc3578>
 50918c8:	0023883a 	mov	r17,zero
 50918cc:	0011883a 	mov	r8,zero
 50918d0:	01400044 	movi	r5,1
 50918d4:	003f7a06 	br	50916c0 <__alt_data_end+0xfffc34c0>
 50918d8:	014000c4 	movi	r5,3
 50918dc:	003f7806 	br	50916c0 <__alt_data_end+0xfffc34c0>
 50918e0:	04c00104 	movi	r19,4
 50918e4:	0021883a 	mov	r16,zero
 50918e8:	0029883a 	mov	r20,zero
 50918ec:	07000044 	movi	fp,1
 50918f0:	003f6106 	br	5091678 <__alt_data_end+0xfffc3478>
 50918f4:	04c00304 	movi	r19,12
 50918f8:	070000c4 	movi	fp,3
 50918fc:	003f5e06 	br	5091678 <__alt_data_end+0xfffc3478>
 5091900:	01400434 	movhi	r5,16
 5091904:	002b883a 	mov	r21,zero
 5091908:	297fffc4 	addi	r5,r5,-1
 509190c:	053fffc4 	movi	r20,-1
 5091910:	0081ffc4 	movi	r2,2047
 5091914:	003f9806 	br	5091778 <__alt_data_end+0xfffc3578>
 5091918:	8023883a 	mov	r17,r16
 509191c:	a011883a 	mov	r8,r20
 5091920:	e00b883a 	mov	r5,fp
 5091924:	003f8a06 	br	5091750 <__alt_data_end+0xfffc3550>
 5091928:	8023883a 	mov	r17,r16
 509192c:	a011883a 	mov	r8,r20
 5091930:	482d883a 	mov	r22,r9
 5091934:	e00b883a 	mov	r5,fp
 5091938:	003f8506 	br	5091750 <__alt_data_end+0xfffc3550>
 509193c:	a00ad43a 	srli	r5,r20,16
 5091940:	401ad43a 	srli	r13,r8,16
 5091944:	a53fffcc 	andi	r20,r20,65535
 5091948:	423fffcc 	andi	r8,r8,65535
 509194c:	4519383a 	mul	r12,r8,r20
 5091950:	4147383a 	mul	r3,r8,r5
 5091954:	6d09383a 	mul	r4,r13,r20
 5091958:	600cd43a 	srli	r6,r12,16
 509195c:	2b5d383a 	mul	r14,r5,r13
 5091960:	20c9883a 	add	r4,r4,r3
 5091964:	310d883a 	add	r6,r6,r4
 5091968:	30c0022e 	bgeu	r6,r3,5091974 <__muldf3+0x378>
 509196c:	00c00074 	movhi	r3,1
 5091970:	70dd883a 	add	r14,r14,r3
 5091974:	8826d43a 	srli	r19,r17,16
 5091978:	8bffffcc 	andi	r15,r17,65535
 509197c:	7d23383a 	mul	r17,r15,r20
 5091980:	7949383a 	mul	r4,r15,r5
 5091984:	9d29383a 	mul	r20,r19,r20
 5091988:	8814d43a 	srli	r10,r17,16
 509198c:	3012943a 	slli	r9,r6,16
 5091990:	a129883a 	add	r20,r20,r4
 5091994:	633fffcc 	andi	r12,r12,65535
 5091998:	5515883a 	add	r10,r10,r20
 509199c:	3006d43a 	srli	r3,r6,16
 50919a0:	4b13883a 	add	r9,r9,r12
 50919a4:	2ccb383a 	mul	r5,r5,r19
 50919a8:	5100022e 	bgeu	r10,r4,50919b4 <__muldf3+0x3b8>
 50919ac:	01000074 	movhi	r4,1
 50919b0:	290b883a 	add	r5,r5,r4
 50919b4:	802ad43a 	srli	r21,r16,16
 50919b8:	843fffcc 	andi	r16,r16,65535
 50919bc:	440d383a 	mul	r6,r8,r16
 50919c0:	4565383a 	mul	r18,r8,r21
 50919c4:	8349383a 	mul	r4,r16,r13
 50919c8:	500e943a 	slli	r7,r10,16
 50919cc:	3010d43a 	srli	r8,r6,16
 50919d0:	5028d43a 	srli	r20,r10,16
 50919d4:	2489883a 	add	r4,r4,r18
 50919d8:	8abfffcc 	andi	r10,r17,65535
 50919dc:	3a95883a 	add	r10,r7,r10
 50919e0:	4119883a 	add	r12,r8,r4
 50919e4:	a169883a 	add	r20,r20,r5
 50919e8:	1a87883a 	add	r3,r3,r10
 50919ec:	6d5b383a 	mul	r13,r13,r21
 50919f0:	6480022e 	bgeu	r12,r18,50919fc <__muldf3+0x400>
 50919f4:	01000074 	movhi	r4,1
 50919f8:	691b883a 	add	r13,r13,r4
 50919fc:	7c25383a 	mul	r18,r15,r16
 5091a00:	7d4b383a 	mul	r5,r15,r21
 5091a04:	84cf383a 	mul	r7,r16,r19
 5091a08:	901ed43a 	srli	r15,r18,16
 5091a0c:	6008d43a 	srli	r4,r12,16
 5091a10:	6010943a 	slli	r8,r12,16
 5091a14:	394f883a 	add	r7,r7,r5
 5091a18:	333fffcc 	andi	r12,r6,65535
 5091a1c:	79df883a 	add	r15,r15,r7
 5091a20:	235b883a 	add	r13,r4,r13
 5091a24:	9d63383a 	mul	r17,r19,r21
 5091a28:	4309883a 	add	r4,r8,r12
 5091a2c:	7940022e 	bgeu	r15,r5,5091a38 <__muldf3+0x43c>
 5091a30:	01400074 	movhi	r5,1
 5091a34:	8963883a 	add	r17,r17,r5
 5091a38:	780a943a 	slli	r5,r15,16
 5091a3c:	91bfffcc 	andi	r6,r18,65535
 5091a40:	70c7883a 	add	r3,r14,r3
 5091a44:	298d883a 	add	r6,r5,r6
 5091a48:	1a8f803a 	cmpltu	r7,r3,r10
 5091a4c:	350b883a 	add	r5,r6,r20
 5091a50:	20c7883a 	add	r3,r4,r3
 5091a54:	3955883a 	add	r10,r7,r5
 5091a58:	1909803a 	cmpltu	r4,r3,r4
 5091a5c:	6a91883a 	add	r8,r13,r10
 5091a60:	780cd43a 	srli	r6,r15,16
 5091a64:	2219883a 	add	r12,r4,r8
 5091a68:	2d0b803a 	cmpltu	r5,r5,r20
 5091a6c:	51cf803a 	cmpltu	r7,r10,r7
 5091a70:	29ceb03a 	or	r7,r5,r7
 5091a74:	4351803a 	cmpltu	r8,r8,r13
 5091a78:	610b803a 	cmpltu	r5,r12,r4
 5091a7c:	4148b03a 	or	r4,r8,r5
 5091a80:	398f883a 	add	r7,r7,r6
 5091a84:	3909883a 	add	r4,r7,r4
 5091a88:	1810927a 	slli	r8,r3,9
 5091a8c:	2449883a 	add	r4,r4,r17
 5091a90:	2008927a 	slli	r4,r4,9
 5091a94:	6022d5fa 	srli	r17,r12,23
 5091a98:	1806d5fa 	srli	r3,r3,23
 5091a9c:	4252b03a 	or	r9,r8,r9
 5091aa0:	600a927a 	slli	r5,r12,9
 5091aa4:	4810c03a 	cmpne	r8,r9,zero
 5091aa8:	2462b03a 	or	r17,r4,r17
 5091aac:	40c6b03a 	or	r3,r8,r3
 5091ab0:	8900402c 	andhi	r4,r17,256
 5091ab4:	1950b03a 	or	r8,r3,r5
 5091ab8:	20000726 	beq	r4,zero,5091ad8 <__muldf3+0x4dc>
 5091abc:	4006d07a 	srli	r3,r8,1
 5091ac0:	880497fa 	slli	r2,r17,31
 5091ac4:	4200004c 	andi	r8,r8,1
 5091ac8:	8822d07a 	srli	r17,r17,1
 5091acc:	1a10b03a 	or	r8,r3,r8
 5091ad0:	1210b03a 	or	r8,r2,r8
 5091ad4:	5805883a 	mov	r2,r11
 5091ad8:	1140ffc4 	addi	r5,r2,1023
 5091adc:	0140440e 	bge	zero,r5,5091bf0 <__muldf3+0x5f4>
 5091ae0:	40c001cc 	andi	r3,r8,7
 5091ae4:	18000726 	beq	r3,zero,5091b04 <__muldf3+0x508>
 5091ae8:	40c003cc 	andi	r3,r8,15
 5091aec:	01000104 	movi	r4,4
 5091af0:	19000426 	beq	r3,r4,5091b04 <__muldf3+0x508>
 5091af4:	4107883a 	add	r3,r8,r4
 5091af8:	1a11803a 	cmpltu	r8,r3,r8
 5091afc:	8a23883a 	add	r17,r17,r8
 5091b00:	1811883a 	mov	r8,r3
 5091b04:	88c0402c 	andhi	r3,r17,256
 5091b08:	18000426 	beq	r3,zero,5091b1c <__muldf3+0x520>
 5091b0c:	11410004 	addi	r5,r2,1024
 5091b10:	00bfc034 	movhi	r2,65280
 5091b14:	10bfffc4 	addi	r2,r2,-1
 5091b18:	88a2703a 	and	r17,r17,r2
 5091b1c:	0081ff84 	movi	r2,2046
 5091b20:	117f6416 	blt	r2,r5,50918b4 <__alt_data_end+0xfffc36b4>
 5091b24:	8828977a 	slli	r20,r17,29
 5091b28:	4010d0fa 	srli	r8,r8,3
 5091b2c:	8822927a 	slli	r17,r17,9
 5091b30:	2881ffcc 	andi	r2,r5,2047
 5091b34:	a228b03a 	or	r20,r20,r8
 5091b38:	880ad33a 	srli	r5,r17,12
 5091b3c:	b02b883a 	mov	r21,r22
 5091b40:	003f0d06 	br	5091778 <__alt_data_end+0xfffc3578>
 5091b44:	8080022c 	andhi	r2,r16,8
 5091b48:	10000926 	beq	r2,zero,5091b70 <__muldf3+0x574>
 5091b4c:	8880022c 	andhi	r2,r17,8
 5091b50:	1000071e 	bne	r2,zero,5091b70 <__muldf3+0x574>
 5091b54:	00800434 	movhi	r2,16
 5091b58:	89400234 	orhi	r5,r17,8
 5091b5c:	10bfffc4 	addi	r2,r2,-1
 5091b60:	b82b883a 	mov	r21,r23
 5091b64:	288a703a 	and	r5,r5,r2
 5091b68:	4029883a 	mov	r20,r8
 5091b6c:	003f6806 	br	5091910 <__alt_data_end+0xfffc3710>
 5091b70:	00800434 	movhi	r2,16
 5091b74:	81400234 	orhi	r5,r16,8
 5091b78:	10bfffc4 	addi	r2,r2,-1
 5091b7c:	288a703a 	and	r5,r5,r2
 5091b80:	003f6306 	br	5091910 <__alt_data_end+0xfffc3710>
 5091b84:	147ff604 	addi	r17,r2,-40
 5091b88:	3462983a 	sll	r17,r6,r17
 5091b8c:	0011883a 	mov	r8,zero
 5091b90:	003f4406 	br	50918a4 <__alt_data_end+0xfffc36a4>
 5091b94:	3009883a 	mov	r4,r6
 5091b98:	d9800215 	stw	r6,8(sp)
 5091b9c:	da400115 	stw	r9,4(sp)
 5091ba0:	da800015 	stw	r10,0(sp)
 5091ba4:	50928140 	call	5092814 <__clzsi2>
 5091ba8:	10800804 	addi	r2,r2,32
 5091bac:	da800017 	ldw	r10,0(sp)
 5091bb0:	da400117 	ldw	r9,4(sp)
 5091bb4:	d9800217 	ldw	r6,8(sp)
 5091bb8:	003f3006 	br	509187c <__alt_data_end+0xfffc367c>
 5091bbc:	143ff604 	addi	r16,r2,-40
 5091bc0:	9c20983a 	sll	r16,r19,r16
 5091bc4:	0029883a 	mov	r20,zero
 5091bc8:	003f1606 	br	5091824 <__alt_data_end+0xfffc3624>
 5091bcc:	d9800215 	stw	r6,8(sp)
 5091bd0:	d9c00015 	stw	r7,0(sp)
 5091bd4:	da400115 	stw	r9,4(sp)
 5091bd8:	50928140 	call	5092814 <__clzsi2>
 5091bdc:	10800804 	addi	r2,r2,32
 5091be0:	da400117 	ldw	r9,4(sp)
 5091be4:	d9c00017 	ldw	r7,0(sp)
 5091be8:	d9800217 	ldw	r6,8(sp)
 5091bec:	003f0306 	br	50917fc <__alt_data_end+0xfffc35fc>
 5091bf0:	00c00044 	movi	r3,1
 5091bf4:	1947c83a 	sub	r3,r3,r5
 5091bf8:	00800e04 	movi	r2,56
 5091bfc:	10feda16 	blt	r2,r3,5091768 <__alt_data_end+0xfffc3568>
 5091c00:	008007c4 	movi	r2,31
 5091c04:	10c01b16 	blt	r2,r3,5091c74 <__muldf3+0x678>
 5091c08:	00800804 	movi	r2,32
 5091c0c:	10c5c83a 	sub	r2,r2,r3
 5091c10:	888a983a 	sll	r5,r17,r2
 5091c14:	40c8d83a 	srl	r4,r8,r3
 5091c18:	4084983a 	sll	r2,r8,r2
 5091c1c:	88e2d83a 	srl	r17,r17,r3
 5091c20:	2906b03a 	or	r3,r5,r4
 5091c24:	1004c03a 	cmpne	r2,r2,zero
 5091c28:	1886b03a 	or	r3,r3,r2
 5091c2c:	188001cc 	andi	r2,r3,7
 5091c30:	10000726 	beq	r2,zero,5091c50 <__muldf3+0x654>
 5091c34:	188003cc 	andi	r2,r3,15
 5091c38:	01000104 	movi	r4,4
 5091c3c:	11000426 	beq	r2,r4,5091c50 <__muldf3+0x654>
 5091c40:	1805883a 	mov	r2,r3
 5091c44:	10c00104 	addi	r3,r2,4
 5091c48:	1885803a 	cmpltu	r2,r3,r2
 5091c4c:	88a3883a 	add	r17,r17,r2
 5091c50:	8880202c 	andhi	r2,r17,128
 5091c54:	10001c26 	beq	r2,zero,5091cc8 <__muldf3+0x6cc>
 5091c58:	b02b883a 	mov	r21,r22
 5091c5c:	00800044 	movi	r2,1
 5091c60:	000b883a 	mov	r5,zero
 5091c64:	0029883a 	mov	r20,zero
 5091c68:	003ec306 	br	5091778 <__alt_data_end+0xfffc3578>
 5091c6c:	5805883a 	mov	r2,r11
 5091c70:	003f9906 	br	5091ad8 <__alt_data_end+0xfffc38d8>
 5091c74:	00bff844 	movi	r2,-31
 5091c78:	1145c83a 	sub	r2,r2,r5
 5091c7c:	8888d83a 	srl	r4,r17,r2
 5091c80:	00800804 	movi	r2,32
 5091c84:	18801a26 	beq	r3,r2,5091cf0 <__muldf3+0x6f4>
 5091c88:	00801004 	movi	r2,64
 5091c8c:	10c5c83a 	sub	r2,r2,r3
 5091c90:	8884983a 	sll	r2,r17,r2
 5091c94:	1204b03a 	or	r2,r2,r8
 5091c98:	1004c03a 	cmpne	r2,r2,zero
 5091c9c:	2084b03a 	or	r2,r4,r2
 5091ca0:	144001cc 	andi	r17,r2,7
 5091ca4:	88000d1e 	bne	r17,zero,5091cdc <__muldf3+0x6e0>
 5091ca8:	000b883a 	mov	r5,zero
 5091cac:	1028d0fa 	srli	r20,r2,3
 5091cb0:	b02b883a 	mov	r21,r22
 5091cb4:	0005883a 	mov	r2,zero
 5091cb8:	a468b03a 	or	r20,r20,r17
 5091cbc:	003eae06 	br	5091778 <__alt_data_end+0xfffc3578>
 5091cc0:	1007883a 	mov	r3,r2
 5091cc4:	0023883a 	mov	r17,zero
 5091cc8:	880a927a 	slli	r5,r17,9
 5091ccc:	1805883a 	mov	r2,r3
 5091cd0:	8822977a 	slli	r17,r17,29
 5091cd4:	280ad33a 	srli	r5,r5,12
 5091cd8:	003ff406 	br	5091cac <__alt_data_end+0xfffc3aac>
 5091cdc:	10c003cc 	andi	r3,r2,15
 5091ce0:	01000104 	movi	r4,4
 5091ce4:	193ff626 	beq	r3,r4,5091cc0 <__alt_data_end+0xfffc3ac0>
 5091ce8:	0023883a 	mov	r17,zero
 5091cec:	003fd506 	br	5091c44 <__alt_data_end+0xfffc3a44>
 5091cf0:	0005883a 	mov	r2,zero
 5091cf4:	003fe706 	br	5091c94 <__alt_data_end+0xfffc3a94>
 5091cf8:	00800434 	movhi	r2,16
 5091cfc:	89400234 	orhi	r5,r17,8
 5091d00:	10bfffc4 	addi	r2,r2,-1
 5091d04:	b02b883a 	mov	r21,r22
 5091d08:	288a703a 	and	r5,r5,r2
 5091d0c:	4029883a 	mov	r20,r8
 5091d10:	003eff06 	br	5091910 <__alt_data_end+0xfffc3710>

05091d14 <__subdf3>:
 5091d14:	02000434 	movhi	r8,16
 5091d18:	423fffc4 	addi	r8,r8,-1
 5091d1c:	defffb04 	addi	sp,sp,-20
 5091d20:	2a14703a 	and	r10,r5,r8
 5091d24:	3812d53a 	srli	r9,r7,20
 5091d28:	3a10703a 	and	r8,r7,r8
 5091d2c:	2006d77a 	srli	r3,r4,29
 5091d30:	3004d77a 	srli	r2,r6,29
 5091d34:	dc000015 	stw	r16,0(sp)
 5091d38:	501490fa 	slli	r10,r10,3
 5091d3c:	2820d53a 	srli	r16,r5,20
 5091d40:	401090fa 	slli	r8,r8,3
 5091d44:	dc800215 	stw	r18,8(sp)
 5091d48:	dc400115 	stw	r17,4(sp)
 5091d4c:	dfc00415 	stw	ra,16(sp)
 5091d50:	202290fa 	slli	r17,r4,3
 5091d54:	dcc00315 	stw	r19,12(sp)
 5091d58:	4a41ffcc 	andi	r9,r9,2047
 5091d5c:	0101ffc4 	movi	r4,2047
 5091d60:	2824d7fa 	srli	r18,r5,31
 5091d64:	8401ffcc 	andi	r16,r16,2047
 5091d68:	50c6b03a 	or	r3,r10,r3
 5091d6c:	380ed7fa 	srli	r7,r7,31
 5091d70:	408ab03a 	or	r5,r8,r2
 5091d74:	300c90fa 	slli	r6,r6,3
 5091d78:	49009626 	beq	r9,r4,5091fd4 <__subdf3+0x2c0>
 5091d7c:	39c0005c 	xori	r7,r7,1
 5091d80:	8245c83a 	sub	r2,r16,r9
 5091d84:	3c807426 	beq	r7,r18,5091f58 <__subdf3+0x244>
 5091d88:	0080af0e 	bge	zero,r2,5092048 <__subdf3+0x334>
 5091d8c:	48002a1e 	bne	r9,zero,5091e38 <__subdf3+0x124>
 5091d90:	2988b03a 	or	r4,r5,r6
 5091d94:	20009a1e 	bne	r4,zero,5092000 <__subdf3+0x2ec>
 5091d98:	888001cc 	andi	r2,r17,7
 5091d9c:	10000726 	beq	r2,zero,5091dbc <__subdf3+0xa8>
 5091da0:	888003cc 	andi	r2,r17,15
 5091da4:	01000104 	movi	r4,4
 5091da8:	11000426 	beq	r2,r4,5091dbc <__subdf3+0xa8>
 5091dac:	890b883a 	add	r5,r17,r4
 5091db0:	2c63803a 	cmpltu	r17,r5,r17
 5091db4:	1c47883a 	add	r3,r3,r17
 5091db8:	2823883a 	mov	r17,r5
 5091dbc:	1880202c 	andhi	r2,r3,128
 5091dc0:	10005926 	beq	r2,zero,5091f28 <__subdf3+0x214>
 5091dc4:	84000044 	addi	r16,r16,1
 5091dc8:	0081ffc4 	movi	r2,2047
 5091dcc:	8080be26 	beq	r16,r2,50920c8 <__subdf3+0x3b4>
 5091dd0:	017fe034 	movhi	r5,65408
 5091dd4:	297fffc4 	addi	r5,r5,-1
 5091dd8:	1946703a 	and	r3,r3,r5
 5091ddc:	1804977a 	slli	r2,r3,29
 5091de0:	1806927a 	slli	r3,r3,9
 5091de4:	8822d0fa 	srli	r17,r17,3
 5091de8:	8401ffcc 	andi	r16,r16,2047
 5091dec:	180ad33a 	srli	r5,r3,12
 5091df0:	9100004c 	andi	r4,r18,1
 5091df4:	1444b03a 	or	r2,r2,r17
 5091df8:	80c1ffcc 	andi	r3,r16,2047
 5091dfc:	1820953a 	slli	r16,r3,20
 5091e00:	20c03fcc 	andi	r3,r4,255
 5091e04:	180897fa 	slli	r4,r3,31
 5091e08:	00c00434 	movhi	r3,16
 5091e0c:	18ffffc4 	addi	r3,r3,-1
 5091e10:	28c6703a 	and	r3,r5,r3
 5091e14:	1c06b03a 	or	r3,r3,r16
 5091e18:	1906b03a 	or	r3,r3,r4
 5091e1c:	dfc00417 	ldw	ra,16(sp)
 5091e20:	dcc00317 	ldw	r19,12(sp)
 5091e24:	dc800217 	ldw	r18,8(sp)
 5091e28:	dc400117 	ldw	r17,4(sp)
 5091e2c:	dc000017 	ldw	r16,0(sp)
 5091e30:	dec00504 	addi	sp,sp,20
 5091e34:	f800283a 	ret
 5091e38:	0101ffc4 	movi	r4,2047
 5091e3c:	813fd626 	beq	r16,r4,5091d98 <__alt_data_end+0xfffc3b98>
 5091e40:	29402034 	orhi	r5,r5,128
 5091e44:	01000e04 	movi	r4,56
 5091e48:	2080a316 	blt	r4,r2,50920d8 <__subdf3+0x3c4>
 5091e4c:	010007c4 	movi	r4,31
 5091e50:	2080c616 	blt	r4,r2,509216c <__subdf3+0x458>
 5091e54:	01000804 	movi	r4,32
 5091e58:	2089c83a 	sub	r4,r4,r2
 5091e5c:	2910983a 	sll	r8,r5,r4
 5091e60:	308ed83a 	srl	r7,r6,r2
 5091e64:	3108983a 	sll	r4,r6,r4
 5091e68:	2884d83a 	srl	r2,r5,r2
 5091e6c:	41ccb03a 	or	r6,r8,r7
 5091e70:	2008c03a 	cmpne	r4,r4,zero
 5091e74:	310cb03a 	or	r6,r6,r4
 5091e78:	898dc83a 	sub	r6,r17,r6
 5091e7c:	89a3803a 	cmpltu	r17,r17,r6
 5091e80:	1887c83a 	sub	r3,r3,r2
 5091e84:	1c47c83a 	sub	r3,r3,r17
 5091e88:	3023883a 	mov	r17,r6
 5091e8c:	1880202c 	andhi	r2,r3,128
 5091e90:	10002326 	beq	r2,zero,5091f20 <__subdf3+0x20c>
 5091e94:	04c02034 	movhi	r19,128
 5091e98:	9cffffc4 	addi	r19,r19,-1
 5091e9c:	1ce6703a 	and	r19,r3,r19
 5091ea0:	98007a26 	beq	r19,zero,509208c <__subdf3+0x378>
 5091ea4:	9809883a 	mov	r4,r19
 5091ea8:	50928140 	call	5092814 <__clzsi2>
 5091eac:	113ffe04 	addi	r4,r2,-8
 5091eb0:	00c007c4 	movi	r3,31
 5091eb4:	19007b16 	blt	r3,r4,50920a4 <__subdf3+0x390>
 5091eb8:	00800804 	movi	r2,32
 5091ebc:	1105c83a 	sub	r2,r2,r4
 5091ec0:	8884d83a 	srl	r2,r17,r2
 5091ec4:	9906983a 	sll	r3,r19,r4
 5091ec8:	8922983a 	sll	r17,r17,r4
 5091ecc:	10c4b03a 	or	r2,r2,r3
 5091ed0:	24007816 	blt	r4,r16,50920b4 <__subdf3+0x3a0>
 5091ed4:	2421c83a 	sub	r16,r4,r16
 5091ed8:	80c00044 	addi	r3,r16,1
 5091edc:	010007c4 	movi	r4,31
 5091ee0:	20c09516 	blt	r4,r3,5092138 <__subdf3+0x424>
 5091ee4:	01400804 	movi	r5,32
 5091ee8:	28cbc83a 	sub	r5,r5,r3
 5091eec:	88c8d83a 	srl	r4,r17,r3
 5091ef0:	8962983a 	sll	r17,r17,r5
 5091ef4:	114a983a 	sll	r5,r2,r5
 5091ef8:	10c6d83a 	srl	r3,r2,r3
 5091efc:	8804c03a 	cmpne	r2,r17,zero
 5091f00:	290ab03a 	or	r5,r5,r4
 5091f04:	28a2b03a 	or	r17,r5,r2
 5091f08:	0021883a 	mov	r16,zero
 5091f0c:	003fa206 	br	5091d98 <__alt_data_end+0xfffc3b98>
 5091f10:	2090b03a 	or	r8,r4,r2
 5091f14:	40018e26 	beq	r8,zero,5092550 <__subdf3+0x83c>
 5091f18:	1007883a 	mov	r3,r2
 5091f1c:	2023883a 	mov	r17,r4
 5091f20:	888001cc 	andi	r2,r17,7
 5091f24:	103f9e1e 	bne	r2,zero,5091da0 <__alt_data_end+0xfffc3ba0>
 5091f28:	1804977a 	slli	r2,r3,29
 5091f2c:	8822d0fa 	srli	r17,r17,3
 5091f30:	1810d0fa 	srli	r8,r3,3
 5091f34:	9100004c 	andi	r4,r18,1
 5091f38:	1444b03a 	or	r2,r2,r17
 5091f3c:	00c1ffc4 	movi	r3,2047
 5091f40:	80c02826 	beq	r16,r3,5091fe4 <__subdf3+0x2d0>
 5091f44:	01400434 	movhi	r5,16
 5091f48:	297fffc4 	addi	r5,r5,-1
 5091f4c:	80e0703a 	and	r16,r16,r3
 5091f50:	414a703a 	and	r5,r8,r5
 5091f54:	003fa806 	br	5091df8 <__alt_data_end+0xfffc3bf8>
 5091f58:	0080630e 	bge	zero,r2,50920e8 <__subdf3+0x3d4>
 5091f5c:	48003026 	beq	r9,zero,5092020 <__subdf3+0x30c>
 5091f60:	0101ffc4 	movi	r4,2047
 5091f64:	813f8c26 	beq	r16,r4,5091d98 <__alt_data_end+0xfffc3b98>
 5091f68:	29402034 	orhi	r5,r5,128
 5091f6c:	01000e04 	movi	r4,56
 5091f70:	2080a90e 	bge	r4,r2,5092218 <__subdf3+0x504>
 5091f74:	298cb03a 	or	r6,r5,r6
 5091f78:	3012c03a 	cmpne	r9,r6,zero
 5091f7c:	0005883a 	mov	r2,zero
 5091f80:	4c53883a 	add	r9,r9,r17
 5091f84:	4c63803a 	cmpltu	r17,r9,r17
 5091f88:	10c7883a 	add	r3,r2,r3
 5091f8c:	88c7883a 	add	r3,r17,r3
 5091f90:	4823883a 	mov	r17,r9
 5091f94:	1880202c 	andhi	r2,r3,128
 5091f98:	1000d026 	beq	r2,zero,50922dc <__subdf3+0x5c8>
 5091f9c:	84000044 	addi	r16,r16,1
 5091fa0:	0081ffc4 	movi	r2,2047
 5091fa4:	8080fe26 	beq	r16,r2,50923a0 <__subdf3+0x68c>
 5091fa8:	00bfe034 	movhi	r2,65408
 5091fac:	10bfffc4 	addi	r2,r2,-1
 5091fb0:	1886703a 	and	r3,r3,r2
 5091fb4:	880ad07a 	srli	r5,r17,1
 5091fb8:	180497fa 	slli	r2,r3,31
 5091fbc:	8900004c 	andi	r4,r17,1
 5091fc0:	2922b03a 	or	r17,r5,r4
 5091fc4:	1806d07a 	srli	r3,r3,1
 5091fc8:	1462b03a 	or	r17,r2,r17
 5091fcc:	3825883a 	mov	r18,r7
 5091fd0:	003f7106 	br	5091d98 <__alt_data_end+0xfffc3b98>
 5091fd4:	2984b03a 	or	r2,r5,r6
 5091fd8:	103f6826 	beq	r2,zero,5091d7c <__alt_data_end+0xfffc3b7c>
 5091fdc:	39c03fcc 	andi	r7,r7,255
 5091fe0:	003f6706 	br	5091d80 <__alt_data_end+0xfffc3b80>
 5091fe4:	4086b03a 	or	r3,r8,r2
 5091fe8:	18015226 	beq	r3,zero,5092534 <__subdf3+0x820>
 5091fec:	00c00434 	movhi	r3,16
 5091ff0:	41400234 	orhi	r5,r8,8
 5091ff4:	18ffffc4 	addi	r3,r3,-1
 5091ff8:	28ca703a 	and	r5,r5,r3
 5091ffc:	003f7e06 	br	5091df8 <__alt_data_end+0xfffc3bf8>
 5092000:	10bfffc4 	addi	r2,r2,-1
 5092004:	1000491e 	bne	r2,zero,509212c <__subdf3+0x418>
 5092008:	898fc83a 	sub	r7,r17,r6
 509200c:	89e3803a 	cmpltu	r17,r17,r7
 5092010:	1947c83a 	sub	r3,r3,r5
 5092014:	1c47c83a 	sub	r3,r3,r17
 5092018:	3823883a 	mov	r17,r7
 509201c:	003f9b06 	br	5091e8c <__alt_data_end+0xfffc3c8c>
 5092020:	2988b03a 	or	r4,r5,r6
 5092024:	203f5c26 	beq	r4,zero,5091d98 <__alt_data_end+0xfffc3b98>
 5092028:	10bfffc4 	addi	r2,r2,-1
 509202c:	1000931e 	bne	r2,zero,509227c <__subdf3+0x568>
 5092030:	898d883a 	add	r6,r17,r6
 5092034:	3463803a 	cmpltu	r17,r6,r17
 5092038:	1947883a 	add	r3,r3,r5
 509203c:	88c7883a 	add	r3,r17,r3
 5092040:	3023883a 	mov	r17,r6
 5092044:	003fd306 	br	5091f94 <__alt_data_end+0xfffc3d94>
 5092048:	1000541e 	bne	r2,zero,509219c <__subdf3+0x488>
 509204c:	80800044 	addi	r2,r16,1
 5092050:	1081ffcc 	andi	r2,r2,2047
 5092054:	01000044 	movi	r4,1
 5092058:	2080a20e 	bge	r4,r2,50922e4 <__subdf3+0x5d0>
 509205c:	8989c83a 	sub	r4,r17,r6
 5092060:	8905803a 	cmpltu	r2,r17,r4
 5092064:	1967c83a 	sub	r19,r3,r5
 5092068:	98a7c83a 	sub	r19,r19,r2
 509206c:	9880202c 	andhi	r2,r19,128
 5092070:	10006326 	beq	r2,zero,5092200 <__subdf3+0x4ec>
 5092074:	3463c83a 	sub	r17,r6,r17
 5092078:	28c7c83a 	sub	r3,r5,r3
 509207c:	344d803a 	cmpltu	r6,r6,r17
 5092080:	19a7c83a 	sub	r19,r3,r6
 5092084:	3825883a 	mov	r18,r7
 5092088:	983f861e 	bne	r19,zero,5091ea4 <__alt_data_end+0xfffc3ca4>
 509208c:	8809883a 	mov	r4,r17
 5092090:	50928140 	call	5092814 <__clzsi2>
 5092094:	10800804 	addi	r2,r2,32
 5092098:	113ffe04 	addi	r4,r2,-8
 509209c:	00c007c4 	movi	r3,31
 50920a0:	193f850e 	bge	r3,r4,5091eb8 <__alt_data_end+0xfffc3cb8>
 50920a4:	10bff604 	addi	r2,r2,-40
 50920a8:	8884983a 	sll	r2,r17,r2
 50920ac:	0023883a 	mov	r17,zero
 50920b0:	243f880e 	bge	r4,r16,5091ed4 <__alt_data_end+0xfffc3cd4>
 50920b4:	00ffe034 	movhi	r3,65408
 50920b8:	18ffffc4 	addi	r3,r3,-1
 50920bc:	8121c83a 	sub	r16,r16,r4
 50920c0:	10c6703a 	and	r3,r2,r3
 50920c4:	003f3406 	br	5091d98 <__alt_data_end+0xfffc3b98>
 50920c8:	9100004c 	andi	r4,r18,1
 50920cc:	000b883a 	mov	r5,zero
 50920d0:	0005883a 	mov	r2,zero
 50920d4:	003f4806 	br	5091df8 <__alt_data_end+0xfffc3bf8>
 50920d8:	298cb03a 	or	r6,r5,r6
 50920dc:	300cc03a 	cmpne	r6,r6,zero
 50920e0:	0005883a 	mov	r2,zero
 50920e4:	003f6406 	br	5091e78 <__alt_data_end+0xfffc3c78>
 50920e8:	10009a1e 	bne	r2,zero,5092354 <__subdf3+0x640>
 50920ec:	82400044 	addi	r9,r16,1
 50920f0:	4881ffcc 	andi	r2,r9,2047
 50920f4:	02800044 	movi	r10,1
 50920f8:	5080670e 	bge	r10,r2,5092298 <__subdf3+0x584>
 50920fc:	0081ffc4 	movi	r2,2047
 5092100:	4880af26 	beq	r9,r2,50923c0 <__subdf3+0x6ac>
 5092104:	898d883a 	add	r6,r17,r6
 5092108:	1945883a 	add	r2,r3,r5
 509210c:	3447803a 	cmpltu	r3,r6,r17
 5092110:	1887883a 	add	r3,r3,r2
 5092114:	182297fa 	slli	r17,r3,31
 5092118:	300cd07a 	srli	r6,r6,1
 509211c:	1806d07a 	srli	r3,r3,1
 5092120:	4821883a 	mov	r16,r9
 5092124:	89a2b03a 	or	r17,r17,r6
 5092128:	003f1b06 	br	5091d98 <__alt_data_end+0xfffc3b98>
 509212c:	0101ffc4 	movi	r4,2047
 5092130:	813f441e 	bne	r16,r4,5091e44 <__alt_data_end+0xfffc3c44>
 5092134:	003f1806 	br	5091d98 <__alt_data_end+0xfffc3b98>
 5092138:	843ff844 	addi	r16,r16,-31
 509213c:	01400804 	movi	r5,32
 5092140:	1408d83a 	srl	r4,r2,r16
 5092144:	19405026 	beq	r3,r5,5092288 <__subdf3+0x574>
 5092148:	01401004 	movi	r5,64
 509214c:	28c7c83a 	sub	r3,r5,r3
 5092150:	10c4983a 	sll	r2,r2,r3
 5092154:	88a2b03a 	or	r17,r17,r2
 5092158:	8822c03a 	cmpne	r17,r17,zero
 509215c:	2462b03a 	or	r17,r4,r17
 5092160:	0007883a 	mov	r3,zero
 5092164:	0021883a 	mov	r16,zero
 5092168:	003f6d06 	br	5091f20 <__alt_data_end+0xfffc3d20>
 509216c:	11fff804 	addi	r7,r2,-32
 5092170:	01000804 	movi	r4,32
 5092174:	29ced83a 	srl	r7,r5,r7
 5092178:	11004526 	beq	r2,r4,5092290 <__subdf3+0x57c>
 509217c:	01001004 	movi	r4,64
 5092180:	2089c83a 	sub	r4,r4,r2
 5092184:	2904983a 	sll	r2,r5,r4
 5092188:	118cb03a 	or	r6,r2,r6
 509218c:	300cc03a 	cmpne	r6,r6,zero
 5092190:	398cb03a 	or	r6,r7,r6
 5092194:	0005883a 	mov	r2,zero
 5092198:	003f3706 	br	5091e78 <__alt_data_end+0xfffc3c78>
 509219c:	80002a26 	beq	r16,zero,5092248 <__subdf3+0x534>
 50921a0:	0101ffc4 	movi	r4,2047
 50921a4:	49006626 	beq	r9,r4,5092340 <__subdf3+0x62c>
 50921a8:	0085c83a 	sub	r2,zero,r2
 50921ac:	18c02034 	orhi	r3,r3,128
 50921b0:	01000e04 	movi	r4,56
 50921b4:	20807e16 	blt	r4,r2,50923b0 <__subdf3+0x69c>
 50921b8:	010007c4 	movi	r4,31
 50921bc:	2080e716 	blt	r4,r2,509255c <__subdf3+0x848>
 50921c0:	01000804 	movi	r4,32
 50921c4:	2089c83a 	sub	r4,r4,r2
 50921c8:	1914983a 	sll	r10,r3,r4
 50921cc:	8890d83a 	srl	r8,r17,r2
 50921d0:	8908983a 	sll	r4,r17,r4
 50921d4:	1884d83a 	srl	r2,r3,r2
 50921d8:	5222b03a 	or	r17,r10,r8
 50921dc:	2006c03a 	cmpne	r3,r4,zero
 50921e0:	88e2b03a 	or	r17,r17,r3
 50921e4:	3463c83a 	sub	r17,r6,r17
 50921e8:	2885c83a 	sub	r2,r5,r2
 50921ec:	344d803a 	cmpltu	r6,r6,r17
 50921f0:	1187c83a 	sub	r3,r2,r6
 50921f4:	4821883a 	mov	r16,r9
 50921f8:	3825883a 	mov	r18,r7
 50921fc:	003f2306 	br	5091e8c <__alt_data_end+0xfffc3c8c>
 5092200:	24d0b03a 	or	r8,r4,r19
 5092204:	40001b1e 	bne	r8,zero,5092274 <__subdf3+0x560>
 5092208:	0005883a 	mov	r2,zero
 509220c:	0009883a 	mov	r4,zero
 5092210:	0021883a 	mov	r16,zero
 5092214:	003f4906 	br	5091f3c <__alt_data_end+0xfffc3d3c>
 5092218:	010007c4 	movi	r4,31
 509221c:	20803a16 	blt	r4,r2,5092308 <__subdf3+0x5f4>
 5092220:	01000804 	movi	r4,32
 5092224:	2089c83a 	sub	r4,r4,r2
 5092228:	2912983a 	sll	r9,r5,r4
 509222c:	3090d83a 	srl	r8,r6,r2
 5092230:	3108983a 	sll	r4,r6,r4
 5092234:	2884d83a 	srl	r2,r5,r2
 5092238:	4a12b03a 	or	r9,r9,r8
 509223c:	2008c03a 	cmpne	r4,r4,zero
 5092240:	4912b03a 	or	r9,r9,r4
 5092244:	003f4e06 	br	5091f80 <__alt_data_end+0xfffc3d80>
 5092248:	1c48b03a 	or	r4,r3,r17
 509224c:	20003c26 	beq	r4,zero,5092340 <__subdf3+0x62c>
 5092250:	0084303a 	nor	r2,zero,r2
 5092254:	1000381e 	bne	r2,zero,5092338 <__subdf3+0x624>
 5092258:	3463c83a 	sub	r17,r6,r17
 509225c:	28c5c83a 	sub	r2,r5,r3
 5092260:	344d803a 	cmpltu	r6,r6,r17
 5092264:	1187c83a 	sub	r3,r2,r6
 5092268:	4821883a 	mov	r16,r9
 509226c:	3825883a 	mov	r18,r7
 5092270:	003f0606 	br	5091e8c <__alt_data_end+0xfffc3c8c>
 5092274:	2023883a 	mov	r17,r4
 5092278:	003f0906 	br	5091ea0 <__alt_data_end+0xfffc3ca0>
 509227c:	0101ffc4 	movi	r4,2047
 5092280:	813f3a1e 	bne	r16,r4,5091f6c <__alt_data_end+0xfffc3d6c>
 5092284:	003ec406 	br	5091d98 <__alt_data_end+0xfffc3b98>
 5092288:	0005883a 	mov	r2,zero
 509228c:	003fb106 	br	5092154 <__alt_data_end+0xfffc3f54>
 5092290:	0005883a 	mov	r2,zero
 5092294:	003fbc06 	br	5092188 <__alt_data_end+0xfffc3f88>
 5092298:	1c44b03a 	or	r2,r3,r17
 509229c:	80008e1e 	bne	r16,zero,50924d8 <__subdf3+0x7c4>
 50922a0:	1000c826 	beq	r2,zero,50925c4 <__subdf3+0x8b0>
 50922a4:	2984b03a 	or	r2,r5,r6
 50922a8:	103ebb26 	beq	r2,zero,5091d98 <__alt_data_end+0xfffc3b98>
 50922ac:	8989883a 	add	r4,r17,r6
 50922b0:	1945883a 	add	r2,r3,r5
 50922b4:	2447803a 	cmpltu	r3,r4,r17
 50922b8:	1887883a 	add	r3,r3,r2
 50922bc:	1880202c 	andhi	r2,r3,128
 50922c0:	2023883a 	mov	r17,r4
 50922c4:	103f1626 	beq	r2,zero,5091f20 <__alt_data_end+0xfffc3d20>
 50922c8:	00bfe034 	movhi	r2,65408
 50922cc:	10bfffc4 	addi	r2,r2,-1
 50922d0:	5021883a 	mov	r16,r10
 50922d4:	1886703a 	and	r3,r3,r2
 50922d8:	003eaf06 	br	5091d98 <__alt_data_end+0xfffc3b98>
 50922dc:	3825883a 	mov	r18,r7
 50922e0:	003f0f06 	br	5091f20 <__alt_data_end+0xfffc3d20>
 50922e4:	1c44b03a 	or	r2,r3,r17
 50922e8:	8000251e 	bne	r16,zero,5092380 <__subdf3+0x66c>
 50922ec:	1000661e 	bne	r2,zero,5092488 <__subdf3+0x774>
 50922f0:	2990b03a 	or	r8,r5,r6
 50922f4:	40009626 	beq	r8,zero,5092550 <__subdf3+0x83c>
 50922f8:	2807883a 	mov	r3,r5
 50922fc:	3023883a 	mov	r17,r6
 5092300:	3825883a 	mov	r18,r7
 5092304:	003ea406 	br	5091d98 <__alt_data_end+0xfffc3b98>
 5092308:	127ff804 	addi	r9,r2,-32
 509230c:	01000804 	movi	r4,32
 5092310:	2a52d83a 	srl	r9,r5,r9
 5092314:	11008c26 	beq	r2,r4,5092548 <__subdf3+0x834>
 5092318:	01001004 	movi	r4,64
 509231c:	2085c83a 	sub	r2,r4,r2
 5092320:	2884983a 	sll	r2,r5,r2
 5092324:	118cb03a 	or	r6,r2,r6
 5092328:	300cc03a 	cmpne	r6,r6,zero
 509232c:	4992b03a 	or	r9,r9,r6
 5092330:	0005883a 	mov	r2,zero
 5092334:	003f1206 	br	5091f80 <__alt_data_end+0xfffc3d80>
 5092338:	0101ffc4 	movi	r4,2047
 509233c:	493f9c1e 	bne	r9,r4,50921b0 <__alt_data_end+0xfffc3fb0>
 5092340:	2807883a 	mov	r3,r5
 5092344:	3023883a 	mov	r17,r6
 5092348:	4821883a 	mov	r16,r9
 509234c:	3825883a 	mov	r18,r7
 5092350:	003e9106 	br	5091d98 <__alt_data_end+0xfffc3b98>
 5092354:	80001f1e 	bne	r16,zero,50923d4 <__subdf3+0x6c0>
 5092358:	1c48b03a 	or	r4,r3,r17
 509235c:	20005a26 	beq	r4,zero,50924c8 <__subdf3+0x7b4>
 5092360:	0084303a 	nor	r2,zero,r2
 5092364:	1000561e 	bne	r2,zero,50924c0 <__subdf3+0x7ac>
 5092368:	89a3883a 	add	r17,r17,r6
 509236c:	1945883a 	add	r2,r3,r5
 5092370:	898d803a 	cmpltu	r6,r17,r6
 5092374:	3087883a 	add	r3,r6,r2
 5092378:	4821883a 	mov	r16,r9
 509237c:	003f0506 	br	5091f94 <__alt_data_end+0xfffc3d94>
 5092380:	10002b1e 	bne	r2,zero,5092430 <__subdf3+0x71c>
 5092384:	2984b03a 	or	r2,r5,r6
 5092388:	10008026 	beq	r2,zero,509258c <__subdf3+0x878>
 509238c:	2807883a 	mov	r3,r5
 5092390:	3023883a 	mov	r17,r6
 5092394:	3825883a 	mov	r18,r7
 5092398:	0401ffc4 	movi	r16,2047
 509239c:	003e7e06 	br	5091d98 <__alt_data_end+0xfffc3b98>
 50923a0:	3809883a 	mov	r4,r7
 50923a4:	0011883a 	mov	r8,zero
 50923a8:	0005883a 	mov	r2,zero
 50923ac:	003ee306 	br	5091f3c <__alt_data_end+0xfffc3d3c>
 50923b0:	1c62b03a 	or	r17,r3,r17
 50923b4:	8822c03a 	cmpne	r17,r17,zero
 50923b8:	0005883a 	mov	r2,zero
 50923bc:	003f8906 	br	50921e4 <__alt_data_end+0xfffc3fe4>
 50923c0:	3809883a 	mov	r4,r7
 50923c4:	4821883a 	mov	r16,r9
 50923c8:	0011883a 	mov	r8,zero
 50923cc:	0005883a 	mov	r2,zero
 50923d0:	003eda06 	br	5091f3c <__alt_data_end+0xfffc3d3c>
 50923d4:	0101ffc4 	movi	r4,2047
 50923d8:	49003b26 	beq	r9,r4,50924c8 <__subdf3+0x7b4>
 50923dc:	0085c83a 	sub	r2,zero,r2
 50923e0:	18c02034 	orhi	r3,r3,128
 50923e4:	01000e04 	movi	r4,56
 50923e8:	20806e16 	blt	r4,r2,50925a4 <__subdf3+0x890>
 50923ec:	010007c4 	movi	r4,31
 50923f0:	20807716 	blt	r4,r2,50925d0 <__subdf3+0x8bc>
 50923f4:	01000804 	movi	r4,32
 50923f8:	2089c83a 	sub	r4,r4,r2
 50923fc:	1914983a 	sll	r10,r3,r4
 5092400:	8890d83a 	srl	r8,r17,r2
 5092404:	8908983a 	sll	r4,r17,r4
 5092408:	1884d83a 	srl	r2,r3,r2
 509240c:	5222b03a 	or	r17,r10,r8
 5092410:	2006c03a 	cmpne	r3,r4,zero
 5092414:	88e2b03a 	or	r17,r17,r3
 5092418:	89a3883a 	add	r17,r17,r6
 509241c:	1145883a 	add	r2,r2,r5
 5092420:	898d803a 	cmpltu	r6,r17,r6
 5092424:	3087883a 	add	r3,r6,r2
 5092428:	4821883a 	mov	r16,r9
 509242c:	003ed906 	br	5091f94 <__alt_data_end+0xfffc3d94>
 5092430:	2984b03a 	or	r2,r5,r6
 5092434:	10004226 	beq	r2,zero,5092540 <__subdf3+0x82c>
 5092438:	1808d0fa 	srli	r4,r3,3
 509243c:	8822d0fa 	srli	r17,r17,3
 5092440:	1806977a 	slli	r3,r3,29
 5092444:	2080022c 	andhi	r2,r4,8
 5092448:	1c62b03a 	or	r17,r3,r17
 509244c:	10000826 	beq	r2,zero,5092470 <__subdf3+0x75c>
 5092450:	2812d0fa 	srli	r9,r5,3
 5092454:	4880022c 	andhi	r2,r9,8
 5092458:	1000051e 	bne	r2,zero,5092470 <__subdf3+0x75c>
 509245c:	300cd0fa 	srli	r6,r6,3
 5092460:	2804977a 	slli	r2,r5,29
 5092464:	4809883a 	mov	r4,r9
 5092468:	3825883a 	mov	r18,r7
 509246c:	11a2b03a 	or	r17,r2,r6
 5092470:	8806d77a 	srli	r3,r17,29
 5092474:	200890fa 	slli	r4,r4,3
 5092478:	882290fa 	slli	r17,r17,3
 509247c:	0401ffc4 	movi	r16,2047
 5092480:	1906b03a 	or	r3,r3,r4
 5092484:	003e4406 	br	5091d98 <__alt_data_end+0xfffc3b98>
 5092488:	2984b03a 	or	r2,r5,r6
 509248c:	103e4226 	beq	r2,zero,5091d98 <__alt_data_end+0xfffc3b98>
 5092490:	8989c83a 	sub	r4,r17,r6
 5092494:	8911803a 	cmpltu	r8,r17,r4
 5092498:	1945c83a 	sub	r2,r3,r5
 509249c:	1205c83a 	sub	r2,r2,r8
 50924a0:	1200202c 	andhi	r8,r2,128
 50924a4:	403e9a26 	beq	r8,zero,5091f10 <__alt_data_end+0xfffc3d10>
 50924a8:	3463c83a 	sub	r17,r6,r17
 50924ac:	28c5c83a 	sub	r2,r5,r3
 50924b0:	344d803a 	cmpltu	r6,r6,r17
 50924b4:	1187c83a 	sub	r3,r2,r6
 50924b8:	3825883a 	mov	r18,r7
 50924bc:	003e3606 	br	5091d98 <__alt_data_end+0xfffc3b98>
 50924c0:	0101ffc4 	movi	r4,2047
 50924c4:	493fc71e 	bne	r9,r4,50923e4 <__alt_data_end+0xfffc41e4>
 50924c8:	2807883a 	mov	r3,r5
 50924cc:	3023883a 	mov	r17,r6
 50924d0:	4821883a 	mov	r16,r9
 50924d4:	003e3006 	br	5091d98 <__alt_data_end+0xfffc3b98>
 50924d8:	10003626 	beq	r2,zero,50925b4 <__subdf3+0x8a0>
 50924dc:	2984b03a 	or	r2,r5,r6
 50924e0:	10001726 	beq	r2,zero,5092540 <__subdf3+0x82c>
 50924e4:	1808d0fa 	srli	r4,r3,3
 50924e8:	8822d0fa 	srli	r17,r17,3
 50924ec:	1806977a 	slli	r3,r3,29
 50924f0:	2080022c 	andhi	r2,r4,8
 50924f4:	1c62b03a 	or	r17,r3,r17
 50924f8:	10000726 	beq	r2,zero,5092518 <__subdf3+0x804>
 50924fc:	2812d0fa 	srli	r9,r5,3
 5092500:	4880022c 	andhi	r2,r9,8
 5092504:	1000041e 	bne	r2,zero,5092518 <__subdf3+0x804>
 5092508:	300cd0fa 	srli	r6,r6,3
 509250c:	2804977a 	slli	r2,r5,29
 5092510:	4809883a 	mov	r4,r9
 5092514:	11a2b03a 	or	r17,r2,r6
 5092518:	8806d77a 	srli	r3,r17,29
 509251c:	200890fa 	slli	r4,r4,3
 5092520:	882290fa 	slli	r17,r17,3
 5092524:	3825883a 	mov	r18,r7
 5092528:	1906b03a 	or	r3,r3,r4
 509252c:	0401ffc4 	movi	r16,2047
 5092530:	003e1906 	br	5091d98 <__alt_data_end+0xfffc3b98>
 5092534:	000b883a 	mov	r5,zero
 5092538:	0005883a 	mov	r2,zero
 509253c:	003e2e06 	br	5091df8 <__alt_data_end+0xfffc3bf8>
 5092540:	0401ffc4 	movi	r16,2047
 5092544:	003e1406 	br	5091d98 <__alt_data_end+0xfffc3b98>
 5092548:	0005883a 	mov	r2,zero
 509254c:	003f7506 	br	5092324 <__alt_data_end+0xfffc4124>
 5092550:	0005883a 	mov	r2,zero
 5092554:	0009883a 	mov	r4,zero
 5092558:	003e7806 	br	5091f3c <__alt_data_end+0xfffc3d3c>
 509255c:	123ff804 	addi	r8,r2,-32
 5092560:	01000804 	movi	r4,32
 5092564:	1a10d83a 	srl	r8,r3,r8
 5092568:	11002526 	beq	r2,r4,5092600 <__subdf3+0x8ec>
 509256c:	01001004 	movi	r4,64
 5092570:	2085c83a 	sub	r2,r4,r2
 5092574:	1884983a 	sll	r2,r3,r2
 5092578:	1444b03a 	or	r2,r2,r17
 509257c:	1004c03a 	cmpne	r2,r2,zero
 5092580:	40a2b03a 	or	r17,r8,r2
 5092584:	0005883a 	mov	r2,zero
 5092588:	003f1606 	br	50921e4 <__alt_data_end+0xfffc3fe4>
 509258c:	02000434 	movhi	r8,16
 5092590:	0009883a 	mov	r4,zero
 5092594:	423fffc4 	addi	r8,r8,-1
 5092598:	00bfffc4 	movi	r2,-1
 509259c:	0401ffc4 	movi	r16,2047
 50925a0:	003e6606 	br	5091f3c <__alt_data_end+0xfffc3d3c>
 50925a4:	1c62b03a 	or	r17,r3,r17
 50925a8:	8822c03a 	cmpne	r17,r17,zero
 50925ac:	0005883a 	mov	r2,zero
 50925b0:	003f9906 	br	5092418 <__alt_data_end+0xfffc4218>
 50925b4:	2807883a 	mov	r3,r5
 50925b8:	3023883a 	mov	r17,r6
 50925bc:	0401ffc4 	movi	r16,2047
 50925c0:	003df506 	br	5091d98 <__alt_data_end+0xfffc3b98>
 50925c4:	2807883a 	mov	r3,r5
 50925c8:	3023883a 	mov	r17,r6
 50925cc:	003df206 	br	5091d98 <__alt_data_end+0xfffc3b98>
 50925d0:	123ff804 	addi	r8,r2,-32
 50925d4:	01000804 	movi	r4,32
 50925d8:	1a10d83a 	srl	r8,r3,r8
 50925dc:	11000a26 	beq	r2,r4,5092608 <__subdf3+0x8f4>
 50925e0:	01001004 	movi	r4,64
 50925e4:	2085c83a 	sub	r2,r4,r2
 50925e8:	1884983a 	sll	r2,r3,r2
 50925ec:	1444b03a 	or	r2,r2,r17
 50925f0:	1004c03a 	cmpne	r2,r2,zero
 50925f4:	40a2b03a 	or	r17,r8,r2
 50925f8:	0005883a 	mov	r2,zero
 50925fc:	003f8606 	br	5092418 <__alt_data_end+0xfffc4218>
 5092600:	0005883a 	mov	r2,zero
 5092604:	003fdc06 	br	5092578 <__alt_data_end+0xfffc4378>
 5092608:	0005883a 	mov	r2,zero
 509260c:	003ff706 	br	50925ec <__alt_data_end+0xfffc43ec>

05092610 <__fixdfsi>:
 5092610:	280cd53a 	srli	r6,r5,20
 5092614:	00c00434 	movhi	r3,16
 5092618:	18ffffc4 	addi	r3,r3,-1
 509261c:	3181ffcc 	andi	r6,r6,2047
 5092620:	01c0ff84 	movi	r7,1022
 5092624:	28c6703a 	and	r3,r5,r3
 5092628:	280ad7fa 	srli	r5,r5,31
 509262c:	3980120e 	bge	r7,r6,5092678 <__fixdfsi+0x68>
 5092630:	00810744 	movi	r2,1053
 5092634:	11800c16 	blt	r2,r6,5092668 <__fixdfsi+0x58>
 5092638:	00810cc4 	movi	r2,1075
 509263c:	1185c83a 	sub	r2,r2,r6
 5092640:	01c007c4 	movi	r7,31
 5092644:	18c00434 	orhi	r3,r3,16
 5092648:	38800d16 	blt	r7,r2,5092680 <__fixdfsi+0x70>
 509264c:	31befb44 	addi	r6,r6,-1043
 5092650:	2084d83a 	srl	r2,r4,r2
 5092654:	1986983a 	sll	r3,r3,r6
 5092658:	1884b03a 	or	r2,r3,r2
 509265c:	28000726 	beq	r5,zero,509267c <__fixdfsi+0x6c>
 5092660:	0085c83a 	sub	r2,zero,r2
 5092664:	f800283a 	ret
 5092668:	00a00034 	movhi	r2,32768
 509266c:	10bfffc4 	addi	r2,r2,-1
 5092670:	2885883a 	add	r2,r5,r2
 5092674:	f800283a 	ret
 5092678:	0005883a 	mov	r2,zero
 509267c:	f800283a 	ret
 5092680:	008104c4 	movi	r2,1043
 5092684:	1185c83a 	sub	r2,r2,r6
 5092688:	1884d83a 	srl	r2,r3,r2
 509268c:	003ff306 	br	509265c <__alt_data_end+0xfffc445c>

05092690 <__floatsidf>:
 5092690:	defffd04 	addi	sp,sp,-12
 5092694:	dfc00215 	stw	ra,8(sp)
 5092698:	dc400115 	stw	r17,4(sp)
 509269c:	dc000015 	stw	r16,0(sp)
 50926a0:	20002b26 	beq	r4,zero,5092750 <__floatsidf+0xc0>
 50926a4:	2023883a 	mov	r17,r4
 50926a8:	2020d7fa 	srli	r16,r4,31
 50926ac:	20002d16 	blt	r4,zero,5092764 <__floatsidf+0xd4>
 50926b0:	8809883a 	mov	r4,r17
 50926b4:	50928140 	call	5092814 <__clzsi2>
 50926b8:	01410784 	movi	r5,1054
 50926bc:	288bc83a 	sub	r5,r5,r2
 50926c0:	01010cc4 	movi	r4,1075
 50926c4:	2149c83a 	sub	r4,r4,r5
 50926c8:	00c007c4 	movi	r3,31
 50926cc:	1900160e 	bge	r3,r4,5092728 <__floatsidf+0x98>
 50926d0:	00c104c4 	movi	r3,1043
 50926d4:	1947c83a 	sub	r3,r3,r5
 50926d8:	88c6983a 	sll	r3,r17,r3
 50926dc:	00800434 	movhi	r2,16
 50926e0:	10bfffc4 	addi	r2,r2,-1
 50926e4:	1886703a 	and	r3,r3,r2
 50926e8:	2941ffcc 	andi	r5,r5,2047
 50926ec:	800d883a 	mov	r6,r16
 50926f0:	0005883a 	mov	r2,zero
 50926f4:	280a953a 	slli	r5,r5,20
 50926f8:	31803fcc 	andi	r6,r6,255
 50926fc:	01000434 	movhi	r4,16
 5092700:	300c97fa 	slli	r6,r6,31
 5092704:	213fffc4 	addi	r4,r4,-1
 5092708:	1906703a 	and	r3,r3,r4
 509270c:	1946b03a 	or	r3,r3,r5
 5092710:	1986b03a 	or	r3,r3,r6
 5092714:	dfc00217 	ldw	ra,8(sp)
 5092718:	dc400117 	ldw	r17,4(sp)
 509271c:	dc000017 	ldw	r16,0(sp)
 5092720:	dec00304 	addi	sp,sp,12
 5092724:	f800283a 	ret
 5092728:	00c002c4 	movi	r3,11
 509272c:	1887c83a 	sub	r3,r3,r2
 5092730:	88c6d83a 	srl	r3,r17,r3
 5092734:	8904983a 	sll	r2,r17,r4
 5092738:	01000434 	movhi	r4,16
 509273c:	213fffc4 	addi	r4,r4,-1
 5092740:	2941ffcc 	andi	r5,r5,2047
 5092744:	1906703a 	and	r3,r3,r4
 5092748:	800d883a 	mov	r6,r16
 509274c:	003fe906 	br	50926f4 <__alt_data_end+0xfffc44f4>
 5092750:	000d883a 	mov	r6,zero
 5092754:	000b883a 	mov	r5,zero
 5092758:	0007883a 	mov	r3,zero
 509275c:	0005883a 	mov	r2,zero
 5092760:	003fe406 	br	50926f4 <__alt_data_end+0xfffc44f4>
 5092764:	0123c83a 	sub	r17,zero,r4
 5092768:	003fd106 	br	50926b0 <__alt_data_end+0xfffc44b0>

0509276c <__floatunsidf>:
 509276c:	defffe04 	addi	sp,sp,-8
 5092770:	dc000015 	stw	r16,0(sp)
 5092774:	dfc00115 	stw	ra,4(sp)
 5092778:	2021883a 	mov	r16,r4
 509277c:	20002226 	beq	r4,zero,5092808 <__floatunsidf+0x9c>
 5092780:	50928140 	call	5092814 <__clzsi2>
 5092784:	01010784 	movi	r4,1054
 5092788:	2089c83a 	sub	r4,r4,r2
 509278c:	01810cc4 	movi	r6,1075
 5092790:	310dc83a 	sub	r6,r6,r4
 5092794:	00c007c4 	movi	r3,31
 5092798:	1980120e 	bge	r3,r6,50927e4 <__floatunsidf+0x78>
 509279c:	00c104c4 	movi	r3,1043
 50927a0:	1907c83a 	sub	r3,r3,r4
 50927a4:	80ca983a 	sll	r5,r16,r3
 50927a8:	00800434 	movhi	r2,16
 50927ac:	10bfffc4 	addi	r2,r2,-1
 50927b0:	2101ffcc 	andi	r4,r4,2047
 50927b4:	0021883a 	mov	r16,zero
 50927b8:	288a703a 	and	r5,r5,r2
 50927bc:	2008953a 	slli	r4,r4,20
 50927c0:	00c00434 	movhi	r3,16
 50927c4:	18ffffc4 	addi	r3,r3,-1
 50927c8:	28c6703a 	and	r3,r5,r3
 50927cc:	8005883a 	mov	r2,r16
 50927d0:	1906b03a 	or	r3,r3,r4
 50927d4:	dfc00117 	ldw	ra,4(sp)
 50927d8:	dc000017 	ldw	r16,0(sp)
 50927dc:	dec00204 	addi	sp,sp,8
 50927e0:	f800283a 	ret
 50927e4:	00c002c4 	movi	r3,11
 50927e8:	188bc83a 	sub	r5,r3,r2
 50927ec:	814ad83a 	srl	r5,r16,r5
 50927f0:	00c00434 	movhi	r3,16
 50927f4:	18ffffc4 	addi	r3,r3,-1
 50927f8:	81a0983a 	sll	r16,r16,r6
 50927fc:	2101ffcc 	andi	r4,r4,2047
 5092800:	28ca703a 	and	r5,r5,r3
 5092804:	003fed06 	br	50927bc <__alt_data_end+0xfffc45bc>
 5092808:	0009883a 	mov	r4,zero
 509280c:	000b883a 	mov	r5,zero
 5092810:	003fea06 	br	50927bc <__alt_data_end+0xfffc45bc>

05092814 <__clzsi2>:
 5092814:	00bfffd4 	movui	r2,65535
 5092818:	11000536 	bltu	r2,r4,5092830 <__clzsi2+0x1c>
 509281c:	00803fc4 	movi	r2,255
 5092820:	11000f36 	bltu	r2,r4,5092860 <__clzsi2+0x4c>
 5092824:	00800804 	movi	r2,32
 5092828:	0007883a 	mov	r3,zero
 509282c:	00000506 	br	5092844 <__clzsi2+0x30>
 5092830:	00804034 	movhi	r2,256
 5092834:	10bfffc4 	addi	r2,r2,-1
 5092838:	11000c2e 	bgeu	r2,r4,509286c <__clzsi2+0x58>
 509283c:	00800204 	movi	r2,8
 5092840:	00c00604 	movi	r3,24
 5092844:	20c8d83a 	srl	r4,r4,r3
 5092848:	00c14274 	movhi	r3,1289
 509284c:	18d7f504 	addi	r3,r3,24532
 5092850:	1909883a 	add	r4,r3,r4
 5092854:	20c00003 	ldbu	r3,0(r4)
 5092858:	10c5c83a 	sub	r2,r2,r3
 509285c:	f800283a 	ret
 5092860:	00800604 	movi	r2,24
 5092864:	00c00204 	movi	r3,8
 5092868:	003ff606 	br	5092844 <__alt_data_end+0xfffc4644>
 509286c:	00800404 	movi	r2,16
 5092870:	1007883a 	mov	r3,r2
 5092874:	003ff306 	br	5092844 <__alt_data_end+0xfffc4644>

05092878 <alt_get_errno>:
#undef errno

extern int errno;

static ALT_INLINE int* alt_get_errno(void)
{
 5092878:	defffe04 	addi	sp,sp,-8
 509287c:	dfc00115 	stw	ra,4(sp)
 5092880:	df000015 	stw	fp,0(sp)
 5092884:	d839883a 	mov	fp,sp
  return ((alt_errno) ? alt_errno() : &errno);
 5092888:	d0a00b17 	ldw	r2,-32724(gp)
 509288c:	10000326 	beq	r2,zero,509289c <alt_get_errno+0x24>
 5092890:	d0a00b17 	ldw	r2,-32724(gp)
 5092894:	103ee83a 	callr	r2
 5092898:	00000106 	br	50928a0 <alt_get_errno+0x28>
 509289c:	d0a6d804 	addi	r2,gp,-25760
}
 50928a0:	e037883a 	mov	sp,fp
 50928a4:	dfc00117 	ldw	ra,4(sp)
 50928a8:	df000017 	ldw	fp,0(sp)
 50928ac:	dec00204 	addi	sp,sp,8
 50928b0:	f800283a 	ret

050928b4 <close>:
 *
 * ALT_CLOSE is mapped onto the close() system call in alt_syscall.h
 */
 
int ALT_CLOSE (int fildes)
{
 50928b4:	defffb04 	addi	sp,sp,-20
 50928b8:	dfc00415 	stw	ra,16(sp)
 50928bc:	df000315 	stw	fp,12(sp)
 50928c0:	df000304 	addi	fp,sp,12
 50928c4:	e13fff15 	stw	r4,-4(fp)
   * A common error case is that when the file descriptor was created, the call
   * to open() failed resulting in a negative file descriptor. This is trapped
   * below so that we don't try and process an invalid file descriptor.
   */

  fd = (fildes < 0) ? NULL : &alt_fd_list[fildes];
 50928c8:	e0bfff17 	ldw	r2,-4(fp)
 50928cc:	10000616 	blt	r2,zero,50928e8 <close+0x34>
 50928d0:	e0bfff17 	ldw	r2,-4(fp)
 50928d4:	10c00324 	muli	r3,r2,12
 50928d8:	00814274 	movhi	r2,1289
 50928dc:	109a7704 	addi	r2,r2,27100
 50928e0:	1885883a 	add	r2,r3,r2
 50928e4:	00000106 	br	50928ec <close+0x38>
 50928e8:	0005883a 	mov	r2,zero
 50928ec:	e0bffd15 	stw	r2,-12(fp)

  if (fd)
 50928f0:	e0bffd17 	ldw	r2,-12(fp)
 50928f4:	10001926 	beq	r2,zero,509295c <close+0xa8>
    /*
     * If the associated file system/device has a close function, call it so 
     * that any necessary cleanup code can run.
     */

    rval = (fd->dev->close) ? fd->dev->close(fd) : 0;
 50928f8:	e0bffd17 	ldw	r2,-12(fp)
 50928fc:	10800017 	ldw	r2,0(r2)
 5092900:	10800417 	ldw	r2,16(r2)
 5092904:	10000626 	beq	r2,zero,5092920 <close+0x6c>
 5092908:	e0bffd17 	ldw	r2,-12(fp)
 509290c:	10800017 	ldw	r2,0(r2)
 5092910:	10800417 	ldw	r2,16(r2)
 5092914:	e13ffd17 	ldw	r4,-12(fp)
 5092918:	103ee83a 	callr	r2
 509291c:	00000106 	br	5092924 <close+0x70>
 5092920:	0005883a 	mov	r2,zero
 5092924:	e0bffe15 	stw	r2,-8(fp)

    /* Free the file descriptor structure and return. */

    alt_release_fd (fildes);
 5092928:	e13fff17 	ldw	r4,-4(fp)
 509292c:	50930f40 	call	50930f4 <alt_release_fd>
    if (rval < 0)
 5092930:	e0bffe17 	ldw	r2,-8(fp)
 5092934:	1000070e 	bge	r2,zero,5092954 <close+0xa0>
    {
      ALT_ERRNO = -rval;
 5092938:	50928780 	call	5092878 <alt_get_errno>
 509293c:	1007883a 	mov	r3,r2
 5092940:	e0bffe17 	ldw	r2,-8(fp)
 5092944:	0085c83a 	sub	r2,zero,r2
 5092948:	18800015 	stw	r2,0(r3)
      return -1;
 509294c:	00bfffc4 	movi	r2,-1
 5092950:	00000706 	br	5092970 <close+0xbc>
    }
    return 0;
 5092954:	0005883a 	mov	r2,zero
 5092958:	00000506 	br	5092970 <close+0xbc>
  }
  else
  {
    ALT_ERRNO = EBADFD;
 509295c:	50928780 	call	5092878 <alt_get_errno>
 5092960:	1007883a 	mov	r3,r2
 5092964:	00801444 	movi	r2,81
 5092968:	18800015 	stw	r2,0(r3)
    return -1;
 509296c:	00bfffc4 	movi	r2,-1
  }
}
 5092970:	e037883a 	mov	sp,fp
 5092974:	dfc00117 	ldw	ra,4(sp)
 5092978:	df000017 	ldw	fp,0(sp)
 509297c:	dec00204 	addi	sp,sp,8
 5092980:	f800283a 	ret

05092984 <alt_dev_null_write>:
 * by the alt_dev_null device. It simple discards all data passed to it, and
 * indicates that the data has been successfully transmitted.
 */

static int alt_dev_null_write (alt_fd* fd, const char* ptr, int len)
{
 5092984:	defffc04 	addi	sp,sp,-16
 5092988:	df000315 	stw	fp,12(sp)
 509298c:	df000304 	addi	fp,sp,12
 5092990:	e13ffd15 	stw	r4,-12(fp)
 5092994:	e17ffe15 	stw	r5,-8(fp)
 5092998:	e1bfff15 	stw	r6,-4(fp)
  return len;
 509299c:	e0bfff17 	ldw	r2,-4(fp)
}
 50929a0:	e037883a 	mov	sp,fp
 50929a4:	df000017 	ldw	fp,0(sp)
 50929a8:	dec00104 	addi	sp,sp,4
 50929ac:	f800283a 	ret

050929b0 <alt_get_errno>:
#undef errno

extern int errno;

static ALT_INLINE int* alt_get_errno(void)
{
 50929b0:	defffe04 	addi	sp,sp,-8
 50929b4:	dfc00115 	stw	ra,4(sp)
 50929b8:	df000015 	stw	fp,0(sp)
 50929bc:	d839883a 	mov	fp,sp
  return ((alt_errno) ? alt_errno() : &errno);
 50929c0:	d0a00b17 	ldw	r2,-32724(gp)
 50929c4:	10000326 	beq	r2,zero,50929d4 <alt_get_errno+0x24>
 50929c8:	d0a00b17 	ldw	r2,-32724(gp)
 50929cc:	103ee83a 	callr	r2
 50929d0:	00000106 	br	50929d8 <alt_get_errno+0x28>
 50929d4:	d0a6d804 	addi	r2,gp,-25760
}
 50929d8:	e037883a 	mov	sp,fp
 50929dc:	dfc00117 	ldw	ra,4(sp)
 50929e0:	df000017 	ldw	fp,0(sp)
 50929e4:	dec00204 	addi	sp,sp,8
 50929e8:	f800283a 	ret

050929ec <fstat>:
}

#else /* !ALT_USE_DIRECT_DRIVERS */

int ALT_FSTAT (int file, struct stat *st)
{
 50929ec:	defffb04 	addi	sp,sp,-20
 50929f0:	dfc00415 	stw	ra,16(sp)
 50929f4:	df000315 	stw	fp,12(sp)
 50929f8:	df000304 	addi	fp,sp,12
 50929fc:	e13ffe15 	stw	r4,-8(fp)
 5092a00:	e17fff15 	stw	r5,-4(fp)
   * A common error case is that when the file descriptor was created, the call
   * to open() failed resulting in a negative file descriptor. This is trapped
   * below so that we don't try and process an invalid file descriptor.
   */

  fd = (file < 0) ? NULL : &alt_fd_list[file];
 5092a04:	e0bffe17 	ldw	r2,-8(fp)
 5092a08:	10000616 	blt	r2,zero,5092a24 <fstat+0x38>
 5092a0c:	e0bffe17 	ldw	r2,-8(fp)
 5092a10:	10c00324 	muli	r3,r2,12
 5092a14:	00814274 	movhi	r2,1289
 5092a18:	109a7704 	addi	r2,r2,27100
 5092a1c:	1885883a 	add	r2,r3,r2
 5092a20:	00000106 	br	5092a28 <fstat+0x3c>
 5092a24:	0005883a 	mov	r2,zero
 5092a28:	e0bffd15 	stw	r2,-12(fp)
  
  if (fd)
 5092a2c:	e0bffd17 	ldw	r2,-12(fp)
 5092a30:	10001026 	beq	r2,zero,5092a74 <fstat+0x88>
  {
    /* Call the drivers fstat() function to fill out the "st" structure. */

    if (fd->dev->fstat)
 5092a34:	e0bffd17 	ldw	r2,-12(fp)
 5092a38:	10800017 	ldw	r2,0(r2)
 5092a3c:	10800817 	ldw	r2,32(r2)
 5092a40:	10000726 	beq	r2,zero,5092a60 <fstat+0x74>
    {
      return fd->dev->fstat(fd, st);
 5092a44:	e0bffd17 	ldw	r2,-12(fp)
 5092a48:	10800017 	ldw	r2,0(r2)
 5092a4c:	10800817 	ldw	r2,32(r2)
 5092a50:	e17fff17 	ldw	r5,-4(fp)
 5092a54:	e13ffd17 	ldw	r4,-12(fp)
 5092a58:	103ee83a 	callr	r2
 5092a5c:	00000a06 	br	5092a88 <fstat+0x9c>
     * device.
     */
 
    else
    {
      st->st_mode = _IFCHR;
 5092a60:	e0bfff17 	ldw	r2,-4(fp)
 5092a64:	00c80004 	movi	r3,8192
 5092a68:	10c00115 	stw	r3,4(r2)
      return 0;
 5092a6c:	0005883a 	mov	r2,zero
 5092a70:	00000506 	br	5092a88 <fstat+0x9c>
    }
  }
  else
  {
    ALT_ERRNO = EBADFD;
 5092a74:	50929b00 	call	50929b0 <alt_get_errno>
 5092a78:	1007883a 	mov	r3,r2
 5092a7c:	00801444 	movi	r2,81
 5092a80:	18800015 	stw	r2,0(r3)
    return -1;
 5092a84:	00bfffc4 	movi	r2,-1
  }
}
 5092a88:	e037883a 	mov	sp,fp
 5092a8c:	dfc00117 	ldw	ra,4(sp)
 5092a90:	df000017 	ldw	fp,0(sp)
 5092a94:	dec00204 	addi	sp,sp,8
 5092a98:	f800283a 	ret

05092a9c <alt_irq_register>:
 */
 
int alt_irq_register (alt_u32 id, 
                      void* context, 
                      alt_isr_func handler)
{
 5092a9c:	defff004 	addi	sp,sp,-64
 5092aa0:	df000f15 	stw	fp,60(sp)
 5092aa4:	df000f04 	addi	fp,sp,60
 5092aa8:	e13ffd15 	stw	r4,-12(fp)
 5092aac:	e17ffe15 	stw	r5,-8(fp)
 5092ab0:	e1bfff15 	stw	r6,-4(fp)
  int rc = -EINVAL;  
 5092ab4:	00bffa84 	movi	r2,-22
 5092ab8:	e0bff115 	stw	r2,-60(fp)
  alt_irq_context status;

  if (id < ALT_NIRQ)
 5092abc:	e0bffd17 	ldw	r2,-12(fp)
 5092ac0:	10800828 	cmpgeui	r2,r2,32
 5092ac4:	1000501e 	bne	r2,zero,5092c08 <alt_irq_register+0x16c>
static ALT_INLINE alt_irq_context ALT_ALWAYS_INLINE 
       alt_irq_disable_all (void)
{
  alt_irq_context context;

  NIOS2_READ_STATUS (context);
 5092ac8:	0005303a 	rdctl	r2,status
 5092acc:	e0bff615 	stw	r2,-40(fp)

  NIOS2_WRITE_STATUS (context & ~NIOS2_STATUS_PIE_MSK);
 5092ad0:	e0fff617 	ldw	r3,-40(fp)
 5092ad4:	00bfff84 	movi	r2,-2
 5092ad8:	1884703a 	and	r2,r3,r2
 5092adc:	1001703a 	wrctl	status,r2
  
  return context;
 5092ae0:	e0bff617 	ldw	r2,-40(fp)
     * interrupts are disabled while the handler tables are updated to ensure
     * that an interrupt doesn't occur while the tables are in an inconsistant
     * state.
     */

    status = alt_irq_disable_all ();
 5092ae4:	e0bff315 	stw	r2,-52(fp)

    alt_irq[id].handler = handler;
 5092ae8:	008142b4 	movhi	r2,1290
 5092aec:	10a5e304 	addi	r2,r2,-26740
 5092af0:	e0fffd17 	ldw	r3,-12(fp)
 5092af4:	180690fa 	slli	r3,r3,3
 5092af8:	10c5883a 	add	r2,r2,r3
 5092afc:	e0ffff17 	ldw	r3,-4(fp)
 5092b00:	10c00015 	stw	r3,0(r2)
    alt_irq[id].context = context;
 5092b04:	008142b4 	movhi	r2,1290
 5092b08:	10a5e304 	addi	r2,r2,-26740
 5092b0c:	e0fffd17 	ldw	r3,-12(fp)
 5092b10:	180690fa 	slli	r3,r3,3
 5092b14:	10c5883a 	add	r2,r2,r3
 5092b18:	10800104 	addi	r2,r2,4
 5092b1c:	e0fffe17 	ldw	r3,-8(fp)
 5092b20:	10c00015 	stw	r3,0(r2)

    rc = (handler) ? alt_irq_enable (id): alt_irq_disable (id);
 5092b24:	e0bfff17 	ldw	r2,-4(fp)
 5092b28:	10001926 	beq	r2,zero,5092b90 <alt_irq_register+0xf4>
 5092b2c:	e0bffd17 	ldw	r2,-12(fp)
 5092b30:	e0bff215 	stw	r2,-56(fp)
static ALT_INLINE alt_irq_context ALT_ALWAYS_INLINE 
       alt_irq_disable_all (void)
{
  alt_irq_context context;

  NIOS2_READ_STATUS (context);
 5092b34:	0005303a 	rdctl	r2,status
 5092b38:	e0bff715 	stw	r2,-36(fp)

  NIOS2_WRITE_STATUS (context & ~NIOS2_STATUS_PIE_MSK);
 5092b3c:	e0fff717 	ldw	r3,-36(fp)
 5092b40:	00bfff84 	movi	r2,-2
 5092b44:	1884703a 	and	r2,r3,r2
 5092b48:	1001703a 	wrctl	status,r2
  
  return context;
 5092b4c:	e0bff717 	ldw	r2,-36(fp)
static ALT_INLINE int ALT_ALWAYS_INLINE alt_irq_enable (alt_u32 id)
{
  alt_irq_context  status;
  extern volatile alt_u32 alt_irq_active;

  status = alt_irq_disable_all ();
 5092b50:	e0bff815 	stw	r2,-32(fp)

  alt_irq_active |= (1 << id);
 5092b54:	00c00044 	movi	r3,1
 5092b58:	e0bff217 	ldw	r2,-56(fp)
 5092b5c:	1884983a 	sll	r2,r3,r2
 5092b60:	1007883a 	mov	r3,r2
 5092b64:	d0a6d917 	ldw	r2,-25756(gp)
 5092b68:	1884b03a 	or	r2,r3,r2
 5092b6c:	d0a6d915 	stw	r2,-25756(gp)
  NIOS2_WRITE_IENABLE (alt_irq_active);
 5092b70:	d0a6d917 	ldw	r2,-25756(gp)
 5092b74:	100170fa 	wrctl	ienable,r2
 5092b78:	e0bff817 	ldw	r2,-32(fp)
 5092b7c:	e0bff915 	stw	r2,-28(fp)
  status &= ~NIOS2_STATUS_PIE_MSK;
  status |= (context & NIOS2_STATUS_PIE_MSK);
  
  NIOS2_WRITE_STATUS (status);
#else
  NIOS2_WRITE_STATUS (context);
 5092b80:	e0bff917 	ldw	r2,-28(fp)
 5092b84:	1001703a 	wrctl	status,r2

  alt_irq_enable_all(status);

  return 0;
 5092b88:	0005883a 	mov	r2,zero
 5092b8c:	00001906 	br	5092bf4 <alt_irq_register+0x158>
 5092b90:	e0bffd17 	ldw	r2,-12(fp)
 5092b94:	e0bff415 	stw	r2,-48(fp)
static ALT_INLINE alt_irq_context ALT_ALWAYS_INLINE 
       alt_irq_disable_all (void)
{
  alt_irq_context context;

  NIOS2_READ_STATUS (context);
 5092b98:	0005303a 	rdctl	r2,status
 5092b9c:	e0bffa15 	stw	r2,-24(fp)

  NIOS2_WRITE_STATUS (context & ~NIOS2_STATUS_PIE_MSK);
 5092ba0:	e0fffa17 	ldw	r3,-24(fp)
 5092ba4:	00bfff84 	movi	r2,-2
 5092ba8:	1884703a 	and	r2,r3,r2
 5092bac:	1001703a 	wrctl	status,r2
  
  return context;
 5092bb0:	e0bffa17 	ldw	r2,-24(fp)
static ALT_INLINE int ALT_ALWAYS_INLINE alt_irq_disable (alt_u32 id)
{
  alt_irq_context  status;
  extern volatile alt_u32 alt_irq_active;

  status = alt_irq_disable_all ();
 5092bb4:	e0bffb15 	stw	r2,-20(fp)

  alt_irq_active &= ~(1 << id);
 5092bb8:	00c00044 	movi	r3,1
 5092bbc:	e0bff417 	ldw	r2,-48(fp)
 5092bc0:	1884983a 	sll	r2,r3,r2
 5092bc4:	0084303a 	nor	r2,zero,r2
 5092bc8:	1007883a 	mov	r3,r2
 5092bcc:	d0a6d917 	ldw	r2,-25756(gp)
 5092bd0:	1884703a 	and	r2,r3,r2
 5092bd4:	d0a6d915 	stw	r2,-25756(gp)
  NIOS2_WRITE_IENABLE (alt_irq_active);
 5092bd8:	d0a6d917 	ldw	r2,-25756(gp)
 5092bdc:	100170fa 	wrctl	ienable,r2
 5092be0:	e0bffb17 	ldw	r2,-20(fp)
 5092be4:	e0bffc15 	stw	r2,-16(fp)
  status &= ~NIOS2_STATUS_PIE_MSK;
  status |= (context & NIOS2_STATUS_PIE_MSK);
  
  NIOS2_WRITE_STATUS (status);
#else
  NIOS2_WRITE_STATUS (context);
 5092be8:	e0bffc17 	ldw	r2,-16(fp)
 5092bec:	1001703a 	wrctl	status,r2

  alt_irq_enable_all(status);

  return 0;
 5092bf0:	0005883a 	mov	r2,zero
 5092bf4:	e0bff115 	stw	r2,-60(fp)
 5092bf8:	e0bff317 	ldw	r2,-52(fp)
 5092bfc:	e0bff515 	stw	r2,-44(fp)
 5092c00:	e0bff517 	ldw	r2,-44(fp)
 5092c04:	1001703a 	wrctl	status,r2

    alt_irq_enable_all(status);
  }
  return rc; 
 5092c08:	e0bff117 	ldw	r2,-60(fp)
}
 5092c0c:	e037883a 	mov	sp,fp
 5092c10:	df000017 	ldw	fp,0(sp)
 5092c14:	dec00104 	addi	sp,sp,4
 5092c18:	f800283a 	ret

05092c1c <alt_get_errno>:
#undef errno

extern int errno;

static ALT_INLINE int* alt_get_errno(void)
{
 5092c1c:	defffe04 	addi	sp,sp,-8
 5092c20:	dfc00115 	stw	ra,4(sp)
 5092c24:	df000015 	stw	fp,0(sp)
 5092c28:	d839883a 	mov	fp,sp
  return ((alt_errno) ? alt_errno() : &errno);
 5092c2c:	d0a00b17 	ldw	r2,-32724(gp)
 5092c30:	10000326 	beq	r2,zero,5092c40 <alt_get_errno+0x24>
 5092c34:	d0a00b17 	ldw	r2,-32724(gp)
 5092c38:	103ee83a 	callr	r2
 5092c3c:	00000106 	br	5092c44 <alt_get_errno+0x28>
 5092c40:	d0a6d804 	addi	r2,gp,-25760
}
 5092c44:	e037883a 	mov	sp,fp
 5092c48:	dfc00117 	ldw	ra,4(sp)
 5092c4c:	df000017 	ldw	fp,0(sp)
 5092c50:	dec00204 	addi	sp,sp,8
 5092c54:	f800283a 	ret

05092c58 <isatty>:
 *
 * ALT_ISATTY is mapped onto the isatty() system call in alt_syscall.h
 */
 
int ALT_ISATTY (int file)
{
 5092c58:	deffed04 	addi	sp,sp,-76
 5092c5c:	dfc01215 	stw	ra,72(sp)
 5092c60:	df001115 	stw	fp,68(sp)
 5092c64:	df001104 	addi	fp,sp,68
 5092c68:	e13fff15 	stw	r4,-4(fp)
   * A common error case is that when the file descriptor was created, the call
   * to open() failed resulting in a negative file descriptor. This is trapped
   * below so that we don't try and process an invalid file descriptor.
   */

  fd = (file < 0) ? NULL : &alt_fd_list[file];
 5092c6c:	e0bfff17 	ldw	r2,-4(fp)
 5092c70:	10000616 	blt	r2,zero,5092c8c <isatty+0x34>
 5092c74:	e0bfff17 	ldw	r2,-4(fp)
 5092c78:	10c00324 	muli	r3,r2,12
 5092c7c:	00814274 	movhi	r2,1289
 5092c80:	109a7704 	addi	r2,r2,27100
 5092c84:	1885883a 	add	r2,r3,r2
 5092c88:	00000106 	br	5092c90 <isatty+0x38>
 5092c8c:	0005883a 	mov	r2,zero
 5092c90:	e0bfef15 	stw	r2,-68(fp)
  
  if (fd)
 5092c94:	e0bfef17 	ldw	r2,-68(fp)
 5092c98:	10000e26 	beq	r2,zero,5092cd4 <isatty+0x7c>
    /*
     * If a device driver does not provide an fstat() function, then it is 
     * treated as a terminal device by default.
     */

    if (!fd->dev->fstat)
 5092c9c:	e0bfef17 	ldw	r2,-68(fp)
 5092ca0:	10800017 	ldw	r2,0(r2)
 5092ca4:	10800817 	ldw	r2,32(r2)
 5092ca8:	1000021e 	bne	r2,zero,5092cb4 <isatty+0x5c>
    {
      return 1;
 5092cac:	00800044 	movi	r2,1
 5092cb0:	00000d06 	br	5092ce8 <isatty+0x90>
     * this is called so that the device can identify itself.
     */ 

    else
    {
      fstat (file, &stat);
 5092cb4:	e0bff004 	addi	r2,fp,-64
 5092cb8:	100b883a 	mov	r5,r2
 5092cbc:	e13fff17 	ldw	r4,-4(fp)
 5092cc0:	50929ec0 	call	50929ec <fstat>
      return (stat.st_mode == _IFCHR) ? 1 : 0;
 5092cc4:	e0bff117 	ldw	r2,-60(fp)
 5092cc8:	10880020 	cmpeqi	r2,r2,8192
 5092ccc:	10803fcc 	andi	r2,r2,255
 5092cd0:	00000506 	br	5092ce8 <isatty+0x90>
    }
  }
  else
  {
    ALT_ERRNO = EBADFD;
 5092cd4:	5092c1c0 	call	5092c1c <alt_get_errno>
 5092cd8:	1007883a 	mov	r3,r2
 5092cdc:	00801444 	movi	r2,81
 5092ce0:	18800015 	stw	r2,0(r3)
    return 0;
 5092ce4:	0005883a 	mov	r2,zero
  }
}
 5092ce8:	e037883a 	mov	sp,fp
 5092cec:	dfc00117 	ldw	ra,4(sp)
 5092cf0:	df000017 	ldw	fp,0(sp)
 5092cf4:	dec00204 	addi	sp,sp,8
 5092cf8:	f800283a 	ret

05092cfc <alt_load_section>:
 */

static void ALT_INLINE alt_load_section (alt_u32* from, 
                                         alt_u32* to, 
                                         alt_u32* end)
{
 5092cfc:	defffc04 	addi	sp,sp,-16
 5092d00:	df000315 	stw	fp,12(sp)
 5092d04:	df000304 	addi	fp,sp,12
 5092d08:	e13ffd15 	stw	r4,-12(fp)
 5092d0c:	e17ffe15 	stw	r5,-8(fp)
 5092d10:	e1bfff15 	stw	r6,-4(fp)
  if (to != from)
 5092d14:	e0fffe17 	ldw	r3,-8(fp)
 5092d18:	e0bffd17 	ldw	r2,-12(fp)
 5092d1c:	18800c26 	beq	r3,r2,5092d50 <alt_load_section+0x54>
  {
    while( to != end )
 5092d20:	00000806 	br	5092d44 <alt_load_section+0x48>
    {
      *to++ = *from++;
 5092d24:	e0bffe17 	ldw	r2,-8(fp)
 5092d28:	10c00104 	addi	r3,r2,4
 5092d2c:	e0fffe15 	stw	r3,-8(fp)
 5092d30:	e0fffd17 	ldw	r3,-12(fp)
 5092d34:	19000104 	addi	r4,r3,4
 5092d38:	e13ffd15 	stw	r4,-12(fp)
 5092d3c:	18c00017 	ldw	r3,0(r3)
 5092d40:	10c00015 	stw	r3,0(r2)
                                         alt_u32* to, 
                                         alt_u32* end)
{
  if (to != from)
  {
    while( to != end )
 5092d44:	e0fffe17 	ldw	r3,-8(fp)
 5092d48:	e0bfff17 	ldw	r2,-4(fp)
 5092d4c:	18bff51e 	bne	r3,r2,5092d24 <__alt_data_end+0xfffc4b24>
    {
      *to++ = *from++;
    }
  }
}
 5092d50:	0001883a 	nop
 5092d54:	e037883a 	mov	sp,fp
 5092d58:	df000017 	ldw	fp,0(sp)
 5092d5c:	dec00104 	addi	sp,sp,4
 5092d60:	f800283a 	ret

05092d64 <alt_load>:
 * there is no bootloader, so this application is responsible for loading to
 * RAM any sections that are required.
 */  

void alt_load (void)
{
 5092d64:	defffe04 	addi	sp,sp,-8
 5092d68:	dfc00115 	stw	ra,4(sp)
 5092d6c:	df000015 	stw	fp,0(sp)
 5092d70:	d839883a 	mov	fp,sp
  /* 
   * Copy the .rwdata section. 
   */

  alt_load_section (&__flash_rwdata_start, 
 5092d74:	01814274 	movhi	r6,1289
 5092d78:	319eff04 	addi	r6,r6,31740
 5092d7c:	01414274 	movhi	r5,1289
 5092d80:	29584004 	addi	r5,r5,24832
 5092d84:	01014274 	movhi	r4,1289
 5092d88:	211eff04 	addi	r4,r4,31740
 5092d8c:	5092cfc0 	call	5092cfc <alt_load_section>

  /*
   * Copy the exception handler.
   */

  alt_load_section (&__flash_exceptions_start, 
 5092d90:	01814234 	movhi	r6,1288
 5092d94:	31809104 	addi	r6,r6,580
 5092d98:	01414234 	movhi	r5,1288
 5092d9c:	29400804 	addi	r5,r5,32
 5092da0:	01014234 	movhi	r4,1288
 5092da4:	21000804 	addi	r4,r4,32
 5092da8:	5092cfc0 	call	5092cfc <alt_load_section>

  /*
   * Copy the .rodata section.
   */

  alt_load_section (&__flash_rodata_start, 
 5092dac:	01814274 	movhi	r6,1289
 5092db0:	31984004 	addi	r6,r6,24832
 5092db4:	01414274 	movhi	r5,1289
 5092db8:	2954cc04 	addi	r5,r5,21296
 5092dbc:	01014274 	movhi	r4,1289
 5092dc0:	2114cc04 	addi	r4,r4,21296
 5092dc4:	5092cfc0 	call	5092cfc <alt_load_section>
  
  /*
   * Now ensure that the caches are in synch.
   */
  
  alt_dcache_flush_all();
 5092dc8:	509421c0 	call	509421c <alt_dcache_flush_all>
  alt_icache_flush_all();
 5092dcc:	50944040 	call	5094404 <alt_icache_flush_all>
}
 5092dd0:	0001883a 	nop
 5092dd4:	e037883a 	mov	sp,fp
 5092dd8:	dfc00117 	ldw	ra,4(sp)
 5092ddc:	df000017 	ldw	fp,0(sp)
 5092de0:	dec00204 	addi	sp,sp,8
 5092de4:	f800283a 	ret

05092de8 <alt_get_errno>:
#undef errno

extern int errno;

static ALT_INLINE int* alt_get_errno(void)
{
 5092de8:	defffe04 	addi	sp,sp,-8
 5092dec:	dfc00115 	stw	ra,4(sp)
 5092df0:	df000015 	stw	fp,0(sp)
 5092df4:	d839883a 	mov	fp,sp
  return ((alt_errno) ? alt_errno() : &errno);
 5092df8:	d0a00b17 	ldw	r2,-32724(gp)
 5092dfc:	10000326 	beq	r2,zero,5092e0c <alt_get_errno+0x24>
 5092e00:	d0a00b17 	ldw	r2,-32724(gp)
 5092e04:	103ee83a 	callr	r2
 5092e08:	00000106 	br	5092e10 <alt_get_errno+0x28>
 5092e0c:	d0a6d804 	addi	r2,gp,-25760
}
 5092e10:	e037883a 	mov	sp,fp
 5092e14:	dfc00117 	ldw	ra,4(sp)
 5092e18:	df000017 	ldw	fp,0(sp)
 5092e1c:	dec00204 	addi	sp,sp,8
 5092e20:	f800283a 	ret

05092e24 <lseek>:
 * ALT_LSEEK is mapped onto the lseek() system call in alt_syscall.h
 *
 */

off_t ALT_LSEEK (int file, off_t ptr, int dir)
{
 5092e24:	defff904 	addi	sp,sp,-28
 5092e28:	dfc00615 	stw	ra,24(sp)
 5092e2c:	df000515 	stw	fp,20(sp)
 5092e30:	df000504 	addi	fp,sp,20
 5092e34:	e13ffd15 	stw	r4,-12(fp)
 5092e38:	e17ffe15 	stw	r5,-8(fp)
 5092e3c:	e1bfff15 	stw	r6,-4(fp)
  alt_fd* fd;
  off_t   rc = 0; 
 5092e40:	e03ffb15 	stw	zero,-20(fp)
   * A common error case is that when the file descriptor was created, the call
   * to open() failed resulting in a negative file descriptor. This is trapped
   * below so that we don't try and process an invalid file descriptor.
   */

  fd = (file < 0) ? NULL : &alt_fd_list[file];
 5092e44:	e0bffd17 	ldw	r2,-12(fp)
 5092e48:	10000616 	blt	r2,zero,5092e64 <lseek+0x40>
 5092e4c:	e0bffd17 	ldw	r2,-12(fp)
 5092e50:	10c00324 	muli	r3,r2,12
 5092e54:	00814274 	movhi	r2,1289
 5092e58:	109a7704 	addi	r2,r2,27100
 5092e5c:	1885883a 	add	r2,r3,r2
 5092e60:	00000106 	br	5092e68 <lseek+0x44>
 5092e64:	0005883a 	mov	r2,zero
 5092e68:	e0bffc15 	stw	r2,-16(fp)
  
  if (fd) 
 5092e6c:	e0bffc17 	ldw	r2,-16(fp)
 5092e70:	10001026 	beq	r2,zero,5092eb4 <lseek+0x90>
    /*
     * If the device driver provides an implementation of the lseek() function,
     * then call that to process the request.
     */
 
    if (fd->dev->lseek)
 5092e74:	e0bffc17 	ldw	r2,-16(fp)
 5092e78:	10800017 	ldw	r2,0(r2)
 5092e7c:	10800717 	ldw	r2,28(r2)
 5092e80:	10000926 	beq	r2,zero,5092ea8 <lseek+0x84>
    {
      rc = fd->dev->lseek(fd, ptr, dir);
 5092e84:	e0bffc17 	ldw	r2,-16(fp)
 5092e88:	10800017 	ldw	r2,0(r2)
 5092e8c:	10800717 	ldw	r2,28(r2)
 5092e90:	e1bfff17 	ldw	r6,-4(fp)
 5092e94:	e17ffe17 	ldw	r5,-8(fp)
 5092e98:	e13ffc17 	ldw	r4,-16(fp)
 5092e9c:	103ee83a 	callr	r2
 5092ea0:	e0bffb15 	stw	r2,-20(fp)
 5092ea4:	00000506 	br	5092ebc <lseek+0x98>
     * Otherwise return an error.
     */

    else
    {
      rc = -ENOTSUP;
 5092ea8:	00bfde84 	movi	r2,-134
 5092eac:	e0bffb15 	stw	r2,-20(fp)
 5092eb0:	00000206 	br	5092ebc <lseek+0x98>
    }
  }
  else  
  {
    rc = -EBADFD;
 5092eb4:	00bfebc4 	movi	r2,-81
 5092eb8:	e0bffb15 	stw	r2,-20(fp)
  }

  if (rc < 0)
 5092ebc:	e0bffb17 	ldw	r2,-20(fp)
 5092ec0:	1000070e 	bge	r2,zero,5092ee0 <lseek+0xbc>
  {
    ALT_ERRNO = -rc;
 5092ec4:	5092de80 	call	5092de8 <alt_get_errno>
 5092ec8:	1007883a 	mov	r3,r2
 5092ecc:	e0bffb17 	ldw	r2,-20(fp)
 5092ed0:	0085c83a 	sub	r2,zero,r2
 5092ed4:	18800015 	stw	r2,0(r3)
    rc = -1;
 5092ed8:	00bfffc4 	movi	r2,-1
 5092edc:	e0bffb15 	stw	r2,-20(fp)
  }

  return rc;
 5092ee0:	e0bffb17 	ldw	r2,-20(fp)
}
 5092ee4:	e037883a 	mov	sp,fp
 5092ee8:	dfc00117 	ldw	ra,4(sp)
 5092eec:	df000017 	ldw	fp,0(sp)
 5092ef0:	dec00204 	addi	sp,sp,8
 5092ef4:	f800283a 	ret

05092ef8 <alt_main>:
 * devices/filesystems/components in the system; and call the entry point for
 * the users application, i.e. main().
 */

void alt_main (void)
{
 5092ef8:	defffd04 	addi	sp,sp,-12
 5092efc:	dfc00215 	stw	ra,8(sp)
 5092f00:	df000115 	stw	fp,4(sp)
 5092f04:	df000104 	addi	fp,sp,4
#endif

  /* ALT LOG - please see HAL/sys/alt_log_printf.h for details */
  ALT_LOG_PRINT_BOOT("[alt_main.c] Entering alt_main, calling alt_irq_init.\r\n");
  /* Initialize the interrupt controller. */
  alt_irq_init (NULL);
 5092f08:	0009883a 	mov	r4,zero
 5092f0c:	50933a00 	call	50933a0 <alt_irq_init>

  /* Initialize the operating system */
  ALT_LOG_PRINT_BOOT("[alt_main.c] Done alt_irq_init, calling alt_os_init.\r\n");
  ALT_OS_INIT();
 5092f10:	0001883a 	nop
  ALT_LOG_PRINT_BOOT("[alt_main.c] Done OS Init, calling alt_sem_create.\r\n");
  ALT_SEM_CREATE (&alt_fd_list_lock, 1);

  /* Initialize the device drivers/software components. */
  ALT_LOG_PRINT_BOOT("[alt_main.c] Calling alt_sys_init.\r\n");
  alt_sys_init();
 5092f14:	50933d80 	call	50933d8 <alt_sys_init>
   * devices be present (not equal to /dev/null) and if direct drivers
   * aren't being used.
   */

    ALT_LOG_PRINT_BOOT("[alt_main.c] Redirecting IO.\r\n");
    alt_io_redirect(ALT_STDOUT, ALT_STDIN, ALT_STDERR);
 5092f18:	01814274 	movhi	r6,1289
 5092f1c:	31983804 	addi	r6,r6,24800
 5092f20:	01414274 	movhi	r5,1289
 5092f24:	29583804 	addi	r5,r5,24800
 5092f28:	01014274 	movhi	r4,1289
 5092f2c:	21183804 	addi	r4,r4,24800
 5092f30:	509479c0 	call	509479c <alt_io_redirect>
  /* 
   * Call the C++ constructors 
   */

  ALT_LOG_PRINT_BOOT("[alt_main.c] Calling C++ constructors.\r\n");
  _do_ctors ();
 5092f34:	50943440 	call	5094344 <_do_ctors>
   * redefined as _exit()). This is in the interest of reducing code footprint,
   * in that the atexit() overhead is removed when it's not needed.
   */

  ALT_LOG_PRINT_BOOT("[alt_main.c] Calling atexit.\r\n");
  atexit (_do_dtors);
 5092f38:	01014274 	movhi	r4,1289
 5092f3c:	2110e904 	addi	r4,r4,17316
 5092f40:	5094f9c0 	call	5094f9c <atexit>
  ALT_LOG_PRINT_BOOT("[alt_main.c] Calling main.\r\n");

#ifdef ALT_NO_EXIT
  main (alt_argc, alt_argv, alt_envp);
#else
  result = main (alt_argc, alt_argv, alt_envp);
 5092f44:	d0a6da17 	ldw	r2,-25752(gp)
 5092f48:	d0e6db17 	ldw	r3,-25748(gp)
 5092f4c:	d126dc17 	ldw	r4,-25744(gp)
 5092f50:	200d883a 	mov	r6,r4
 5092f54:	180b883a 	mov	r5,r3
 5092f58:	1009883a 	mov	r4,r2
 5092f5c:	50823340 	call	5082334 <main>
 5092f60:	e0bfff15 	stw	r2,-4(fp)
  close(STDOUT_FILENO);
 5092f64:	01000044 	movi	r4,1
 5092f68:	50928b40 	call	50928b4 <close>
  exit (result);
 5092f6c:	e13fff17 	ldw	r4,-4(fp)
 5092f70:	5094fb00 	call	5094fb0 <exit>

05092f74 <__malloc_lock>:
 * configuration is single threaded, so there is nothing to do here. Note that 
 * this requires that malloc is never called by an interrupt service routine.
 */

void __malloc_lock ( struct _reent *_r )
{
 5092f74:	defffe04 	addi	sp,sp,-8
 5092f78:	df000115 	stw	fp,4(sp)
 5092f7c:	df000104 	addi	fp,sp,4
 5092f80:	e13fff15 	stw	r4,-4(fp)
}
 5092f84:	0001883a 	nop
 5092f88:	e037883a 	mov	sp,fp
 5092f8c:	df000017 	ldw	fp,0(sp)
 5092f90:	dec00104 	addi	sp,sp,4
 5092f94:	f800283a 	ret

05092f98 <__malloc_unlock>:
/*
 *
 */

void __malloc_unlock ( struct _reent *_r )
{
 5092f98:	defffe04 	addi	sp,sp,-8
 5092f9c:	df000115 	stw	fp,4(sp)
 5092fa0:	df000104 	addi	fp,sp,4
 5092fa4:	e13fff15 	stw	r4,-4(fp)
}
 5092fa8:	0001883a 	nop
 5092fac:	e037883a 	mov	sp,fp
 5092fb0:	df000017 	ldw	fp,0(sp)
 5092fb4:	dec00104 	addi	sp,sp,4
 5092fb8:	f800283a 	ret

05092fbc <alt_get_errno>:
#undef errno

extern int errno;

static ALT_INLINE int* alt_get_errno(void)
{
 5092fbc:	defffe04 	addi	sp,sp,-8
 5092fc0:	dfc00115 	stw	ra,4(sp)
 5092fc4:	df000015 	stw	fp,0(sp)
 5092fc8:	d839883a 	mov	fp,sp
  return ((alt_errno) ? alt_errno() : &errno);
 5092fcc:	d0a00b17 	ldw	r2,-32724(gp)
 5092fd0:	10000326 	beq	r2,zero,5092fe0 <alt_get_errno+0x24>
 5092fd4:	d0a00b17 	ldw	r2,-32724(gp)
 5092fd8:	103ee83a 	callr	r2
 5092fdc:	00000106 	br	5092fe4 <alt_get_errno+0x28>
 5092fe0:	d0a6d804 	addi	r2,gp,-25760
}
 5092fe4:	e037883a 	mov	sp,fp
 5092fe8:	dfc00117 	ldw	ra,4(sp)
 5092fec:	df000017 	ldw	fp,0(sp)
 5092ff0:	dec00204 	addi	sp,sp,8
 5092ff4:	f800283a 	ret

05092ff8 <read>:
}

#else /* !ALT_USE_DIRECT_DRIVERS */

int ALT_READ (int file, void *ptr, size_t len)
{
 5092ff8:	defff904 	addi	sp,sp,-28
 5092ffc:	dfc00615 	stw	ra,24(sp)
 5093000:	df000515 	stw	fp,20(sp)
 5093004:	df000504 	addi	fp,sp,20
 5093008:	e13ffd15 	stw	r4,-12(fp)
 509300c:	e17ffe15 	stw	r5,-8(fp)
 5093010:	e1bfff15 	stw	r6,-4(fp)
   * A common error case is that when the file descriptor was created, the call
   * to open() failed resulting in a negative file descriptor. This is trapped
   * below so that we don't try and process an invalid file descriptor.
   */

  fd = (file < 0) ? NULL : &alt_fd_list[file];
 5093014:	e0bffd17 	ldw	r2,-12(fp)
 5093018:	10000616 	blt	r2,zero,5093034 <read+0x3c>
 509301c:	e0bffd17 	ldw	r2,-12(fp)
 5093020:	10c00324 	muli	r3,r2,12
 5093024:	00814274 	movhi	r2,1289
 5093028:	109a7704 	addi	r2,r2,27100
 509302c:	1885883a 	add	r2,r3,r2
 5093030:	00000106 	br	5093038 <read+0x40>
 5093034:	0005883a 	mov	r2,zero
 5093038:	e0bffb15 	stw	r2,-20(fp)
  
  if (fd)
 509303c:	e0bffb17 	ldw	r2,-20(fp)
 5093040:	10002226 	beq	r2,zero,50930cc <read+0xd4>
     * If the file has not been opened with read access, or if the driver does
     * not provide an implementation of read(), generate an error. Otherwise
     * call the drivers read() function to process the request.
     */

    if (((fd->fd_flags & O_ACCMODE) != O_WRONLY) && 
 5093044:	e0bffb17 	ldw	r2,-20(fp)
 5093048:	10800217 	ldw	r2,8(r2)
 509304c:	108000cc 	andi	r2,r2,3
 5093050:	10800060 	cmpeqi	r2,r2,1
 5093054:	1000181e 	bne	r2,zero,50930b8 <read+0xc0>
        (fd->dev->read))
 5093058:	e0bffb17 	ldw	r2,-20(fp)
 509305c:	10800017 	ldw	r2,0(r2)
 5093060:	10800517 	ldw	r2,20(r2)
     * If the file has not been opened with read access, or if the driver does
     * not provide an implementation of read(), generate an error. Otherwise
     * call the drivers read() function to process the request.
     */

    if (((fd->fd_flags & O_ACCMODE) != O_WRONLY) && 
 5093064:	10001426 	beq	r2,zero,50930b8 <read+0xc0>
        (fd->dev->read))
      {
        if ((rval = fd->dev->read(fd, ptr, len)) < 0)
 5093068:	e0bffb17 	ldw	r2,-20(fp)
 509306c:	10800017 	ldw	r2,0(r2)
 5093070:	10800517 	ldw	r2,20(r2)
 5093074:	e0ffff17 	ldw	r3,-4(fp)
 5093078:	180d883a 	mov	r6,r3
 509307c:	e17ffe17 	ldw	r5,-8(fp)
 5093080:	e13ffb17 	ldw	r4,-20(fp)
 5093084:	103ee83a 	callr	r2
 5093088:	e0bffc15 	stw	r2,-16(fp)
 509308c:	e0bffc17 	ldw	r2,-16(fp)
 5093090:	1000070e 	bge	r2,zero,50930b0 <read+0xb8>
        {
          ALT_ERRNO = -rval;
 5093094:	5092fbc0 	call	5092fbc <alt_get_errno>
 5093098:	1007883a 	mov	r3,r2
 509309c:	e0bffc17 	ldw	r2,-16(fp)
 50930a0:	0085c83a 	sub	r2,zero,r2
 50930a4:	18800015 	stw	r2,0(r3)
          return -1;
 50930a8:	00bfffc4 	movi	r2,-1
 50930ac:	00000c06 	br	50930e0 <read+0xe8>
        }
        return rval;
 50930b0:	e0bffc17 	ldw	r2,-16(fp)
 50930b4:	00000a06 	br	50930e0 <read+0xe8>
      }
      else
      {
        ALT_ERRNO = EACCES;
 50930b8:	5092fbc0 	call	5092fbc <alt_get_errno>
 50930bc:	1007883a 	mov	r3,r2
 50930c0:	00800344 	movi	r2,13
 50930c4:	18800015 	stw	r2,0(r3)
 50930c8:	00000406 	br	50930dc <read+0xe4>
      }
    }
  else
  {
    ALT_ERRNO = EBADFD;
 50930cc:	5092fbc0 	call	5092fbc <alt_get_errno>
 50930d0:	1007883a 	mov	r3,r2
 50930d4:	00801444 	movi	r2,81
 50930d8:	18800015 	stw	r2,0(r3)
  }
  return -1;
 50930dc:	00bfffc4 	movi	r2,-1
}
 50930e0:	e037883a 	mov	sp,fp
 50930e4:	dfc00117 	ldw	ra,4(sp)
 50930e8:	df000017 	ldw	fp,0(sp)
 50930ec:	dec00204 	addi	sp,sp,8
 50930f0:	f800283a 	ret

050930f4 <alt_release_fd>:
 * File descriptors correcponding to standard in, standard out and standard 
 * error cannont be released backed to the pool. They are always reserved.
 */

void alt_release_fd (int fd)
{
 50930f4:	defffe04 	addi	sp,sp,-8
 50930f8:	df000115 	stw	fp,4(sp)
 50930fc:	df000104 	addi	fp,sp,4
 5093100:	e13fff15 	stw	r4,-4(fp)
  if (fd > 2)
 5093104:	e0bfff17 	ldw	r2,-4(fp)
 5093108:	108000d0 	cmplti	r2,r2,3
 509310c:	10000d1e 	bne	r2,zero,5093144 <alt_release_fd+0x50>
  {
    alt_fd_list[fd].fd_flags = 0;
 5093110:	00814274 	movhi	r2,1289
 5093114:	109a7704 	addi	r2,r2,27100
 5093118:	e0ffff17 	ldw	r3,-4(fp)
 509311c:	18c00324 	muli	r3,r3,12
 5093120:	10c5883a 	add	r2,r2,r3
 5093124:	10800204 	addi	r2,r2,8
 5093128:	10000015 	stw	zero,0(r2)
    alt_fd_list[fd].dev      = 0;
 509312c:	00814274 	movhi	r2,1289
 5093130:	109a7704 	addi	r2,r2,27100
 5093134:	e0ffff17 	ldw	r3,-4(fp)
 5093138:	18c00324 	muli	r3,r3,12
 509313c:	10c5883a 	add	r2,r2,r3
 5093140:	10000015 	stw	zero,0(r2)
  }
}
 5093144:	0001883a 	nop
 5093148:	e037883a 	mov	sp,fp
 509314c:	df000017 	ldw	fp,0(sp)
 5093150:	dec00104 	addi	sp,sp,4
 5093154:	f800283a 	ret

05093158 <sbrk>:
#endif
 
caddr_t ALT_SBRK (int incr) __attribute__ ((no_instrument_function ));

caddr_t ALT_SBRK (int incr)
{ 
 5093158:	defff904 	addi	sp,sp,-28
 509315c:	df000615 	stw	fp,24(sp)
 5093160:	df000604 	addi	fp,sp,24
 5093164:	e13fff15 	stw	r4,-4(fp)
static ALT_INLINE alt_irq_context ALT_ALWAYS_INLINE 
       alt_irq_disable_all (void)
{
  alt_irq_context context;

  NIOS2_READ_STATUS (context);
 5093168:	0005303a 	rdctl	r2,status
 509316c:	e0bffe15 	stw	r2,-8(fp)

  NIOS2_WRITE_STATUS (context & ~NIOS2_STATUS_PIE_MSK);
 5093170:	e0fffe17 	ldw	r3,-8(fp)
 5093174:	00bfff84 	movi	r2,-2
 5093178:	1884703a 	and	r2,r3,r2
 509317c:	1001703a 	wrctl	status,r2
  
  return context;
 5093180:	e0bffe17 	ldw	r2,-8(fp)
  alt_irq_context context;
  char *prev_heap_end; 

  context = alt_irq_disable_all();
 5093184:	e0bffb15 	stw	r2,-20(fp)

  /* Always return data aligned on a word boundary */
  heap_end = (char *)(((unsigned int)heap_end + 3) & ~3);
 5093188:	d0a00d17 	ldw	r2,-32716(gp)
 509318c:	10c000c4 	addi	r3,r2,3
 5093190:	00bfff04 	movi	r2,-4
 5093194:	1884703a 	and	r2,r3,r2
 5093198:	d0a00d15 	stw	r2,-32716(gp)
  if (((heap_end + incr) - __alt_heap_start) > ALT_MAX_HEAP_BYTES) {
    alt_irq_enable_all(context);
    return (caddr_t)-1;
  }
#else
  if ((heap_end + incr) > __alt_heap_limit) {
 509319c:	d0e00d17 	ldw	r3,-32716(gp)
 50931a0:	e0bfff17 	ldw	r2,-4(fp)
 50931a4:	1887883a 	add	r3,r3,r2
 50931a8:	00814374 	movhi	r2,1293
 50931ac:	10b88004 	addi	r2,r2,-7680
 50931b0:	10c0062e 	bgeu	r2,r3,50931cc <sbrk+0x74>
 50931b4:	e0bffb17 	ldw	r2,-20(fp)
 50931b8:	e0bffa15 	stw	r2,-24(fp)
  status &= ~NIOS2_STATUS_PIE_MSK;
  status |= (context & NIOS2_STATUS_PIE_MSK);
  
  NIOS2_WRITE_STATUS (status);
#else
  NIOS2_WRITE_STATUS (context);
 50931bc:	e0bffa17 	ldw	r2,-24(fp)
 50931c0:	1001703a 	wrctl	status,r2
    alt_irq_enable_all(context);
    return (caddr_t)-1;
 50931c4:	00bfffc4 	movi	r2,-1
 50931c8:	00000b06 	br	50931f8 <sbrk+0xa0>
  }
#endif

  prev_heap_end = heap_end; 
 50931cc:	d0a00d17 	ldw	r2,-32716(gp)
 50931d0:	e0bffd15 	stw	r2,-12(fp)
  heap_end += incr; 
 50931d4:	d0e00d17 	ldw	r3,-32716(gp)
 50931d8:	e0bfff17 	ldw	r2,-4(fp)
 50931dc:	1885883a 	add	r2,r3,r2
 50931e0:	d0a00d15 	stw	r2,-32716(gp)
 50931e4:	e0bffb17 	ldw	r2,-20(fp)
 50931e8:	e0bffc15 	stw	r2,-16(fp)
 50931ec:	e0bffc17 	ldw	r2,-16(fp)
 50931f0:	1001703a 	wrctl	status,r2

#endif

  alt_irq_enable_all(context);

  return (caddr_t) prev_heap_end; 
 50931f4:	e0bffd17 	ldw	r2,-12(fp)
} 
 50931f8:	e037883a 	mov	sp,fp
 50931fc:	df000017 	ldw	fp,0(sp)
 5093200:	dec00104 	addi	sp,sp,4
 5093204:	f800283a 	ret

05093208 <usleep>:
#if defined (__GNUC__) && __GNUC__ >= 4
int ALT_USLEEP (useconds_t us)
#else
unsigned int ALT_USLEEP (unsigned int us)
#endif
{
 5093208:	defffd04 	addi	sp,sp,-12
 509320c:	dfc00215 	stw	ra,8(sp)
 5093210:	df000115 	stw	fp,4(sp)
 5093214:	df000104 	addi	fp,sp,4
 5093218:	e13fff15 	stw	r4,-4(fp)
  return alt_busy_sleep(us);
 509321c:	e13fff17 	ldw	r4,-4(fp)
 5093220:	50940c40 	call	50940c4 <alt_busy_sleep>
}
 5093224:	e037883a 	mov	sp,fp
 5093228:	dfc00117 	ldw	ra,4(sp)
 509322c:	df000017 	ldw	fp,0(sp)
 5093230:	dec00204 	addi	sp,sp,8
 5093234:	f800283a 	ret

05093238 <alt_get_errno>:
#undef errno

extern int errno;

static ALT_INLINE int* alt_get_errno(void)
{
 5093238:	defffe04 	addi	sp,sp,-8
 509323c:	dfc00115 	stw	ra,4(sp)
 5093240:	df000015 	stw	fp,0(sp)
 5093244:	d839883a 	mov	fp,sp
  return ((alt_errno) ? alt_errno() : &errno);
 5093248:	d0a00b17 	ldw	r2,-32724(gp)
 509324c:	10000326 	beq	r2,zero,509325c <alt_get_errno+0x24>
 5093250:	d0a00b17 	ldw	r2,-32724(gp)
 5093254:	103ee83a 	callr	r2
 5093258:	00000106 	br	5093260 <alt_get_errno+0x28>
 509325c:	d0a6d804 	addi	r2,gp,-25760
}
 5093260:	e037883a 	mov	sp,fp
 5093264:	dfc00117 	ldw	ra,4(sp)
 5093268:	df000017 	ldw	fp,0(sp)
 509326c:	dec00204 	addi	sp,sp,8
 5093270:	f800283a 	ret

05093274 <write>:
}

#else /* !ALT_USE_DIRECT_DRIVERS */

int ALT_WRITE (int file, const void *ptr, size_t len)
{
 5093274:	defff904 	addi	sp,sp,-28
 5093278:	dfc00615 	stw	ra,24(sp)
 509327c:	df000515 	stw	fp,20(sp)
 5093280:	df000504 	addi	fp,sp,20
 5093284:	e13ffd15 	stw	r4,-12(fp)
 5093288:	e17ffe15 	stw	r5,-8(fp)
 509328c:	e1bfff15 	stw	r6,-4(fp)
   * A common error case is that when the file descriptor was created, the call
   * to open() failed resulting in a negative file descriptor. This is trapped
   * below so that we don't try and process an invalid file descriptor.
   */

  fd = (file < 0) ? NULL : &alt_fd_list[file];
 5093290:	e0bffd17 	ldw	r2,-12(fp)
 5093294:	10000616 	blt	r2,zero,50932b0 <write+0x3c>
 5093298:	e0bffd17 	ldw	r2,-12(fp)
 509329c:	10c00324 	muli	r3,r2,12
 50932a0:	00814274 	movhi	r2,1289
 50932a4:	109a7704 	addi	r2,r2,27100
 50932a8:	1885883a 	add	r2,r3,r2
 50932ac:	00000106 	br	50932b4 <write+0x40>
 50932b0:	0005883a 	mov	r2,zero
 50932b4:	e0bffb15 	stw	r2,-20(fp)
  
  if (fd)
 50932b8:	e0bffb17 	ldw	r2,-20(fp)
 50932bc:	10002126 	beq	r2,zero,5093344 <write+0xd0>
     * If the file has not been opened with write access, or if the driver does
     * not provide an implementation of write(), generate an error. Otherwise
     * call the drivers write() function to process the request.
     */

    if (((fd->fd_flags & O_ACCMODE) != O_RDONLY) && fd->dev->write)
 50932c0:	e0bffb17 	ldw	r2,-20(fp)
 50932c4:	10800217 	ldw	r2,8(r2)
 50932c8:	108000cc 	andi	r2,r2,3
 50932cc:	10001826 	beq	r2,zero,5093330 <write+0xbc>
 50932d0:	e0bffb17 	ldw	r2,-20(fp)
 50932d4:	10800017 	ldw	r2,0(r2)
 50932d8:	10800617 	ldw	r2,24(r2)
 50932dc:	10001426 	beq	r2,zero,5093330 <write+0xbc>
    {
      
      /* ALT_LOG - see altera_hal/HAL/inc/sys/alt_log_printf.h */
      ALT_LOG_WRITE_FUNCTION(ptr,len);

      if ((rval = fd->dev->write(fd, ptr, len)) < 0)
 50932e0:	e0bffb17 	ldw	r2,-20(fp)
 50932e4:	10800017 	ldw	r2,0(r2)
 50932e8:	10800617 	ldw	r2,24(r2)
 50932ec:	e0ffff17 	ldw	r3,-4(fp)
 50932f0:	180d883a 	mov	r6,r3
 50932f4:	e17ffe17 	ldw	r5,-8(fp)
 50932f8:	e13ffb17 	ldw	r4,-20(fp)
 50932fc:	103ee83a 	callr	r2
 5093300:	e0bffc15 	stw	r2,-16(fp)
 5093304:	e0bffc17 	ldw	r2,-16(fp)
 5093308:	1000070e 	bge	r2,zero,5093328 <write+0xb4>
      {
        ALT_ERRNO = -rval;
 509330c:	50932380 	call	5093238 <alt_get_errno>
 5093310:	1007883a 	mov	r3,r2
 5093314:	e0bffc17 	ldw	r2,-16(fp)
 5093318:	0085c83a 	sub	r2,zero,r2
 509331c:	18800015 	stw	r2,0(r3)
        return -1;
 5093320:	00bfffc4 	movi	r2,-1
 5093324:	00000c06 	br	5093358 <write+0xe4>
      }
      return rval;
 5093328:	e0bffc17 	ldw	r2,-16(fp)
 509332c:	00000a06 	br	5093358 <write+0xe4>
    }
    else
    {
      ALT_ERRNO = EACCES;
 5093330:	50932380 	call	5093238 <alt_get_errno>
 5093334:	1007883a 	mov	r3,r2
 5093338:	00800344 	movi	r2,13
 509333c:	18800015 	stw	r2,0(r3)
 5093340:	00000406 	br	5093354 <write+0xe0>
    }
  }
  else  
  {
    ALT_ERRNO = EBADFD;
 5093344:	50932380 	call	5093238 <alt_get_errno>
 5093348:	1007883a 	mov	r3,r2
 509334c:	00801444 	movi	r2,81
 5093350:	18800015 	stw	r2,0(r3)
  }
  return -1;
 5093354:	00bfffc4 	movi	r2,-1
}
 5093358:	e037883a 	mov	sp,fp
 509335c:	dfc00117 	ldw	ra,4(sp)
 5093360:	df000017 	ldw	fp,0(sp)
 5093364:	dec00204 	addi	sp,sp,8
 5093368:	f800283a 	ret

0509336c <alt_dev_reg>:
 */

extern int alt_fs_reg  (alt_dev* dev); 

static ALT_INLINE int alt_dev_reg (alt_dev* dev)
{
 509336c:	defffd04 	addi	sp,sp,-12
 5093370:	dfc00215 	stw	ra,8(sp)
 5093374:	df000115 	stw	fp,4(sp)
 5093378:	df000104 	addi	fp,sp,4
 509337c:	e13fff15 	stw	r4,-4(fp)
  extern alt_llist alt_dev_list;

  return alt_dev_llist_insert ((alt_dev_llist*) dev, &alt_dev_list);
 5093380:	d1600804 	addi	r5,gp,-32736
 5093384:	e13fff17 	ldw	r4,-4(fp)
 5093388:	50942a00 	call	50942a0 <alt_dev_llist_insert>
}
 509338c:	e037883a 	mov	sp,fp
 5093390:	dfc00117 	ldw	ra,4(sp)
 5093394:	df000017 	ldw	fp,0(sp)
 5093398:	dec00204 	addi	sp,sp,8
 509339c:	f800283a 	ret

050933a0 <alt_irq_init>:
 * The "base" parameter is ignored and only
 * present for backwards-compatibility.
 */

void alt_irq_init ( const void* base )
{
 50933a0:	defffd04 	addi	sp,sp,-12
 50933a4:	dfc00215 	stw	ra,8(sp)
 50933a8:	df000115 	stw	fp,4(sp)
 50933ac:	df000104 	addi	fp,sp,4
 50933b0:	e13fff15 	stw	r4,-4(fp)
    ALTERA_NIOS2_GEN2_IRQ_INIT ( NIOS2_GEN2_0, nios2_gen2_0);
 50933b4:	5094c100 	call	5094c10 <altera_nios2_gen2_irq_init>
 * alt_irq_cpu_enable_interrupts() enables the CPU to start taking interrupts.
 */
static ALT_INLINE void ALT_ALWAYS_INLINE 
       alt_irq_cpu_enable_interrupts (void)
{
    NIOS2_WRITE_STATUS(NIOS2_STATUS_PIE_MSK
 50933b8:	00800044 	movi	r2,1
 50933bc:	1001703a 	wrctl	status,r2
    alt_irq_cpu_enable_interrupts();
}
 50933c0:	0001883a 	nop
 50933c4:	e037883a 	mov	sp,fp
 50933c8:	dfc00117 	ldw	ra,4(sp)
 50933cc:	df000017 	ldw	fp,0(sp)
 50933d0:	dec00204 	addi	sp,sp,8
 50933d4:	f800283a 	ret

050933d8 <alt_sys_init>:
 * Initialize the non-interrupt controller devices.
 * Called after alt_irq_init().
 */

void alt_sys_init( void )
{
 50933d8:	defffe04 	addi	sp,sp,-8
 50933dc:	dfc00115 	stw	ra,4(sp)
 50933e0:	df000015 	stw	fp,0(sp)
 50933e4:	d839883a 	mov	fp,sp
    ALTERA_AVALON_TIMER_INIT ( TIMER, timer);
 50933e8:	01c0fa04 	movi	r7,1000
 50933ec:	000d883a 	mov	r6,zero
 50933f0:	000b883a 	mov	r5,zero
 50933f4:	01014434 	movhi	r4,1296
 50933f8:	21040804 	addi	r4,r4,4128
 50933fc:	5093f1c0 	call	5093f1c <alt_avalon_timer_sc_init>
    ALTERA_AVALON_JTAG_UART_INIT ( JTAG_UART, jtag_uart);
 5093400:	01800044 	movi	r6,1
 5093404:	000b883a 	mov	r5,zero
 5093408:	01014274 	movhi	r4,1289
 509340c:	211ae104 	addi	r4,r4,27524
 5093410:	50935a00 	call	50935a0 <altera_avalon_jtag_uart_init>
 5093414:	01014274 	movhi	r4,1289
 5093418:	211ad704 	addi	r4,r4,27484
 509341c:	509336c0 	call	509336c <alt_dev_reg>
    ALTERA_AVALON_SYSID_QSYS_INIT ( SYSID_QSYS, sysid_qsys);
 5093420:	0001883a 	nop
}
 5093424:	0001883a 	nop
 5093428:	e037883a 	mov	sp,fp
 509342c:	dfc00117 	ldw	ra,4(sp)
 5093430:	df000017 	ldw	fp,0(sp)
 5093434:	dec00204 	addi	sp,sp,8
 5093438:	f800283a 	ret

0509343c <altera_avalon_jtag_uart_read_fd>:
 *
 */

int 
altera_avalon_jtag_uart_read_fd(alt_fd* fd, char* buffer, int space)
{
 509343c:	defffa04 	addi	sp,sp,-24
 5093440:	dfc00515 	stw	ra,20(sp)
 5093444:	df000415 	stw	fp,16(sp)
 5093448:	df000404 	addi	fp,sp,16
 509344c:	e13ffd15 	stw	r4,-12(fp)
 5093450:	e17ffe15 	stw	r5,-8(fp)
 5093454:	e1bfff15 	stw	r6,-4(fp)
    altera_avalon_jtag_uart_dev* dev = (altera_avalon_jtag_uart_dev*) fd->dev; 
 5093458:	e0bffd17 	ldw	r2,-12(fp)
 509345c:	10800017 	ldw	r2,0(r2)
 5093460:	e0bffc15 	stw	r2,-16(fp)

    return altera_avalon_jtag_uart_read(&dev->state, buffer, space,
 5093464:	e0bffc17 	ldw	r2,-16(fp)
 5093468:	10c00a04 	addi	r3,r2,40
 509346c:	e0bffd17 	ldw	r2,-12(fp)
 5093470:	10800217 	ldw	r2,8(r2)
 5093474:	100f883a 	mov	r7,r2
 5093478:	e1bfff17 	ldw	r6,-4(fp)
 509347c:	e17ffe17 	ldw	r5,-8(fp)
 5093480:	1809883a 	mov	r4,r3
 5093484:	5093a640 	call	5093a64 <altera_avalon_jtag_uart_read>
      fd->fd_flags);
}
 5093488:	e037883a 	mov	sp,fp
 509348c:	dfc00117 	ldw	ra,4(sp)
 5093490:	df000017 	ldw	fp,0(sp)
 5093494:	dec00204 	addi	sp,sp,8
 5093498:	f800283a 	ret

0509349c <altera_avalon_jtag_uart_write_fd>:

int 
altera_avalon_jtag_uart_write_fd(alt_fd* fd, const char* buffer, int space)
{
 509349c:	defffa04 	addi	sp,sp,-24
 50934a0:	dfc00515 	stw	ra,20(sp)
 50934a4:	df000415 	stw	fp,16(sp)
 50934a8:	df000404 	addi	fp,sp,16
 50934ac:	e13ffd15 	stw	r4,-12(fp)
 50934b0:	e17ffe15 	stw	r5,-8(fp)
 50934b4:	e1bfff15 	stw	r6,-4(fp)
    altera_avalon_jtag_uart_dev* dev = (altera_avalon_jtag_uart_dev*) fd->dev; 
 50934b8:	e0bffd17 	ldw	r2,-12(fp)
 50934bc:	10800017 	ldw	r2,0(r2)
 50934c0:	e0bffc15 	stw	r2,-16(fp)

    return altera_avalon_jtag_uart_write(&dev->state, buffer, space,
 50934c4:	e0bffc17 	ldw	r2,-16(fp)
 50934c8:	10c00a04 	addi	r3,r2,40
 50934cc:	e0bffd17 	ldw	r2,-12(fp)
 50934d0:	10800217 	ldw	r2,8(r2)
 50934d4:	100f883a 	mov	r7,r2
 50934d8:	e1bfff17 	ldw	r6,-4(fp)
 50934dc:	e17ffe17 	ldw	r5,-8(fp)
 50934e0:	1809883a 	mov	r4,r3
 50934e4:	5093c800 	call	5093c80 <altera_avalon_jtag_uart_write>
      fd->fd_flags);
}
 50934e8:	e037883a 	mov	sp,fp
 50934ec:	dfc00117 	ldw	ra,4(sp)
 50934f0:	df000017 	ldw	fp,0(sp)
 50934f4:	dec00204 	addi	sp,sp,8
 50934f8:	f800283a 	ret

050934fc <altera_avalon_jtag_uart_close_fd>:

#ifndef ALTERA_AVALON_JTAG_UART_SMALL

int 
altera_avalon_jtag_uart_close_fd(alt_fd* fd)
{
 50934fc:	defffc04 	addi	sp,sp,-16
 5093500:	dfc00315 	stw	ra,12(sp)
 5093504:	df000215 	stw	fp,8(sp)
 5093508:	df000204 	addi	fp,sp,8
 509350c:	e13fff15 	stw	r4,-4(fp)
    altera_avalon_jtag_uart_dev* dev = (altera_avalon_jtag_uart_dev*) fd->dev; 
 5093510:	e0bfff17 	ldw	r2,-4(fp)
 5093514:	10800017 	ldw	r2,0(r2)
 5093518:	e0bffe15 	stw	r2,-8(fp)

    return altera_avalon_jtag_uart_close(&dev->state, fd->fd_flags);
 509351c:	e0bffe17 	ldw	r2,-8(fp)
 5093520:	10c00a04 	addi	r3,r2,40
 5093524:	e0bfff17 	ldw	r2,-4(fp)
 5093528:	10800217 	ldw	r2,8(r2)
 509352c:	100b883a 	mov	r5,r2
 5093530:	1809883a 	mov	r4,r3
 5093534:	509390c0 	call	509390c <altera_avalon_jtag_uart_close>
}
 5093538:	e037883a 	mov	sp,fp
 509353c:	dfc00117 	ldw	ra,4(sp)
 5093540:	df000017 	ldw	fp,0(sp)
 5093544:	dec00204 	addi	sp,sp,8
 5093548:	f800283a 	ret

0509354c <altera_avalon_jtag_uart_ioctl_fd>:

int 
altera_avalon_jtag_uart_ioctl_fd(alt_fd* fd, int req, void* arg)
{
 509354c:	defffa04 	addi	sp,sp,-24
 5093550:	dfc00515 	stw	ra,20(sp)
 5093554:	df000415 	stw	fp,16(sp)
 5093558:	df000404 	addi	fp,sp,16
 509355c:	e13ffd15 	stw	r4,-12(fp)
 5093560:	e17ffe15 	stw	r5,-8(fp)
 5093564:	e1bfff15 	stw	r6,-4(fp)
    altera_avalon_jtag_uart_dev* dev = (altera_avalon_jtag_uart_dev*) fd->dev;
 5093568:	e0bffd17 	ldw	r2,-12(fp)
 509356c:	10800017 	ldw	r2,0(r2)
 5093570:	e0bffc15 	stw	r2,-16(fp)

    return altera_avalon_jtag_uart_ioctl(&dev->state, req, arg);
 5093574:	e0bffc17 	ldw	r2,-16(fp)
 5093578:	10800a04 	addi	r2,r2,40
 509357c:	e1bfff17 	ldw	r6,-4(fp)
 5093580:	e17ffe17 	ldw	r5,-8(fp)
 5093584:	1009883a 	mov	r4,r2
 5093588:	50939740 	call	5093974 <altera_avalon_jtag_uart_ioctl>
}
 509358c:	e037883a 	mov	sp,fp
 5093590:	dfc00117 	ldw	ra,4(sp)
 5093594:	df000017 	ldw	fp,0(sp)
 5093598:	dec00204 	addi	sp,sp,8
 509359c:	f800283a 	ret

050935a0 <altera_avalon_jtag_uart_init>:
 * Return 1 on sucessful IRQ register and 0 on failure.
 */

void altera_avalon_jtag_uart_init(altera_avalon_jtag_uart_state* sp, 
                                  int irq_controller_id, int irq)
{
 50935a0:	defffa04 	addi	sp,sp,-24
 50935a4:	dfc00515 	stw	ra,20(sp)
 50935a8:	df000415 	stw	fp,16(sp)
 50935ac:	df000404 	addi	fp,sp,16
 50935b0:	e13ffd15 	stw	r4,-12(fp)
 50935b4:	e17ffe15 	stw	r5,-8(fp)
 50935b8:	e1bfff15 	stw	r6,-4(fp)
  ALT_FLAG_CREATE(&sp->events, 0);
  ALT_SEM_CREATE(&sp->read_lock, 1);
  ALT_SEM_CREATE(&sp->write_lock, 1);

  /* enable read interrupts at the device */
  sp->irq_enable = ALTERA_AVALON_JTAG_UART_CONTROL_RE_MSK;
 50935bc:	e0bffd17 	ldw	r2,-12(fp)
 50935c0:	00c00044 	movi	r3,1
 50935c4:	10c00815 	stw	r3,32(r2)

  IOWR_ALTERA_AVALON_JTAG_UART_CONTROL(sp->base, sp->irq_enable); 
 50935c8:	e0bffd17 	ldw	r2,-12(fp)
 50935cc:	10800017 	ldw	r2,0(r2)
 50935d0:	10800104 	addi	r2,r2,4
 50935d4:	1007883a 	mov	r3,r2
 50935d8:	e0bffd17 	ldw	r2,-12(fp)
 50935dc:	10800817 	ldw	r2,32(r2)
 50935e0:	18800035 	stwio	r2,0(r3)
  
  /* register the interrupt handler */
#ifdef ALT_ENHANCED_INTERRUPT_API_PRESENT
  alt_ic_isr_register(irq_controller_id, irq, altera_avalon_jtag_uart_irq, 
 50935e4:	e0bffe17 	ldw	r2,-8(fp)
 50935e8:	e0ffff17 	ldw	r3,-4(fp)
 50935ec:	d8000015 	stw	zero,0(sp)
 50935f0:	e1fffd17 	ldw	r7,-12(fp)
 50935f4:	01814274 	movhi	r6,1289
 50935f8:	318d9804 	addi	r6,r6,13920
 50935fc:	180b883a 	mov	r5,r3
 5093600:	1009883a 	mov	r4,r2
 5093604:	50944380 	call	5094438 <alt_ic_isr_register>
#else
  alt_irq_register(irq, sp, altera_avalon_jtag_uart_irq);
#endif  

  /* Register an alarm to go off every second to check for presence of host */
  sp->host_inactive = 0;
 5093608:	e0bffd17 	ldw	r2,-12(fp)
 509360c:	10000915 	stw	zero,36(r2)

  if (alt_alarm_start(&sp->alarm, alt_ticks_per_second(), 
 5093610:	e0bffd17 	ldw	r2,-12(fp)
 5093614:	10800204 	addi	r2,r2,8
 * Obtain the system clock rate in ticks/s. 
 */

static ALT_INLINE alt_u32 ALT_ALWAYS_INLINE alt_ticks_per_second (void)
{
  return _alt_tick_rate;
 5093618:	d0e6dd17 	ldw	r3,-25740(gp)
 509361c:	e1fffd17 	ldw	r7,-12(fp)
 5093620:	01814274 	movhi	r6,1289
 5093624:	318e1b04 	addi	r6,r6,14444
 5093628:	180b883a 	mov	r5,r3
 509362c:	1009883a 	mov	r4,r2
 5093630:	5093f980 	call	5093f98 <alt_alarm_start>
 5093634:	1000040e 	bge	r2,zero,5093648 <altera_avalon_jtag_uart_init+0xa8>
    &altera_avalon_jtag_uart_timeout, sp) < 0)
  {
    /* If we can't set the alarm then record "don't know if host present" 
     * and behave as though the host is present.
     */
    sp->timeout = INT_MAX;
 5093638:	e0fffd17 	ldw	r3,-12(fp)
 509363c:	00a00034 	movhi	r2,32768
 5093640:	10bfffc4 	addi	r2,r2,-1
 5093644:	18800115 	stw	r2,4(r3)
  }

  /* ALT_LOG - see altera_hal/HAL/inc/sys/alt_log_printf.h */ 
  ALT_LOG_JTAG_UART_ALARM_REGISTER(sp, sp->base);
}
 5093648:	0001883a 	nop
 509364c:	e037883a 	mov	sp,fp
 5093650:	dfc00117 	ldw	ra,4(sp)
 5093654:	df000017 	ldw	fp,0(sp)
 5093658:	dec00204 	addi	sp,sp,8
 509365c:	f800283a 	ret

05093660 <altera_avalon_jtag_uart_irq>:
#ifdef ALT_ENHANCED_INTERRUPT_API_PRESENT
static void altera_avalon_jtag_uart_irq(void* context)
#else
static void altera_avalon_jtag_uart_irq(void* context, alt_u32 id)
#endif
{
 5093660:	defff804 	addi	sp,sp,-32
 5093664:	df000715 	stw	fp,28(sp)
 5093668:	df000704 	addi	fp,sp,28
 509366c:	e13fff15 	stw	r4,-4(fp)
  altera_avalon_jtag_uart_state* sp = (altera_avalon_jtag_uart_state*) context;
 5093670:	e0bfff17 	ldw	r2,-4(fp)
 5093674:	e0bffb15 	stw	r2,-20(fp)
  unsigned int base = sp->base;
 5093678:	e0bffb17 	ldw	r2,-20(fp)
 509367c:	10800017 	ldw	r2,0(r2)
 5093680:	e0bffc15 	stw	r2,-16(fp)
  /* ALT_LOG - see altera_hal/HAL/inc/sys/alt_log_printf.h */ 
  ALT_LOG_JTAG_UART_ISR_FUNCTION(base, sp);

  for ( ; ; )
  {
    unsigned int control = IORD_ALTERA_AVALON_JTAG_UART_CONTROL(base);
 5093684:	e0bffc17 	ldw	r2,-16(fp)
 5093688:	10800104 	addi	r2,r2,4
 509368c:	10800037 	ldwio	r2,0(r2)
 5093690:	e0bffd15 	stw	r2,-12(fp)

    /* Return once nothing more to do */
    if ((control & (ALTERA_AVALON_JTAG_UART_CONTROL_RI_MSK | ALTERA_AVALON_JTAG_UART_CONTROL_WI_MSK)) == 0)
 5093694:	e0bffd17 	ldw	r2,-12(fp)
 5093698:	1080c00c 	andi	r2,r2,768
 509369c:	10006d26 	beq	r2,zero,5093854 <altera_avalon_jtag_uart_irq+0x1f4>
      break;

    if (control & ALTERA_AVALON_JTAG_UART_CONTROL_RI_MSK)
 50936a0:	e0bffd17 	ldw	r2,-12(fp)
 50936a4:	1080400c 	andi	r2,r2,256
 50936a8:	10003526 	beq	r2,zero,5093780 <altera_avalon_jtag_uart_irq+0x120>
    {
      /* process a read irq.  Start by assuming that there is data in the
       * receive FIFO (otherwise why would we have been interrupted?)
       */
      unsigned int data = 1 << ALTERA_AVALON_JTAG_UART_DATA_RAVAIL_OFST;
 50936ac:	00800074 	movhi	r2,1
 50936b0:	e0bff915 	stw	r2,-28(fp)
      for ( ; ; )
      {
        /* Check whether there is space in the buffer.  If not then we must not
         * read any characters from the buffer as they will be lost.
         */
        unsigned int next = (sp->rx_in + 1) % ALTERA_AVALON_JTAG_UART_BUF_LEN;
 50936b4:	e0bffb17 	ldw	r2,-20(fp)
 50936b8:	10800a17 	ldw	r2,40(r2)
 50936bc:	10800044 	addi	r2,r2,1
 50936c0:	1081ffcc 	andi	r2,r2,2047
 50936c4:	e0bffe15 	stw	r2,-8(fp)
        if (next == sp->rx_out)
 50936c8:	e0bffb17 	ldw	r2,-20(fp)
 50936cc:	10c00b17 	ldw	r3,44(r2)
 50936d0:	e0bffe17 	ldw	r2,-8(fp)
 50936d4:	18801526 	beq	r3,r2,509372c <altera_avalon_jtag_uart_irq+0xcc>
          break;

        /* Try to remove a character from the FIFO and find out whether there
         * are any more characters remaining.
         */
        data = IORD_ALTERA_AVALON_JTAG_UART_DATA(base);
 50936d8:	e0bffc17 	ldw	r2,-16(fp)
 50936dc:	10800037 	ldwio	r2,0(r2)
 50936e0:	e0bff915 	stw	r2,-28(fp)
        
        if ((data & ALTERA_AVALON_JTAG_UART_DATA_RVALID_MSK) == 0)
 50936e4:	e0bff917 	ldw	r2,-28(fp)
 50936e8:	10a0000c 	andi	r2,r2,32768
 50936ec:	10001126 	beq	r2,zero,5093734 <altera_avalon_jtag_uart_irq+0xd4>
          break;

        sp->rx_buf[sp->rx_in] = (data & ALTERA_AVALON_JTAG_UART_DATA_DATA_MSK) >> ALTERA_AVALON_JTAG_UART_DATA_DATA_OFST;
 50936f0:	e0bffb17 	ldw	r2,-20(fp)
 50936f4:	10800a17 	ldw	r2,40(r2)
 50936f8:	e0fff917 	ldw	r3,-28(fp)
 50936fc:	1809883a 	mov	r4,r3
 5093700:	e0fffb17 	ldw	r3,-20(fp)
 5093704:	1885883a 	add	r2,r3,r2
 5093708:	10800e04 	addi	r2,r2,56
 509370c:	11000005 	stb	r4,0(r2)
        sp->rx_in = (sp->rx_in + 1) % ALTERA_AVALON_JTAG_UART_BUF_LEN;
 5093710:	e0bffb17 	ldw	r2,-20(fp)
 5093714:	10800a17 	ldw	r2,40(r2)
 5093718:	10800044 	addi	r2,r2,1
 509371c:	10c1ffcc 	andi	r3,r2,2047
 5093720:	e0bffb17 	ldw	r2,-20(fp)
 5093724:	10c00a15 	stw	r3,40(r2)

        /* Post an event to notify jtag_uart_read that a character has been read */
        ALT_FLAG_POST (sp->events, ALT_JTAG_UART_READ_RDY, OS_FLAG_SET);
      }
 5093728:	003fe206 	br	50936b4 <__alt_data_end+0xfffc54b4>
        /* Check whether there is space in the buffer.  If not then we must not
         * read any characters from the buffer as they will be lost.
         */
        unsigned int next = (sp->rx_in + 1) % ALTERA_AVALON_JTAG_UART_BUF_LEN;
        if (next == sp->rx_out)
          break;
 509372c:	0001883a 	nop
 5093730:	00000106 	br	5093738 <altera_avalon_jtag_uart_irq+0xd8>
         * are any more characters remaining.
         */
        data = IORD_ALTERA_AVALON_JTAG_UART_DATA(base);
        
        if ((data & ALTERA_AVALON_JTAG_UART_DATA_RVALID_MSK) == 0)
          break;
 5093734:	0001883a 	nop

        /* Post an event to notify jtag_uart_read that a character has been read */
        ALT_FLAG_POST (sp->events, ALT_JTAG_UART_READ_RDY, OS_FLAG_SET);
      }

      if (data & ALTERA_AVALON_JTAG_UART_DATA_RAVAIL_MSK)
 5093738:	e0bff917 	ldw	r2,-28(fp)
 509373c:	10bfffec 	andhi	r2,r2,65535
 5093740:	10000f26 	beq	r2,zero,5093780 <altera_avalon_jtag_uart_irq+0x120>
      {
        /* If there is still data available here then the buffer is full 
         * so turn off receive interrupts until some space becomes available.
         */
        sp->irq_enable &= ~ALTERA_AVALON_JTAG_UART_CONTROL_RE_MSK;
 5093744:	e0bffb17 	ldw	r2,-20(fp)
 5093748:	10c00817 	ldw	r3,32(r2)
 509374c:	00bfff84 	movi	r2,-2
 5093750:	1886703a 	and	r3,r3,r2
 5093754:	e0bffb17 	ldw	r2,-20(fp)
 5093758:	10c00815 	stw	r3,32(r2)
        IOWR_ALTERA_AVALON_JTAG_UART_CONTROL(base, sp->irq_enable);
 509375c:	e0bffc17 	ldw	r2,-16(fp)
 5093760:	10800104 	addi	r2,r2,4
 5093764:	1007883a 	mov	r3,r2
 5093768:	e0bffb17 	ldw	r2,-20(fp)
 509376c:	10800817 	ldw	r2,32(r2)
 5093770:	18800035 	stwio	r2,0(r3)
        
        /* Dummy read to ensure IRQ is cleared prior to ISR completion */
        IORD_ALTERA_AVALON_JTAG_UART_CONTROL(base);
 5093774:	e0bffc17 	ldw	r2,-16(fp)
 5093778:	10800104 	addi	r2,r2,4
 509377c:	10800037 	ldwio	r2,0(r2)
      }
    }

    if (control & ALTERA_AVALON_JTAG_UART_CONTROL_WI_MSK)
 5093780:	e0bffd17 	ldw	r2,-12(fp)
 5093784:	1080800c 	andi	r2,r2,512
 5093788:	103fbe26 	beq	r2,zero,5093684 <__alt_data_end+0xfffc5484>
    {
      /* process a write irq */
      unsigned int space = (control & ALTERA_AVALON_JTAG_UART_CONTROL_WSPACE_MSK) >> ALTERA_AVALON_JTAG_UART_CONTROL_WSPACE_OFST;
 509378c:	e0bffd17 	ldw	r2,-12(fp)
 5093790:	1004d43a 	srli	r2,r2,16
 5093794:	e0bffa15 	stw	r2,-24(fp)

      while (space > 0 && sp->tx_out != sp->tx_in)
 5093798:	00001406 	br	50937ec <altera_avalon_jtag_uart_irq+0x18c>
      {
        IOWR_ALTERA_AVALON_JTAG_UART_DATA(base, sp->tx_buf[sp->tx_out]);
 509379c:	e0bffc17 	ldw	r2,-16(fp)
 50937a0:	e0fffb17 	ldw	r3,-20(fp)
 50937a4:	18c00d17 	ldw	r3,52(r3)
 50937a8:	e13ffb17 	ldw	r4,-20(fp)
 50937ac:	20c7883a 	add	r3,r4,r3
 50937b0:	18c20e04 	addi	r3,r3,2104
 50937b4:	18c00003 	ldbu	r3,0(r3)
 50937b8:	18c03fcc 	andi	r3,r3,255
 50937bc:	18c0201c 	xori	r3,r3,128
 50937c0:	18ffe004 	addi	r3,r3,-128
 50937c4:	10c00035 	stwio	r3,0(r2)

        sp->tx_out = (sp->tx_out + 1) % ALTERA_AVALON_JTAG_UART_BUF_LEN;
 50937c8:	e0bffb17 	ldw	r2,-20(fp)
 50937cc:	10800d17 	ldw	r2,52(r2)
 50937d0:	10800044 	addi	r2,r2,1
 50937d4:	10c1ffcc 	andi	r3,r2,2047
 50937d8:	e0bffb17 	ldw	r2,-20(fp)
 50937dc:	10c00d15 	stw	r3,52(r2)

        /* Post an event to notify jtag_uart_write that a character has been written */
        ALT_FLAG_POST (sp->events, ALT_JTAG_UART_WRITE_RDY, OS_FLAG_SET);

        space--;
 50937e0:	e0bffa17 	ldw	r2,-24(fp)
 50937e4:	10bfffc4 	addi	r2,r2,-1
 50937e8:	e0bffa15 	stw	r2,-24(fp)
    if (control & ALTERA_AVALON_JTAG_UART_CONTROL_WI_MSK)
    {
      /* process a write irq */
      unsigned int space = (control & ALTERA_AVALON_JTAG_UART_CONTROL_WSPACE_MSK) >> ALTERA_AVALON_JTAG_UART_CONTROL_WSPACE_OFST;

      while (space > 0 && sp->tx_out != sp->tx_in)
 50937ec:	e0bffa17 	ldw	r2,-24(fp)
 50937f0:	10000526 	beq	r2,zero,5093808 <altera_avalon_jtag_uart_irq+0x1a8>
 50937f4:	e0bffb17 	ldw	r2,-20(fp)
 50937f8:	10c00d17 	ldw	r3,52(r2)
 50937fc:	e0bffb17 	ldw	r2,-20(fp)
 5093800:	10800c17 	ldw	r2,48(r2)
 5093804:	18bfe51e 	bne	r3,r2,509379c <__alt_data_end+0xfffc559c>
        ALT_FLAG_POST (sp->events, ALT_JTAG_UART_WRITE_RDY, OS_FLAG_SET);

        space--;
      }

      if (space > 0)
 5093808:	e0bffa17 	ldw	r2,-24(fp)
 509380c:	103f9d26 	beq	r2,zero,5093684 <__alt_data_end+0xfffc5484>
      {
        /* If we don't have any more data available then turn off the TX interrupt */
        sp->irq_enable &= ~ALTERA_AVALON_JTAG_UART_CONTROL_WE_MSK;
 5093810:	e0bffb17 	ldw	r2,-20(fp)
 5093814:	10c00817 	ldw	r3,32(r2)
 5093818:	00bfff44 	movi	r2,-3
 509381c:	1886703a 	and	r3,r3,r2
 5093820:	e0bffb17 	ldw	r2,-20(fp)
 5093824:	10c00815 	stw	r3,32(r2)
        IOWR_ALTERA_AVALON_JTAG_UART_CONTROL(sp->base, sp->irq_enable);
 5093828:	e0bffb17 	ldw	r2,-20(fp)
 509382c:	10800017 	ldw	r2,0(r2)
 5093830:	10800104 	addi	r2,r2,4
 5093834:	1007883a 	mov	r3,r2
 5093838:	e0bffb17 	ldw	r2,-20(fp)
 509383c:	10800817 	ldw	r2,32(r2)
 5093840:	18800035 	stwio	r2,0(r3)
        
        /* Dummy read to ensure IRQ is cleared prior to ISR completion */
        IORD_ALTERA_AVALON_JTAG_UART_CONTROL(base);
 5093844:	e0bffc17 	ldw	r2,-16(fp)
 5093848:	10800104 	addi	r2,r2,4
 509384c:	10800037 	ldwio	r2,0(r2)
      }
    }
  }
 5093850:	003f8c06 	br	5093684 <__alt_data_end+0xfffc5484>
  {
    unsigned int control = IORD_ALTERA_AVALON_JTAG_UART_CONTROL(base);

    /* Return once nothing more to do */
    if ((control & (ALTERA_AVALON_JTAG_UART_CONTROL_RI_MSK | ALTERA_AVALON_JTAG_UART_CONTROL_WI_MSK)) == 0)
      break;
 5093854:	0001883a 	nop
        /* Dummy read to ensure IRQ is cleared prior to ISR completion */
        IORD_ALTERA_AVALON_JTAG_UART_CONTROL(base);
      }
    }
  }
}
 5093858:	0001883a 	nop
 509385c:	e037883a 	mov	sp,fp
 5093860:	df000017 	ldw	fp,0(sp)
 5093864:	dec00104 	addi	sp,sp,4
 5093868:	f800283a 	ret

0509386c <altera_avalon_jtag_uart_timeout>:
 * Timeout routine is called every second
 */

static alt_u32 
altera_avalon_jtag_uart_timeout(void* context) 
{
 509386c:	defff804 	addi	sp,sp,-32
 5093870:	df000715 	stw	fp,28(sp)
 5093874:	df000704 	addi	fp,sp,28
 5093878:	e13ffb15 	stw	r4,-20(fp)
  altera_avalon_jtag_uart_state* sp = (altera_avalon_jtag_uart_state *) context;
 509387c:	e0bffb17 	ldw	r2,-20(fp)
 5093880:	e0bff915 	stw	r2,-28(fp)

  unsigned int control = IORD_ALTERA_AVALON_JTAG_UART_CONTROL(sp->base);
 5093884:	e0bff917 	ldw	r2,-28(fp)
 5093888:	10800017 	ldw	r2,0(r2)
 509388c:	10800104 	addi	r2,r2,4
 5093890:	10800037 	ldwio	r2,0(r2)
 5093894:	e0bffa15 	stw	r2,-24(fp)

  if (control & ALTERA_AVALON_JTAG_UART_CONTROL_AC_MSK)
 5093898:	e0bffa17 	ldw	r2,-24(fp)
 509389c:	1081000c 	andi	r2,r2,1024
 50938a0:	10000b26 	beq	r2,zero,50938d0 <altera_avalon_jtag_uart_timeout+0x64>
  {
    IOWR_ALTERA_AVALON_JTAG_UART_CONTROL(sp->base, sp->irq_enable | ALTERA_AVALON_JTAG_UART_CONTROL_AC_MSK);
 50938a4:	e0bff917 	ldw	r2,-28(fp)
 50938a8:	10800017 	ldw	r2,0(r2)
 50938ac:	10800104 	addi	r2,r2,4
 50938b0:	1007883a 	mov	r3,r2
 50938b4:	e0bff917 	ldw	r2,-28(fp)
 50938b8:	10800817 	ldw	r2,32(r2)
 50938bc:	10810014 	ori	r2,r2,1024
 50938c0:	18800035 	stwio	r2,0(r3)
    sp->host_inactive = 0;
 50938c4:	e0bff917 	ldw	r2,-28(fp)
 50938c8:	10000915 	stw	zero,36(r2)
 50938cc:	00000a06 	br	50938f8 <altera_avalon_jtag_uart_timeout+0x8c>
  }
  else if (sp->host_inactive < INT_MAX - 2) {
 50938d0:	e0bff917 	ldw	r2,-28(fp)
 50938d4:	10c00917 	ldw	r3,36(r2)
 50938d8:	00a00034 	movhi	r2,32768
 50938dc:	10bfff04 	addi	r2,r2,-4
 50938e0:	10c00536 	bltu	r2,r3,50938f8 <altera_avalon_jtag_uart_timeout+0x8c>
    sp->host_inactive++;
 50938e4:	e0bff917 	ldw	r2,-28(fp)
 50938e8:	10800917 	ldw	r2,36(r2)
 50938ec:	10c00044 	addi	r3,r2,1
 50938f0:	e0bff917 	ldw	r2,-28(fp)
 50938f4:	10c00915 	stw	r3,36(r2)
 50938f8:	d0a6dd17 	ldw	r2,-25740(gp)
      ALT_FLAG_POST (sp->events, ALT_JTAG_UART_TIMEOUT, OS_FLAG_SET);
    }
  }

  return alt_ticks_per_second();
}
 50938fc:	e037883a 	mov	sp,fp
 5093900:	df000017 	ldw	fp,0(sp)
 5093904:	dec00104 	addi	sp,sp,4
 5093908:	f800283a 	ret

0509390c <altera_avalon_jtag_uart_close>:
 * The close routine is not implemented for the small driver; instead it will
 * map to null. This is because the small driver simply waits while characters
 * are transmitted; there is no interrupt-serviced buffer to empty 
 */
int altera_avalon_jtag_uart_close(altera_avalon_jtag_uart_state* sp, int flags)
{
 509390c:	defffd04 	addi	sp,sp,-12
 5093910:	df000215 	stw	fp,8(sp)
 5093914:	df000204 	addi	fp,sp,8
 5093918:	e13ffe15 	stw	r4,-8(fp)
 509391c:	e17fff15 	stw	r5,-4(fp)
  /* 
   * Wait for all transmit data to be emptied by the JTAG UART ISR, or
   * for a host-inactivity timeout, in which case transmit data will be lost
   */
  while ( (sp->tx_out != sp->tx_in) && (sp->host_inactive < sp->timeout) ) {
 5093920:	00000506 	br	5093938 <altera_avalon_jtag_uart_close+0x2c>
    if (flags & O_NONBLOCK) {
 5093924:	e0bfff17 	ldw	r2,-4(fp)
 5093928:	1090000c 	andi	r2,r2,16384
 509392c:	10000226 	beq	r2,zero,5093938 <altera_avalon_jtag_uart_close+0x2c>
      return -EWOULDBLOCK; 
 5093930:	00bffd44 	movi	r2,-11
 5093934:	00000b06 	br	5093964 <altera_avalon_jtag_uart_close+0x58>
{
  /* 
   * Wait for all transmit data to be emptied by the JTAG UART ISR, or
   * for a host-inactivity timeout, in which case transmit data will be lost
   */
  while ( (sp->tx_out != sp->tx_in) && (sp->host_inactive < sp->timeout) ) {
 5093938:	e0bffe17 	ldw	r2,-8(fp)
 509393c:	10c00d17 	ldw	r3,52(r2)
 5093940:	e0bffe17 	ldw	r2,-8(fp)
 5093944:	10800c17 	ldw	r2,48(r2)
 5093948:	18800526 	beq	r3,r2,5093960 <altera_avalon_jtag_uart_close+0x54>
 509394c:	e0bffe17 	ldw	r2,-8(fp)
 5093950:	10c00917 	ldw	r3,36(r2)
 5093954:	e0bffe17 	ldw	r2,-8(fp)
 5093958:	10800117 	ldw	r2,4(r2)
 509395c:	18bff136 	bltu	r3,r2,5093924 <__alt_data_end+0xfffc5724>
    if (flags & O_NONBLOCK) {
      return -EWOULDBLOCK; 
    }
  }

  return 0;
 5093960:	0005883a 	mov	r2,zero
}
 5093964:	e037883a 	mov	sp,fp
 5093968:	df000017 	ldw	fp,0(sp)
 509396c:	dec00104 	addi	sp,sp,4
 5093970:	f800283a 	ret

05093974 <altera_avalon_jtag_uart_ioctl>:
/* ----------------------------------------------------------- */

int 
altera_avalon_jtag_uart_ioctl(altera_avalon_jtag_uart_state* sp, int req,
  void* arg)
{
 5093974:	defffa04 	addi	sp,sp,-24
 5093978:	df000515 	stw	fp,20(sp)
 509397c:	df000504 	addi	fp,sp,20
 5093980:	e13ffd15 	stw	r4,-12(fp)
 5093984:	e17ffe15 	stw	r5,-8(fp)
 5093988:	e1bfff15 	stw	r6,-4(fp)
  int rc = -ENOTTY;
 509398c:	00bff9c4 	movi	r2,-25
 5093990:	e0bffb15 	stw	r2,-20(fp)

  switch (req)
 5093994:	e0bffe17 	ldw	r2,-8(fp)
 5093998:	10da8060 	cmpeqi	r3,r2,27137
 509399c:	1800031e 	bne	r3,zero,50939ac <altera_avalon_jtag_uart_ioctl+0x38>
 50939a0:	109a80a0 	cmpeqi	r2,r2,27138
 50939a4:	1000181e 	bne	r2,zero,5093a08 <altera_avalon_jtag_uart_ioctl+0x94>
      rc = 0;
    }
    break;

  default:
    break;
 50939a8:	00002906 	br	5093a50 <altera_avalon_jtag_uart_ioctl+0xdc>

  switch (req)
  {
  case TIOCSTIMEOUT:
    /* Set the time to wait until assuming host is not connected */
    if (sp->timeout != INT_MAX)
 50939ac:	e0bffd17 	ldw	r2,-12(fp)
 50939b0:	10c00117 	ldw	r3,4(r2)
 50939b4:	00a00034 	movhi	r2,32768
 50939b8:	10bfffc4 	addi	r2,r2,-1
 50939bc:	18802126 	beq	r3,r2,5093a44 <altera_avalon_jtag_uart_ioctl+0xd0>
    {
      int timeout = *((int *)arg);
 50939c0:	e0bfff17 	ldw	r2,-4(fp)
 50939c4:	10800017 	ldw	r2,0(r2)
 50939c8:	e0bffc15 	stw	r2,-16(fp)
      sp->timeout = (timeout >= 2 && timeout < INT_MAX) ? timeout : INT_MAX - 1;
 50939cc:	e0bffc17 	ldw	r2,-16(fp)
 50939d0:	10800090 	cmplti	r2,r2,2
 50939d4:	1000061e 	bne	r2,zero,50939f0 <altera_avalon_jtag_uart_ioctl+0x7c>
 50939d8:	e0fffc17 	ldw	r3,-16(fp)
 50939dc:	00a00034 	movhi	r2,32768
 50939e0:	10bfffc4 	addi	r2,r2,-1
 50939e4:	18800226 	beq	r3,r2,50939f0 <altera_avalon_jtag_uart_ioctl+0x7c>
 50939e8:	e0bffc17 	ldw	r2,-16(fp)
 50939ec:	00000206 	br	50939f8 <altera_avalon_jtag_uart_ioctl+0x84>
 50939f0:	00a00034 	movhi	r2,32768
 50939f4:	10bfff84 	addi	r2,r2,-2
 50939f8:	e0fffd17 	ldw	r3,-12(fp)
 50939fc:	18800115 	stw	r2,4(r3)
      rc = 0;
 5093a00:	e03ffb15 	stw	zero,-20(fp)
    }
    break;
 5093a04:	00000f06 	br	5093a44 <altera_avalon_jtag_uart_ioctl+0xd0>

  case TIOCGCONNECTED:
    /* Find out whether host is connected */
    if (sp->timeout != INT_MAX)
 5093a08:	e0bffd17 	ldw	r2,-12(fp)
 5093a0c:	10c00117 	ldw	r3,4(r2)
 5093a10:	00a00034 	movhi	r2,32768
 5093a14:	10bfffc4 	addi	r2,r2,-1
 5093a18:	18800c26 	beq	r3,r2,5093a4c <altera_avalon_jtag_uart_ioctl+0xd8>
    {
      *((int *)arg) = (sp->host_inactive < sp->timeout) ? 1 : 0;
 5093a1c:	e0bffd17 	ldw	r2,-12(fp)
 5093a20:	10c00917 	ldw	r3,36(r2)
 5093a24:	e0bffd17 	ldw	r2,-12(fp)
 5093a28:	10800117 	ldw	r2,4(r2)
 5093a2c:	1885803a 	cmpltu	r2,r3,r2
 5093a30:	10c03fcc 	andi	r3,r2,255
 5093a34:	e0bfff17 	ldw	r2,-4(fp)
 5093a38:	10c00015 	stw	r3,0(r2)
      rc = 0;
 5093a3c:	e03ffb15 	stw	zero,-20(fp)
    }
    break;
 5093a40:	00000206 	br	5093a4c <altera_avalon_jtag_uart_ioctl+0xd8>
    {
      int timeout = *((int *)arg);
      sp->timeout = (timeout >= 2 && timeout < INT_MAX) ? timeout : INT_MAX - 1;
      rc = 0;
    }
    break;
 5093a44:	0001883a 	nop
 5093a48:	00000106 	br	5093a50 <altera_avalon_jtag_uart_ioctl+0xdc>
    if (sp->timeout != INT_MAX)
    {
      *((int *)arg) = (sp->host_inactive < sp->timeout) ? 1 : 0;
      rc = 0;
    }
    break;
 5093a4c:	0001883a 	nop

  default:
    break;
  }

  return rc;
 5093a50:	e0bffb17 	ldw	r2,-20(fp)
}
 5093a54:	e037883a 	mov	sp,fp
 5093a58:	df000017 	ldw	fp,0(sp)
 5093a5c:	dec00104 	addi	sp,sp,4
 5093a60:	f800283a 	ret

05093a64 <altera_avalon_jtag_uart_read>:
/* ----------------------------------------------------------- */

int 
altera_avalon_jtag_uart_read(altera_avalon_jtag_uart_state* sp, 
  char * buffer, int space, int flags)
{
 5093a64:	defff304 	addi	sp,sp,-52
 5093a68:	dfc00c15 	stw	ra,48(sp)
 5093a6c:	df000b15 	stw	fp,44(sp)
 5093a70:	df000b04 	addi	fp,sp,44
 5093a74:	e13ffc15 	stw	r4,-16(fp)
 5093a78:	e17ffd15 	stw	r5,-12(fp)
 5093a7c:	e1bffe15 	stw	r6,-8(fp)
 5093a80:	e1ffff15 	stw	r7,-4(fp)
  char * ptr = buffer;
 5093a84:	e0bffd17 	ldw	r2,-12(fp)
 5093a88:	e0bff515 	stw	r2,-44(fp)
   * When running in a multi threaded environment, obtain the "read_lock"
   * semaphore. This ensures that reading from the device is thread-safe.
   */
  ALT_SEM_PEND (sp->read_lock, 0);

  while (space > 0)
 5093a8c:	00004706 	br	5093bac <altera_avalon_jtag_uart_read+0x148>
    unsigned int in, out;

    /* Read as much data as possible */
    do
    {
      in  = sp->rx_in;
 5093a90:	e0bffc17 	ldw	r2,-16(fp)
 5093a94:	10800a17 	ldw	r2,40(r2)
 5093a98:	e0bff715 	stw	r2,-36(fp)
      out = sp->rx_out;
 5093a9c:	e0bffc17 	ldw	r2,-16(fp)
 5093aa0:	10800b17 	ldw	r2,44(r2)
 5093aa4:	e0bff815 	stw	r2,-32(fp)

      if (in >= out)
 5093aa8:	e0fff717 	ldw	r3,-36(fp)
 5093aac:	e0bff817 	ldw	r2,-32(fp)
 5093ab0:	18800536 	bltu	r3,r2,5093ac8 <altera_avalon_jtag_uart_read+0x64>
        n = in - out;
 5093ab4:	e0fff717 	ldw	r3,-36(fp)
 5093ab8:	e0bff817 	ldw	r2,-32(fp)
 5093abc:	1885c83a 	sub	r2,r3,r2
 5093ac0:	e0bff615 	stw	r2,-40(fp)
 5093ac4:	00000406 	br	5093ad8 <altera_avalon_jtag_uart_read+0x74>
      else
        n = ALTERA_AVALON_JTAG_UART_BUF_LEN - out;
 5093ac8:	00c20004 	movi	r3,2048
 5093acc:	e0bff817 	ldw	r2,-32(fp)
 5093ad0:	1885c83a 	sub	r2,r3,r2
 5093ad4:	e0bff615 	stw	r2,-40(fp)

      if (n == 0)
 5093ad8:	e0bff617 	ldw	r2,-40(fp)
 5093adc:	10001e26 	beq	r2,zero,5093b58 <altera_avalon_jtag_uart_read+0xf4>
        break; /* No more data available */

      if (n > space)
 5093ae0:	e0fffe17 	ldw	r3,-8(fp)
 5093ae4:	e0bff617 	ldw	r2,-40(fp)
 5093ae8:	1880022e 	bgeu	r3,r2,5093af4 <altera_avalon_jtag_uart_read+0x90>
        n = space;
 5093aec:	e0bffe17 	ldw	r2,-8(fp)
 5093af0:	e0bff615 	stw	r2,-40(fp)

      memcpy(ptr, sp->rx_buf + out, n);
 5093af4:	e0bffc17 	ldw	r2,-16(fp)
 5093af8:	10c00e04 	addi	r3,r2,56
 5093afc:	e0bff817 	ldw	r2,-32(fp)
 5093b00:	1885883a 	add	r2,r3,r2
 5093b04:	e1bff617 	ldw	r6,-40(fp)
 5093b08:	100b883a 	mov	r5,r2
 5093b0c:	e13ff517 	ldw	r4,-44(fp)
 5093b10:	508a7cc0 	call	508a7cc <memcpy>
      ptr   += n;
 5093b14:	e0fff517 	ldw	r3,-44(fp)
 5093b18:	e0bff617 	ldw	r2,-40(fp)
 5093b1c:	1885883a 	add	r2,r3,r2
 5093b20:	e0bff515 	stw	r2,-44(fp)
      space -= n;
 5093b24:	e0fffe17 	ldw	r3,-8(fp)
 5093b28:	e0bff617 	ldw	r2,-40(fp)
 5093b2c:	1885c83a 	sub	r2,r3,r2
 5093b30:	e0bffe15 	stw	r2,-8(fp)

      sp->rx_out = (out + n) % ALTERA_AVALON_JTAG_UART_BUF_LEN;
 5093b34:	e0fff817 	ldw	r3,-32(fp)
 5093b38:	e0bff617 	ldw	r2,-40(fp)
 5093b3c:	1885883a 	add	r2,r3,r2
 5093b40:	10c1ffcc 	andi	r3,r2,2047
 5093b44:	e0bffc17 	ldw	r2,-16(fp)
 5093b48:	10c00b15 	stw	r3,44(r2)
    }
    while (space > 0);
 5093b4c:	e0bffe17 	ldw	r2,-8(fp)
 5093b50:	00bfcf16 	blt	zero,r2,5093a90 <__alt_data_end+0xfffc5890>
 5093b54:	00000106 	br	5093b5c <altera_avalon_jtag_uart_read+0xf8>
        n = in - out;
      else
        n = ALTERA_AVALON_JTAG_UART_BUF_LEN - out;

      if (n == 0)
        break; /* No more data available */
 5093b58:	0001883a 	nop
      sp->rx_out = (out + n) % ALTERA_AVALON_JTAG_UART_BUF_LEN;
    }
    while (space > 0);

    /* If we read any data then return it */
    if (ptr != buffer)
 5093b5c:	e0fff517 	ldw	r3,-44(fp)
 5093b60:	e0bffd17 	ldw	r2,-12(fp)
 5093b64:	1880141e 	bne	r3,r2,5093bb8 <altera_avalon_jtag_uart_read+0x154>
      break;

    /* If in non-blocking mode then return error */
    if (flags & O_NONBLOCK)
 5093b68:	e0bfff17 	ldw	r2,-4(fp)
 5093b6c:	1090000c 	andi	r2,r2,16384
 5093b70:	1000131e 	bne	r2,zero,5093bc0 <altera_avalon_jtag_uart_read+0x15c>
      while (in == sp->rx_in && sp->host_inactive < sp->timeout)
        ;
    }
#else
    /* No OS: Always spin */
    while (in == sp->rx_in && sp->host_inactive < sp->timeout)
 5093b74:	0001883a 	nop
 5093b78:	e0bffc17 	ldw	r2,-16(fp)
 5093b7c:	10c00a17 	ldw	r3,40(r2)
 5093b80:	e0bff717 	ldw	r2,-36(fp)
 5093b84:	1880051e 	bne	r3,r2,5093b9c <altera_avalon_jtag_uart_read+0x138>
 5093b88:	e0bffc17 	ldw	r2,-16(fp)
 5093b8c:	10c00917 	ldw	r3,36(r2)
 5093b90:	e0bffc17 	ldw	r2,-16(fp)
 5093b94:	10800117 	ldw	r2,4(r2)
 5093b98:	18bff736 	bltu	r3,r2,5093b78 <__alt_data_end+0xfffc5978>
      ;
#endif /* __ucosii__ */

    if (in == sp->rx_in)
 5093b9c:	e0bffc17 	ldw	r2,-16(fp)
 5093ba0:	10c00a17 	ldw	r3,40(r2)
 5093ba4:	e0bff717 	ldw	r2,-36(fp)
 5093ba8:	18800726 	beq	r3,r2,5093bc8 <altera_avalon_jtag_uart_read+0x164>
   * When running in a multi threaded environment, obtain the "read_lock"
   * semaphore. This ensures that reading from the device is thread-safe.
   */
  ALT_SEM_PEND (sp->read_lock, 0);

  while (space > 0)
 5093bac:	e0bffe17 	ldw	r2,-8(fp)
 5093bb0:	00bfb716 	blt	zero,r2,5093a90 <__alt_data_end+0xfffc5890>
 5093bb4:	00000506 	br	5093bcc <altera_avalon_jtag_uart_read+0x168>
    }
    while (space > 0);

    /* If we read any data then return it */
    if (ptr != buffer)
      break;
 5093bb8:	0001883a 	nop
 5093bbc:	00000306 	br	5093bcc <altera_avalon_jtag_uart_read+0x168>

    /* If in non-blocking mode then return error */
    if (flags & O_NONBLOCK)
      break;
 5093bc0:	0001883a 	nop
 5093bc4:	00000106 	br	5093bcc <altera_avalon_jtag_uart_read+0x168>
    while (in == sp->rx_in && sp->host_inactive < sp->timeout)
      ;
#endif /* __ucosii__ */

    if (in == sp->rx_in)
      break;
 5093bc8:	0001883a 	nop
   * semaphore so that other threads can access the buffer.
   */

  ALT_SEM_POST (sp->read_lock);

  if (ptr != buffer)
 5093bcc:	e0fff517 	ldw	r3,-44(fp)
 5093bd0:	e0bffd17 	ldw	r2,-12(fp)
 5093bd4:	18801826 	beq	r3,r2,5093c38 <altera_avalon_jtag_uart_read+0x1d4>
static ALT_INLINE alt_irq_context ALT_ALWAYS_INLINE 
       alt_irq_disable_all (void)
{
  alt_irq_context context;

  NIOS2_READ_STATUS (context);
 5093bd8:	0005303a 	rdctl	r2,status
 5093bdc:	e0bffb15 	stw	r2,-20(fp)

  NIOS2_WRITE_STATUS (context & ~NIOS2_STATUS_PIE_MSK);
 5093be0:	e0fffb17 	ldw	r3,-20(fp)
 5093be4:	00bfff84 	movi	r2,-2
 5093be8:	1884703a 	and	r2,r3,r2
 5093bec:	1001703a 	wrctl	status,r2
  
  return context;
 5093bf0:	e0bffb17 	ldw	r2,-20(fp)
  {
    /* If we read any data then there is space in the buffer so enable interrupts */
    context = alt_irq_disable_all();
 5093bf4:	e0bffa15 	stw	r2,-24(fp)
    sp->irq_enable |= ALTERA_AVALON_JTAG_UART_CONTROL_RE_MSK;
 5093bf8:	e0bffc17 	ldw	r2,-16(fp)
 5093bfc:	10800817 	ldw	r2,32(r2)
 5093c00:	10c00054 	ori	r3,r2,1
 5093c04:	e0bffc17 	ldw	r2,-16(fp)
 5093c08:	10c00815 	stw	r3,32(r2)
    IOWR_ALTERA_AVALON_JTAG_UART_CONTROL(sp->base, sp->irq_enable);
 5093c0c:	e0bffc17 	ldw	r2,-16(fp)
 5093c10:	10800017 	ldw	r2,0(r2)
 5093c14:	10800104 	addi	r2,r2,4
 5093c18:	1007883a 	mov	r3,r2
 5093c1c:	e0bffc17 	ldw	r2,-16(fp)
 5093c20:	10800817 	ldw	r2,32(r2)
 5093c24:	18800035 	stwio	r2,0(r3)
 5093c28:	e0bffa17 	ldw	r2,-24(fp)
 5093c2c:	e0bff915 	stw	r2,-28(fp)
  status &= ~NIOS2_STATUS_PIE_MSK;
  status |= (context & NIOS2_STATUS_PIE_MSK);
  
  NIOS2_WRITE_STATUS (status);
#else
  NIOS2_WRITE_STATUS (context);
 5093c30:	e0bff917 	ldw	r2,-28(fp)
 5093c34:	1001703a 	wrctl	status,r2
    alt_irq_enable_all(context);
  }

  if (ptr != buffer)
 5093c38:	e0fff517 	ldw	r3,-44(fp)
 5093c3c:	e0bffd17 	ldw	r2,-12(fp)
 5093c40:	18800426 	beq	r3,r2,5093c54 <altera_avalon_jtag_uart_read+0x1f0>
    return ptr - buffer;
 5093c44:	e0fff517 	ldw	r3,-44(fp)
 5093c48:	e0bffd17 	ldw	r2,-12(fp)
 5093c4c:	1885c83a 	sub	r2,r3,r2
 5093c50:	00000606 	br	5093c6c <altera_avalon_jtag_uart_read+0x208>
  else if (flags & O_NONBLOCK)
 5093c54:	e0bfff17 	ldw	r2,-4(fp)
 5093c58:	1090000c 	andi	r2,r2,16384
 5093c5c:	10000226 	beq	r2,zero,5093c68 <altera_avalon_jtag_uart_read+0x204>
    return -EWOULDBLOCK;
 5093c60:	00bffd44 	movi	r2,-11
 5093c64:	00000106 	br	5093c6c <altera_avalon_jtag_uart_read+0x208>
  else
    return -EIO;
 5093c68:	00bffec4 	movi	r2,-5
}
 5093c6c:	e037883a 	mov	sp,fp
 5093c70:	dfc00117 	ldw	ra,4(sp)
 5093c74:	df000017 	ldw	fp,0(sp)
 5093c78:	dec00204 	addi	sp,sp,8
 5093c7c:	f800283a 	ret

05093c80 <altera_avalon_jtag_uart_write>:
/* ----------------------------------------------------------- */

int 
altera_avalon_jtag_uart_write(altera_avalon_jtag_uart_state* sp, 
  const char * ptr, int count, int flags)
{
 5093c80:	defff304 	addi	sp,sp,-52
 5093c84:	dfc00c15 	stw	ra,48(sp)
 5093c88:	df000b15 	stw	fp,44(sp)
 5093c8c:	df000b04 	addi	fp,sp,44
 5093c90:	e13ffc15 	stw	r4,-16(fp)
 5093c94:	e17ffd15 	stw	r5,-12(fp)
 5093c98:	e1bffe15 	stw	r6,-8(fp)
 5093c9c:	e1ffff15 	stw	r7,-4(fp)
  /* Remove warning at optimisation level 03 by seting out to 0 */
  unsigned int in, out=0;
 5093ca0:	e03ff515 	stw	zero,-44(fp)
  unsigned int n;
  alt_irq_context context;

  const char * start = ptr;
 5093ca4:	e0bffd17 	ldw	r2,-12(fp)
 5093ca8:	e0bff715 	stw	r2,-36(fp)
  ALT_SEM_PEND (sp->write_lock, 0);

  do
  {
    /* Copy as much as we can into the transmit buffer */
    while (count > 0)
 5093cac:	00003706 	br	5093d8c <altera_avalon_jtag_uart_write+0x10c>
    {
      /* We need a stable value of the out pointer to calculate the space available */
      in  = sp->tx_in;
 5093cb0:	e0bffc17 	ldw	r2,-16(fp)
 5093cb4:	10800c17 	ldw	r2,48(r2)
 5093cb8:	e0bff915 	stw	r2,-28(fp)
      out = sp->tx_out;
 5093cbc:	e0bffc17 	ldw	r2,-16(fp)
 5093cc0:	10800d17 	ldw	r2,52(r2)
 5093cc4:	e0bff515 	stw	r2,-44(fp)

      if (in < out)
 5093cc8:	e0fff917 	ldw	r3,-28(fp)
 5093ccc:	e0bff517 	ldw	r2,-44(fp)
 5093cd0:	1880062e 	bgeu	r3,r2,5093cec <altera_avalon_jtag_uart_write+0x6c>
        n = out - 1 - in;
 5093cd4:	e0fff517 	ldw	r3,-44(fp)
 5093cd8:	e0bff917 	ldw	r2,-28(fp)
 5093cdc:	1885c83a 	sub	r2,r3,r2
 5093ce0:	10bfffc4 	addi	r2,r2,-1
 5093ce4:	e0bff615 	stw	r2,-40(fp)
 5093ce8:	00000b06 	br	5093d18 <altera_avalon_jtag_uart_write+0x98>
      else if (out > 0)
 5093cec:	e0bff517 	ldw	r2,-44(fp)
 5093cf0:	10000526 	beq	r2,zero,5093d08 <altera_avalon_jtag_uart_write+0x88>
        n = ALTERA_AVALON_JTAG_UART_BUF_LEN - in;
 5093cf4:	00c20004 	movi	r3,2048
 5093cf8:	e0bff917 	ldw	r2,-28(fp)
 5093cfc:	1885c83a 	sub	r2,r3,r2
 5093d00:	e0bff615 	stw	r2,-40(fp)
 5093d04:	00000406 	br	5093d18 <altera_avalon_jtag_uart_write+0x98>
      else
        n = ALTERA_AVALON_JTAG_UART_BUF_LEN - 1 - in;
 5093d08:	00c1ffc4 	movi	r3,2047
 5093d0c:	e0bff917 	ldw	r2,-28(fp)
 5093d10:	1885c83a 	sub	r2,r3,r2
 5093d14:	e0bff615 	stw	r2,-40(fp)

      if (n == 0)
 5093d18:	e0bff617 	ldw	r2,-40(fp)
 5093d1c:	10001e26 	beq	r2,zero,5093d98 <altera_avalon_jtag_uart_write+0x118>
        break;

      if (n > count)
 5093d20:	e0fffe17 	ldw	r3,-8(fp)
 5093d24:	e0bff617 	ldw	r2,-40(fp)
 5093d28:	1880022e 	bgeu	r3,r2,5093d34 <altera_avalon_jtag_uart_write+0xb4>
        n = count;
 5093d2c:	e0bffe17 	ldw	r2,-8(fp)
 5093d30:	e0bff615 	stw	r2,-40(fp)

      memcpy(sp->tx_buf + in, ptr, n);
 5093d34:	e0bffc17 	ldw	r2,-16(fp)
 5093d38:	10c20e04 	addi	r3,r2,2104
 5093d3c:	e0bff917 	ldw	r2,-28(fp)
 5093d40:	1885883a 	add	r2,r3,r2
 5093d44:	e1bff617 	ldw	r6,-40(fp)
 5093d48:	e17ffd17 	ldw	r5,-12(fp)
 5093d4c:	1009883a 	mov	r4,r2
 5093d50:	508a7cc0 	call	508a7cc <memcpy>
      ptr   += n;
 5093d54:	e0fffd17 	ldw	r3,-12(fp)
 5093d58:	e0bff617 	ldw	r2,-40(fp)
 5093d5c:	1885883a 	add	r2,r3,r2
 5093d60:	e0bffd15 	stw	r2,-12(fp)
      count -= n;
 5093d64:	e0fffe17 	ldw	r3,-8(fp)
 5093d68:	e0bff617 	ldw	r2,-40(fp)
 5093d6c:	1885c83a 	sub	r2,r3,r2
 5093d70:	e0bffe15 	stw	r2,-8(fp)

      sp->tx_in = (in + n) % ALTERA_AVALON_JTAG_UART_BUF_LEN;
 5093d74:	e0fff917 	ldw	r3,-28(fp)
 5093d78:	e0bff617 	ldw	r2,-40(fp)
 5093d7c:	1885883a 	add	r2,r3,r2
 5093d80:	10c1ffcc 	andi	r3,r2,2047
 5093d84:	e0bffc17 	ldw	r2,-16(fp)
 5093d88:	10c00c15 	stw	r3,48(r2)
  ALT_SEM_PEND (sp->write_lock, 0);

  do
  {
    /* Copy as much as we can into the transmit buffer */
    while (count > 0)
 5093d8c:	e0bffe17 	ldw	r2,-8(fp)
 5093d90:	00bfc716 	blt	zero,r2,5093cb0 <__alt_data_end+0xfffc5ab0>
 5093d94:	00000106 	br	5093d9c <altera_avalon_jtag_uart_write+0x11c>
        n = ALTERA_AVALON_JTAG_UART_BUF_LEN - in;
      else
        n = ALTERA_AVALON_JTAG_UART_BUF_LEN - 1 - in;

      if (n == 0)
        break;
 5093d98:	0001883a 	nop
static ALT_INLINE alt_irq_context ALT_ALWAYS_INLINE 
       alt_irq_disable_all (void)
{
  alt_irq_context context;

  NIOS2_READ_STATUS (context);
 5093d9c:	0005303a 	rdctl	r2,status
 5093da0:	e0bffb15 	stw	r2,-20(fp)

  NIOS2_WRITE_STATUS (context & ~NIOS2_STATUS_PIE_MSK);
 5093da4:	e0fffb17 	ldw	r3,-20(fp)
 5093da8:	00bfff84 	movi	r2,-2
 5093dac:	1884703a 	and	r2,r3,r2
 5093db0:	1001703a 	wrctl	status,r2
  
  return context;
 5093db4:	e0bffb17 	ldw	r2,-20(fp)
     * to enable interrupts if there is no space left in the FIFO
     *
     * For now kick the interrupt routine every time to make it transmit 
     * the data 
     */
    context = alt_irq_disable_all();
 5093db8:	e0bffa15 	stw	r2,-24(fp)
    sp->irq_enable |= ALTERA_AVALON_JTAG_UART_CONTROL_WE_MSK;
 5093dbc:	e0bffc17 	ldw	r2,-16(fp)
 5093dc0:	10800817 	ldw	r2,32(r2)
 5093dc4:	10c00094 	ori	r3,r2,2
 5093dc8:	e0bffc17 	ldw	r2,-16(fp)
 5093dcc:	10c00815 	stw	r3,32(r2)
    IOWR_ALTERA_AVALON_JTAG_UART_CONTROL(sp->base, sp->irq_enable);
 5093dd0:	e0bffc17 	ldw	r2,-16(fp)
 5093dd4:	10800017 	ldw	r2,0(r2)
 5093dd8:	10800104 	addi	r2,r2,4
 5093ddc:	1007883a 	mov	r3,r2
 5093de0:	e0bffc17 	ldw	r2,-16(fp)
 5093de4:	10800817 	ldw	r2,32(r2)
 5093de8:	18800035 	stwio	r2,0(r3)
 5093dec:	e0bffa17 	ldw	r2,-24(fp)
 5093df0:	e0bff815 	stw	r2,-32(fp)
  status &= ~NIOS2_STATUS_PIE_MSK;
  status |= (context & NIOS2_STATUS_PIE_MSK);
  
  NIOS2_WRITE_STATUS (status);
#else
  NIOS2_WRITE_STATUS (context);
 5093df4:	e0bff817 	ldw	r2,-32(fp)
 5093df8:	1001703a 	wrctl	status,r2
    /* 
     * If there is any data left then either return now or block until 
     * some has been sent 
     */
    /* consider: test whether there is anything there while doing this and delay for at most 2s. */
    if (count > 0)
 5093dfc:	e0bffe17 	ldw	r2,-8(fp)
 5093e00:	0080100e 	bge	zero,r2,5093e44 <altera_avalon_jtag_uart_write+0x1c4>
    {
      if (flags & O_NONBLOCK)
 5093e04:	e0bfff17 	ldw	r2,-4(fp)
 5093e08:	1090000c 	andi	r2,r2,16384
 5093e0c:	1000101e 	bne	r2,zero,5093e50 <altera_avalon_jtag_uart_write+0x1d0>
      /*
       * No OS present: Always wait for data to be removed from buffer.  Once
       * the interrupt routine has removed some data then we will be able to
       * insert some more.
       */
      while (out == sp->tx_out && sp->host_inactive < sp->timeout)
 5093e10:	0001883a 	nop
 5093e14:	e0bffc17 	ldw	r2,-16(fp)
 5093e18:	10c00d17 	ldw	r3,52(r2)
 5093e1c:	e0bff517 	ldw	r2,-44(fp)
 5093e20:	1880051e 	bne	r3,r2,5093e38 <altera_avalon_jtag_uart_write+0x1b8>
 5093e24:	e0bffc17 	ldw	r2,-16(fp)
 5093e28:	10c00917 	ldw	r3,36(r2)
 5093e2c:	e0bffc17 	ldw	r2,-16(fp)
 5093e30:	10800117 	ldw	r2,4(r2)
 5093e34:	18bff736 	bltu	r3,r2,5093e14 <__alt_data_end+0xfffc5c14>
        ;
#endif /* __ucosii__ */

      if  (sp->host_inactive)
 5093e38:	e0bffc17 	ldw	r2,-16(fp)
 5093e3c:	10800917 	ldw	r2,36(r2)
 5093e40:	1000051e 	bne	r2,zero,5093e58 <altera_avalon_jtag_uart_write+0x1d8>
         break;
    }
  }
  while (count > 0);
 5093e44:	e0bffe17 	ldw	r2,-8(fp)
 5093e48:	00bfd016 	blt	zero,r2,5093d8c <__alt_data_end+0xfffc5b8c>
 5093e4c:	00000306 	br	5093e5c <altera_avalon_jtag_uart_write+0x1dc>
     */
    /* consider: test whether there is anything there while doing this and delay for at most 2s. */
    if (count > 0)
    {
      if (flags & O_NONBLOCK)
        break;
 5093e50:	0001883a 	nop
 5093e54:	00000106 	br	5093e5c <altera_avalon_jtag_uart_write+0x1dc>
      while (out == sp->tx_out && sp->host_inactive < sp->timeout)
        ;
#endif /* __ucosii__ */

      if  (sp->host_inactive)
         break;
 5093e58:	0001883a 	nop
   * Now that access to the circular buffer is complete, release the write
   * semaphore so that other threads can access the buffer.
   */
  ALT_SEM_POST (sp->write_lock);

  if (ptr != start)
 5093e5c:	e0fffd17 	ldw	r3,-12(fp)
 5093e60:	e0bff717 	ldw	r2,-36(fp)
 5093e64:	18800426 	beq	r3,r2,5093e78 <altera_avalon_jtag_uart_write+0x1f8>
    return ptr - start;
 5093e68:	e0fffd17 	ldw	r3,-12(fp)
 5093e6c:	e0bff717 	ldw	r2,-36(fp)
 5093e70:	1885c83a 	sub	r2,r3,r2
 5093e74:	00000606 	br	5093e90 <altera_avalon_jtag_uart_write+0x210>
  else if (flags & O_NONBLOCK)
 5093e78:	e0bfff17 	ldw	r2,-4(fp)
 5093e7c:	1090000c 	andi	r2,r2,16384
 5093e80:	10000226 	beq	r2,zero,5093e8c <altera_avalon_jtag_uart_write+0x20c>
    return -EWOULDBLOCK;
 5093e84:	00bffd44 	movi	r2,-11
 5093e88:	00000106 	br	5093e90 <altera_avalon_jtag_uart_write+0x210>
    sp->tx_out = sp->tx_in = 0;
    return ptr - start + count;
  }
#endif
  else
    return -EIO; /* Host not connected */
 5093e8c:	00bffec4 	movi	r2,-5
}
 5093e90:	e037883a 	mov	sp,fp
 5093e94:	dfc00117 	ldw	ra,4(sp)
 5093e98:	df000017 	ldw	fp,0(sp)
 5093e9c:	dec00204 	addi	sp,sp,8
 5093ea0:	f800283a 	ret

05093ea4 <alt_avalon_timer_sc_irq>:
#ifdef ALT_ENHANCED_INTERRUPT_API_PRESENT
static void alt_avalon_timer_sc_irq (void* base)
#else
static void alt_avalon_timer_sc_irq (void* base, alt_u32 id)
#endif
{
 5093ea4:	defffa04 	addi	sp,sp,-24
 5093ea8:	dfc00515 	stw	ra,20(sp)
 5093eac:	df000415 	stw	fp,16(sp)
 5093eb0:	df000404 	addi	fp,sp,16
 5093eb4:	e13fff15 	stw	r4,-4(fp)
  alt_irq_context cpu_sr;
  
  /* clear the interrupt */
  IOWR_ALTERA_AVALON_TIMER_STATUS (base, 0);
 5093eb8:	0007883a 	mov	r3,zero
 5093ebc:	e0bfff17 	ldw	r2,-4(fp)
 5093ec0:	10c00035 	stwio	r3,0(r2)
  /* 
   * Dummy read to ensure IRQ is negated before the ISR returns.
   * The control register is read because reading the status
   * register has side-effects per the register map documentation.
   */
  IORD_ALTERA_AVALON_TIMER_CONTROL (base);
 5093ec4:	e0bfff17 	ldw	r2,-4(fp)
 5093ec8:	10800104 	addi	r2,r2,4
 5093ecc:	10800037 	ldwio	r2,0(r2)
static ALT_INLINE alt_irq_context ALT_ALWAYS_INLINE 
       alt_irq_disable_all (void)
{
  alt_irq_context context;

  NIOS2_READ_STATUS (context);
 5093ed0:	0005303a 	rdctl	r2,status
 5093ed4:	e0bffd15 	stw	r2,-12(fp)

  NIOS2_WRITE_STATUS (context & ~NIOS2_STATUS_PIE_MSK);
 5093ed8:	e0fffd17 	ldw	r3,-12(fp)
 5093edc:	00bfff84 	movi	r2,-2
 5093ee0:	1884703a 	and	r2,r3,r2
 5093ee4:	1001703a 	wrctl	status,r2
  
  return context;
 5093ee8:	e0bffd17 	ldw	r2,-12(fp)

  /* 
   * Notify the system of a clock tick. disable interrupts 
   * during this time to safely support ISR preemption
   */
  cpu_sr = alt_irq_disable_all();
 5093eec:	e0bffc15 	stw	r2,-16(fp)
  alt_tick ();
 5093ef0:	5094b080 	call	5094b08 <alt_tick>
 5093ef4:	e0bffc17 	ldw	r2,-16(fp)
 5093ef8:	e0bffe15 	stw	r2,-8(fp)
  status &= ~NIOS2_STATUS_PIE_MSK;
  status |= (context & NIOS2_STATUS_PIE_MSK);
  
  NIOS2_WRITE_STATUS (status);
#else
  NIOS2_WRITE_STATUS (context);
 5093efc:	e0bffe17 	ldw	r2,-8(fp)
 5093f00:	1001703a 	wrctl	status,r2
  alt_irq_enable_all(cpu_sr);
}
 5093f04:	0001883a 	nop
 5093f08:	e037883a 	mov	sp,fp
 5093f0c:	dfc00117 	ldw	ra,4(sp)
 5093f10:	df000017 	ldw	fp,0(sp)
 5093f14:	dec00204 	addi	sp,sp,8
 5093f18:	f800283a 	ret

05093f1c <alt_avalon_timer_sc_init>:
 * auto-generated alt_sys_init() function.
 */

void alt_avalon_timer_sc_init (void* base, alt_u32 irq_controller_id, 
                                alt_u32 irq, alt_u32 freq)
{
 5093f1c:	defff804 	addi	sp,sp,-32
 5093f20:	dfc00715 	stw	ra,28(sp)
 5093f24:	df000615 	stw	fp,24(sp)
 5093f28:	df000604 	addi	fp,sp,24
 5093f2c:	e13ffc15 	stw	r4,-16(fp)
 5093f30:	e17ffd15 	stw	r5,-12(fp)
 5093f34:	e1bffe15 	stw	r6,-8(fp)
 5093f38:	e1ffff15 	stw	r7,-4(fp)
 5093f3c:	e0bfff17 	ldw	r2,-4(fp)
 5093f40:	e0bffb15 	stw	r2,-20(fp)
 * in order to initialise the value of the clock frequency.
 */

static ALT_INLINE int ALT_ALWAYS_INLINE alt_sysclk_init (alt_u32 nticks)
{
  if (! _alt_tick_rate)
 5093f44:	d0a6dd17 	ldw	r2,-25740(gp)
 5093f48:	1000021e 	bne	r2,zero,5093f54 <alt_avalon_timer_sc_init+0x38>
  {
    _alt_tick_rate = nticks;
 5093f4c:	e0bffb17 	ldw	r2,-20(fp)
 5093f50:	d0a6dd15 	stw	r2,-25740(gp)
  
  alt_sysclk_init (freq);
  
  /* set to free running mode */
  
  IOWR_ALTERA_AVALON_TIMER_CONTROL (base, 
 5093f54:	e0bffc17 	ldw	r2,-16(fp)
 5093f58:	10800104 	addi	r2,r2,4
 5093f5c:	00c001c4 	movi	r3,7
 5093f60:	10c00035 	stwio	r3,0(r2)
            ALTERA_AVALON_TIMER_CONTROL_CONT_MSK |
            ALTERA_AVALON_TIMER_CONTROL_START_MSK);

  /* register the interrupt handler, and enable the interrupt */
#ifdef ALT_ENHANCED_INTERRUPT_API_PRESENT
  alt_ic_isr_register(irq_controller_id, irq, alt_avalon_timer_sc_irq, 
 5093f64:	d8000015 	stw	zero,0(sp)
 5093f68:	e1fffc17 	ldw	r7,-16(fp)
 5093f6c:	01814274 	movhi	r6,1289
 5093f70:	318fa904 	addi	r6,r6,16036
 5093f74:	e17ffe17 	ldw	r5,-8(fp)
 5093f78:	e13ffd17 	ldw	r4,-12(fp)
 5093f7c:	50944380 	call	5094438 <alt_ic_isr_register>
                      base, NULL);
#else
  alt_irq_register (irq, base, alt_avalon_timer_sc_irq);
#endif  
}
 5093f80:	0001883a 	nop
 5093f84:	e037883a 	mov	sp,fp
 5093f88:	dfc00117 	ldw	ra,4(sp)
 5093f8c:	df000017 	ldw	fp,0(sp)
 5093f90:	dec00204 	addi	sp,sp,8
 5093f94:	f800283a 	ret

05093f98 <alt_alarm_start>:
 */ 

int alt_alarm_start (alt_alarm* alarm, alt_u32 nticks,
                     alt_u32 (*callback) (void* context),
                     void* context)
{
 5093f98:	defff504 	addi	sp,sp,-44
 5093f9c:	df000a15 	stw	fp,40(sp)
 5093fa0:	df000a04 	addi	fp,sp,40
 5093fa4:	e13ffc15 	stw	r4,-16(fp)
 5093fa8:	e17ffd15 	stw	r5,-12(fp)
 5093fac:	e1bffe15 	stw	r6,-8(fp)
 5093fb0:	e1ffff15 	stw	r7,-4(fp)
  alt_irq_context irq_context;
  alt_u32 current_nticks = 0;
 5093fb4:	e03ff615 	stw	zero,-40(fp)
 * Obtain the system clock rate in ticks/s. 
 */

static ALT_INLINE alt_u32 ALT_ALWAYS_INLINE alt_ticks_per_second (void)
{
  return _alt_tick_rate;
 5093fb8:	d0a6dd17 	ldw	r2,-25740(gp)
  
  if (alt_ticks_per_second ())
 5093fbc:	10003c26 	beq	r2,zero,50940b0 <alt_alarm_start+0x118>
  {
    if (alarm)
 5093fc0:	e0bffc17 	ldw	r2,-16(fp)
 5093fc4:	10003826 	beq	r2,zero,50940a8 <alt_alarm_start+0x110>
    {
      alarm->callback = callback;
 5093fc8:	e0bffc17 	ldw	r2,-16(fp)
 5093fcc:	e0fffe17 	ldw	r3,-8(fp)
 5093fd0:	10c00315 	stw	r3,12(r2)
      alarm->context  = context;
 5093fd4:	e0bffc17 	ldw	r2,-16(fp)
 5093fd8:	e0ffff17 	ldw	r3,-4(fp)
 5093fdc:	10c00515 	stw	r3,20(r2)
static ALT_INLINE alt_irq_context ALT_ALWAYS_INLINE 
       alt_irq_disable_all (void)
{
  alt_irq_context context;

  NIOS2_READ_STATUS (context);
 5093fe0:	0005303a 	rdctl	r2,status
 5093fe4:	e0bff915 	stw	r2,-28(fp)

  NIOS2_WRITE_STATUS (context & ~NIOS2_STATUS_PIE_MSK);
 5093fe8:	e0fff917 	ldw	r3,-28(fp)
 5093fec:	00bfff84 	movi	r2,-2
 5093ff0:	1884703a 	and	r2,r3,r2
 5093ff4:	1001703a 	wrctl	status,r2
  
  return context;
 5093ff8:	e0bff917 	ldw	r2,-28(fp)
 
      irq_context = alt_irq_disable_all ();
 5093ffc:	e0bff815 	stw	r2,-32(fp)
 * alt_nticks() returns the elapsed number of system clock ticks since reset.
 */

static ALT_INLINE alt_u32 ALT_ALWAYS_INLINE alt_nticks (void)
{
  return _alt_nticks;
 5094000:	d0a6de17 	ldw	r2,-25736(gp)
      
      current_nticks = alt_nticks();
 5094004:	e0bff615 	stw	r2,-40(fp)
      
      alarm->time = nticks + current_nticks + 1; 
 5094008:	e0fffd17 	ldw	r3,-12(fp)
 509400c:	e0bff617 	ldw	r2,-40(fp)
 5094010:	1885883a 	add	r2,r3,r2
 5094014:	10c00044 	addi	r3,r2,1
 5094018:	e0bffc17 	ldw	r2,-16(fp)
 509401c:	10c00215 	stw	r3,8(r2)
      /* 
       * If the desired alarm time causes a roll-over, set the rollover
       * flag. This will prevent the subsequent tick event from causing
       * an alarm too early.
       */
      if(alarm->time < current_nticks)
 5094020:	e0bffc17 	ldw	r2,-16(fp)
 5094024:	10c00217 	ldw	r3,8(r2)
 5094028:	e0bff617 	ldw	r2,-40(fp)
 509402c:	1880042e 	bgeu	r3,r2,5094040 <alt_alarm_start+0xa8>
      {
        alarm->rollover = 1;
 5094030:	e0bffc17 	ldw	r2,-16(fp)
 5094034:	00c00044 	movi	r3,1
 5094038:	10c00405 	stb	r3,16(r2)
 509403c:	00000206 	br	5094048 <alt_alarm_start+0xb0>
      }
      else
      {
        alarm->rollover = 0;
 5094040:	e0bffc17 	ldw	r2,-16(fp)
 5094044:	10000405 	stb	zero,16(r2)
      }
    
      alt_llist_insert (&alt_alarm_list, &alarm->llist);
 5094048:	e0bffc17 	ldw	r2,-16(fp)
 509404c:	d0e00e04 	addi	r3,gp,-32712
 5094050:	e0fffa15 	stw	r3,-24(fp)
 5094054:	e0bffb15 	stw	r2,-20(fp)
 */

static ALT_INLINE void ALT_ALWAYS_INLINE alt_llist_insert(alt_llist* list, 
                alt_llist* entry)
{
  entry->previous = list;
 5094058:	e0bffb17 	ldw	r2,-20(fp)
 509405c:	e0fffa17 	ldw	r3,-24(fp)
 5094060:	10c00115 	stw	r3,4(r2)
  entry->next     = list->next;
 5094064:	e0bffa17 	ldw	r2,-24(fp)
 5094068:	10c00017 	ldw	r3,0(r2)
 509406c:	e0bffb17 	ldw	r2,-20(fp)
 5094070:	10c00015 	stw	r3,0(r2)

  list->next->previous = entry;
 5094074:	e0bffa17 	ldw	r2,-24(fp)
 5094078:	10800017 	ldw	r2,0(r2)
 509407c:	e0fffb17 	ldw	r3,-20(fp)
 5094080:	10c00115 	stw	r3,4(r2)
  list->next           = entry;
 5094084:	e0bffa17 	ldw	r2,-24(fp)
 5094088:	e0fffb17 	ldw	r3,-20(fp)
 509408c:	10c00015 	stw	r3,0(r2)
 5094090:	e0bff817 	ldw	r2,-32(fp)
 5094094:	e0bff715 	stw	r2,-36(fp)
  status &= ~NIOS2_STATUS_PIE_MSK;
  status |= (context & NIOS2_STATUS_PIE_MSK);
  
  NIOS2_WRITE_STATUS (status);
#else
  NIOS2_WRITE_STATUS (context);
 5094098:	e0bff717 	ldw	r2,-36(fp)
 509409c:	1001703a 	wrctl	status,r2
      alt_irq_enable_all (irq_context);

      return 0;
 50940a0:	0005883a 	mov	r2,zero
 50940a4:	00000306 	br	50940b4 <alt_alarm_start+0x11c>
    }
    else
    {
      return -EINVAL;
 50940a8:	00bffa84 	movi	r2,-22
 50940ac:	00000106 	br	50940b4 <alt_alarm_start+0x11c>
    }
  }
  else
  {
    return -ENOTSUP;
 50940b0:	00bfde84 	movi	r2,-134
  }
}
 50940b4:	e037883a 	mov	sp,fp
 50940b8:	df000017 	ldw	fp,0(sp)
 50940bc:	dec00104 	addi	sp,sp,4
 50940c0:	f800283a 	ret

050940c4 <alt_busy_sleep>:
#include "alt_types.h"

#include "priv/alt_busy_sleep.h"

unsigned int alt_busy_sleep (unsigned int us)
{
 50940c4:	defffa04 	addi	sp,sp,-24
 50940c8:	dfc00515 	stw	ra,20(sp)
 50940cc:	df000415 	stw	fp,16(sp)
 50940d0:	df000404 	addi	fp,sp,16
 50940d4:	e13fff15 	stw	r4,-4(fp)
  {
    cycles_per_loop = 9;
  }
  else  
  {
    cycles_per_loop = 3;
 50940d8:	008000c4 	movi	r2,3
 50940dc:	e0bffd15 	stw	r2,-12(fp)
  }
  

  big_loops = us / (INT_MAX/
  (ALT_CPU_FREQ/(cycles_per_loop * 1000000)));
 50940e0:	e0fffd17 	ldw	r3,-12(fp)
 50940e4:	008003f4 	movhi	r2,15
 50940e8:	10909004 	addi	r2,r2,16960
 50940ec:	1885383a 	mul	r2,r3,r2
 50940f0:	100b883a 	mov	r5,r2
 50940f4:	01017db4 	movhi	r4,1526
 50940f8:	21384004 	addi	r4,r4,-7936
 50940fc:	50828840 	call	5082884 <__udivsi3>
  {
    cycles_per_loop = 3;
  }
  

  big_loops = us / (INT_MAX/
 5094100:	100b883a 	mov	r5,r2
 5094104:	01200034 	movhi	r4,32768
 5094108:	213fffc4 	addi	r4,r4,-1
 509410c:	50828840 	call	5082884 <__udivsi3>
 5094110:	100b883a 	mov	r5,r2
 5094114:	e13fff17 	ldw	r4,-4(fp)
 5094118:	50828840 	call	5082884 <__udivsi3>
 509411c:	e0bffe15 	stw	r2,-8(fp)
  (ALT_CPU_FREQ/(cycles_per_loop * 1000000)));

  if (big_loops)
 5094120:	e0bffe17 	ldw	r2,-8(fp)
 5094124:	10002a26 	beq	r2,zero,50941d0 <alt_busy_sleep+0x10c>
  {
    for(i=0;i<big_loops;i++)
 5094128:	e03ffc15 	stw	zero,-16(fp)
 509412c:	00001706 	br	509418c <alt_busy_sleep+0xc8>
      /*
      * Do NOT Try to single step the asm statement below 
      * (single step will never return)
      * Step out of this function or set a breakpoint after the asm statements
      */
      __asm__ volatile (
 5094130:	00a00034 	movhi	r2,32768
 5094134:	10bfffc4 	addi	r2,r2,-1
 5094138:	10bfffc4 	addi	r2,r2,-1
 509413c:	103ffe1e 	bne	r2,zero,5094138 <__alt_data_end+0xfffc5f38>
        "\n\t.pushsection .debug_alt_sim_info"
        "\n\t.int 4, 0, 0b, 1b"
        "\n\t.popsection"
        :: "r" (INT_MAX));
      us -= (INT_MAX/(ALT_CPU_FREQ/
      (cycles_per_loop * 1000000)));
 5094140:	e0fffd17 	ldw	r3,-12(fp)
 5094144:	008003f4 	movhi	r2,15
 5094148:	10909004 	addi	r2,r2,16960
 509414c:	1885383a 	mul	r2,r3,r2
        "\n1:"
        "\n\t.pushsection .debug_alt_sim_info"
        "\n\t.int 4, 0, 0b, 1b"
        "\n\t.popsection"
        :: "r" (INT_MAX));
      us -= (INT_MAX/(ALT_CPU_FREQ/
 5094150:	100b883a 	mov	r5,r2
 5094154:	01017db4 	movhi	r4,1526
 5094158:	21384004 	addi	r4,r4,-7936
 509415c:	50828840 	call	5082884 <__udivsi3>
 5094160:	100b883a 	mov	r5,r2
 5094164:	01200034 	movhi	r4,32768
 5094168:	213fffc4 	addi	r4,r4,-1
 509416c:	50828840 	call	5082884 <__udivsi3>
 5094170:	1007883a 	mov	r3,r2
 5094174:	e0bfff17 	ldw	r2,-4(fp)
 5094178:	10c5c83a 	sub	r2,r2,r3
 509417c:	e0bfff15 	stw	r2,-4(fp)
  big_loops = us / (INT_MAX/
  (ALT_CPU_FREQ/(cycles_per_loop * 1000000)));

  if (big_loops)
  {
    for(i=0;i<big_loops;i++)
 5094180:	e0bffc17 	ldw	r2,-16(fp)
 5094184:	10800044 	addi	r2,r2,1
 5094188:	e0bffc15 	stw	r2,-16(fp)
 509418c:	e0fffc17 	ldw	r3,-16(fp)
 5094190:	e0bffe17 	ldw	r2,-8(fp)
 5094194:	18bfe616 	blt	r3,r2,5094130 <__alt_data_end+0xfffc5f30>
      "\n\tbne %0,zero,0b"
      "\n1:"
      "\n\t.pushsection .debug_alt_sim_info"
      "\n\t.int 4, 0, 0b, 1b"
      "\n\t.popsection"
      :: "r" (us*(ALT_CPU_FREQ/(cycles_per_loop * 1000000))));
 5094198:	e0fffd17 	ldw	r3,-12(fp)
 509419c:	008003f4 	movhi	r2,15
 50941a0:	10909004 	addi	r2,r2,16960
 50941a4:	1885383a 	mul	r2,r3,r2
 50941a8:	100b883a 	mov	r5,r2
 50941ac:	01017db4 	movhi	r4,1526
 50941b0:	21384004 	addi	r4,r4,-7936
 50941b4:	50828840 	call	5082884 <__udivsi3>
 50941b8:	1007883a 	mov	r3,r2
 50941bc:	e0bfff17 	ldw	r2,-4(fp)
 50941c0:	1885383a 	mul	r2,r3,r2
    /*
    * Do NOT Try to single step the asm statement below 
    * (single step will never return)
    * Step out of this function or set a breakpoint after the asm statements
    */
    __asm__ volatile (
 50941c4:	10bfffc4 	addi	r2,r2,-1
 50941c8:	103ffe1e 	bne	r2,zero,50941c4 <__alt_data_end+0xfffc5fc4>
 50941cc:	00000d06 	br	5094204 <alt_busy_sleep+0x140>
      "\n\tbgt %0,zero,0b"
      "\n1:"
      "\n\t.pushsection .debug_alt_sim_info"
      "\n\t.int 4, 0, 0b, 1b"
      "\n\t.popsection"
      :: "r" (us*(ALT_CPU_FREQ/(cycles_per_loop * 1000000))));
 50941d0:	e0fffd17 	ldw	r3,-12(fp)
 50941d4:	008003f4 	movhi	r2,15
 50941d8:	10909004 	addi	r2,r2,16960
 50941dc:	1885383a 	mul	r2,r3,r2
 50941e0:	100b883a 	mov	r5,r2
 50941e4:	01017db4 	movhi	r4,1526
 50941e8:	21384004 	addi	r4,r4,-7936
 50941ec:	50828840 	call	5082884 <__udivsi3>
 50941f0:	1007883a 	mov	r3,r2
 50941f4:	e0bfff17 	ldw	r2,-4(fp)
 50941f8:	1885383a 	mul	r2,r3,r2
    /*
    * Do NOT Try to single step the asm statement below 
    * (single step will never return)
    * Step out of this function or set a breakpoint after the asm statements
    */
    __asm__ volatile (
 50941fc:	10bfffc4 	addi	r2,r2,-1
 5094200:	00bffe16 	blt	zero,r2,50941fc <__alt_data_end+0xfffc5ffc>
      "\n\t.int 4, 0, 0b, 1b"
      "\n\t.popsection"
      :: "r" (us*(ALT_CPU_FREQ/(cycles_per_loop * 1000000))));
  }
#endif /* #ifndef ALT_SIM_OPTIMIZE */
  return 0;
 5094204:	0005883a 	mov	r2,zero
}
 5094208:	e037883a 	mov	sp,fp
 509420c:	dfc00117 	ldw	ra,4(sp)
 5094210:	df000017 	ldw	fp,0(sp)
 5094214:	dec00204 	addi	sp,sp,8
 5094218:	f800283a 	ret

0509421c <alt_dcache_flush_all>:
/*
 * alt_dcache_flush_all() is called to flush the entire data cache.
 */

void alt_dcache_flush_all (void)
{
 509421c:	defffe04 	addi	sp,sp,-8
 5094220:	df000115 	stw	fp,4(sp)
 5094224:	df000104 	addi	fp,sp,4
#if NIOS2_DCACHE_SIZE > 0
  char* i;
  
  for (i = (char*) 0; i < (char*) NIOS2_DCACHE_SIZE; i+= NIOS2_DCACHE_LINE_SIZE)
 5094228:	e03fff15 	stw	zero,-4(fp)
 509422c:	00000506 	br	5094244 <alt_dcache_flush_all+0x28>
  { 
    __asm__ volatile ("flushd (%0)" :: "r" (i));
 5094230:	e0bfff17 	ldw	r2,-4(fp)
 5094234:	1000003b 	flushd	0(r2)
void alt_dcache_flush_all (void)
{
#if NIOS2_DCACHE_SIZE > 0
  char* i;
  
  for (i = (char*) 0; i < (char*) NIOS2_DCACHE_SIZE; i+= NIOS2_DCACHE_LINE_SIZE)
 5094238:	e0bfff17 	ldw	r2,-4(fp)
 509423c:	10800804 	addi	r2,r2,32
 5094240:	e0bfff15 	stw	r2,-4(fp)
 5094244:	e0bfff17 	ldw	r2,-4(fp)
 5094248:	10820030 	cmpltui	r2,r2,2048
 509424c:	103ff81e 	bne	r2,zero,5094230 <__alt_data_end+0xfffc6030>
  { 
    __asm__ volatile ("flushd (%0)" :: "r" (i));
  }
#endif /* NIOS2_DCACHE_SIZE > 0 */
}
 5094250:	0001883a 	nop
 5094254:	e037883a 	mov	sp,fp
 5094258:	df000017 	ldw	fp,0(sp)
 509425c:	dec00104 	addi	sp,sp,4
 5094260:	f800283a 	ret

05094264 <alt_get_errno>:
#undef errno

extern int errno;

static ALT_INLINE int* alt_get_errno(void)
{
 5094264:	defffe04 	addi	sp,sp,-8
 5094268:	dfc00115 	stw	ra,4(sp)
 509426c:	df000015 	stw	fp,0(sp)
 5094270:	d839883a 	mov	fp,sp
  return ((alt_errno) ? alt_errno() : &errno);
 5094274:	d0a00b17 	ldw	r2,-32724(gp)
 5094278:	10000326 	beq	r2,zero,5094288 <alt_get_errno+0x24>
 509427c:	d0a00b17 	ldw	r2,-32724(gp)
 5094280:	103ee83a 	callr	r2
 5094284:	00000106 	br	509428c <alt_get_errno+0x28>
 5094288:	d0a6d804 	addi	r2,gp,-25760
}
 509428c:	e037883a 	mov	sp,fp
 5094290:	dfc00117 	ldw	ra,4(sp)
 5094294:	df000017 	ldw	fp,0(sp)
 5094298:	dec00204 	addi	sp,sp,8
 509429c:	f800283a 	ret

050942a0 <alt_dev_llist_insert>:
/*
 *
 */

int alt_dev_llist_insert (alt_dev_llist* dev, alt_llist* list)
{
 50942a0:	defffa04 	addi	sp,sp,-24
 50942a4:	dfc00515 	stw	ra,20(sp)
 50942a8:	df000415 	stw	fp,16(sp)
 50942ac:	df000404 	addi	fp,sp,16
 50942b0:	e13ffe15 	stw	r4,-8(fp)
 50942b4:	e17fff15 	stw	r5,-4(fp)
  /*
   * check that the device exists, and that it has a valid name.
   */

  if (!dev || !dev->name)
 50942b8:	e0bffe17 	ldw	r2,-8(fp)
 50942bc:	10000326 	beq	r2,zero,50942cc <alt_dev_llist_insert+0x2c>
 50942c0:	e0bffe17 	ldw	r2,-8(fp)
 50942c4:	10800217 	ldw	r2,8(r2)
 50942c8:	1000061e 	bne	r2,zero,50942e4 <alt_dev_llist_insert+0x44>
  {
    ALT_ERRNO = EINVAL;
 50942cc:	50942640 	call	5094264 <alt_get_errno>
 50942d0:	1007883a 	mov	r3,r2
 50942d4:	00800584 	movi	r2,22
 50942d8:	18800015 	stw	r2,0(r3)
    return -EINVAL;
 50942dc:	00bffa84 	movi	r2,-22
 50942e0:	00001306 	br	5094330 <alt_dev_llist_insert+0x90>
  
  /*
   * register the device.
   */
  
  alt_llist_insert(list, &dev->llist);
 50942e4:	e0bffe17 	ldw	r2,-8(fp)
 50942e8:	e0ffff17 	ldw	r3,-4(fp)
 50942ec:	e0fffc15 	stw	r3,-16(fp)
 50942f0:	e0bffd15 	stw	r2,-12(fp)
 */

static ALT_INLINE void ALT_ALWAYS_INLINE alt_llist_insert(alt_llist* list, 
                alt_llist* entry)
{
  entry->previous = list;
 50942f4:	e0bffd17 	ldw	r2,-12(fp)
 50942f8:	e0fffc17 	ldw	r3,-16(fp)
 50942fc:	10c00115 	stw	r3,4(r2)
  entry->next     = list->next;
 5094300:	e0bffc17 	ldw	r2,-16(fp)
 5094304:	10c00017 	ldw	r3,0(r2)
 5094308:	e0bffd17 	ldw	r2,-12(fp)
 509430c:	10c00015 	stw	r3,0(r2)

  list->next->previous = entry;
 5094310:	e0bffc17 	ldw	r2,-16(fp)
 5094314:	10800017 	ldw	r2,0(r2)
 5094318:	e0fffd17 	ldw	r3,-12(fp)
 509431c:	10c00115 	stw	r3,4(r2)
  list->next           = entry;
 5094320:	e0bffc17 	ldw	r2,-16(fp)
 5094324:	e0fffd17 	ldw	r3,-12(fp)
 5094328:	10c00015 	stw	r3,0(r2)

  return 0;  
 509432c:	0005883a 	mov	r2,zero
}
 5094330:	e037883a 	mov	sp,fp
 5094334:	dfc00117 	ldw	ra,4(sp)
 5094338:	df000017 	ldw	fp,0(sp)
 509433c:	dec00204 	addi	sp,sp,8
 5094340:	f800283a 	ret

05094344 <_do_ctors>:
/*
 * Run the C++ static constructors.
 */

void _do_ctors(void)
{
 5094344:	defffd04 	addi	sp,sp,-12
 5094348:	dfc00215 	stw	ra,8(sp)
 509434c:	df000115 	stw	fp,4(sp)
 5094350:	df000104 	addi	fp,sp,4
  constructor* ctor;

  for (ctor = &__CTOR_END__[-1]; ctor >= __CTOR_LIST__; ctor--)
 5094354:	00814274 	movhi	r2,1289
 5094358:	1094cb04 	addi	r2,r2,21292
 509435c:	e0bfff15 	stw	r2,-4(fp)
 5094360:	00000606 	br	509437c <_do_ctors+0x38>
        (*ctor) (); 
 5094364:	e0bfff17 	ldw	r2,-4(fp)
 5094368:	10800017 	ldw	r2,0(r2)
 509436c:	103ee83a 	callr	r2

void _do_ctors(void)
{
  constructor* ctor;

  for (ctor = &__CTOR_END__[-1]; ctor >= __CTOR_LIST__; ctor--)
 5094370:	e0bfff17 	ldw	r2,-4(fp)
 5094374:	10bfff04 	addi	r2,r2,-4
 5094378:	e0bfff15 	stw	r2,-4(fp)
 509437c:	e0ffff17 	ldw	r3,-4(fp)
 5094380:	00814274 	movhi	r2,1289
 5094384:	1094cc04 	addi	r2,r2,21296
 5094388:	18bff62e 	bgeu	r3,r2,5094364 <__alt_data_end+0xfffc6164>
        (*ctor) (); 
}
 509438c:	0001883a 	nop
 5094390:	e037883a 	mov	sp,fp
 5094394:	dfc00117 	ldw	ra,4(sp)
 5094398:	df000017 	ldw	fp,0(sp)
 509439c:	dec00204 	addi	sp,sp,8
 50943a0:	f800283a 	ret

050943a4 <_do_dtors>:
/*
 * Run the C++ static destructors.
 */

void _do_dtors(void)
{
 50943a4:	defffd04 	addi	sp,sp,-12
 50943a8:	dfc00215 	stw	ra,8(sp)
 50943ac:	df000115 	stw	fp,4(sp)
 50943b0:	df000104 	addi	fp,sp,4
  destructor* dtor;

  for (dtor = &__DTOR_END__[-1]; dtor >= __DTOR_LIST__; dtor--)
 50943b4:	00814274 	movhi	r2,1289
 50943b8:	1094cb04 	addi	r2,r2,21292
 50943bc:	e0bfff15 	stw	r2,-4(fp)
 50943c0:	00000606 	br	50943dc <_do_dtors+0x38>
        (*dtor) (); 
 50943c4:	e0bfff17 	ldw	r2,-4(fp)
 50943c8:	10800017 	ldw	r2,0(r2)
 50943cc:	103ee83a 	callr	r2

void _do_dtors(void)
{
  destructor* dtor;

  for (dtor = &__DTOR_END__[-1]; dtor >= __DTOR_LIST__; dtor--)
 50943d0:	e0bfff17 	ldw	r2,-4(fp)
 50943d4:	10bfff04 	addi	r2,r2,-4
 50943d8:	e0bfff15 	stw	r2,-4(fp)
 50943dc:	e0ffff17 	ldw	r3,-4(fp)
 50943e0:	00814274 	movhi	r2,1289
 50943e4:	1094cc04 	addi	r2,r2,21296
 50943e8:	18bff62e 	bgeu	r3,r2,50943c4 <__alt_data_end+0xfffc61c4>
        (*dtor) (); 
}
 50943ec:	0001883a 	nop
 50943f0:	e037883a 	mov	sp,fp
 50943f4:	dfc00117 	ldw	ra,4(sp)
 50943f8:	df000017 	ldw	fp,0(sp)
 50943fc:	dec00204 	addi	sp,sp,8
 5094400:	f800283a 	ret

05094404 <alt_icache_flush_all>:
/*
 * alt_icache_flush_all() is called to flush the entire instruction cache.
 */

void alt_icache_flush_all (void)
{
 5094404:	defffe04 	addi	sp,sp,-8
 5094408:	dfc00115 	stw	ra,4(sp)
 509440c:	df000015 	stw	fp,0(sp)
 5094410:	d839883a 	mov	fp,sp
#if NIOS2_ICACHE_SIZE > 0
  alt_icache_flush (0, NIOS2_ICACHE_SIZE);
 5094414:	01440004 	movi	r5,4096
 5094418:	0009883a 	mov	r4,zero
 509441c:	5094e700 	call	5094e70 <alt_icache_flush>
#endif
}
 5094420:	0001883a 	nop
 5094424:	e037883a 	mov	sp,fp
 5094428:	dfc00117 	ldw	ra,4(sp)
 509442c:	df000017 	ldw	fp,0(sp)
 5094430:	dec00204 	addi	sp,sp,8
 5094434:	f800283a 	ret

05094438 <alt_ic_isr_register>:
  * @param irq              IRQ number
  * @return                 0 if successful, else error (-1)
  */
int alt_ic_isr_register(alt_u32 ic_id, alt_u32 irq, alt_isr_func isr, 
  void *isr_context, void *flags)
{
 5094438:	defff904 	addi	sp,sp,-28
 509443c:	dfc00615 	stw	ra,24(sp)
 5094440:	df000515 	stw	fp,20(sp)
 5094444:	df000504 	addi	fp,sp,20
 5094448:	e13ffc15 	stw	r4,-16(fp)
 509444c:	e17ffd15 	stw	r5,-12(fp)
 5094450:	e1bffe15 	stw	r6,-8(fp)
 5094454:	e1ffff15 	stw	r7,-4(fp)
    return alt_iic_isr_register(ic_id, irq, isr, isr_context, flags);
 5094458:	e0800217 	ldw	r2,8(fp)
 509445c:	d8800015 	stw	r2,0(sp)
 5094460:	e1ffff17 	ldw	r7,-4(fp)
 5094464:	e1bffe17 	ldw	r6,-8(fp)
 5094468:	e17ffd17 	ldw	r5,-12(fp)
 509446c:	e13ffc17 	ldw	r4,-16(fp)
 5094470:	50945e80 	call	50945e8 <alt_iic_isr_register>
}  
 5094474:	e037883a 	mov	sp,fp
 5094478:	dfc00117 	ldw	ra,4(sp)
 509447c:	df000017 	ldw	fp,0(sp)
 5094480:	dec00204 	addi	sp,sp,8
 5094484:	f800283a 	ret

05094488 <alt_ic_irq_enable>:
  * @param ic_id            Ignored.
  * @param irq              IRQ number
  * @return                 0 if successful, else error (-1)
  */
int alt_ic_irq_enable (alt_u32 ic_id, alt_u32 irq)
{
 5094488:	defff904 	addi	sp,sp,-28
 509448c:	df000615 	stw	fp,24(sp)
 5094490:	df000604 	addi	fp,sp,24
 5094494:	e13ffe15 	stw	r4,-8(fp)
 5094498:	e17fff15 	stw	r5,-4(fp)
 509449c:	e0bfff17 	ldw	r2,-4(fp)
 50944a0:	e0bffa15 	stw	r2,-24(fp)
static ALT_INLINE alt_irq_context ALT_ALWAYS_INLINE 
       alt_irq_disable_all (void)
{
  alt_irq_context context;

  NIOS2_READ_STATUS (context);
 50944a4:	0005303a 	rdctl	r2,status
 50944a8:	e0bffb15 	stw	r2,-20(fp)

  NIOS2_WRITE_STATUS (context & ~NIOS2_STATUS_PIE_MSK);
 50944ac:	e0fffb17 	ldw	r3,-20(fp)
 50944b0:	00bfff84 	movi	r2,-2
 50944b4:	1884703a 	and	r2,r3,r2
 50944b8:	1001703a 	wrctl	status,r2
  
  return context;
 50944bc:	e0bffb17 	ldw	r2,-20(fp)
static ALT_INLINE int ALT_ALWAYS_INLINE alt_irq_enable (alt_u32 id)
{
  alt_irq_context  status;
  extern volatile alt_u32 alt_irq_active;

  status = alt_irq_disable_all ();
 50944c0:	e0bffc15 	stw	r2,-16(fp)

  alt_irq_active |= (1 << id);
 50944c4:	00c00044 	movi	r3,1
 50944c8:	e0bffa17 	ldw	r2,-24(fp)
 50944cc:	1884983a 	sll	r2,r3,r2
 50944d0:	1007883a 	mov	r3,r2
 50944d4:	d0a6d917 	ldw	r2,-25756(gp)
 50944d8:	1884b03a 	or	r2,r3,r2
 50944dc:	d0a6d915 	stw	r2,-25756(gp)
  NIOS2_WRITE_IENABLE (alt_irq_active);
 50944e0:	d0a6d917 	ldw	r2,-25756(gp)
 50944e4:	100170fa 	wrctl	ienable,r2
 50944e8:	e0bffc17 	ldw	r2,-16(fp)
 50944ec:	e0bffd15 	stw	r2,-12(fp)
  status &= ~NIOS2_STATUS_PIE_MSK;
  status |= (context & NIOS2_STATUS_PIE_MSK);
  
  NIOS2_WRITE_STATUS (status);
#else
  NIOS2_WRITE_STATUS (context);
 50944f0:	e0bffd17 	ldw	r2,-12(fp)
 50944f4:	1001703a 	wrctl	status,r2

  alt_irq_enable_all(status);

  return 0;
 50944f8:	0005883a 	mov	r2,zero
    return alt_irq_enable(irq);
 50944fc:	0001883a 	nop
}
 5094500:	e037883a 	mov	sp,fp
 5094504:	df000017 	ldw	fp,0(sp)
 5094508:	dec00104 	addi	sp,sp,4
 509450c:	f800283a 	ret

05094510 <alt_ic_irq_disable>:
  * @param ic_id            Ignored.
  * @param irq              IRQ number
  * @return                 0 if successful, else error (-1)
  */
int alt_ic_irq_disable(alt_u32 ic_id, alt_u32 irq)
{
 5094510:	defff904 	addi	sp,sp,-28
 5094514:	df000615 	stw	fp,24(sp)
 5094518:	df000604 	addi	fp,sp,24
 509451c:	e13ffe15 	stw	r4,-8(fp)
 5094520:	e17fff15 	stw	r5,-4(fp)
 5094524:	e0bfff17 	ldw	r2,-4(fp)
 5094528:	e0bffa15 	stw	r2,-24(fp)
static ALT_INLINE alt_irq_context ALT_ALWAYS_INLINE 
       alt_irq_disable_all (void)
{
  alt_irq_context context;

  NIOS2_READ_STATUS (context);
 509452c:	0005303a 	rdctl	r2,status
 5094530:	e0bffb15 	stw	r2,-20(fp)

  NIOS2_WRITE_STATUS (context & ~NIOS2_STATUS_PIE_MSK);
 5094534:	e0fffb17 	ldw	r3,-20(fp)
 5094538:	00bfff84 	movi	r2,-2
 509453c:	1884703a 	and	r2,r3,r2
 5094540:	1001703a 	wrctl	status,r2
  
  return context;
 5094544:	e0bffb17 	ldw	r2,-20(fp)
static ALT_INLINE int ALT_ALWAYS_INLINE alt_irq_disable (alt_u32 id)
{
  alt_irq_context  status;
  extern volatile alt_u32 alt_irq_active;

  status = alt_irq_disable_all ();
 5094548:	e0bffc15 	stw	r2,-16(fp)

  alt_irq_active &= ~(1 << id);
 509454c:	00c00044 	movi	r3,1
 5094550:	e0bffa17 	ldw	r2,-24(fp)
 5094554:	1884983a 	sll	r2,r3,r2
 5094558:	0084303a 	nor	r2,zero,r2
 509455c:	1007883a 	mov	r3,r2
 5094560:	d0a6d917 	ldw	r2,-25756(gp)
 5094564:	1884703a 	and	r2,r3,r2
 5094568:	d0a6d915 	stw	r2,-25756(gp)
  NIOS2_WRITE_IENABLE (alt_irq_active);
 509456c:	d0a6d917 	ldw	r2,-25756(gp)
 5094570:	100170fa 	wrctl	ienable,r2
 5094574:	e0bffc17 	ldw	r2,-16(fp)
 5094578:	e0bffd15 	stw	r2,-12(fp)
  status &= ~NIOS2_STATUS_PIE_MSK;
  status |= (context & NIOS2_STATUS_PIE_MSK);
  
  NIOS2_WRITE_STATUS (status);
#else
  NIOS2_WRITE_STATUS (context);
 509457c:	e0bffd17 	ldw	r2,-12(fp)
 5094580:	1001703a 	wrctl	status,r2

  alt_irq_enable_all(status);

  return 0;
 5094584:	0005883a 	mov	r2,zero
    return alt_irq_disable(irq);
 5094588:	0001883a 	nop
}
 509458c:	e037883a 	mov	sp,fp
 5094590:	df000017 	ldw	fp,0(sp)
 5094594:	dec00104 	addi	sp,sp,4
 5094598:	f800283a 	ret

0509459c <alt_ic_irq_enabled>:
  * @param irq              IRQ number
  * @return                 Zero if corresponding interrupt is disabled and
  *                         non-zero otherwise.
  */
alt_u32 alt_ic_irq_enabled(alt_u32 ic_id, alt_u32 irq)
{
 509459c:	defffc04 	addi	sp,sp,-16
 50945a0:	df000315 	stw	fp,12(sp)
 50945a4:	df000304 	addi	fp,sp,12
 50945a8:	e13ffe15 	stw	r4,-8(fp)
 50945ac:	e17fff15 	stw	r5,-4(fp)
    alt_u32 irq_enabled;

    NIOS2_READ_IENABLE(irq_enabled);
 50945b0:	000530fa 	rdctl	r2,ienable
 50945b4:	e0bffd15 	stw	r2,-12(fp)

    return (irq_enabled & (1 << irq)) ? 1: 0;
 50945b8:	00c00044 	movi	r3,1
 50945bc:	e0bfff17 	ldw	r2,-4(fp)
 50945c0:	1884983a 	sll	r2,r3,r2
 50945c4:	1007883a 	mov	r3,r2
 50945c8:	e0bffd17 	ldw	r2,-12(fp)
 50945cc:	1884703a 	and	r2,r3,r2
 50945d0:	1004c03a 	cmpne	r2,r2,zero
 50945d4:	10803fcc 	andi	r2,r2,255
}
 50945d8:	e037883a 	mov	sp,fp
 50945dc:	df000017 	ldw	fp,0(sp)
 50945e0:	dec00104 	addi	sp,sp,4
 50945e4:	f800283a 	ret

050945e8 <alt_iic_isr_register>:
  * @param flags            
  * @return                 0 if successful, else error (-1)
  */
int alt_iic_isr_register(alt_u32 ic_id, alt_u32 irq, alt_isr_func isr, 
  void *isr_context, void *flags)
{
 50945e8:	defff504 	addi	sp,sp,-44
 50945ec:	dfc00a15 	stw	ra,40(sp)
 50945f0:	df000915 	stw	fp,36(sp)
 50945f4:	df000904 	addi	fp,sp,36
 50945f8:	e13ffc15 	stw	r4,-16(fp)
 50945fc:	e17ffd15 	stw	r5,-12(fp)
 5094600:	e1bffe15 	stw	r6,-8(fp)
 5094604:	e1ffff15 	stw	r7,-4(fp)
  int rc = -EINVAL;  
 5094608:	00bffa84 	movi	r2,-22
 509460c:	e0bff715 	stw	r2,-36(fp)
  int id = irq;             /* IRQ interpreted as the interrupt ID. */
 5094610:	e0bffd17 	ldw	r2,-12(fp)
 5094614:	e0bff815 	stw	r2,-32(fp)
  alt_irq_context status;

  if (id < ALT_NIRQ)
 5094618:	e0bff817 	ldw	r2,-32(fp)
 509461c:	10800808 	cmpgei	r2,r2,32
 5094620:	1000271e 	bne	r2,zero,50946c0 <alt_iic_isr_register+0xd8>
static ALT_INLINE alt_irq_context ALT_ALWAYS_INLINE 
       alt_irq_disable_all (void)
{
  alt_irq_context context;

  NIOS2_READ_STATUS (context);
 5094624:	0005303a 	rdctl	r2,status
 5094628:	e0bffb15 	stw	r2,-20(fp)

  NIOS2_WRITE_STATUS (context & ~NIOS2_STATUS_PIE_MSK);
 509462c:	e0fffb17 	ldw	r3,-20(fp)
 5094630:	00bfff84 	movi	r2,-2
 5094634:	1884703a 	and	r2,r3,r2
 5094638:	1001703a 	wrctl	status,r2
  
  return context;
 509463c:	e0bffb17 	ldw	r2,-20(fp)
     * interrupts are disabled while the handler tables are updated to ensure
     * that an interrupt doesn't occur while the tables are in an inconsistant
     * state.
     */

    status = alt_irq_disable_all();
 5094640:	e0bffa15 	stw	r2,-24(fp)

    alt_irq[id].handler = isr;
 5094644:	008142b4 	movhi	r2,1290
 5094648:	10a5e304 	addi	r2,r2,-26740
 509464c:	e0fff817 	ldw	r3,-32(fp)
 5094650:	180690fa 	slli	r3,r3,3
 5094654:	10c5883a 	add	r2,r2,r3
 5094658:	e0fffe17 	ldw	r3,-8(fp)
 509465c:	10c00015 	stw	r3,0(r2)
    alt_irq[id].context = isr_context;
 5094660:	008142b4 	movhi	r2,1290
 5094664:	10a5e304 	addi	r2,r2,-26740
 5094668:	e0fff817 	ldw	r3,-32(fp)
 509466c:	180690fa 	slli	r3,r3,3
 5094670:	10c5883a 	add	r2,r2,r3
 5094674:	10800104 	addi	r2,r2,4
 5094678:	e0ffff17 	ldw	r3,-4(fp)
 509467c:	10c00015 	stw	r3,0(r2)

    rc = (isr) ? alt_ic_irq_enable(ic_id, id) : alt_ic_irq_disable(ic_id, id);
 5094680:	e0bffe17 	ldw	r2,-8(fp)
 5094684:	10000526 	beq	r2,zero,509469c <alt_iic_isr_register+0xb4>
 5094688:	e0bff817 	ldw	r2,-32(fp)
 509468c:	100b883a 	mov	r5,r2
 5094690:	e13ffc17 	ldw	r4,-16(fp)
 5094694:	50944880 	call	5094488 <alt_ic_irq_enable>
 5094698:	00000406 	br	50946ac <alt_iic_isr_register+0xc4>
 509469c:	e0bff817 	ldw	r2,-32(fp)
 50946a0:	100b883a 	mov	r5,r2
 50946a4:	e13ffc17 	ldw	r4,-16(fp)
 50946a8:	50945100 	call	5094510 <alt_ic_irq_disable>
 50946ac:	e0bff715 	stw	r2,-36(fp)
 50946b0:	e0bffa17 	ldw	r2,-24(fp)
 50946b4:	e0bff915 	stw	r2,-28(fp)
  status &= ~NIOS2_STATUS_PIE_MSK;
  status |= (context & NIOS2_STATUS_PIE_MSK);
  
  NIOS2_WRITE_STATUS (status);
#else
  NIOS2_WRITE_STATUS (context);
 50946b8:	e0bff917 	ldw	r2,-28(fp)
 50946bc:	1001703a 	wrctl	status,r2

    alt_irq_enable_all(status);
  }

  return rc; 
 50946c0:	e0bff717 	ldw	r2,-36(fp)
}
 50946c4:	e037883a 	mov	sp,fp
 50946c8:	dfc00117 	ldw	ra,4(sp)
 50946cc:	df000017 	ldw	fp,0(sp)
 50946d0:	dec00204 	addi	sp,sp,8
 50946d4:	f800283a 	ret

050946d8 <alt_open_fd>:
 * If the device can not be succesfully opened, then the input file descriptor
 * remains unchanged.
 */

static void alt_open_fd(alt_fd* fd, const char* name, int flags, int mode)
{
 50946d8:	defff904 	addi	sp,sp,-28
 50946dc:	dfc00615 	stw	ra,24(sp)
 50946e0:	df000515 	stw	fp,20(sp)
 50946e4:	df000504 	addi	fp,sp,20
 50946e8:	e13ffc15 	stw	r4,-16(fp)
 50946ec:	e17ffd15 	stw	r5,-12(fp)
 50946f0:	e1bffe15 	stw	r6,-8(fp)
 50946f4:	e1ffff15 	stw	r7,-4(fp)
  int old;

  old = open (name, flags, mode);
 50946f8:	e1bfff17 	ldw	r6,-4(fp)
 50946fc:	e17ffe17 	ldw	r5,-8(fp)
 5094700:	e13ffd17 	ldw	r4,-12(fp)
 5094704:	50949180 	call	5094918 <open>
 5094708:	e0bffb15 	stw	r2,-20(fp)

  if (old >= 0)
 509470c:	e0bffb17 	ldw	r2,-20(fp)
 5094710:	10001c16 	blt	r2,zero,5094784 <alt_open_fd+0xac>
  {
    fd->dev      = alt_fd_list[old].dev;
 5094714:	00814274 	movhi	r2,1289
 5094718:	109a7704 	addi	r2,r2,27100
 509471c:	e0fffb17 	ldw	r3,-20(fp)
 5094720:	18c00324 	muli	r3,r3,12
 5094724:	10c5883a 	add	r2,r2,r3
 5094728:	10c00017 	ldw	r3,0(r2)
 509472c:	e0bffc17 	ldw	r2,-16(fp)
 5094730:	10c00015 	stw	r3,0(r2)
    fd->priv     = alt_fd_list[old].priv;
 5094734:	00814274 	movhi	r2,1289
 5094738:	109a7704 	addi	r2,r2,27100
 509473c:	e0fffb17 	ldw	r3,-20(fp)
 5094740:	18c00324 	muli	r3,r3,12
 5094744:	10c5883a 	add	r2,r2,r3
 5094748:	10800104 	addi	r2,r2,4
 509474c:	10c00017 	ldw	r3,0(r2)
 5094750:	e0bffc17 	ldw	r2,-16(fp)
 5094754:	10c00115 	stw	r3,4(r2)
    fd->fd_flags = alt_fd_list[old].fd_flags;
 5094758:	00814274 	movhi	r2,1289
 509475c:	109a7704 	addi	r2,r2,27100
 5094760:	e0fffb17 	ldw	r3,-20(fp)
 5094764:	18c00324 	muli	r3,r3,12
 5094768:	10c5883a 	add	r2,r2,r3
 509476c:	10800204 	addi	r2,r2,8
 5094770:	10c00017 	ldw	r3,0(r2)
 5094774:	e0bffc17 	ldw	r2,-16(fp)
 5094778:	10c00215 	stw	r3,8(r2)

    alt_release_fd (old);
 509477c:	e13ffb17 	ldw	r4,-20(fp)
 5094780:	50930f40 	call	50930f4 <alt_release_fd>
  }
} 
 5094784:	0001883a 	nop
 5094788:	e037883a 	mov	sp,fp
 509478c:	dfc00117 	ldw	ra,4(sp)
 5094790:	df000017 	ldw	fp,0(sp)
 5094794:	dec00204 	addi	sp,sp,8
 5094798:	f800283a 	ret

0509479c <alt_io_redirect>:
 */
 
void alt_io_redirect(const char* stdout_dev, 
                     const char* stdin_dev, 
                     const char* stderr_dev)
{
 509479c:	defffb04 	addi	sp,sp,-20
 50947a0:	dfc00415 	stw	ra,16(sp)
 50947a4:	df000315 	stw	fp,12(sp)
 50947a8:	df000304 	addi	fp,sp,12
 50947ac:	e13ffd15 	stw	r4,-12(fp)
 50947b0:	e17ffe15 	stw	r5,-8(fp)
 50947b4:	e1bfff15 	stw	r6,-4(fp)
  /* Redirect the channels */

  alt_open_fd (&alt_fd_list[STDOUT_FILENO], stdout_dev, O_WRONLY, 0777);
 50947b8:	01c07fc4 	movi	r7,511
 50947bc:	01800044 	movi	r6,1
 50947c0:	e17ffd17 	ldw	r5,-12(fp)
 50947c4:	01014274 	movhi	r4,1289
 50947c8:	211a7a04 	addi	r4,r4,27112
 50947cc:	50946d80 	call	50946d8 <alt_open_fd>
  alt_open_fd (&alt_fd_list[STDIN_FILENO], stdin_dev, O_RDONLY, 0777);
 50947d0:	01c07fc4 	movi	r7,511
 50947d4:	000d883a 	mov	r6,zero
 50947d8:	e17ffe17 	ldw	r5,-8(fp)
 50947dc:	01014274 	movhi	r4,1289
 50947e0:	211a7704 	addi	r4,r4,27100
 50947e4:	50946d80 	call	50946d8 <alt_open_fd>
  alt_open_fd (&alt_fd_list[STDERR_FILENO], stderr_dev, O_WRONLY, 0777);
 50947e8:	01c07fc4 	movi	r7,511
 50947ec:	01800044 	movi	r6,1
 50947f0:	e17fff17 	ldw	r5,-4(fp)
 50947f4:	01014274 	movhi	r4,1289
 50947f8:	211a7d04 	addi	r4,r4,27124
 50947fc:	50946d80 	call	50946d8 <alt_open_fd>
}  
 5094800:	0001883a 	nop
 5094804:	e037883a 	mov	sp,fp
 5094808:	dfc00117 	ldw	ra,4(sp)
 509480c:	df000017 	ldw	fp,0(sp)
 5094810:	dec00204 	addi	sp,sp,8
 5094814:	f800283a 	ret

05094818 <alt_get_errno>:
#undef errno

extern int errno;

static ALT_INLINE int* alt_get_errno(void)
{
 5094818:	defffe04 	addi	sp,sp,-8
 509481c:	dfc00115 	stw	ra,4(sp)
 5094820:	df000015 	stw	fp,0(sp)
 5094824:	d839883a 	mov	fp,sp
  return ((alt_errno) ? alt_errno() : &errno);
 5094828:	d0a00b17 	ldw	r2,-32724(gp)
 509482c:	10000326 	beq	r2,zero,509483c <alt_get_errno+0x24>
 5094830:	d0a00b17 	ldw	r2,-32724(gp)
 5094834:	103ee83a 	callr	r2
 5094838:	00000106 	br	5094840 <alt_get_errno+0x28>
 509483c:	d0a6d804 	addi	r2,gp,-25760
}
 5094840:	e037883a 	mov	sp,fp
 5094844:	dfc00117 	ldw	ra,4(sp)
 5094848:	df000017 	ldw	fp,0(sp)
 509484c:	dec00204 	addi	sp,sp,8
 5094850:	f800283a 	ret

05094854 <alt_file_locked>:
 * performed for devices. Filesystems are required to handle the ioctl() call
 * themselves, and report the error from the filesystems open() function. 
 */ 

static int alt_file_locked (alt_fd* fd)
{
 5094854:	defffd04 	addi	sp,sp,-12
 5094858:	df000215 	stw	fp,8(sp)
 509485c:	df000204 	addi	fp,sp,8
 5094860:	e13fff15 	stw	r4,-4(fp)

  /*
   * Mark the file descriptor as belonging to a device.
   */

  fd->fd_flags |= ALT_FD_DEV;
 5094864:	e0bfff17 	ldw	r2,-4(fp)
 5094868:	10800217 	ldw	r2,8(r2)
 509486c:	10d00034 	orhi	r3,r2,16384
 5094870:	e0bfff17 	ldw	r2,-4(fp)
 5094874:	10c00215 	stw	r3,8(r2)
  /*
   * Loop through all current file descriptors searching for one that's locked
   * for exclusive access. If a match is found, generate an error.
   */

  for (i = 0; i <= alt_max_fd; i++)
 5094878:	e03ffe15 	stw	zero,-8(fp)
 509487c:	00001d06 	br	50948f4 <alt_file_locked+0xa0>
  {
    if ((alt_fd_list[i].dev == fd->dev) &&
 5094880:	00814274 	movhi	r2,1289
 5094884:	109a7704 	addi	r2,r2,27100
 5094888:	e0fffe17 	ldw	r3,-8(fp)
 509488c:	18c00324 	muli	r3,r3,12
 5094890:	10c5883a 	add	r2,r2,r3
 5094894:	10c00017 	ldw	r3,0(r2)
 5094898:	e0bfff17 	ldw	r2,-4(fp)
 509489c:	10800017 	ldw	r2,0(r2)
 50948a0:	1880111e 	bne	r3,r2,50948e8 <alt_file_locked+0x94>
        (alt_fd_list[i].fd_flags & ALT_FD_EXCL) &&
 50948a4:	00814274 	movhi	r2,1289
 50948a8:	109a7704 	addi	r2,r2,27100
 50948ac:	e0fffe17 	ldw	r3,-8(fp)
 50948b0:	18c00324 	muli	r3,r3,12
 50948b4:	10c5883a 	add	r2,r2,r3
 50948b8:	10800204 	addi	r2,r2,8
 50948bc:	10800017 	ldw	r2,0(r2)
   * for exclusive access. If a match is found, generate an error.
   */

  for (i = 0; i <= alt_max_fd; i++)
  {
    if ((alt_fd_list[i].dev == fd->dev) &&
 50948c0:	1000090e 	bge	r2,zero,50948e8 <alt_file_locked+0x94>
        (alt_fd_list[i].fd_flags & ALT_FD_EXCL) &&
        (&alt_fd_list[i] != fd))
 50948c4:	e0bffe17 	ldw	r2,-8(fp)
 50948c8:	10c00324 	muli	r3,r2,12
 50948cc:	00814274 	movhi	r2,1289
 50948d0:	109a7704 	addi	r2,r2,27100
 50948d4:	1887883a 	add	r3,r3,r2
   */

  for (i = 0; i <= alt_max_fd; i++)
  {
    if ((alt_fd_list[i].dev == fd->dev) &&
        (alt_fd_list[i].fd_flags & ALT_FD_EXCL) &&
 50948d8:	e0bfff17 	ldw	r2,-4(fp)
 50948dc:	18800226 	beq	r3,r2,50948e8 <alt_file_locked+0x94>
        (&alt_fd_list[i] != fd))
    {
      return -EACCES;
 50948e0:	00bffcc4 	movi	r2,-13
 50948e4:	00000806 	br	5094908 <alt_file_locked+0xb4>
  /*
   * Loop through all current file descriptors searching for one that's locked
   * for exclusive access. If a match is found, generate an error.
   */

  for (i = 0; i <= alt_max_fd; i++)
 50948e8:	e0bffe17 	ldw	r2,-8(fp)
 50948ec:	10800044 	addi	r2,r2,1
 50948f0:	e0bffe15 	stw	r2,-8(fp)
 50948f4:	d0a00a17 	ldw	r2,-32728(gp)
 50948f8:	1007883a 	mov	r3,r2
 50948fc:	e0bffe17 	ldw	r2,-8(fp)
 5094900:	18bfdf2e 	bgeu	r3,r2,5094880 <__alt_data_end+0xfffc6680>
    }
  }
  
  /* The device is not locked */
 
  return 0;
 5094904:	0005883a 	mov	r2,zero
}
 5094908:	e037883a 	mov	sp,fp
 509490c:	df000017 	ldw	fp,0(sp)
 5094910:	dec00104 	addi	sp,sp,4
 5094914:	f800283a 	ret

05094918 <open>:
 *
 * ALT_OPEN is mapped onto the open() system call in alt_syscall.h
 */
 
int ALT_OPEN (const char* file, int flags, int mode)
{ 
 5094918:	defff604 	addi	sp,sp,-40
 509491c:	dfc00915 	stw	ra,36(sp)
 5094920:	df000815 	stw	fp,32(sp)
 5094924:	df000804 	addi	fp,sp,32
 5094928:	e13ffd15 	stw	r4,-12(fp)
 509492c:	e17ffe15 	stw	r5,-8(fp)
 5094930:	e1bfff15 	stw	r6,-4(fp)
  alt_dev* dev;
  alt_fd*  fd;
  int index  = -1;
 5094934:	00bfffc4 	movi	r2,-1
 5094938:	e0bff915 	stw	r2,-28(fp)
  int status = -ENODEV;
 509493c:	00bffb44 	movi	r2,-19
 5094940:	e0bffa15 	stw	r2,-24(fp)
  int isafs = 0;
 5094944:	e03ffb15 	stw	zero,-20(fp)
  /* 
   * Check the device list, to see if a device with a matching name is 
   * registered.
   */
  
  if (!(dev = alt_find_dev (file, &alt_dev_list)))
 5094948:	d1600804 	addi	r5,gp,-32736
 509494c:	e13ffd17 	ldw	r4,-12(fp)
 5094950:	5094c340 	call	5094c34 <alt_find_dev>
 5094954:	e0bff815 	stw	r2,-32(fp)
 5094958:	e0bff817 	ldw	r2,-32(fp)
 509495c:	1000051e 	bne	r2,zero,5094974 <open+0x5c>
  {
    /* No matching device, so try the filesystem list */

    dev   = alt_find_file (file);
 5094960:	e13ffd17 	ldw	r4,-12(fp)
 5094964:	5094cc40 	call	5094cc4 <alt_find_file>
 5094968:	e0bff815 	stw	r2,-32(fp)
    isafs = 1;
 509496c:	00800044 	movi	r2,1
 5094970:	e0bffb15 	stw	r2,-20(fp)

  /* 
   * If a matching device or filesystem is found, allocate a file descriptor. 
   */

  if (dev)
 5094974:	e0bff817 	ldw	r2,-32(fp)
 5094978:	10002926 	beq	r2,zero,5094a20 <open+0x108>
  {
    if ((index = alt_get_fd (dev)) < 0)
 509497c:	e13ff817 	ldw	r4,-32(fp)
 5094980:	5094dcc0 	call	5094dcc <alt_get_fd>
 5094984:	e0bff915 	stw	r2,-28(fp)
 5094988:	e0bff917 	ldw	r2,-28(fp)
 509498c:	1000030e 	bge	r2,zero,509499c <open+0x84>
    {
      status = index;
 5094990:	e0bff917 	ldw	r2,-28(fp)
 5094994:	e0bffa15 	stw	r2,-24(fp)
 5094998:	00002306 	br	5094a28 <open+0x110>
    }
    else
    {
      fd = &alt_fd_list[index];
 509499c:	e0bff917 	ldw	r2,-28(fp)
 50949a0:	10c00324 	muli	r3,r2,12
 50949a4:	00814274 	movhi	r2,1289
 50949a8:	109a7704 	addi	r2,r2,27100
 50949ac:	1885883a 	add	r2,r3,r2
 50949b0:	e0bffc15 	stw	r2,-16(fp)
      fd->fd_flags = (flags & ~ALT_FD_FLAGS_MASK);
 50949b4:	e0fffe17 	ldw	r3,-8(fp)
 50949b8:	00900034 	movhi	r2,16384
 50949bc:	10bfffc4 	addi	r2,r2,-1
 50949c0:	1886703a 	and	r3,r3,r2
 50949c4:	e0bffc17 	ldw	r2,-16(fp)
 50949c8:	10c00215 	stw	r3,8(r2)
      
      /* If this is a device, ensure it isn't already locked */

      if (isafs || ((status = alt_file_locked (fd)) >= 0))
 50949cc:	e0bffb17 	ldw	r2,-20(fp)
 50949d0:	1000051e 	bne	r2,zero,50949e8 <open+0xd0>
 50949d4:	e13ffc17 	ldw	r4,-16(fp)
 50949d8:	50948540 	call	5094854 <alt_file_locked>
 50949dc:	e0bffa15 	stw	r2,-24(fp)
 50949e0:	e0bffa17 	ldw	r2,-24(fp)
 50949e4:	10001016 	blt	r2,zero,5094a28 <open+0x110>
        /* 
         * If the device or filesystem provides an open() callback function,
         * call it now to perform any device/filesystem specific operations.
         */
    
        status = (dev->open) ? dev->open(fd, file, flags, mode): 0;
 50949e8:	e0bff817 	ldw	r2,-32(fp)
 50949ec:	10800317 	ldw	r2,12(r2)
 50949f0:	10000826 	beq	r2,zero,5094a14 <open+0xfc>
 50949f4:	e0bff817 	ldw	r2,-32(fp)
 50949f8:	10800317 	ldw	r2,12(r2)
 50949fc:	e1ffff17 	ldw	r7,-4(fp)
 5094a00:	e1bffe17 	ldw	r6,-8(fp)
 5094a04:	e17ffd17 	ldw	r5,-12(fp)
 5094a08:	e13ffc17 	ldw	r4,-16(fp)
 5094a0c:	103ee83a 	callr	r2
 5094a10:	00000106 	br	5094a18 <open+0x100>
 5094a14:	0005883a 	mov	r2,zero
 5094a18:	e0bffa15 	stw	r2,-24(fp)
 5094a1c:	00000206 	br	5094a28 <open+0x110>
      }
    }
  }
  else
  {
    status = -ENODEV;
 5094a20:	00bffb44 	movi	r2,-19
 5094a24:	e0bffa15 	stw	r2,-24(fp)
  }

  /* Allocation failed, so clean up and return an error */ 

  if (status < 0)
 5094a28:	e0bffa17 	ldw	r2,-24(fp)
 5094a2c:	1000090e 	bge	r2,zero,5094a54 <open+0x13c>
  {
    alt_release_fd (index);  
 5094a30:	e13ff917 	ldw	r4,-28(fp)
 5094a34:	50930f40 	call	50930f4 <alt_release_fd>
    ALT_ERRNO = -status;
 5094a38:	50948180 	call	5094818 <alt_get_errno>
 5094a3c:	1007883a 	mov	r3,r2
 5094a40:	e0bffa17 	ldw	r2,-24(fp)
 5094a44:	0085c83a 	sub	r2,zero,r2
 5094a48:	18800015 	stw	r2,0(r3)
    return -1;
 5094a4c:	00bfffc4 	movi	r2,-1
 5094a50:	00000106 	br	5094a58 <open+0x140>
  }
  
  /* return the reference upon success */

  return index;
 5094a54:	e0bff917 	ldw	r2,-28(fp)
}
 5094a58:	e037883a 	mov	sp,fp
 5094a5c:	dfc00117 	ldw	ra,4(sp)
 5094a60:	df000017 	ldw	fp,0(sp)
 5094a64:	dec00204 	addi	sp,sp,8
 5094a68:	f800283a 	ret

05094a6c <alt_alarm_stop>:
 * alarms. Alternatively an alarm can unregister itself by returning zero when 
 * the alarm executes.
 */

void alt_alarm_stop (alt_alarm* alarm)
{
 5094a6c:	defffa04 	addi	sp,sp,-24
 5094a70:	df000515 	stw	fp,20(sp)
 5094a74:	df000504 	addi	fp,sp,20
 5094a78:	e13fff15 	stw	r4,-4(fp)
static ALT_INLINE alt_irq_context ALT_ALWAYS_INLINE 
       alt_irq_disable_all (void)
{
  alt_irq_context context;

  NIOS2_READ_STATUS (context);
 5094a7c:	0005303a 	rdctl	r2,status
 5094a80:	e0bffc15 	stw	r2,-16(fp)

  NIOS2_WRITE_STATUS (context & ~NIOS2_STATUS_PIE_MSK);
 5094a84:	e0fffc17 	ldw	r3,-16(fp)
 5094a88:	00bfff84 	movi	r2,-2
 5094a8c:	1884703a 	and	r2,r3,r2
 5094a90:	1001703a 	wrctl	status,r2
  
  return context;
 5094a94:	e0bffc17 	ldw	r2,-16(fp)
  alt_irq_context irq_context;

  irq_context = alt_irq_disable_all();
 5094a98:	e0bffb15 	stw	r2,-20(fp)
  alt_llist_remove (&alarm->llist);
 5094a9c:	e0bfff17 	ldw	r2,-4(fp)
 5094aa0:	e0bffd15 	stw	r2,-12(fp)
 * input argument is the element to remove.
 */
     
static ALT_INLINE void ALT_ALWAYS_INLINE alt_llist_remove(alt_llist* entry)
{
  entry->next->previous = entry->previous;
 5094aa4:	e0bffd17 	ldw	r2,-12(fp)
 5094aa8:	10800017 	ldw	r2,0(r2)
 5094aac:	e0fffd17 	ldw	r3,-12(fp)
 5094ab0:	18c00117 	ldw	r3,4(r3)
 5094ab4:	10c00115 	stw	r3,4(r2)
  entry->previous->next = entry->next;
 5094ab8:	e0bffd17 	ldw	r2,-12(fp)
 5094abc:	10800117 	ldw	r2,4(r2)
 5094ac0:	e0fffd17 	ldw	r3,-12(fp)
 5094ac4:	18c00017 	ldw	r3,0(r3)
 5094ac8:	10c00015 	stw	r3,0(r2)
  /* 
   * Set the entry to point to itself, so that any further calls to
   * alt_llist_remove() are harmless.
   */

  entry->previous = entry;
 5094acc:	e0bffd17 	ldw	r2,-12(fp)
 5094ad0:	e0fffd17 	ldw	r3,-12(fp)
 5094ad4:	10c00115 	stw	r3,4(r2)
  entry->next     = entry;
 5094ad8:	e0bffd17 	ldw	r2,-12(fp)
 5094adc:	e0fffd17 	ldw	r3,-12(fp)
 5094ae0:	10c00015 	stw	r3,0(r2)
 5094ae4:	e0bffb17 	ldw	r2,-20(fp)
 5094ae8:	e0bffe15 	stw	r2,-8(fp)
  status &= ~NIOS2_STATUS_PIE_MSK;
  status |= (context & NIOS2_STATUS_PIE_MSK);
  
  NIOS2_WRITE_STATUS (status);
#else
  NIOS2_WRITE_STATUS (context);
 5094aec:	e0bffe17 	ldw	r2,-8(fp)
 5094af0:	1001703a 	wrctl	status,r2
  alt_irq_enable_all (irq_context);
}
 5094af4:	0001883a 	nop
 5094af8:	e037883a 	mov	sp,fp
 5094afc:	df000017 	ldw	fp,0(sp)
 5094b00:	dec00104 	addi	sp,sp,4
 5094b04:	f800283a 	ret

05094b08 <alt_tick>:
 * 
 * alt_tick() is expected to run at interrupt level.
 */

void alt_tick (void)
{
 5094b08:	defffb04 	addi	sp,sp,-20
 5094b0c:	dfc00415 	stw	ra,16(sp)
 5094b10:	df000315 	stw	fp,12(sp)
 5094b14:	df000304 	addi	fp,sp,12
  alt_alarm* next;
  alt_alarm* alarm = (alt_alarm*) alt_alarm_list.next;
 5094b18:	d0a00e17 	ldw	r2,-32712(gp)
 5094b1c:	e0bffd15 	stw	r2,-12(fp)

  alt_u32    next_callback;

  /* update the tick counter */

  _alt_nticks++;
 5094b20:	d0a6de17 	ldw	r2,-25736(gp)
 5094b24:	10800044 	addi	r2,r2,1
 5094b28:	d0a6de15 	stw	r2,-25736(gp)

  /* process the registered callbacks */

  while (alarm != (alt_alarm*) &alt_alarm_list)
 5094b2c:	00002e06 	br	5094be8 <alt_tick+0xe0>
  {
    next = (alt_alarm*) alarm->llist.next;
 5094b30:	e0bffd17 	ldw	r2,-12(fp)
 5094b34:	10800017 	ldw	r2,0(r2)
 5094b38:	e0bffe15 	stw	r2,-8(fp)
    /* 
     * Upon the tick-counter rolling over it is safe to clear the 
     * roll-over flag; once the flag is cleared this (or subsequnt)
     * tick events are enabled to generate an alarm event. 
     */
    if ((alarm->rollover) && (_alt_nticks == 0))
 5094b3c:	e0bffd17 	ldw	r2,-12(fp)
 5094b40:	10800403 	ldbu	r2,16(r2)
 5094b44:	10803fcc 	andi	r2,r2,255
 5094b48:	10000426 	beq	r2,zero,5094b5c <alt_tick+0x54>
 5094b4c:	d0a6de17 	ldw	r2,-25736(gp)
 5094b50:	1000021e 	bne	r2,zero,5094b5c <alt_tick+0x54>
    {
      alarm->rollover = 0;
 5094b54:	e0bffd17 	ldw	r2,-12(fp)
 5094b58:	10000405 	stb	zero,16(r2)
    }
    
    /* if the alarm period has expired, make the callback */    
    if ((alarm->time <= _alt_nticks) && (alarm->rollover == 0))
 5094b5c:	e0bffd17 	ldw	r2,-12(fp)
 5094b60:	10800217 	ldw	r2,8(r2)
 5094b64:	d0e6de17 	ldw	r3,-25736(gp)
 5094b68:	18801d36 	bltu	r3,r2,5094be0 <alt_tick+0xd8>
 5094b6c:	e0bffd17 	ldw	r2,-12(fp)
 5094b70:	10800403 	ldbu	r2,16(r2)
 5094b74:	10803fcc 	andi	r2,r2,255
 5094b78:	1000191e 	bne	r2,zero,5094be0 <alt_tick+0xd8>
    {
      next_callback = alarm->callback (alarm->context);
 5094b7c:	e0bffd17 	ldw	r2,-12(fp)
 5094b80:	10800317 	ldw	r2,12(r2)
 5094b84:	e0fffd17 	ldw	r3,-12(fp)
 5094b88:	18c00517 	ldw	r3,20(r3)
 5094b8c:	1809883a 	mov	r4,r3
 5094b90:	103ee83a 	callr	r2
 5094b94:	e0bfff15 	stw	r2,-4(fp)

      /* deactivate the alarm if the return value is zero */

      if (next_callback == 0)
 5094b98:	e0bfff17 	ldw	r2,-4(fp)
 5094b9c:	1000031e 	bne	r2,zero,5094bac <alt_tick+0xa4>
      {
        alt_alarm_stop (alarm);
 5094ba0:	e13ffd17 	ldw	r4,-12(fp)
 5094ba4:	5094a6c0 	call	5094a6c <alt_alarm_stop>
 5094ba8:	00000d06 	br	5094be0 <alt_tick+0xd8>
      }
      else
      {
        alarm->time += next_callback;
 5094bac:	e0bffd17 	ldw	r2,-12(fp)
 5094bb0:	10c00217 	ldw	r3,8(r2)
 5094bb4:	e0bfff17 	ldw	r2,-4(fp)
 5094bb8:	1887883a 	add	r3,r3,r2
 5094bbc:	e0bffd17 	ldw	r2,-12(fp)
 5094bc0:	10c00215 	stw	r3,8(r2)
        /* 
         * If the desired alarm time causes a roll-over, set the rollover
         * flag. This will prevent the subsequent tick event from causing
         * an alarm too early.
         */
        if(alarm->time < _alt_nticks)
 5094bc4:	e0bffd17 	ldw	r2,-12(fp)
 5094bc8:	10c00217 	ldw	r3,8(r2)
 5094bcc:	d0a6de17 	ldw	r2,-25736(gp)
 5094bd0:	1880032e 	bgeu	r3,r2,5094be0 <alt_tick+0xd8>
        {
          alarm->rollover = 1;
 5094bd4:	e0bffd17 	ldw	r2,-12(fp)
 5094bd8:	00c00044 	movi	r3,1
 5094bdc:	10c00405 	stb	r3,16(r2)
        }
      }
    }
    alarm = next;
 5094be0:	e0bffe17 	ldw	r2,-8(fp)
 5094be4:	e0bffd15 	stw	r2,-12(fp)

  _alt_nticks++;

  /* process the registered callbacks */

  while (alarm != (alt_alarm*) &alt_alarm_list)
 5094be8:	e0fffd17 	ldw	r3,-12(fp)
 5094bec:	d0a00e04 	addi	r2,gp,-32712
 5094bf0:	18bfcf1e 	bne	r3,r2,5094b30 <__alt_data_end+0xfffc6930>

  /* 
   * Update the operating system specific timer facilities.
   */

  ALT_OS_TIME_TICK();
 5094bf4:	0001883a 	nop
}
 5094bf8:	0001883a 	nop
 5094bfc:	e037883a 	mov	sp,fp
 5094c00:	dfc00117 	ldw	ra,4(sp)
 5094c04:	df000017 	ldw	fp,0(sp)
 5094c08:	dec00204 	addi	sp,sp,8
 5094c0c:	f800283a 	ret

05094c10 <altera_nios2_gen2_irq_init>:
/*
 * To initialize the internal interrupt controller, just clear the IENABLE
 * register so that all possible IRQs are disabled.
 */
void altera_nios2_gen2_irq_init(void) 
{
 5094c10:	deffff04 	addi	sp,sp,-4
 5094c14:	df000015 	stw	fp,0(sp)
 5094c18:	d839883a 	mov	fp,sp
    NIOS2_WRITE_IENABLE(0);
 5094c1c:	000170fa 	wrctl	ienable,zero
}
 5094c20:	0001883a 	nop
 5094c24:	e037883a 	mov	sp,fp
 5094c28:	df000017 	ldw	fp,0(sp)
 5094c2c:	dec00104 	addi	sp,sp,4
 5094c30:	f800283a 	ret

05094c34 <alt_find_dev>:
 * "name" must be an exact match for the devices registered name for a match to
 * be found.
 */
 
alt_dev* alt_find_dev(const char* name, alt_llist* llist)
{
 5094c34:	defffa04 	addi	sp,sp,-24
 5094c38:	dfc00515 	stw	ra,20(sp)
 5094c3c:	df000415 	stw	fp,16(sp)
 5094c40:	df000404 	addi	fp,sp,16
 5094c44:	e13ffe15 	stw	r4,-8(fp)
 5094c48:	e17fff15 	stw	r5,-4(fp)
  alt_dev* next = (alt_dev*) llist->next;
 5094c4c:	e0bfff17 	ldw	r2,-4(fp)
 5094c50:	10800017 	ldw	r2,0(r2)
 5094c54:	e0bffc15 	stw	r2,-16(fp)
  alt_32 len;

  len  = strlen(name) + 1;
 5094c58:	e13ffe17 	ldw	r4,-8(fp)
 5094c5c:	5082b440 	call	5082b44 <strlen>
 5094c60:	10800044 	addi	r2,r2,1
 5094c64:	e0bffd15 	stw	r2,-12(fp)
  /*
   * Check each list entry in turn, until a match is found, or we reach the
   * end of the list (i.e. next winds up pointing back to the list head).
   */ 

  while (next != (alt_dev*) llist)
 5094c68:	00000d06 	br	5094ca0 <alt_find_dev+0x6c>
    /* 
     * memcmp() is used here rather than strcmp() in order to reduce the size
     * of the executable.
     */

    if (!memcmp (next->name, name, len))
 5094c6c:	e0bffc17 	ldw	r2,-16(fp)
 5094c70:	10800217 	ldw	r2,8(r2)
 5094c74:	e0fffd17 	ldw	r3,-12(fp)
 5094c78:	180d883a 	mov	r6,r3
 5094c7c:	e17ffe17 	ldw	r5,-8(fp)
 5094c80:	1009883a 	mov	r4,r2
 5094c84:	5094fe80 	call	5094fe8 <memcmp>
 5094c88:	1000021e 	bne	r2,zero,5094c94 <alt_find_dev+0x60>
    {
      /* match found */

      return next;
 5094c8c:	e0bffc17 	ldw	r2,-16(fp)
 5094c90:	00000706 	br	5094cb0 <alt_find_dev+0x7c>
    }
    next = (alt_dev*) next->llist.next;
 5094c94:	e0bffc17 	ldw	r2,-16(fp)
 5094c98:	10800017 	ldw	r2,0(r2)
 5094c9c:	e0bffc15 	stw	r2,-16(fp)
  /*
   * Check each list entry in turn, until a match is found, or we reach the
   * end of the list (i.e. next winds up pointing back to the list head).
   */ 

  while (next != (alt_dev*) llist)
 5094ca0:	e0fffc17 	ldw	r3,-16(fp)
 5094ca4:	e0bfff17 	ldw	r2,-4(fp)
 5094ca8:	18bff01e 	bne	r3,r2,5094c6c <__alt_data_end+0xfffc6a6c>
    next = (alt_dev*) next->llist.next;
  }
  
  /* No match found */
  
  return NULL;
 5094cac:	0005883a 	mov	r2,zero
}
 5094cb0:	e037883a 	mov	sp,fp
 5094cb4:	dfc00117 	ldw	ra,4(sp)
 5094cb8:	df000017 	ldw	fp,0(sp)
 5094cbc:	dec00204 	addi	sp,sp,8
 5094cc0:	f800283a 	ret

05094cc4 <alt_find_file>:
 * either '/' or '\0' is the prefix of the filename. For example the filename:
 * "/myfilesystem/junk.txt" would match: "/myfilesystem", but not: "/myfile". 
 */
 
alt_dev* alt_find_file (const char* name)
{
 5094cc4:	defffb04 	addi	sp,sp,-20
 5094cc8:	dfc00415 	stw	ra,16(sp)
 5094ccc:	df000315 	stw	fp,12(sp)
 5094cd0:	df000304 	addi	fp,sp,12
 5094cd4:	e13fff15 	stw	r4,-4(fp)
  alt_dev* next = (alt_dev*) alt_fs_list.next;   
 5094cd8:	d0a00617 	ldw	r2,-32744(gp)
 5094cdc:	e0bffd15 	stw	r2,-12(fp)
  /*
   * Check each list entry in turn, until a match is found, or we reach the
   * end of the list (i.e. next winds up pointing back to the list head).
   */ 
 
  while (next != (alt_dev*) &alt_fs_list)
 5094ce0:	00003106 	br	5094da8 <alt_find_file+0xe4>
  {
    len = strlen(next->name);
 5094ce4:	e0bffd17 	ldw	r2,-12(fp)
 5094ce8:	10800217 	ldw	r2,8(r2)
 5094cec:	1009883a 	mov	r4,r2
 5094cf0:	5082b440 	call	5082b44 <strlen>
 5094cf4:	e0bffe15 	stw	r2,-8(fp)
    
    if (next->name[len-1] == '/')
 5094cf8:	e0bffd17 	ldw	r2,-12(fp)
 5094cfc:	10c00217 	ldw	r3,8(r2)
 5094d00:	e0bffe17 	ldw	r2,-8(fp)
 5094d04:	10bfffc4 	addi	r2,r2,-1
 5094d08:	1885883a 	add	r2,r3,r2
 5094d0c:	10800003 	ldbu	r2,0(r2)
 5094d10:	10803fcc 	andi	r2,r2,255
 5094d14:	1080201c 	xori	r2,r2,128
 5094d18:	10bfe004 	addi	r2,r2,-128
 5094d1c:	10800bd8 	cmpnei	r2,r2,47
 5094d20:	1000031e 	bne	r2,zero,5094d30 <alt_find_file+0x6c>
    {
      len -= 1;
 5094d24:	e0bffe17 	ldw	r2,-8(fp)
 5094d28:	10bfffc4 	addi	r2,r2,-1
 5094d2c:	e0bffe15 	stw	r2,-8(fp)
    }

    if (((name[len] == '/') || (name[len] == '\0')) && 
 5094d30:	e0bffe17 	ldw	r2,-8(fp)
 5094d34:	e0ffff17 	ldw	r3,-4(fp)
 5094d38:	1885883a 	add	r2,r3,r2
 5094d3c:	10800003 	ldbu	r2,0(r2)
 5094d40:	10803fcc 	andi	r2,r2,255
 5094d44:	1080201c 	xori	r2,r2,128
 5094d48:	10bfe004 	addi	r2,r2,-128
 5094d4c:	10800be0 	cmpeqi	r2,r2,47
 5094d50:	1000081e 	bne	r2,zero,5094d74 <alt_find_file+0xb0>
 5094d54:	e0bffe17 	ldw	r2,-8(fp)
 5094d58:	e0ffff17 	ldw	r3,-4(fp)
 5094d5c:	1885883a 	add	r2,r3,r2
 5094d60:	10800003 	ldbu	r2,0(r2)
 5094d64:	10803fcc 	andi	r2,r2,255
 5094d68:	1080201c 	xori	r2,r2,128
 5094d6c:	10bfe004 	addi	r2,r2,-128
 5094d70:	10000a1e 	bne	r2,zero,5094d9c <alt_find_file+0xd8>
        !memcmp (next->name, name, len))
 5094d74:	e0bffd17 	ldw	r2,-12(fp)
 5094d78:	10800217 	ldw	r2,8(r2)
 5094d7c:	e0fffe17 	ldw	r3,-8(fp)
 5094d80:	180d883a 	mov	r6,r3
 5094d84:	e17fff17 	ldw	r5,-4(fp)
 5094d88:	1009883a 	mov	r4,r2
 5094d8c:	5094fe80 	call	5094fe8 <memcmp>
    if (next->name[len-1] == '/')
    {
      len -= 1;
    }

    if (((name[len] == '/') || (name[len] == '\0')) && 
 5094d90:	1000021e 	bne	r2,zero,5094d9c <alt_find_file+0xd8>
        !memcmp (next->name, name, len))
    {
      /* match found */

      return next;
 5094d94:	e0bffd17 	ldw	r2,-12(fp)
 5094d98:	00000706 	br	5094db8 <alt_find_file+0xf4>
    }
    next = (alt_dev*) next->llist.next;
 5094d9c:	e0bffd17 	ldw	r2,-12(fp)
 5094da0:	10800017 	ldw	r2,0(r2)
 5094da4:	e0bffd15 	stw	r2,-12(fp)
  /*
   * Check each list entry in turn, until a match is found, or we reach the
   * end of the list (i.e. next winds up pointing back to the list head).
   */ 
 
  while (next != (alt_dev*) &alt_fs_list)
 5094da8:	e0fffd17 	ldw	r3,-12(fp)
 5094dac:	d0a00604 	addi	r2,gp,-32744
 5094db0:	18bfcc1e 	bne	r3,r2,5094ce4 <__alt_data_end+0xfffc6ae4>
    next = (alt_dev*) next->llist.next;
  }
  
  /* No match found */
  
  return NULL;     
 5094db4:	0005883a 	mov	r2,zero
}
 5094db8:	e037883a 	mov	sp,fp
 5094dbc:	dfc00117 	ldw	ra,4(sp)
 5094dc0:	df000017 	ldw	fp,0(sp)
 5094dc4:	dec00204 	addi	sp,sp,8
 5094dc8:	f800283a 	ret

05094dcc <alt_get_fd>:
 * the offset of the file descriptor within the file descriptor array). A
 * negative value indicates failure.
 */

int alt_get_fd (alt_dev* dev)
{
 5094dcc:	defffc04 	addi	sp,sp,-16
 5094dd0:	df000315 	stw	fp,12(sp)
 5094dd4:	df000304 	addi	fp,sp,12
 5094dd8:	e13fff15 	stw	r4,-4(fp)
  alt_32 i;
  int rc = -EMFILE;
 5094ddc:	00bffa04 	movi	r2,-24
 5094de0:	e0bffe15 	stw	r2,-8(fp)
   * indicates the highest file descriptor ever allocated. This is used to
   * improve efficency when searching the file descriptor list, and 
   * therefore reduce contention on the alt_fd_list_lock semaphore. 
   */

  for (i = 0; i < ALT_MAX_FD; i++)
 5094de4:	e03ffd15 	stw	zero,-12(fp)
 5094de8:	00001906 	br	5094e50 <alt_get_fd+0x84>
  {
    if (!alt_fd_list[i].dev)
 5094dec:	00814274 	movhi	r2,1289
 5094df0:	109a7704 	addi	r2,r2,27100
 5094df4:	e0fffd17 	ldw	r3,-12(fp)
 5094df8:	18c00324 	muli	r3,r3,12
 5094dfc:	10c5883a 	add	r2,r2,r3
 5094e00:	10800017 	ldw	r2,0(r2)
 5094e04:	10000f1e 	bne	r2,zero,5094e44 <alt_get_fd+0x78>
    {
      alt_fd_list[i].dev = dev;
 5094e08:	00814274 	movhi	r2,1289
 5094e0c:	109a7704 	addi	r2,r2,27100
 5094e10:	e0fffd17 	ldw	r3,-12(fp)
 5094e14:	18c00324 	muli	r3,r3,12
 5094e18:	10c5883a 	add	r2,r2,r3
 5094e1c:	e0ffff17 	ldw	r3,-4(fp)
 5094e20:	10c00015 	stw	r3,0(r2)
      if (i > alt_max_fd)
 5094e24:	d0e00a17 	ldw	r3,-32728(gp)
 5094e28:	e0bffd17 	ldw	r2,-12(fp)
 5094e2c:	1880020e 	bge	r3,r2,5094e38 <alt_get_fd+0x6c>
      {
        alt_max_fd = i;
 5094e30:	e0bffd17 	ldw	r2,-12(fp)
 5094e34:	d0a00a15 	stw	r2,-32728(gp)
      }
      rc = i;
 5094e38:	e0bffd17 	ldw	r2,-12(fp)
 5094e3c:	e0bffe15 	stw	r2,-8(fp)
      goto alt_get_fd_exit;
 5094e40:	00000606 	br	5094e5c <alt_get_fd+0x90>
   * indicates the highest file descriptor ever allocated. This is used to
   * improve efficency when searching the file descriptor list, and 
   * therefore reduce contention on the alt_fd_list_lock semaphore. 
   */

  for (i = 0; i < ALT_MAX_FD; i++)
 5094e44:	e0bffd17 	ldw	r2,-12(fp)
 5094e48:	10800044 	addi	r2,r2,1
 5094e4c:	e0bffd15 	stw	r2,-12(fp)
 5094e50:	e0bffd17 	ldw	r2,-12(fp)
 5094e54:	10800810 	cmplti	r2,r2,32
 5094e58:	103fe41e 	bne	r2,zero,5094dec <__alt_data_end+0xfffc6bec>
   * file descriptor pool.
   */

  ALT_SEM_POST(alt_fd_list_lock);

  return rc;
 5094e5c:	e0bffe17 	ldw	r2,-8(fp)
}
 5094e60:	e037883a 	mov	sp,fp
 5094e64:	df000017 	ldw	fp,0(sp)
 5094e68:	dec00104 	addi	sp,sp,4
 5094e6c:	f800283a 	ret

05094e70 <alt_icache_flush>:
 * alt_icache_flush() is called to flush the instruction cache for a memory
 * region of length "len" bytes, starting at address "start".
 */

void alt_icache_flush (void* start, alt_u32 len)
{
 5094e70:	defffb04 	addi	sp,sp,-20
 5094e74:	df000415 	stw	fp,16(sp)
 5094e78:	df000404 	addi	fp,sp,16
 5094e7c:	e13ffe15 	stw	r4,-8(fp)
 5094e80:	e17fff15 	stw	r5,-4(fp)

  /*
   * This is the most we would ever need to flush.
   */
 
  if (len > NIOS2_ICACHE_SIZE)
 5094e84:	e0bfff17 	ldw	r2,-4(fp)
 5094e88:	10840070 	cmpltui	r2,r2,4097
 5094e8c:	1000021e 	bne	r2,zero,5094e98 <alt_icache_flush+0x28>
  {
    len = NIOS2_ICACHE_SIZE;
 5094e90:	00840004 	movi	r2,4096
 5094e94:	e0bfff15 	stw	r2,-4(fp)
  }

  end = ((char*) start) + len;
 5094e98:	e0fffe17 	ldw	r3,-8(fp)
 5094e9c:	e0bfff17 	ldw	r2,-4(fp)
 5094ea0:	1885883a 	add	r2,r3,r2
 5094ea4:	e0bffd15 	stw	r2,-12(fp)

  for (i = start; i < end; i+= NIOS2_ICACHE_LINE_SIZE)
 5094ea8:	e0bffe17 	ldw	r2,-8(fp)
 5094eac:	e0bffc15 	stw	r2,-16(fp)
 5094eb0:	00000506 	br	5094ec8 <alt_icache_flush+0x58>
  { 
    __asm__ volatile ("flushi %0" :: "r" (i)); 
 5094eb4:	e0bffc17 	ldw	r2,-16(fp)
 5094eb8:	1000603a 	flushi	r2
    len = NIOS2_ICACHE_SIZE;
  }

  end = ((char*) start) + len;

  for (i = start; i < end; i+= NIOS2_ICACHE_LINE_SIZE)
 5094ebc:	e0bffc17 	ldw	r2,-16(fp)
 5094ec0:	10800804 	addi	r2,r2,32
 5094ec4:	e0bffc15 	stw	r2,-16(fp)
 5094ec8:	e0fffc17 	ldw	r3,-16(fp)
 5094ecc:	e0bffd17 	ldw	r2,-12(fp)
 5094ed0:	18bff836 	bltu	r3,r2,5094eb4 <__alt_data_end+0xfffc6cb4>
   * For an unaligned flush request, we've got one more line left.
   * Note that this is dependent on NIOS2_ICACHE_LINE_SIZE to be a 
   * multiple of 2 (which it always is).
   */

  if (((alt_u32) start) & (NIOS2_ICACHE_LINE_SIZE - 1))
 5094ed4:	e0bffe17 	ldw	r2,-8(fp)
 5094ed8:	108007cc 	andi	r2,r2,31
 5094edc:	10000226 	beq	r2,zero,5094ee8 <alt_icache_flush+0x78>
  {
    __asm__ volatile ("flushi %0" :: "r" (i));
 5094ee0:	e0bffc17 	ldw	r2,-16(fp)
 5094ee4:	1000603a 	flushi	r2
  /* 
   * Having flushed the cache, flush any stale instructions in the 
   * pipeline 
   */

  __asm__ volatile ("flushp");
 5094ee8:	0000203a 	flushp

#endif /* NIOS2_ICACHE_SIZE > 0 */
}
 5094eec:	0001883a 	nop
 5094ef0:	e037883a 	mov	sp,fp
 5094ef4:	df000017 	ldw	fp,0(sp)
 5094ef8:	dec00104 	addi	sp,sp,4
 5094efc:	f800283a 	ret

05094f00 <alt_exception_cause_generated_bad_addr>:
 * Return: 1: BADADDR (bad_addr argument to handler) is valid
 *         0: BADADDR is not valid
 */
int 
alt_exception_cause_generated_bad_addr(alt_exception_cause cause)
{
 5094f00:	defffe04 	addi	sp,sp,-8
 5094f04:	df000115 	stw	fp,4(sp)
 5094f08:	df000104 	addi	fp,sp,4
 5094f0c:	e13fff15 	stw	r4,-4(fp)
  switch (cause) {
 5094f10:	e0bfff17 	ldw	r2,-4(fp)
 5094f14:	10bffe84 	addi	r2,r2,-6
 5094f18:	10c00428 	cmpgeui	r3,r2,16
 5094f1c:	18001a1e 	bne	r3,zero,5094f88 <alt_exception_cause_generated_bad_addr+0x88>
 5094f20:	100690ba 	slli	r3,r2,2
 5094f24:	00814274 	movhi	r2,1289
 5094f28:	1093ce04 	addi	r2,r2,20280
 5094f2c:	1885883a 	add	r2,r3,r2
 5094f30:	10800017 	ldw	r2,0(r2)
 5094f34:	1000683a 	jmp	r2
 5094f38:	05094f78 	rdprs	r20,zero,9533
 5094f3c:	05094f78 	rdprs	r20,zero,9533
 5094f40:	05094f88 	cmpgei	r20,zero,9534
 5094f44:	05094f88 	cmpgei	r20,zero,9534
 5094f48:	05094f88 	cmpgei	r20,zero,9534
 5094f4c:	05094f78 	rdprs	r20,zero,9533
 5094f50:	05094f80 	call	5094f8 <__alt_mem_sdram+0x5094f8>
 5094f54:	05094f88 	cmpgei	r20,zero,9534
 5094f58:	05094f78 	rdprs	r20,zero,9533
 5094f5c:	05094f78 	rdprs	r20,zero,9533
 5094f60:	05094f88 	cmpgei	r20,zero,9534
 5094f64:	05094f78 	rdprs	r20,zero,9533
 5094f68:	05094f80 	call	5094f8 <__alt_mem_sdram+0x5094f8>
 5094f6c:	05094f88 	cmpgei	r20,zero,9534
 5094f70:	05094f88 	cmpgei	r20,zero,9534
 5094f74:	05094f78 	rdprs	r20,zero,9533
  case NIOS2_EXCEPTION_MISALIGNED_TARGET_PC:
  case NIOS2_EXCEPTION_TLB_READ_PERM_VIOLATION:
  case NIOS2_EXCEPTION_TLB_WRITE_PERM_VIOLATION:
  case NIOS2_EXCEPTION_MPU_DATA_REGION_VIOLATION:
  case NIOS2_EXCEPTION_ECC_DATA_ERR:
    return 1;
 5094f78:	00800044 	movi	r2,1
 5094f7c:	00000306 	br	5094f8c <alt_exception_cause_generated_bad_addr+0x8c>

  case NIOS2_EXCEPTION_TLB_MISS:
  case NIOS2_EXCEPTION_ECC_TLB_ERR:
    return 0;
 5094f80:	0005883a 	mov	r2,zero
 5094f84:	00000106 	br	5094f8c <alt_exception_cause_generated_bad_addr+0x8c>

  default:
    return 0;
 5094f88:	0005883a 	mov	r2,zero
  }
}
 5094f8c:	e037883a 	mov	sp,fp
 5094f90:	df000017 	ldw	fp,0(sp)
 5094f94:	dec00104 	addi	sp,sp,4
 5094f98:	f800283a 	ret

05094f9c <atexit>:
 5094f9c:	200b883a 	mov	r5,r4
 5094fa0:	000f883a 	mov	r7,zero
 5094fa4:	000d883a 	mov	r6,zero
 5094fa8:	0009883a 	mov	r4,zero
 5094fac:	50950641 	jmpi	5095064 <__register_exitproc>

05094fb0 <exit>:
 5094fb0:	defffe04 	addi	sp,sp,-8
 5094fb4:	000b883a 	mov	r5,zero
 5094fb8:	dc000015 	stw	r16,0(sp)
 5094fbc:	dfc00115 	stw	ra,4(sp)
 5094fc0:	2021883a 	mov	r16,r4
 5094fc4:	509517c0 	call	509517c <__call_exitprocs>
 5094fc8:	00814274 	movhi	r2,1289
 5094fcc:	109eef04 	addi	r2,r2,31676
 5094fd0:	11000017 	ldw	r4,0(r2)
 5094fd4:	20800f17 	ldw	r2,60(r4)
 5094fd8:	10000126 	beq	r2,zero,5094fe0 <exit+0x30>
 5094fdc:	103ee83a 	callr	r2
 5094fe0:	8009883a 	mov	r4,r16
 5094fe4:	50952fc0 	call	50952fc <_exit>

05094fe8 <memcmp>:
 5094fe8:	01c000c4 	movi	r7,3
 5094fec:	3980192e 	bgeu	r7,r6,5095054 <memcmp+0x6c>
 5094ff0:	2144b03a 	or	r2,r4,r5
 5094ff4:	11c4703a 	and	r2,r2,r7
 5094ff8:	10000f26 	beq	r2,zero,5095038 <memcmp+0x50>
 5094ffc:	20800003 	ldbu	r2,0(r4)
 5095000:	28c00003 	ldbu	r3,0(r5)
 5095004:	10c0151e 	bne	r2,r3,509505c <memcmp+0x74>
 5095008:	31bfff84 	addi	r6,r6,-2
 509500c:	01ffffc4 	movi	r7,-1
 5095010:	00000406 	br	5095024 <memcmp+0x3c>
 5095014:	20800003 	ldbu	r2,0(r4)
 5095018:	28c00003 	ldbu	r3,0(r5)
 509501c:	31bfffc4 	addi	r6,r6,-1
 5095020:	10c00e1e 	bne	r2,r3,509505c <memcmp+0x74>
 5095024:	21000044 	addi	r4,r4,1
 5095028:	29400044 	addi	r5,r5,1
 509502c:	31fff91e 	bne	r6,r7,5095014 <__alt_data_end+0xfffc6e14>
 5095030:	0005883a 	mov	r2,zero
 5095034:	f800283a 	ret
 5095038:	20c00017 	ldw	r3,0(r4)
 509503c:	28800017 	ldw	r2,0(r5)
 5095040:	18bfee1e 	bne	r3,r2,5094ffc <__alt_data_end+0xfffc6dfc>
 5095044:	31bfff04 	addi	r6,r6,-4
 5095048:	21000104 	addi	r4,r4,4
 509504c:	29400104 	addi	r5,r5,4
 5095050:	39bff936 	bltu	r7,r6,5095038 <__alt_data_end+0xfffc6e38>
 5095054:	303fe91e 	bne	r6,zero,5094ffc <__alt_data_end+0xfffc6dfc>
 5095058:	003ff506 	br	5095030 <__alt_data_end+0xfffc6e30>
 509505c:	10c5c83a 	sub	r2,r2,r3
 5095060:	f800283a 	ret

05095064 <__register_exitproc>:
 5095064:	defffa04 	addi	sp,sp,-24
 5095068:	dc000315 	stw	r16,12(sp)
 509506c:	04014274 	movhi	r16,1289
 5095070:	841eef04 	addi	r16,r16,31676
 5095074:	80c00017 	ldw	r3,0(r16)
 5095078:	dc400415 	stw	r17,16(sp)
 509507c:	dfc00515 	stw	ra,20(sp)
 5095080:	18805217 	ldw	r2,328(r3)
 5095084:	2023883a 	mov	r17,r4
 5095088:	10003726 	beq	r2,zero,5095168 <__register_exitproc+0x104>
 509508c:	10c00117 	ldw	r3,4(r2)
 5095090:	010007c4 	movi	r4,31
 5095094:	20c00e16 	blt	r4,r3,50950d0 <__register_exitproc+0x6c>
 5095098:	1a000044 	addi	r8,r3,1
 509509c:	8800221e 	bne	r17,zero,5095128 <__register_exitproc+0xc4>
 50950a0:	18c00084 	addi	r3,r3,2
 50950a4:	18c7883a 	add	r3,r3,r3
 50950a8:	18c7883a 	add	r3,r3,r3
 50950ac:	12000115 	stw	r8,4(r2)
 50950b0:	10c7883a 	add	r3,r2,r3
 50950b4:	19400015 	stw	r5,0(r3)
 50950b8:	0005883a 	mov	r2,zero
 50950bc:	dfc00517 	ldw	ra,20(sp)
 50950c0:	dc400417 	ldw	r17,16(sp)
 50950c4:	dc000317 	ldw	r16,12(sp)
 50950c8:	dec00604 	addi	sp,sp,24
 50950cc:	f800283a 	ret
 50950d0:	00800034 	movhi	r2,0
 50950d4:	10800004 	addi	r2,r2,0
 50950d8:	10002626 	beq	r2,zero,5095174 <__register_exitproc+0x110>
 50950dc:	01006404 	movi	r4,400
 50950e0:	d9400015 	stw	r5,0(sp)
 50950e4:	d9800115 	stw	r6,4(sp)
 50950e8:	d9c00215 	stw	r7,8(sp)
 50950ec:	00000000 	call	0 <__alt_mem_sdram>
 50950f0:	d9400017 	ldw	r5,0(sp)
 50950f4:	d9800117 	ldw	r6,4(sp)
 50950f8:	d9c00217 	ldw	r7,8(sp)
 50950fc:	10001d26 	beq	r2,zero,5095174 <__register_exitproc+0x110>
 5095100:	81000017 	ldw	r4,0(r16)
 5095104:	10000115 	stw	zero,4(r2)
 5095108:	02000044 	movi	r8,1
 509510c:	22405217 	ldw	r9,328(r4)
 5095110:	0007883a 	mov	r3,zero
 5095114:	12400015 	stw	r9,0(r2)
 5095118:	20805215 	stw	r2,328(r4)
 509511c:	10006215 	stw	zero,392(r2)
 5095120:	10006315 	stw	zero,396(r2)
 5095124:	883fde26 	beq	r17,zero,50950a0 <__alt_data_end+0xfffc6ea0>
 5095128:	18c9883a 	add	r4,r3,r3
 509512c:	2109883a 	add	r4,r4,r4
 5095130:	1109883a 	add	r4,r2,r4
 5095134:	21802215 	stw	r6,136(r4)
 5095138:	01800044 	movi	r6,1
 509513c:	12406217 	ldw	r9,392(r2)
 5095140:	30cc983a 	sll	r6,r6,r3
 5095144:	4992b03a 	or	r9,r9,r6
 5095148:	12406215 	stw	r9,392(r2)
 509514c:	21c04215 	stw	r7,264(r4)
 5095150:	01000084 	movi	r4,2
 5095154:	893fd21e 	bne	r17,r4,50950a0 <__alt_data_end+0xfffc6ea0>
 5095158:	11006317 	ldw	r4,396(r2)
 509515c:	218cb03a 	or	r6,r4,r6
 5095160:	11806315 	stw	r6,396(r2)
 5095164:	003fce06 	br	50950a0 <__alt_data_end+0xfffc6ea0>
 5095168:	18805304 	addi	r2,r3,332
 509516c:	18805215 	stw	r2,328(r3)
 5095170:	003fc606 	br	509508c <__alt_data_end+0xfffc6e8c>
 5095174:	00bfffc4 	movi	r2,-1
 5095178:	003fd006 	br	50950bc <__alt_data_end+0xfffc6ebc>

0509517c <__call_exitprocs>:
 509517c:	defff504 	addi	sp,sp,-44
 5095180:	df000915 	stw	fp,36(sp)
 5095184:	dd400615 	stw	r21,24(sp)
 5095188:	dc800315 	stw	r18,12(sp)
 509518c:	dfc00a15 	stw	ra,40(sp)
 5095190:	ddc00815 	stw	r23,32(sp)
 5095194:	dd800715 	stw	r22,28(sp)
 5095198:	dd000515 	stw	r20,20(sp)
 509519c:	dcc00415 	stw	r19,16(sp)
 50951a0:	dc400215 	stw	r17,8(sp)
 50951a4:	dc000115 	stw	r16,4(sp)
 50951a8:	d9000015 	stw	r4,0(sp)
 50951ac:	2839883a 	mov	fp,r5
 50951b0:	04800044 	movi	r18,1
 50951b4:	057fffc4 	movi	r21,-1
 50951b8:	00814274 	movhi	r2,1289
 50951bc:	109eef04 	addi	r2,r2,31676
 50951c0:	12000017 	ldw	r8,0(r2)
 50951c4:	45005217 	ldw	r20,328(r8)
 50951c8:	44c05204 	addi	r19,r8,328
 50951cc:	a0001c26 	beq	r20,zero,5095240 <__call_exitprocs+0xc4>
 50951d0:	a0800117 	ldw	r2,4(r20)
 50951d4:	15ffffc4 	addi	r23,r2,-1
 50951d8:	b8000d16 	blt	r23,zero,5095210 <__call_exitprocs+0x94>
 50951dc:	14000044 	addi	r16,r2,1
 50951e0:	8421883a 	add	r16,r16,r16
 50951e4:	8421883a 	add	r16,r16,r16
 50951e8:	84402004 	addi	r17,r16,128
 50951ec:	a463883a 	add	r17,r20,r17
 50951f0:	a421883a 	add	r16,r20,r16
 50951f4:	e0001e26 	beq	fp,zero,5095270 <__call_exitprocs+0xf4>
 50951f8:	80804017 	ldw	r2,256(r16)
 50951fc:	e0801c26 	beq	fp,r2,5095270 <__call_exitprocs+0xf4>
 5095200:	bdffffc4 	addi	r23,r23,-1
 5095204:	843fff04 	addi	r16,r16,-4
 5095208:	8c7fff04 	addi	r17,r17,-4
 509520c:	bd7ff91e 	bne	r23,r21,50951f4 <__alt_data_end+0xfffc6ff4>
 5095210:	00800034 	movhi	r2,0
 5095214:	10800004 	addi	r2,r2,0
 5095218:	10000926 	beq	r2,zero,5095240 <__call_exitprocs+0xc4>
 509521c:	a0800117 	ldw	r2,4(r20)
 5095220:	1000301e 	bne	r2,zero,50952e4 <__call_exitprocs+0x168>
 5095224:	a0800017 	ldw	r2,0(r20)
 5095228:	10003226 	beq	r2,zero,50952f4 <__call_exitprocs+0x178>
 509522c:	a009883a 	mov	r4,r20
 5095230:	98800015 	stw	r2,0(r19)
 5095234:	00000000 	call	0 <__alt_mem_sdram>
 5095238:	9d000017 	ldw	r20,0(r19)
 509523c:	a03fe41e 	bne	r20,zero,50951d0 <__alt_data_end+0xfffc6fd0>
 5095240:	dfc00a17 	ldw	ra,40(sp)
 5095244:	df000917 	ldw	fp,36(sp)
 5095248:	ddc00817 	ldw	r23,32(sp)
 509524c:	dd800717 	ldw	r22,28(sp)
 5095250:	dd400617 	ldw	r21,24(sp)
 5095254:	dd000517 	ldw	r20,20(sp)
 5095258:	dcc00417 	ldw	r19,16(sp)
 509525c:	dc800317 	ldw	r18,12(sp)
 5095260:	dc400217 	ldw	r17,8(sp)
 5095264:	dc000117 	ldw	r16,4(sp)
 5095268:	dec00b04 	addi	sp,sp,44
 509526c:	f800283a 	ret
 5095270:	a0800117 	ldw	r2,4(r20)
 5095274:	80c00017 	ldw	r3,0(r16)
 5095278:	10bfffc4 	addi	r2,r2,-1
 509527c:	15c01426 	beq	r2,r23,50952d0 <__call_exitprocs+0x154>
 5095280:	80000015 	stw	zero,0(r16)
 5095284:	183fde26 	beq	r3,zero,5095200 <__alt_data_end+0xfffc7000>
 5095288:	95c8983a 	sll	r4,r18,r23
 509528c:	a0806217 	ldw	r2,392(r20)
 5095290:	a5800117 	ldw	r22,4(r20)
 5095294:	2084703a 	and	r2,r4,r2
 5095298:	10000b26 	beq	r2,zero,50952c8 <__call_exitprocs+0x14c>
 509529c:	a0806317 	ldw	r2,396(r20)
 50952a0:	2088703a 	and	r4,r4,r2
 50952a4:	20000c1e 	bne	r4,zero,50952d8 <__call_exitprocs+0x15c>
 50952a8:	89400017 	ldw	r5,0(r17)
 50952ac:	d9000017 	ldw	r4,0(sp)
 50952b0:	183ee83a 	callr	r3
 50952b4:	a0800117 	ldw	r2,4(r20)
 50952b8:	15bfbf1e 	bne	r2,r22,50951b8 <__alt_data_end+0xfffc6fb8>
 50952bc:	98800017 	ldw	r2,0(r19)
 50952c0:	153fcf26 	beq	r2,r20,5095200 <__alt_data_end+0xfffc7000>
 50952c4:	003fbc06 	br	50951b8 <__alt_data_end+0xfffc6fb8>
 50952c8:	183ee83a 	callr	r3
 50952cc:	003ff906 	br	50952b4 <__alt_data_end+0xfffc70b4>
 50952d0:	a5c00115 	stw	r23,4(r20)
 50952d4:	003feb06 	br	5095284 <__alt_data_end+0xfffc7084>
 50952d8:	89000017 	ldw	r4,0(r17)
 50952dc:	183ee83a 	callr	r3
 50952e0:	003ff406 	br	50952b4 <__alt_data_end+0xfffc70b4>
 50952e4:	a0800017 	ldw	r2,0(r20)
 50952e8:	a027883a 	mov	r19,r20
 50952ec:	1029883a 	mov	r20,r2
 50952f0:	003fb606 	br	50951cc <__alt_data_end+0xfffc6fcc>
 50952f4:	0005883a 	mov	r2,zero
 50952f8:	003ffb06 	br	50952e8 <__alt_data_end+0xfffc70e8>

050952fc <_exit>:
 *
 * ALT_EXIT is mapped onto the _exit() system call in alt_syscall.h
 */

void ALT_EXIT (int exit_code)
{
 50952fc:	defffd04 	addi	sp,sp,-12
 5095300:	df000215 	stw	fp,8(sp)
 5095304:	df000204 	addi	fp,sp,8
 5095308:	e13fff15 	stw	r4,-4(fp)
  ALT_LOG_PRINT_BOOT("[alt_exit.c] Entering _exit() function.\r\n");
  ALT_LOG_PRINT_BOOT("[alt_exit.c] Exit code from main was %d.\r\n",exit_code);
  /* Stop all other threads */

  ALT_LOG_PRINT_BOOT("[alt_exit.c] Calling ALT_OS_STOP().\r\n");
  ALT_OS_STOP();
 509530c:	0001883a 	nop
 5095310:	e0bfff17 	ldw	r2,-4(fp)
 5095314:	e0bffe15 	stw	r2,-8(fp)
/*
 * Routine called on exit.
 */
static ALT_INLINE ALT_ALWAYS_INLINE void alt_sim_halt(int exit_code)
{
  register int r2 asm ("r2") = exit_code;
 5095318:	e0bffe17 	ldw	r2,-8(fp)
  __asm__ volatile ("\n0:\n\taddi %0,%0, -1\n\tbgt %0,zero,0b" : : "r" (ALT_CPU_FREQ/100) ); /* Delay for >30ms */

  __asm__ volatile ("break 2" : : "r"(r2), "r"(r3) ALT_GMON_DATA );

#else /* !DEBUG_STUB */
  if (r2) {
 509531c:	10000226 	beq	r2,zero,5095328 <_exit+0x2c>
    ALT_SIM_FAIL();
 5095320:	002af070 	cmpltui	zero,zero,43969
 5095324:	00000106 	br	509532c <_exit+0x30>
  } else {
    ALT_SIM_PASS();
 5095328:	002af0b0 	cmpltui	zero,zero,43970
  ALT_SIM_HALT(exit_code);

  /* spin forever, since there's no where to go back to */

  ALT_LOG_PRINT_BOOT("[alt_exit.c] Spinning forever.\r\n");
  while (1);
 509532c:	003fff06 	br	509532c <__alt_data_end+0xfffc712c>
